---
triple:          'arm64-apple-darwin'
binary-path:     NeuralNetworks_VecSR
relocations:
  - { offsetInCU: 0x44, offset: 0x44, size: 0x8, addend: 0x0, symName: __ZN5EigenL4lastE, symObjAddr: 0x4552AD, symBinAddr: 0x1000942F0, symSize: 0x0 }
  - { offsetInCU: 0x2BCF, offset: 0x2BCF, size: 0x8, addend: 0x0, symName: __ZN5Eigen8internal31conditional_aligned_delete_autoIfLb1EEEvPT_m, symObjAddr: 0x5A7C, symBinAddr: 0x100008264, symSize: 0x28 }
  - { offsetInCU: 0x2C1B, offset: 0x2C1B, size: 0x8, addend: 0x0, symName: __ZN5Eigen8internal24conditional_aligned_freeILb1EEEvPv, symObjAddr: 0x5AA4, symBinAddr: 0x10000828C, symSize: 0x24 }
  - { offsetInCU: 0x2C4F, offset: 0x2C4F, size: 0x8, addend: 0x0, symName: __ZN5Eigen8internal12aligned_freeEPv, symObjAddr: 0x5AC8, symBinAddr: 0x1000082B0, symSize: 0x24 }
  - { offsetInCU: 0x2CDB, offset: 0x2CDB, size: 0x8, addend: 0x0, symName: __ZN5Eigen8internal19throw_std_bad_allocEv, symObjAddr: 0xE3B0, symBinAddr: 0x100010B98, symSize: 0x34 }
  - { offsetInCU: 0x2D17, offset: 0x2D17, size: 0x8, addend: 0x0, symName: __ZN5Eigen8internal28conditional_aligned_new_autoIfLb1EEEPT_m, symObjAddr: 0xE3E4, symBinAddr: 0x100010BCC, symSize: 0x84 }
  - { offsetInCU: 0x2D85, offset: 0x2D85, size: 0x8, addend: 0x0, symName: __ZN5Eigen8internal26conditional_aligned_mallocILb1EEEPvm, symObjAddr: 0xE468, symBinAddr: 0x100010C50, symSize: 0x24 }
  - { offsetInCU: 0x2DBB, offset: 0x2DBB, size: 0x8, addend: 0x0, symName: __ZN5Eigen8internal14aligned_mallocEm, symObjAddr: 0xE48C, symBinAddr: 0x100010C74, symSize: 0xDC }
  - { offsetInCU: 0x2DFC, offset: 0x2DFC, size: 0x8, addend: 0x0, symName: __ZN5Eigen8internal28check_that_malloc_is_allowedEv, symObjAddr: 0xE568, symBinAddr: 0x100010D50, symSize: 0x4 }
  - { offsetInCU: 0x2E15, offset: 0x2E15, size: 0x8, addend: 0x0, symName: __ZN5Eigen8internal22ignore_unused_variableIbEEvRKT_, symObjAddr: 0xEF30, symBinAddr: 0x100011718, symSize: 0x10 }
  - { offsetInCU: 0x2E44, offset: 0x2E44, size: 0x8, addend: 0x0, symName: __ZN5Eigen8internal22ignore_unused_variableIlEEvRKT_, symObjAddr: 0xF2F4, symBinAddr: 0x100011ADC, symSize: 0x10 }
  - { offsetInCU: 0x3482, offset: 0x3482, size: 0x8, addend: 0x0, symName: __ZN5Eigen8internalL21first_default_alignedINS_12CwiseUnaryOpINS0_14scalar_abs2_opIfEEKNS_13CwiseBinaryOpINS0_20scalar_difference_opIffEEKNS_6MatrixIfLin1ELi1ELi0ELin1ELi1EEESA_EEEEEElRKNS_9DenseBaseIT_EE, symObjAddr: 0x103FC, symBinAddr: 0x100012BE4, symSize: 0x24 }
  - { offsetInCU: 0x34B9, offset: 0x34B9, size: 0x8, addend: 0x0, symName: __ZN5Eigen8internalL13first_alignedILi16ENS_12CwiseUnaryOpINS0_14scalar_abs2_opIfEEKNS_13CwiseBinaryOpINS0_20scalar_difference_opIffEEKNS_6MatrixIfLin1ELi1ELi0ELin1ELi1EEESA_EEEEEElRKNS_9DenseBaseIT0_EE, symObjAddr: 0x10544, symBinAddr: 0x100012D2C, symSize: 0x28 }
  - { offsetInCU: 0x3538, offset: 0x3538, size: 0x8, addend: 0x0, symName: __ZN5Eigen8internal4pmulI19__simd128_float32_tEET_RKS3_S5_, symObjAddr: 0x10630, symBinAddr: 0x100012E18, symSize: 0x40 }
  - { offsetInCU: 0x35CF, offset: 0x35CF, size: 0x8, addend: 0x0, symName: __ZN5Eigen8internal4psubI19__simd128_float32_tEET_RKS3_S5_, symObjAddr: 0x106F0, symBinAddr: 0x100012ED8, symSize: 0x40 }
  - { offsetInCU: 0x3615, offset: 0x3615, size: 0x8, addend: 0x0, symName: __ZN5Eigen8internal5ploadI19__simd128_float32_tEET_PKNS0_15unpacket_traitsIS3_E4typeE, symObjAddr: 0x10730, symBinAddr: 0x100012F18, symSize: 0x28 }
  - { offsetInCU: 0x3669, offset: 0x3669, size: 0x8, addend: 0x0, symName: __ZN5Eigen8internal4paddI19__simd128_float32_tEET_RKS3_S5_, symObjAddr: 0x10758, symBinAddr: 0x100012F40, symSize: 0x40 }
  - { offsetInCU: 0x36AF, offset: 0x36AF, size: 0x8, addend: 0x0, symName: __ZN5Eigen8internal6preduxI19__simd128_float32_tEENS0_15unpacket_traitsIT_E4typeERKS4_, symObjAddr: 0x10798, symBinAddr: 0x100012F80, symSize: 0xAC }
  - { offsetInCU: 0x3797, offset: 0x3797, size: 0x8, addend: 0x0, symName: __ZN5Eigen8internal15call_assignmentINS_6MatrixIfLin1ELin1ELi0ELin1ELin1EEES3_EEvRT_RKT0_, symObjAddr: 0x236B0, symBinAddr: 0x100025E98, symSize: 0x50 }
  - { offsetInCU: 0x37E2, offset: 0x37E2, size: 0x8, addend: 0x0, symName: __ZN5Eigen8internal15call_assignmentINS_6MatrixIfLin1ELin1ELi0ELin1ELin1EEES3_NS0_9assign_opIffEEEEvRT_RKT0_RKT1_NS0_9enable_ifIXntsr25evaluator_assume_aliasingIS8_EE5valueEPvE4typeE, symObjAddr: 0x23700, symBinAddr: 0x100025EE8, symSize: 0x38 }
  - { offsetInCU: 0x3850, offset: 0x3850, size: 0x8, addend: 0x0, symName: __ZN5Eigen8internal24call_assignment_no_aliasINS_6MatrixIfLin1ELin1ELi0ELin1ELin1EEES3_NS0_9assign_opIffEEEEvRT_RKT0_RKT1_, symObjAddr: 0x23764, symBinAddr: 0x100025F4C, symSize: 0x3C }
  - { offsetInCU: 0x3928, offset: 0x3928, size: 0x8, addend: 0x0, symName: __ZN5Eigen8internal18check_for_aliasingINS_6MatrixIfLin1ELin1ELi0ELin1ELin1EEES3_EEvRKT_RKT0_, symObjAddr: 0x237E0, symBinAddr: 0x100025FC8, symSize: 0x60 }
  - { offsetInCU: 0x3973, offset: 0x3973, size: 0x8, addend: 0x0, symName: __ZN5Eigen8internal26call_dense_assignment_loopINS_6MatrixIfLin1ELin1ELi0ELin1ELin1EEES3_NS0_9assign_opIffEEEEvRT_RKT0_RKT1_, symObjAddr: 0x23840, symBinAddr: 0x100026028, symSize: 0xE0 }
  - { offsetInCU: 0x3A65, offset: 0x3A65, size: 0x8, addend: 0x0, symName: __ZN5Eigen8internal17resize_if_allowedINS_6MatrixIfLin1ELin1ELi0ELin1ELin1EEES3_ffEEvRT_RKT0_RKNS0_9assign_opIT1_T2_EE, symObjAddr: 0x23934, symBinAddr: 0x10002611C, symSize: 0xF8 }
  - { offsetInCU: 0x3BEB, offset: 0x3BEB, size: 0x8, addend: 0x0, symName: __ZN5Eigen8internal6pstoreIf19__simd128_float32_tEEvPT_RKT0_, symObjAddr: 0x23D68, symBinAddr: 0x100026550, symSize: 0x2C }
  - { offsetInCU: 0x3CA7, offset: 0x3CA7, size: 0x8, addend: 0x0, symName: __ZN5Eigen8internal17get_runtime_valueIlEElRKT_, symObjAddr: 0x28BA0, symBinAddr: 0x10002B388, symSize: 0x18 }
  - { offsetInCU: 0x3CDC, offset: 0x3CDC, size: 0x8, addend: 0x0, symName: __ZN5Eigen8internal15call_assignmentINS_6MatrixIfLin1ELi1ELi0ELin1ELi1EEENS_5BlockINS4_INS2_IfLin1ELin1ELi0ELin1ELin1EEELi1ELin1ELb0EEELi1ELin1ELb0EEEEEvRT_RKT0_, symObjAddr: 0x29360, symBinAddr: 0x10002BB48, symSize: 0x50 }
  - { offsetInCU: 0x3D27, offset: 0x3D27, size: 0x8, addend: 0x0, symName: __ZN5Eigen8internal15call_assignmentINS_6MatrixIfLin1ELi1ELi0ELin1ELi1EEENS_5BlockINS4_INS2_IfLin1ELin1ELi0ELin1ELin1EEELi1ELin1ELb0EEELi1ELin1ELb0EEENS0_9assign_opIffEEEEvRT_RKT0_RKT1_NS0_9enable_ifIXntsr25evaluator_assume_aliasingISC_EE5valueEPvE4typeE, symObjAddr: 0x293C4, symBinAddr: 0x10002BBAC, symSize: 0x38 }
  - { offsetInCU: 0x3D95, offset: 0x3D95, size: 0x8, addend: 0x0, symName: __ZN5Eigen8internal24call_assignment_no_aliasINS_6MatrixIfLin1ELi1ELi0ELin1ELi1EEENS_5BlockINS4_INS2_IfLin1ELin1ELi0ELin1ELin1EEELi1ELin1ELb0EEELi1ELin1ELb0EEENS0_9assign_opIffEEEEvRT_RKT0_RKT1_, symObjAddr: 0x293FC, symBinAddr: 0x10002BBE4, symSize: 0x44 }
  - { offsetInCU: 0x3E63, offset: 0x3E63, size: 0x8, addend: 0x0, symName: __ZN5Eigen8internal18check_for_aliasingINS_9TransposeINS_6MatrixIfLin1ELi1ELi0ELin1ELi1EEEEENS_5BlockINS6_INS3_IfLin1ELin1ELi0ELin1ELin1EEELi1ELin1ELb0EEELi1ELin1ELb0EEEEEvRKT_RKT0_, symObjAddr: 0x29558, symBinAddr: 0x10002BD40, symSize: 0x14 }
  - { offsetInCU: 0x3EAE, offset: 0x3EAE, size: 0x8, addend: 0x0, symName: __ZN5Eigen8internal26call_dense_assignment_loopINS_9TransposeINS_6MatrixIfLin1ELi1ELi0ELin1ELi1EEEEENS_5BlockINS6_INS3_IfLin1ELin1ELi0ELin1ELin1EEELi1ELin1ELb0EEELi1ELin1ELb0EEENS0_9assign_opIffEEEEvRT_RKT0_RKT1_, symObjAddr: 0x2956C, symBinAddr: 0x10002BD54, symSize: 0xE0 }
  - { offsetInCU: 0x4012, offset: 0x4012, size: 0x8, addend: 0x0, symName: __ZN5Eigen8internal17resize_if_allowedINS_9TransposeINS_6MatrixIfLin1ELi1ELi0ELin1ELi1EEEEENS_5BlockINS6_INS3_IfLin1ELin1ELi0ELin1ELin1EEELi1ELin1ELb0EEELi1ELin1ELb0EEEffEEvRT_RKT0_RKNS0_9assign_opIT1_T2_EE, symObjAddr: 0x29680, symBinAddr: 0x10002BE68, symSize: 0xF8 }
  - { offsetInCU: 0x446D, offset: 0x446D, size: 0x8, addend: 0x0, symName: __ZN5Eigen8internal15call_assignmentINS_6MatrixIfLin1ELi1ELi0ELin1ELi1EEES3_EEvRT_RKT0_, symObjAddr: 0x2A43C, symBinAddr: 0x10002CC24, symSize: 0x50 }
  - { offsetInCU: 0x44B8, offset: 0x44B8, size: 0x8, addend: 0x0, symName: __ZN5Eigen8internal15call_assignmentINS_6MatrixIfLin1ELi1ELi0ELin1ELi1EEES3_NS0_9assign_opIffEEEEvRT_RKT0_RKT1_NS0_9enable_ifIXntsr25evaluator_assume_aliasingIS8_EE5valueEPvE4typeE, symObjAddr: 0x2A48C, symBinAddr: 0x10002CC74, symSize: 0x38 }
  - { offsetInCU: 0x4526, offset: 0x4526, size: 0x8, addend: 0x0, symName: __ZN5Eigen8internal24call_assignment_no_aliasINS_6MatrixIfLin1ELi1ELi0ELin1ELi1EEES3_NS0_9assign_opIffEEEEvRT_RKT0_RKT1_, symObjAddr: 0x2A4C4, symBinAddr: 0x10002CCAC, symSize: 0x3C }
  - { offsetInCU: 0x45F4, offset: 0x45F4, size: 0x8, addend: 0x0, symName: __ZN5Eigen8internal18check_for_aliasingINS_6MatrixIfLin1ELi1ELi0ELin1ELi1EEES3_EEvRKT_RKT0_, symObjAddr: 0x2A540, symBinAddr: 0x10002CD28, symSize: 0x14 }
  - { offsetInCU: 0x463F, offset: 0x463F, size: 0x8, addend: 0x0, symName: __ZN5Eigen8internal26call_dense_assignment_loopINS_6MatrixIfLin1ELi1ELi0ELin1ELi1EEES3_NS0_9assign_opIffEEEEvRT_RKT0_RKT1_, symObjAddr: 0x2A554, symBinAddr: 0x10002CD3C, symSize: 0xE0 }
  - { offsetInCU: 0x46F3, offset: 0x46F3, size: 0x8, addend: 0x0, symName: __ZN5Eigen8internal17resize_if_allowedINS_6MatrixIfLin1ELi1ELi0ELin1ELi1EEES3_ffEEvRT_RKT0_RKNS0_9assign_opIT1_T2_EE, symObjAddr: 0x2A634, symBinAddr: 0x10002CE1C, symSize: 0xF8 }
  - { offsetInCU: 0x48EE, offset: 0x48EE, size: 0x8, addend: 0x0, symName: __ZN5EigenL6lastp1E, symObjAddr: 0x4552AE, symBinAddr: 0x1000942F1, symSize: 0x0 }
  - { offsetInCU: 0x4907, offset: 0x4907, size: 0x8, addend: 0x0, symName: __ZN5EigenL3allE, symObjAddr: 0x4552B1, symBinAddr: 0x1000942F4, symSize: 0x0 }
  - { offsetInCU: 0xECE4, offset: 0xECE4, size: 0x8, addend: 0x0, symName: __ZN5EigenL3fixILi1EEE, symObjAddr: 0x4552B0, symBinAddr: 0x1000942F3, symSize: 0x0 }
  - { offsetInCU: 0x1400E, offset: 0x1400E, size: 0x8, addend: 0x0, symName: __ZN5Eigen6numext4realIfEENS_8internal11real_retvalINS2_36global_math_functions_filtering_baseIT_vE4typeEE4typeERKS5_, symObjAddr: 0xF588, symBinAddr: 0x100011D70, symSize: 0x24 }
  - { offsetInCU: 0x14045, offset: 0x14045, size: 0x8, addend: 0x0, symName: __ZN5Eigen6numext4abs2IfEENS_8internal11abs2_retvalINS2_36global_math_functions_filtering_baseIT_vE4typeEE4typeERKS5_, symObjAddr: 0x108D0, symBinAddr: 0x1000130B8, symSize: 0x24 }
  - { offsetInCU: 0x1407C, offset: 0x1407C, size: 0x8, addend: 0x0, symName: __ZN5Eigen6numext4swapIPfEEvRT_S4_, symObjAddr: 0x26C98, symBinAddr: 0x100029480, symSize: 0x2C }
  - { offsetInCU: 0x140BE, offset: 0x140BE, size: 0x8, addend: 0x0, symName: __ZN5Eigen6numext4swapIlEEvRT_S3_, symObjAddr: 0x26CC4, symBinAddr: 0x1000294AC, symSize: 0x2C }
  - { offsetInCU: 0x36017, offset: 0x36017, size: 0x8, addend: 0x0, symName: __ZNSt3__16ranges5__cpo9iter_moveE, symObjAddr: 0x6F718, symBinAddr: 0x1000868F8, symSize: 0x0 }
  - { offsetInCU: 0x36065, offset: 0x36065, size: 0x8, addend: 0x0, symName: __ZNSt3__119piecewise_constructE, symObjAddr: 0x6F719, symBinAddr: 0x1000868F9, symSize: 0x0 }
  - { offsetInCU: 0x369C5, offset: 0x369C5, size: 0x8, addend: 0x0, symName: __ZNSt3__16chronomiB8ue170006IxNS_5ratioILl1ELl1000000000EEExS3_EENS_11common_typeIJNS0_8durationIT_T0_EENS5_IT1_T2_EEEE4typeERKS8_RKSB_, symObjAddr: 0x17168, symBinAddr: 0x100019950, symSize: 0x70 }
  - { offsetInCU: 0x36A32, offset: 0x36A32, size: 0x8, addend: 0x0, symName: __ZNSt3__16chronossB8ue170006IxNS_5ratioILl1ELl1EEExS3_EEDaRKNS0_8durationIT_T0_EERKNS5_IT1_T2_EE, symObjAddr: 0x1721C, symBinAddr: 0x100019A04, symSize: 0x8C }
  - { offsetInCU: 0x36A9F, offset: 0x36A9F, size: 0x8, addend: 0x0, symName: __ZNSt3__16chronossB8ue170006IxNS_5ratioILl1ELl1EEEeS3_EEDaRKNS0_8durationIT_T0_EERKNS5_IT1_T2_EE, symObjAddr: 0x1736C, symBinAddr: 0x100019B54, symSize: 0xA8 }
  - { offsetInCU: 0x36D6B, offset: 0x36D6B, size: 0x8, addend: 0x0, symName: __ZNSt3__16chronossB8ue170006IxNS_5ratioILl1ELl1000000000EEExNS2_ILl1ELl1EEEEEDaRKNS0_8durationIT_T0_EERKNS6_IT1_T2_EE, symObjAddr: 0x17468, symBinAddr: 0x100019C50, symSize: 0x94 }
  - { offsetInCU: 0x36DD8, offset: 0x36DD8, size: 0x8, addend: 0x0, symName: __ZNSt3__16chronossB8ue170006IxNS_5ratioILl1ELl1000000000EEExS3_EEDaRKNS0_8durationIT_T0_EERKNS5_IT1_T2_EE, symObjAddr: 0x38AC4, symBinAddr: 0x10003B2AC, symSize: 0x8C }
  - { offsetInCU: 0x36E45, offset: 0x36E45, size: 0x8, addend: 0x0, symName: __ZNSt3__16chronossB8ue170006IxNS_5ratioILl1ELl1000000000EEExNS2_ILl1ELl1000000EEEEEDaRKNS0_8durationIT_T0_EERKNS6_IT1_T2_EE, symObjAddr: 0x38DC0, symBinAddr: 0x10003B5A8, symSize: 0x94 }
  - { offsetInCU: 0x36F0C, offset: 0x36F0C, size: 0x8, addend: 0x0, symName: __ZNSt3__16chrono13duration_castB8ue170006INS0_8durationIxNS_5ratioILl1ELl1000000000EEEEExS4_EENS_9enable_ifIXsr13__is_durationIT_EE5valueES7_E4typeERKNS2_IT0_T1_EE, symObjAddr: 0x17024, symBinAddr: 0x10001980C, symSize: 0x30 }
  - { offsetInCU: 0x36F53, offset: 0x36F53, size: 0x8, addend: 0x0, symName: __ZNSt3__16chronomiB8ue170006INS0_12steady_clockENS0_8durationIxNS_5ratioILl1ELl1000000000EEEEES6_EENS_11common_typeIJT0_T1_EE4typeERKNS0_10time_pointIT_S8_EERKNSC_ISD_S9_EE, symObjAddr: 0x17054, symBinAddr: 0x10001983C, symSize: 0x58 }
  - { offsetInCU: 0x36FF6, offset: 0x36FF6, size: 0x8, addend: 0x0, symName: __ZNSt3__16chrono13duration_castB8ue170006INS0_8durationIxNS_5ratioILl1ELl1000000000EEEEExNS3_ILl1ELl1EEEEENS_9enable_ifIXsr13__is_durationIT_EE5valueES8_E4typeERKNS2_IT0_T1_EE, symObjAddr: 0x17414, symBinAddr: 0x100019BFC, symSize: 0x30 }
  - { offsetInCU: 0x3707D, offset: 0x3707D, size: 0x8, addend: 0x0, symName: __ZNSt3__16chrono13duration_castB8ue170006INS0_8durationIeNS_5ratioILl1ELl1EEEEExS4_EENS_9enable_ifIXsr13__is_durationIT_EE5valueES7_E4typeERKNS2_IT0_T1_EE, symObjAddr: 0x176B4, symBinAddr: 0x100019E9C, symSize: 0x30 }
  - { offsetInCU: 0x3710F, offset: 0x3710F, size: 0x8, addend: 0x0, symName: __ZNSt3__16chronoeqB8ue170006IxNS_5ratioILl1ELl1000000000EEExS3_EEbRKNS0_8durationIT_T0_EERKNS4_IT1_T2_EE, symObjAddr: 0x38A90, symBinAddr: 0x10003B278, symSize: 0x34 }
  - { offsetInCU: 0x371B9, offset: 0x371B9, size: 0x8, addend: 0x0, symName: __ZNSt3__16chrono13duration_castB8ue170006INS0_8durationIxNS_5ratioILl1ELl1000000000EEEEExNS3_ILl1ELl1000000EEEEENS_9enable_ifIXsr13__is_durationIT_EE5valueES8_E4typeERKNS2_IT0_T1_EE, symObjAddr: 0x38F30, symBinAddr: 0x10003B718, symSize: 0x30 }
  - { offsetInCU: 0x4A5E6, offset: 0x4A5E6, size: 0x8, addend: 0x0, symName: __ZNSt3__17advanceB8ue170006IPNS_4pairIifEEllvEEvRT_T0_, symObjAddr: 0x186D0, symBinAddr: 0x10001AEB8, symSize: 0x38 }
  - { offsetInCU: 0x4A866, offset: 0x4A866, size: 0x8, addend: 0x0, symName: __ZNSt3__17advanceB8ue170006INS_16reverse_iteratorIPNS_4pairIifEEEEllvEEvRT_T0_, symObjAddr: 0x18A9C, symBinAddr: 0x10001B284, symSize: 0x38 }
  - { offsetInCU: 0x4A8D1, offset: 0x4A8D1, size: 0x8, addend: 0x0, symName: __ZNSt3__117__cxx_atomic_loadB8ue170006IfEET_PKNS_22__cxx_atomic_base_implIS1_EENS_12memory_orderE, symObjAddr: 0x18E00, symBinAddr: 0x10001B5E8, symSize: 0x80 }
  - { offsetInCU: 0x4B692, offset: 0x4B692, size: 0x8, addend: 0x0, symName: __ZNSt3__17advanceB8ue170006IPKfllvEEvRT_T0_, symObjAddr: 0x20848, symBinAddr: 0x100023030, symSize: 0x38 }
  - { offsetInCU: 0x4C06C, offset: 0x4C06C, size: 0x8, addend: 0x0, symName: __ZNSt3__17advanceB8ue170006IPN5Eigen6MatrixIfLin1ELi1ELi0ELin1ELi1EEEllvEEvRT_T0_, symObjAddr: 0x27F04, symBinAddr: 0x10002A6EC, symSize: 0x38 }
  - { offsetInCU: 0x4C2EC, offset: 0x4C2EC, size: 0x8, addend: 0x0, symName: __ZNSt3__17advanceB8ue170006INS_16reverse_iteratorIPN5Eigen6MatrixIfLin1ELi1ELi0ELin1ELi1EEEEEllvEEvRT_T0_, symObjAddr: 0x282BC, symBinAddr: 0x10002AAA4, symSize: 0x38 }
  - { offsetInCU: 0x4C357, offset: 0x4C357, size: 0x8, addend: 0x0, symName: __ZNSt3__117__cxx_atomic_loadB8ue170006IjEET_PKNS_22__cxx_atomic_base_implIS1_EENS_12memory_orderE, symObjAddr: 0x2B240, symBinAddr: 0x10002DA28, symSize: 0x80 }
  - { offsetInCU: 0x4C3B4, offset: 0x4C3B4, size: 0x8, addend: 0x0, symName: __ZNSt3__17advanceB8ue170006IPKNS_12basic_stringIcNS_11char_traitsIcEENS_9allocatorIcEEEEllvEEvRT_T0_, symObjAddr: 0x2C370, symBinAddr: 0x10002EB58, symSize: 0x38 }
  - { offsetInCU: 0x4C771, offset: 0x4C771, size: 0x8, addend: 0x0, symName: __ZNSt3__17advanceB8ue170006IPNS_12basic_stringIcNS_11char_traitsIcEENS_9allocatorIcEEEEllvEEvRT_T0_, symObjAddr: 0x2CBD4, symBinAddr: 0x10002F3BC, symSize: 0x38 }
  - { offsetInCU: 0x4CB33, offset: 0x4CB33, size: 0x8, addend: 0x0, symName: __ZNSt3__17advanceB8ue170006INS_16reverse_iteratorIPNS_12basic_stringIcNS_11char_traitsIcEENS_9allocatorIcEEEEEEllvEEvRT_T0_, symObjAddr: 0x2DF4C, symBinAddr: 0x100030734, symSize: 0x38 }
  - { offsetInCU: 0x4D3A3, offset: 0x4D3A3, size: 0x8, addend: 0x0, symName: __ZNSt3__17advanceB8ue170006IPfllvEEvRT_T0_, symObjAddr: 0x37510, symBinAddr: 0x100039CF8, symSize: 0x38 }
  - { offsetInCU: 0x4D40E, offset: 0x4D40E, size: 0x8, addend: 0x0, symName: __ZNSt3__117__cxx_atomic_loadB8ue170006IlEET_PKNS_22__cxx_atomic_base_implIS1_EENS_12memory_orderE, symObjAddr: 0x38CF4, symBinAddr: 0x10003B4DC, symSize: 0x80 }
  - { offsetInCU: 0x4D6D0, offset: 0x4D6D0, size: 0x8, addend: 0x0, symName: __ZNSt3__117__cxx_atomic_loadB8ue170006IhEET_PKNS_22__cxx_atomic_base_implIS1_EENS_12memory_orderE, symObjAddr: 0x3DFB8, symBinAddr: 0x1000407A0, symSize: 0x80 }
  - { offsetInCU: 0x4D72D, offset: 0x4D72D, size: 0x8, addend: 0x0, symName: __ZNSt3__117__cxx_atomic_loadB8ue170006ImEET_PKNS_22__cxx_atomic_base_implIS1_EENS_12memory_orderE, symObjAddr: 0x3E2E8, symBinAddr: 0x100040AD0, symSize: 0x80 }
  - { offsetInCU: 0x4DDEE, offset: 0x4DDEE, size: 0x8, addend: 0x0, symName: __ZNSt3__16copy_nB8ue170006IPKcmPcEENS_9enable_ifIXsr37__has_random_access_iterator_categoryIT_EE5valueET1_E4typeES5_T0_S6_, symObjAddr: 0x4413C, symBinAddr: 0x100046924, symSize: 0x44 }
  - { offsetInCU: 0x4E1D3, offset: 0x4E1D3, size: 0x8, addend: 0x0, symName: __ZNSt3__17advanceB8ue170006IPNS_4pairIiiEEllvEEvRT_T0_, symObjAddr: 0x466B8, symBinAddr: 0x100048EA0, symSize: 0x38 }
  - { offsetInCU: 0x4E453, offset: 0x4E453, size: 0x8, addend: 0x0, symName: __ZNSt3__17advanceB8ue170006INS_16reverse_iteratorIPNS_4pairIiiEEEEllvEEvRT_T0_, symObjAddr: 0x46A70, symBinAddr: 0x100049258, symSize: 0x38 }
  - { offsetInCU: 0x4E4BE, offset: 0x4E4BE, size: 0x8, addend: 0x0, symName: __ZNSt3__17advanceB8ue170006INS_11__wrap_iterIPfEEllvEEvRT_T0_, symObjAddr: 0x47600, symBinAddr: 0x100049DE8, symSize: 0x38 }
  - { offsetInCU: 0x4E7F1, offset: 0x4E7F1, size: 0x8, addend: 0x0, symName: __ZNSt3__124__put_character_sequenceB8ue170006IcNS_11char_traitsIcEEEERNS_13basic_ostreamIT_T0_EES7_PKS4_m, symObjAddr: 0x49BE4, symBinAddr: 0x10004C3CC, symSize: 0x1EC }
  - { offsetInCU: 0x51897, offset: 0x51897, size: 0x8, addend: 0x0, symName: __ZNSt3__17advanceB8ue170006IPNS_4pairINS_6vectorIfNS_9allocatorIfEEEEfEEllvEEvRT_T0_, symObjAddr: 0x4E0E8, symBinAddr: 0x1000508D0, symSize: 0x38 }
  - { offsetInCU: 0x51B17, offset: 0x51B17, size: 0x8, addend: 0x0, symName: __ZNSt3__17advanceB8ue170006INS_16reverse_iteratorIPNS_4pairINS_6vectorIfNS_9allocatorIfEEEEfEEEEllvEEvRT_T0_, symObjAddr: 0x4E510, symBinAddr: 0x100050CF8, symSize: 0x38 }
  - { offsetInCU: 0x51B83, offset: 0x51B83, size: 0x8, addend: 0x0, symName: '__ZNSt3__111__introsortINS_17_ClassicAlgPolicyERZZ2GPRKN5Eigen6MatrixIfLin1ELin1ELi0ELin1ELin1EEEiNS_12basic_stringIcNS_11char_traitsIcEENS_9allocatorIcEEEEbdiPKcijNS_6vectorIiNSA_IiEEEENS_5dequeISC_NSA_ISC_EEEEmfffffffENK3$_2clEvEUlRNS_4pairINSF_IfNSA_IfEEEEfEESQ_E_PSP_Lb0EEEvT1_SU_T0_NS_15iterator_traitsISU_E15difference_typeEb', symObjAddr: 0x4F0A4, symBinAddr: 0x10005188C, symSize: 0x434 }
  - { offsetInCU: 0x51CAF, offset: 0x51CAF, size: 0x8, addend: 0x0, symName: '__ZNSt3__126__insertion_sort_unguardedB8ue170006INS_17_ClassicAlgPolicyERZZ2GPRKN5Eigen6MatrixIfLin1ELin1ELi0ELin1ELin1EEEiNS_12basic_stringIcNS_11char_traitsIcEENS_9allocatorIcEEEEbdiPKcijNS_6vectorIiNSA_IiEEEENS_5dequeISC_NSA_ISC_EEEEmfffffffENK3$_2clEvEUlRNS_4pairINSF_IfNSA_IfEEEEfEESQ_E_PSP_EEvT1_SU_T0_', symObjAddr: 0x4F7AC, symBinAddr: 0x100051F94, symSize: 0x158 }
  - { offsetInCU: 0x51D8B, offset: 0x51D8B, size: 0x8, addend: 0x0, symName: '__ZNSt3__111__sift_downB8ue170006INS_17_ClassicAlgPolicyERZZ2GPRKN5Eigen6MatrixIfLin1ELin1ELi0ELin1ELin1EEEiNS_12basic_stringIcNS_11char_traitsIcEENS_9allocatorIcEEEEbdiPKcijNS_6vectorIiNSA_IiEEEENS_5dequeISC_NSA_ISC_EEEEmfffffffENK3$_2clEvEUlRNS_4pairINSF_IfNSA_IfEEEEfEESQ_E_PSP_EEvT1_OT0_NS_15iterator_traitsISU_E15difference_typeESU_', symObjAddr: 0x50B50, symBinAddr: 0x100053338, symSize: 0x244 }
  - { offsetInCU: 0x51E39, offset: 0x51E39, size: 0x8, addend: 0x0, symName: '__ZNSt3__117__floyd_sift_downB8ue170006INS_17_ClassicAlgPolicyERZZ2GPRKN5Eigen6MatrixIfLin1ELin1ELi0ELin1ELin1EEEiNS_12basic_stringIcNS_11char_traitsIcEENS_9allocatorIcEEEEbdiPKcijNS_6vectorIiNSA_IiEEEENS_5dequeISC_NSA_ISC_EEEEmfffffffENK3$_2clEvEUlRNS_4pairINSF_IfNSA_IfEEEEfEESQ_E_PSP_EET1_SU_OT0_NS_15iterator_traitsISU_E15difference_typeE', symObjAddr: 0x50F74, symBinAddr: 0x10005375C, symSize: 0x100 }
  - { offsetInCU: 0x51ED1, offset: 0x51ED1, size: 0x8, addend: 0x0, symName: '__ZNSt3__131__partition_with_equals_on_leftB8ue170006INS_17_ClassicAlgPolicyEPNS_4pairINS_6vectorIfNS_9allocatorIfEEEEfEERZZ2GPRKN5Eigen6MatrixIfLin1ELin1ELi0ELin1ELin1EEEiNS_12basic_stringIcNS_11char_traitsIcEENS4_IcEEEEbdiPKcijNS3_IiNS4_IiEEEENS_5dequeISI_NS4_ISI_EEEEmfffffffENK3$_2clEvEUlRS7_SR_E_EET0_SU_SU_T1_', symObjAddr: 0x4FB10, symBinAddr: 0x1000522F8, symSize: 0x250 }
  - { offsetInCU: 0x51F8E, offset: 0x51F8E, size: 0x8, addend: 0x0, symName: '__ZNSt3__118__bitset_partitionB8ue170006INS_17_ClassicAlgPolicyEPNS_4pairINS_6vectorIfNS_9allocatorIfEEEEfEERZZ2GPRKN5Eigen6MatrixIfLin1ELin1ELi0ELin1ELin1EEEiNS_12basic_stringIcNS_11char_traitsIcEENS4_IcEEEEbdiPKcijNS3_IiNS4_IiEEEENS_5dequeISI_NS4_ISI_EEEEmfffffffENK3$_2clEvEUlRS7_SR_E_EENS2_IT0_bEESU_SU_T1_', symObjAddr: 0x4FD60, symBinAddr: 0x100052548, symSize: 0x37C }
  - { offsetInCU: 0x5208A, offset: 0x5208A, size: 0x8, addend: 0x0, symName: __ZNSt3__124__swap_bitmap_pos_withinB8ue170006INS_17_ClassicAlgPolicyEPNS_4pairINS_6vectorIfNS_9allocatorIfEEEEfEEEEvRT0_SA_RySB_, symObjAddr: 0x516F8, symBinAddr: 0x100053EE0, symSize: 0x1E0 }
  - { offsetInCU: 0x52157, offset: 0x52157, size: 0x8, addend: 0x0, symName: '__ZNSt3__132__partition_with_equals_on_rightB8ue170006INS_17_ClassicAlgPolicyEPNS_4pairINS_6vectorIfNS_9allocatorIfEEEEfEERZZ2GPRKN5Eigen6MatrixIfLin1ELin1ELi0ELin1ELin1EEEiNS_12basic_stringIcNS_11char_traitsIcEENS4_IcEEEEbdiPKcijNS3_IiNS4_IiEEEENS_5dequeISI_NS4_ISI_EEEEmfffffffENK3$_2clEvEUlRS7_SR_E_EENS2_IT0_bEESU_SU_T1_', symObjAddr: 0x500DC, symBinAddr: 0x1000528C4, symSize: 0x260 }
  - { offsetInCU: 0x52221, offset: 0x52221, size: 0x8, addend: 0x0, symName: '__ZNSt3__127__insertion_sort_incompleteB8ue170006INS_17_ClassicAlgPolicyERZZ2GPRKN5Eigen6MatrixIfLin1ELin1ELi0ELin1ELin1EEEiNS_12basic_stringIcNS_11char_traitsIcEENS_9allocatorIcEEEEbdiPKcijNS_6vectorIiNSA_IiEEEENS_5dequeISC_NSA_ISC_EEEEmfffffffENK3$_2clEvEUlRNS_4pairINSF_IfNSA_IfEEEEfEESQ_E_PSP_EEbT1_SU_T0_', symObjAddr: 0x5033C, symBinAddr: 0x100052B24, symSize: 0x360 }
  - { offsetInCU: 0x5D04E, offset: 0x5D04E, size: 0x8, addend: 0x0, symName: __ZNSt3__17advanceB8ue170006IPNS_4pairImfEEllvEEvRT_T0_, symObjAddr: 0x5E7E0, symBinAddr: 0x100060FC8, symSize: 0x38 }
  - { offsetInCU: 0x5D2CE, offset: 0x5D2CE, size: 0x8, addend: 0x0, symName: __ZNSt3__17advanceB8ue170006INS_16reverse_iteratorIPNS_4pairImfEEEEllvEEvRT_T0_, symObjAddr: 0x5EB98, symBinAddr: 0x100061380, symSize: 0x38 }
  - { offsetInCU: 0x5F18E, offset: 0x5F18E, size: 0x8, addend: 0x0, symName: __ZNSt3__17advanceB8ue170006IPNS_4pairINS_12basic_stringIcNS_11char_traitsIcEENS_9allocatorIcEEEEfEEllvEEvRT_T0_, symObjAddr: 0x61AA0, symBinAddr: 0x100064288, symSize: 0x38 }
  - { offsetInCU: 0x5F40E, offset: 0x5F40E, size: 0x8, addend: 0x0, symName: __ZNSt3__17advanceB8ue170006INS_16reverse_iteratorIPNS_4pairINS_12basic_stringIcNS_11char_traitsIcEENS_9allocatorIcEEEEfEEEEllvEEvRT_T0_, symObjAddr: 0x61EC8, symBinAddr: 0x1000646B0, symSize: 0x38 }
  - { offsetInCU: 0x6680C, offset: 0x6680C, size: 0x8, addend: 0x0, symName: __ZNSt3__1neB8ue170006IPNS_4pairIifEEEEbRKNS_11__wrap_iterIT_EES8_, symObjAddr: 0x25D8, symBinAddr: 0x100004DC0, symSize: 0x34 }
  - { offsetInCU: 0x6684F, offset: 0x6684F, size: 0x8, addend: 0x0, symName: __ZNSt3__1lsB8ue170006INS_11char_traitsIcEEEERNS_13basic_ostreamIcT_EES6_c, symObjAddr: 0x2730, symBinAddr: 0x100004F18, symSize: 0x34 }
  - { offsetInCU: 0x66895, offset: 0x66895, size: 0x8, addend: 0x0, symName: __ZNSt3__1lsB8ue170006INS_11char_traitsIcEEEERNS_13basic_ostreamIcT_EES6_PKc, symObjAddr: 0x2764, symBinAddr: 0x100004F4C, symSize: 0x48 }
  - { offsetInCU: 0x668DB, offset: 0x668DB, size: 0x8, addend: 0x0, symName: __ZNSt3__1lsB8ue170006IcNS_11char_traitsIcEENS_9allocatorIcEEEERNS_13basic_ostreamIT_T0_EES9_RKNS_12basic_stringIS6_S7_T1_EE, symObjAddr: 0x27F8, symBinAddr: 0x100004FE0, symSize: 0x4C }
  - { offsetInCU: 0x671B4, offset: 0x671B4, size: 0x8, addend: 0x0, symName: __ZNSt3__1neB8ue170006ERKNS_14__map_iteratorINS_15__tree_iteratorINS_12__value_typeIiNS_6vectorIfNS_9allocatorIfEEEEEEPNS_11__tree_nodeIS7_PvEElEEEESF_, symObjAddr: 0x2A4C, symBinAddr: 0x100005234, symSize: 0x30 }
  - { offsetInCU: 0x671F1, offset: 0x671F1, size: 0x8, addend: 0x0, symName: __ZNSt3__1neB8ue170006IPfEEbRKNS_11__wrap_iterIT_EES6_, symObjAddr: 0x2B04, symBinAddr: 0x1000052EC, symSize: 0x34 }
  - { offsetInCU: 0x6723F, offset: 0x6723F, size: 0x8, addend: 0x0, symName: __ZNSt3__1neB8ue170006IPNS_4pairImfEEEEbRKNS_11__wrap_iterIT_EES8_, symObjAddr: 0x45AC, symBinAddr: 0x100006D94, symSize: 0x34 }
  - { offsetInCU: 0x67282, offset: 0x67282, size: 0x8, addend: 0x0, symName: __ZNSt3__112__to_addressB8ue170006IfEEPT_S2_, symObjAddr: 0x56FC, symBinAddr: 0x100007EE4, symSize: 0x14 }
  - { offsetInCU: 0x672B7, offset: 0x672B7, size: 0x8, addend: 0x0, symName: __ZNSt3__110destroy_atB8ue170006IfLi0EEEvPT_, symObjAddr: 0x5710, symBinAddr: 0x100007EF8, symSize: 0x24 }
  - { offsetInCU: 0x672EF, offset: 0x672EF, size: 0x8, addend: 0x0, symName: __ZNSt3__112__destroy_atB8ue170006IfLi0EEEvPT_, symObjAddr: 0x5734, symBinAddr: 0x100007F1C, symSize: 0x10 }
  - { offsetInCU: 0x67326, offset: 0x67326, size: 0x8, addend: 0x0, symName: __ZNSt3__119__libcpp_deallocateB8ue170006EPvmm, symObjAddr: 0x57F4, symBinAddr: 0x100007FDC, symSize: 0x60 }
  - { offsetInCU: 0x6738B, offset: 0x6738B, size: 0x8, addend: 0x0, symName: __ZNSt3__124__is_overaligned_for_newB8ue170006Em, symObjAddr: 0x5854, symBinAddr: 0x10000803C, symSize: 0x20 }
  - { offsetInCU: 0x673B9, offset: 0x673B9, size: 0x8, addend: 0x0, symName: __ZNSt3__127__do_deallocate_handle_sizeB8ue170006IJSt11align_val_tEEEvPvmDpT_, symObjAddr: 0x5874, symBinAddr: 0x10000805C, symSize: 0x30 }
  - { offsetInCU: 0x6740C, offset: 0x6740C, size: 0x8, addend: 0x0, symName: __ZNSt3__127__do_deallocate_handle_sizeB8ue170006IJEEEvPvmDpT_, symObjAddr: 0x58A4, symBinAddr: 0x10000808C, symSize: 0x28 }
  - { offsetInCU: 0x6744A, offset: 0x6744A, size: 0x8, addend: 0x0, symName: __ZNSt3__124__libcpp_operator_deleteB8ue170006IJPvSt11align_val_tEEEvDpT_, symObjAddr: 0x58CC, symBinAddr: 0x1000080B4, symSize: 0x2C }
  - { offsetInCU: 0x67493, offset: 0x67493, size: 0x8, addend: 0x0, symName: __ZNSt3__124__libcpp_operator_deleteB8ue170006IJPvEEEvDpT_, symObjAddr: 0x58F8, symBinAddr: 0x1000080E0, symSize: 0x24 }
  - { offsetInCU: 0x674C8, offset: 0x674C8, size: 0x8, addend: 0x0, symName: __ZNSt3__112__to_addressB8ue170006INS_12basic_stringIcNS_11char_traitsIcEENS_9allocatorIcEEEEEEPT_S8_, symObjAddr: 0x6C84, symBinAddr: 0x10000946C, symSize: 0x14 }
  - { offsetInCU: 0x674FD, offset: 0x674FD, size: 0x8, addend: 0x0, symName: __ZNSt3__110destroy_atB8ue170006INS_12basic_stringIcNS_11char_traitsIcEENS_9allocatorIcEEEELi0EEEvPT_, symObjAddr: 0x6C98, symBinAddr: 0x100009480, symSize: 0x24 }
  - { offsetInCU: 0x67534, offset: 0x67534, size: 0x8, addend: 0x0, symName: __ZNSt3__112__destroy_atB8ue170006INS_12basic_stringIcNS_11char_traitsIcEENS_9allocatorIcEEEELi0EEEvPT_, symObjAddr: 0x6CBC, symBinAddr: 0x1000094A4, symSize: 0x24 }
  - { offsetInCU: 0x6756B, offset: 0x6756B, size: 0x8, addend: 0x0, symName: __ZNSt3__112__to_addressB8ue170006IN5Eigen6MatrixIfLin1ELi1ELi0ELin1ELi1EEEEEPT_S5_, symObjAddr: 0x7B74, symBinAddr: 0x10000A35C, symSize: 0x14 }
  - { offsetInCU: 0x675A0, offset: 0x675A0, size: 0x8, addend: 0x0, symName: __ZNSt3__110destroy_atB8ue170006IN5Eigen6MatrixIfLin1ELi1ELi0ELin1ELi1EEELi0EEEvPT_, symObjAddr: 0x7B88, symBinAddr: 0x10000A370, symSize: 0x24 }
  - { offsetInCU: 0x675D7, offset: 0x675D7, size: 0x8, addend: 0x0, symName: __ZNSt3__112__destroy_atB8ue170006IN5Eigen6MatrixIfLin1ELi1ELi0ELin1ELi1EEELi0EEEvPT_, symObjAddr: 0x7BAC, symBinAddr: 0x10000A394, symSize: 0x24 }
  - { offsetInCU: 0x67641, offset: 0x67641, size: 0x8, addend: 0x0, symName: __ZNSt3__110destroy_atB8ue170006INS_4pairIKNS_12basic_stringIcNS_11char_traitsIcEENS_9allocatorIcEEEEN5Eigen6MatrixIfLin1ELi1ELi0ELin1ELi1EEEEELi0EEEvPT_, symObjAddr: 0x7FC8, symBinAddr: 0x10000A7B0, symSize: 0x24 }
  - { offsetInCU: 0x67678, offset: 0x67678, size: 0x8, addend: 0x0, symName: __ZNSt3__112__destroy_atB8ue170006INS_4pairIKNS_12basic_stringIcNS_11char_traitsIcEENS_9allocatorIcEEEEN5Eigen6MatrixIfLin1ELi1ELi0ELin1ELi1EEEEELi0EEEvPT_, symObjAddr: 0x7FEC, symBinAddr: 0x10000A7D4, symSize: 0x24 }
  - { offsetInCU: 0x676AF, offset: 0x676AF, size: 0x8, addend: 0x0, symName: __ZNSt3__17launderB8ue170006INS_4pairIKNS_12basic_stringIcNS_11char_traitsIcEENS_9allocatorIcEEEEN5Eigen6MatrixIfLin1ELi1ELi0ELin1ELi1EEEEEEEPT_SE_, symObjAddr: 0x8098, symBinAddr: 0x10000A880, symSize: 0x24 }
  - { offsetInCU: 0x676E6, offset: 0x676E6, size: 0x8, addend: 0x0, symName: __ZNSt3__19__launderB8ue170006INS_4pairIKNS_12basic_stringIcNS_11char_traitsIcEENS_9allocatorIcEEEEN5Eigen6MatrixIfLin1ELi1ELi0ELin1ELi1EEEEEEEPT_SE_, symObjAddr: 0x80BC, symBinAddr: 0x10000A8A4, symSize: 0x14 }
  - { offsetInCU: 0x6771D, offset: 0x6771D, size: 0x8, addend: 0x0, symName: __ZNSt3__122__make_exception_guardB8ue170006INS_6vectorINS_6threadENS_9allocatorIS2_EEE16__destroy_vectorEEENS_28__exception_guard_exceptionsIT_EES8_, symObjAddr: 0x84CC, symBinAddr: 0x10000ACB4, symSize: 0x40 }
  - { offsetInCU: 0x67752, offset: 0x67752, size: 0x8, addend: 0x0, symName: __ZNSt3__119__allocate_at_leastB8ue170006INS_9allocatorINS_6threadEEEEENS_19__allocation_resultINS_16allocator_traitsIT_E7pointerEEERS6_m, symObjAddr: 0x88B8, symBinAddr: 0x10000B0A0, symSize: 0x40 }
  - { offsetInCU: 0x67795, offset: 0x67795, size: 0x8, addend: 0x0, symName: __ZNSt3__13minB8ue170006ImEERKT_S3_S3_, symObjAddr: 0x89F4, symBinAddr: 0x10000B1DC, symSize: 0x2C }
  - { offsetInCU: 0x679C4, offset: 0x679C4, size: 0x8, addend: 0x0, symName: __ZNSt3__13minB8ue170006ImNS_6__lessIvvEEEERKT_S5_S5_T0_, symObjAddr: 0x8A84, symBinAddr: 0x10000B26C, symSize: 0x54 }
  - { offsetInCU: 0x67AF7, offset: 0x67AF7, size: 0x8, addend: 0x0, symName: __ZNSt3__120__throw_length_errorB8ue170006EPKc, symObjAddr: 0x8B68, symBinAddr: 0x10000B350, symSize: 0x64 }
  - { offsetInCU: 0x67B21, offset: 0x67B21, size: 0x8, addend: 0x0, symName: __ZNSt3__117__libcpp_allocateB8ue170006Emm, symObjAddr: 0x8CD8, symBinAddr: 0x10000B4C0, symSize: 0x60 }
  - { offsetInCU: 0x67B7B, offset: 0x67B7B, size: 0x8, addend: 0x0, symName: __ZNSt3__121__libcpp_operator_newB8ue170006IJmSt11align_val_tEEEPvDpT_, symObjAddr: 0x8D38, symBinAddr: 0x10000B520, symSize: 0x2C }
  - { offsetInCU: 0x67BC8, offset: 0x67BC8, size: 0x8, addend: 0x0, symName: __ZNSt3__121__libcpp_operator_newB8ue170006IJmEEEPvDpT_, symObjAddr: 0x8D64, symBinAddr: 0x10000B54C, symSize: 0x24 }
  - { offsetInCU: 0x67C01, offset: 0x67C01, size: 0x8, addend: 0x0, symName: __ZNSt3__112__to_addressB8ue170006INS_6threadEEEPT_S3_, symObjAddr: 0x8E80, symBinAddr: 0x10000B668, symSize: 0x14 }
  - { offsetInCU: 0x67C5D, offset: 0x67C5D, size: 0x8, addend: 0x0, symName: __ZNSt3__112construct_atB8ue170006INS_6threadEJEPS1_EEPT_S4_DpOT0_, symObjAddr: 0x8FC8, symBinAddr: 0x10000B7B0, symSize: 0x34 }
  - { offsetInCU: 0x67CBA, offset: 0x67CBA, size: 0x8, addend: 0x0, symName: __ZNSt3__110destroy_atB8ue170006INS_6threadELi0EEEvPT_, symObjAddr: 0x9308, symBinAddr: 0x10000BAF0, symSize: 0x24 }
  - { offsetInCU: 0x67CF1, offset: 0x67CF1, size: 0x8, addend: 0x0, symName: __ZNSt3__112__destroy_atB8ue170006INS_6threadELi0EEEvPT_, symObjAddr: 0x932C, symBinAddr: 0x10000BB14, symSize: 0x24 }
  - { offsetInCU: 0x67D28, offset: 0x67D28, size: 0x8, addend: 0x0, symName: __ZNSt3__122__libcpp_thread_isnullB8ue170006EPKP17_opaque_pthread_t, symObjAddr: 0x9908, symBinAddr: 0x10000C0F0, symSize: 0x30 }
  - { offsetInCU: 0x67D56, offset: 0x67D56, size: 0x8, addend: 0x0, symName: __ZNSt3__122__libcpp_thread_get_idB8ue170006EPKP17_opaque_pthread_t, symObjAddr: 0x9938, symBinAddr: 0x10000C120, symSize: 0x18 }
  - { offsetInCU: 0x67D84, offset: 0x67D84, size: 0x8, addend: 0x0, symName: __ZNSt3__1eqB8ue170006IPNS_4pairIifEEEEbRKNS_11__wrap_iterIT_EES8_, symObjAddr: 0x99D4, symBinAddr: 0x10000C1BC, symSize: 0x48 }
  - { offsetInCU: 0x67DEE, offset: 0x67DEE, size: 0x8, addend: 0x0, symName: __ZNSt3__112construct_atB8ue170006IfJRKfEPfEEPT_S5_DpOT0_, symObjAddr: 0x9CD8, symBinAddr: 0x10000C4C0, symSize: 0x2C }
  - { offsetInCU: 0x67E5F, offset: 0x67E5F, size: 0x8, addend: 0x0, symName: __ZNSt3__13maxB8ue170006ImEERKT_S3_S3_, symObjAddr: 0x9FD4, symBinAddr: 0x10000C7BC, symSize: 0x2C }
  - { offsetInCU: 0x67EA2, offset: 0x67EA2, size: 0x8, addend: 0x0, symName: __ZNSt3__13maxB8ue170006ImNS_6__lessIvvEEEERKT_S5_S5_T0_, symObjAddr: 0xA088, symBinAddr: 0x10000C870, symSize: 0x54 }
  - { offsetInCU: 0x67EFC, offset: 0x67EFC, size: 0x8, addend: 0x0, symName: __ZNSt3__119__allocate_at_leastB8ue170006INS_9allocatorIfEEEENS_19__allocation_resultINS_16allocator_traitsIT_E7pointerEEERS5_m, symObjAddr: 0xA1EC, symBinAddr: 0x10000C9D4, symSize: 0x40 }
  - { offsetInCU: 0x67F3F, offset: 0x67F3F, size: 0x8, addend: 0x0, symName: __ZNSt3__142__uninitialized_allocator_move_if_noexceptB8ue170006INS_9allocatorIfEENS_16reverse_iteratorIPfEES5_fvEET1_RT_T0_S9_S6_, symObjAddr: 0xA3BC, symBinAddr: 0x10000CBA4, symSize: 0x78 }
  - { offsetInCU: 0x67FBC, offset: 0x67FBC, size: 0x8, addend: 0x0, symName: __ZNSt3__14swapB8ue170006IPfEENS_9enable_ifIXaasr21is_move_constructibleIT_EE5valuesr18is_move_assignableIS3_EE5valueEvE4typeERS3_S6_, symObjAddr: 0xA480, symBinAddr: 0x10000CC68, symSize: 0x3C }
  - { offsetInCU: 0x6800D, offset: 0x6800D, size: 0x8, addend: 0x0, symName: __ZNSt3__14moveB8ue170006INS_16reverse_iteratorIPfEES3_EET0_T_S5_S4_, symObjAddr: 0xA568, symBinAddr: 0x10000CD50, symSize: 0x78 }
  - { offsetInCU: 0x68067, offset: 0x68067, size: 0x8, addend: 0x0, symName: __ZNSt3__16__moveB8ue170006INS_17_ClassicAlgPolicyENS_16reverse_iteratorIPfEES4_S4_EENS_4pairIT0_T2_EES6_T1_S7_, symObjAddr: 0xA5E0, symBinAddr: 0x10000CDC8, symSize: 0x64 }
  - { offsetInCU: 0x680D3, offset: 0x680D3, size: 0x8, addend: 0x0, symName: __ZNSt3__123__dispatch_copy_or_moveB8ue170006INS_17_ClassicAlgPolicyENS_11__move_loopIS1_EENS_14__move_trivialENS_16reverse_iteratorIPfEES7_S7_EENS_4pairIT2_T4_EES9_T3_SA_, symObjAddr: 0xA644, symBinAddr: 0x10000CE2C, symSize: 0x64 }
  - { offsetInCU: 0x68151, offset: 0x68151, size: 0x8, addend: 0x0, symName: __ZNSt3__121__unwrap_and_dispatchB8ue170006INS_10__overloadINS_11__move_loopINS_17_ClassicAlgPolicyEEENS_14__move_trivialEEENS_16reverse_iteratorIPfEES9_S9_Li0EEENS_4pairIT0_T2_EESB_T1_SC_, symObjAddr: 0xA6A8, symBinAddr: 0x10000CE90, symSize: 0x12C }
  - { offsetInCU: 0x681E1, offset: 0x681E1, size: 0x8, addend: 0x0, symName: __ZNSt3__114__unwrap_rangeB8ue170006INS_16reverse_iteratorIPfEES3_EEDaT_T0_, symObjAddr: 0xA7D4, symBinAddr: 0x10000CFBC, symSize: 0x4C }
  - { offsetInCU: 0x6839B, offset: 0x6839B, size: 0x8, addend: 0x0, symName: __ZNSt3__113__unwrap_iterB8ue170006INS_16reverse_iteratorIPfEENS_18__unwrap_iter_implIS3_Lb0EEELi0EEEDTclsrT0_8__unwrapclsr3stdE7declvalIT_EEEES7_, symObjAddr: 0xA8C0, symBinAddr: 0x10000D0A8, symSize: 0x44 }
  - { offsetInCU: 0x683DF, offset: 0x683DF, size: 0x8, addend: 0x0, symName: __ZNSt3__19make_pairB8ue170006INS_16reverse_iteratorIPfEES3_EENS_4pairINS_18__unwrap_ref_decayIT_E4typeENS5_IT0_E4typeEEEOS6_OS9_, symObjAddr: 0xA904, symBinAddr: 0x10000D0EC, symSize: 0x38 }
  - { offsetInCU: 0x6842E, offset: 0x6842E, size: 0x8, addend: 0x0, symName: __ZNSt3__114__rewrap_rangeB8ue170006INS_16reverse_iteratorIPfEES3_S3_EET0_S4_T1_, symObjAddr: 0xA93C, symBinAddr: 0x10000D124, symSize: 0x5C }
  - { offsetInCU: 0x68483, offset: 0x68483, size: 0x8, addend: 0x0, symName: __ZNSt3__113__rewrap_iterB8ue170006INS_16reverse_iteratorIPfEES3_NS_18__unwrap_iter_implIS3_Lb0EEEEET_S6_T0_, symObjAddr: 0xA998, symBinAddr: 0x10000D180, symSize: 0x74 }
  - { offsetInCU: 0x68528, offset: 0x68528, size: 0x8, addend: 0x0, symName: __ZNSt3__1neB8ue170006IPfS1_EEbRKNS_16reverse_iteratorIT_EERKNS2_IT0_EE, symObjAddr: 0xAB00, symBinAddr: 0x10000D2E8, symSize: 0x48 }
  - { offsetInCU: 0x6874F, offset: 0x6874F, size: 0x8, addend: 0x0, symName: __ZNSt3__112__to_addressB8ue170006INS_4pairIifEEEEPT_S4_, symObjAddr: 0xB1D4, symBinAddr: 0x10000D9BC, symSize: 0x14 }
  - { offsetInCU: 0x68784, offset: 0x68784, size: 0x8, addend: 0x0, symName: __ZNSt3__110destroy_atB8ue170006INS_4pairIifEELi0EEEvPT_, symObjAddr: 0xB1E8, symBinAddr: 0x10000D9D0, symSize: 0x24 }
  - { offsetInCU: 0x687BC, offset: 0x687BC, size: 0x8, addend: 0x0, symName: __ZNSt3__112__destroy_atB8ue170006INS_4pairIifEELi0EEEvPT_, symObjAddr: 0xB20C, symBinAddr: 0x10000D9F4, symSize: 0x10 }
  - { offsetInCU: 0x687F3, offset: 0x687F3, size: 0x8, addend: 0x0, symName: __ZNSt3__1eqB8ue170006IPfEEbRKNS_11__wrap_iterIT_EES6_, symObjAddr: 0xB3E8, symBinAddr: 0x10000DBD0, symSize: 0x48 }
  - { offsetInCU: 0x68836, offset: 0x68836, size: 0x8, addend: 0x0, symName: __ZNSt3__1eqB8ue170006IPNS_4pairImfEEEEbRKNS_11__wrap_iterIT_EES8_, symObjAddr: 0xB6E8, symBinAddr: 0x10000DED0, symSize: 0x48 }
  - { offsetInCU: 0x68879, offset: 0x68879, size: 0x8, addend: 0x0, symName: __ZNSt3__112__to_addressB8ue170006INS_4pairImfEEEEPT_S4_, symObjAddr: 0xBAA0, symBinAddr: 0x10000E288, symSize: 0x14 }
  - { offsetInCU: 0x688AE, offset: 0x688AE, size: 0x8, addend: 0x0, symName: __ZNSt3__110destroy_atB8ue170006INS_4pairImfEELi0EEEvPT_, symObjAddr: 0xBAB4, symBinAddr: 0x10000E29C, symSize: 0x24 }
  - { offsetInCU: 0x688E6, offset: 0x688E6, size: 0x8, addend: 0x0, symName: __ZNSt3__112__destroy_atB8ue170006INS_4pairImfEELi0EEEvPT_, symObjAddr: 0xBAD8, symBinAddr: 0x10000E2C0, symSize: 0x10 }
  - { offsetInCU: 0x6891D, offset: 0x6891D, size: 0x8, addend: 0x0, symName: __ZNSt3__118__constexpr_strlenB8ue170006EPKc, symObjAddr: 0xBCBC, symBinAddr: 0x10000E4A4, symSize: 0x24 }
  - { offsetInCU: 0x68949, offset: 0x68949, size: 0x8, addend: 0x0, symName: __ZNSt3__122__make_exception_guardB8ue170006INS_6vectorIiNS_9allocatorIiEEE16__destroy_vectorEEENS_28__exception_guard_exceptionsIT_EES7_, symObjAddr: 0xBE3C, symBinAddr: 0x10000E624, symSize: 0x40 }
  - { offsetInCU: 0x6897E, offset: 0x6897E, size: 0x8, addend: 0x0, symName: __ZNSt3__119__allocate_at_leastB8ue170006INS_9allocatorIiEEEENS_19__allocation_resultINS_16allocator_traitsIT_E7pointerEEERS5_m, symObjAddr: 0xC23C, symBinAddr: 0x10000EA24, symSize: 0x40 }
  - { offsetInCU: 0x689C1, offset: 0x689C1, size: 0x8, addend: 0x0, symName: __ZNSt3__112__to_addressB8ue170006IiEEPT_S2_, symObjAddr: 0xC550, symBinAddr: 0x10000ED38, symSize: 0x14 }
  - { offsetInCU: 0x689F6, offset: 0x689F6, size: 0x8, addend: 0x0, symName: __ZNSt3__130__uninitialized_allocator_copyB8ue170006INS_9allocatorIiEEPKiS4_PiEET2_RT_T0_T1_S6_, symObjAddr: 0xC600, symBinAddr: 0x10000EDE8, symSize: 0x80 }
  - { offsetInCU: 0x68A93, offset: 0x68A93, size: 0x8, addend: 0x0, symName: __ZNSt3__114__unwrap_rangeB8ue170006IPKiS2_EEDaT_T0_, symObjAddr: 0xC6F0, symBinAddr: 0x10000EED8, symSize: 0x3C }
  - { offsetInCU: 0x68ADF, offset: 0x68ADF, size: 0x8, addend: 0x0, symName: __ZNSt3__135__uninitialized_allocator_copy_implB8ue170006INS_9allocatorIiEEKiiiLPv0EEEPT2_RT_PT0_SA_S6_, symObjAddr: 0xC72C, symBinAddr: 0x10000EF14, symSize: 0x38 }
  - { offsetInCU: 0x68B60, offset: 0x68B60, size: 0x8, addend: 0x0, symName: __ZNSt3__113__unwrap_iterB8ue170006IPiNS_18__unwrap_iter_implIS1_Lb1EEELi0EEEDTclsrT0_8__unwrapclsr3stdE7declvalIT_EEEES5_, symObjAddr: 0xC764, symBinAddr: 0x10000EF4C, symSize: 0x24 }
  - { offsetInCU: 0x68BA4, offset: 0x68BA4, size: 0x8, addend: 0x0, symName: __ZNSt3__113__rewrap_iterB8ue170006IPiS1_NS_18__unwrap_iter_implIS1_Lb1EEEEET_S4_T0_, symObjAddr: 0xC788, symBinAddr: 0x10000EF70, symSize: 0x3C }
  - { offsetInCU: 0x68D15, offset: 0x68D15, size: 0x8, addend: 0x0, symName: __ZNSt3__113__unwrap_iterB8ue170006IPKiNS_18__unwrap_iter_implIS2_Lb1EEELi0EEEDTclsrT0_8__unwrapclsr3stdE7declvalIT_EEEES6_, symObjAddr: 0xC81C, symBinAddr: 0x10000F004, symSize: 0x24 }
  - { offsetInCU: 0x68DAC, offset: 0x68DAC, size: 0x8, addend: 0x0, symName: __ZNSt3__112__to_addressB8ue170006IKiEEPT_S3_, symObjAddr: 0xC8A0, symBinAddr: 0x10000F088, symSize: 0x14 }
  - { offsetInCU: 0x68DE1, offset: 0x68DE1, size: 0x8, addend: 0x0, symName: __ZNSt3__14copyB8ue170006IPKiPiEET0_T_S5_S4_, symObjAddr: 0xC8E8, symBinAddr: 0x10000F0D0, symSize: 0x40 }
  - { offsetInCU: 0x68E3B, offset: 0x68E3B, size: 0x8, addend: 0x0, symName: __ZNSt3__16__copyB8ue170006INS_17_ClassicAlgPolicyEPKiS3_PiEENS_4pairIT0_T2_EES6_T1_S7_, symObjAddr: 0xC928, symBinAddr: 0x10000F110, symSize: 0x44 }
  - { offsetInCU: 0x68EA7, offset: 0x68EA7, size: 0x8, addend: 0x0, symName: __ZNSt3__123__dispatch_copy_or_moveB8ue170006INS_17_ClassicAlgPolicyENS_11__copy_loopIS1_EENS_14__copy_trivialEPKiS6_PiEENS_4pairIT2_T4_EES9_T3_SA_, symObjAddr: 0xC96C, symBinAddr: 0x10000F154, symSize: 0x44 }
  - { offsetInCU: 0x68F25, offset: 0x68F25, size: 0x8, addend: 0x0, symName: __ZNSt3__121__unwrap_and_dispatchB8ue170006INS_10__overloadINS_11__copy_loopINS_17_ClassicAlgPolicyEEENS_14__copy_trivialEEEPKiS8_PiLi0EEENS_4pairIT0_T2_EESB_T1_SC_, symObjAddr: 0xC9B0, symBinAddr: 0x10000F198, symSize: 0xB4 }
  - { offsetInCU: 0x691EC, offset: 0x691EC, size: 0x8, addend: 0x0, symName: __ZNSt3__19make_pairB8ue170006IPKiPiEENS_4pairINS_18__unwrap_ref_decayIT_E4typeENS5_IT0_E4typeEEEOS6_OS9_, symObjAddr: 0xCAAC, symBinAddr: 0x10000F294, symSize: 0x38 }
  - { offsetInCU: 0x6923B, offset: 0x6923B, size: 0x8, addend: 0x0, symName: __ZNSt3__114__rewrap_rangeB8ue170006IPKiS2_S2_EET0_S3_T1_, symObjAddr: 0xCAE4, symBinAddr: 0x10000F2CC, symSize: 0x2C }
  - { offsetInCU: 0x69290, offset: 0x69290, size: 0x8, addend: 0x0, symName: __ZNSt3__119__copy_trivial_implB8ue170006IKiiEENS_4pairIPT_PT0_EES4_S4_S6_, symObjAddr: 0xCB10, symBinAddr: 0x10000F2F8, symSize: 0x80 }
  - { offsetInCU: 0x692F8, offset: 0x692F8, size: 0x8, addend: 0x0, symName: __ZNSt3__119__constexpr_memmoveB8ue170006IiKiLi0EEEPT_S3_PT0_NS_15__element_countE, symObjAddr: 0xCB90, symBinAddr: 0x10000F378, symSize: 0x64 }
  - { offsetInCU: 0x69366, offset: 0x69366, size: 0x8, addend: 0x0, symName: __ZNSt3__19make_pairB8ue170006IRPKiPiEENS_4pairINS_18__unwrap_ref_decayIT_E4typeENS6_IT0_E4typeEEEOS7_OSA_, symObjAddr: 0xCBF4, symBinAddr: 0x10000F3DC, symSize: 0x38 }
  - { offsetInCU: 0x693B5, offset: 0x693B5, size: 0x8, addend: 0x0, symName: __ZNSt3__113__rewrap_iterB8ue170006IPKiS2_NS_18__unwrap_iter_implIS2_Lb1EEEEET_S5_T0_, symObjAddr: 0xCD38, symBinAddr: 0x10000F520, symSize: 0x3C }
  - { offsetInCU: 0x6945D, offset: 0x6945D, size: 0x8, addend: 0x0, symName: __ZNSt3__110destroy_atB8ue170006IiLi0EEEvPT_, symObjAddr: 0xD100, symBinAddr: 0x10000F8E8, symSize: 0x24 }
  - { offsetInCU: 0x69495, offset: 0x69495, size: 0x8, addend: 0x0, symName: __ZNSt3__112__destroy_atB8ue170006IiLi0EEEvPT_, symObjAddr: 0xD124, symBinAddr: 0x10000F90C, symSize: 0x10 }
  - { offsetInCU: 0x694FF, offset: 0x694FF, size: 0x8, addend: 0x0, symName: __ZNSt3__110destroy_atB8ue170006INS_4pairIKfNS_12basic_stringIcNS_11char_traitsIcEENS_9allocatorIcEEEEEELi0EEEvPT_, symObjAddr: 0xDB64, symBinAddr: 0x10001034C, symSize: 0x24 }
  - { offsetInCU: 0x69536, offset: 0x69536, size: 0x8, addend: 0x0, symName: __ZNSt3__112__destroy_atB8ue170006INS_4pairIKfNS_12basic_stringIcNS_11char_traitsIcEENS_9allocatorIcEEEEEELi0EEEvPT_, symObjAddr: 0xDB88, symBinAddr: 0x100010370, symSize: 0x24 }
  - { offsetInCU: 0x6956D, offset: 0x6956D, size: 0x8, addend: 0x0, symName: __ZNSt3__17launderB8ue170006INS_4pairIKfNS_12basic_stringIcNS_11char_traitsIcEENS_9allocatorIcEEEEEEEEPT_SB_, symObjAddr: 0xDC2C, symBinAddr: 0x100010414, symSize: 0x24 }
  - { offsetInCU: 0x695A4, offset: 0x695A4, size: 0x8, addend: 0x0, symName: __ZNSt3__19__launderB8ue170006INS_4pairIKfNS_12basic_stringIcNS_11char_traitsIcEENS_9allocatorIcEEEEEEEEPT_SB_, symObjAddr: 0xDC50, symBinAddr: 0x100010438, symSize: 0x14 }
  - { offsetInCU: 0x695FF, offset: 0x695FF, size: 0x8, addend: 0x0, symName: __ZNSt3__118generate_canonicalB8ue170006IfLm24ENS_23mersenne_twister_engineIjLm32ELm624ELm397ELm31ELj2567483615ELm11ELj4294967295ELm7ELj2636928640ELm15ELj4022730752ELm18ELj1812433253EEEEET_RT1_, symObjAddr: 0xEABC, symBinAddr: 0x1000112A4, symSize: 0x11C }
  - { offsetInCU: 0x696C5, offset: 0x696C5, size: 0x8, addend: 0x0, symName: __ZNSt3__118__cxx_atomic_storeB8ue170006IhEEvPNS_22__cxx_atomic_base_implIT_EES2_NS_12memory_orderE, symObjAddr: 0x1184C, symBinAddr: 0x100014034, symSize: 0x84 }
  - { offsetInCU: 0x697D5, offset: 0x697D5, size: 0x8, addend: 0x0, symName: __ZNSt3__110destroy_atB8ue170006INS_4pairIKNS_12basic_stringIcNS_11char_traitsIcEENS_9allocatorIcEEEEfEELi0EEEvPT_, symObjAddr: 0x129C8, symBinAddr: 0x1000151B0, symSize: 0x24 }
  - { offsetInCU: 0x6980C, offset: 0x6980C, size: 0x8, addend: 0x0, symName: __ZNSt3__112__destroy_atB8ue170006INS_4pairIKNS_12basic_stringIcNS_11char_traitsIcEENS_9allocatorIcEEEEfEELi0EEEvPT_, symObjAddr: 0x129EC, symBinAddr: 0x1000151D4, symSize: 0x24 }
  - { offsetInCU: 0x69843, offset: 0x69843, size: 0x8, addend: 0x0, symName: __ZNSt3__17launderB8ue170006INS_4pairIKNS_12basic_stringIcNS_11char_traitsIcEENS_9allocatorIcEEEEfEEEEPT_SB_, symObjAddr: 0x12A8C, symBinAddr: 0x100015274, symSize: 0x24 }
  - { offsetInCU: 0x6987A, offset: 0x6987A, size: 0x8, addend: 0x0, symName: __ZNSt3__19__launderB8ue170006INS_4pairIKNS_12basic_stringIcNS_11char_traitsIcEENS_9allocatorIcEEEEfEEEEPT_SB_, symObjAddr: 0x12AB0, symBinAddr: 0x100015298, symSize: 0x14 }
  - { offsetInCU: 0x698E4, offset: 0x698E4, size: 0x8, addend: 0x0, symName: __ZNSt3__110destroy_atB8ue170006INS_4pairIKbNS_13unordered_mapIbNS3_IbNS_6vectorIfNS_9allocatorIfEEEENS_4hashIbEENS_8equal_toIbEENS5_INS1_IS2_S7_EEEEEES9_SB_NS5_INS1_IS2_SE_EEEEEEEELi0EEEvPT_, symObjAddr: 0x13650, symBinAddr: 0x100015E38, symSize: 0x24 }
  - { offsetInCU: 0x6991B, offset: 0x6991B, size: 0x8, addend: 0x0, symName: __ZNSt3__112__destroy_atB8ue170006INS_4pairIKbNS_13unordered_mapIbNS3_IbNS_6vectorIfNS_9allocatorIfEEEENS_4hashIbEENS_8equal_toIbEENS5_INS1_IS2_S7_EEEEEES9_SB_NS5_INS1_IS2_SE_EEEEEEEELi0EEEvPT_, symObjAddr: 0x13674, symBinAddr: 0x100015E5C, symSize: 0x24 }
  - { offsetInCU: 0x69985, offset: 0x69985, size: 0x8, addend: 0x0, symName: __ZNSt3__110destroy_atB8ue170006INS_4pairIKbNS_13unordered_mapIbNS_6vectorIfNS_9allocatorIfEEEENS_4hashIbEENS_8equal_toIbEENS5_INS1_IS2_S7_EEEEEEEELi0EEEvPT_, symObjAddr: 0x139D0, symBinAddr: 0x1000161B8, symSize: 0x24 }
  - { offsetInCU: 0x699BC, offset: 0x699BC, size: 0x8, addend: 0x0, symName: __ZNSt3__112__destroy_atB8ue170006INS_4pairIKbNS_13unordered_mapIbNS_6vectorIfNS_9allocatorIfEEEENS_4hashIbEENS_8equal_toIbEENS5_INS1_IS2_S7_EEEEEEEELi0EEEvPT_, symObjAddr: 0x139F4, symBinAddr: 0x1000161DC, symSize: 0x24 }
  - { offsetInCU: 0x69A26, offset: 0x69A26, size: 0x8, addend: 0x0, symName: __ZNSt3__110destroy_atB8ue170006INS_4pairIKbNS_6vectorIfNS_9allocatorIfEEEEEELi0EEEvPT_, symObjAddr: 0x13D50, symBinAddr: 0x100016538, symSize: 0x24 }
  - { offsetInCU: 0x69A5D, offset: 0x69A5D, size: 0x8, addend: 0x0, symName: __ZNSt3__112__destroy_atB8ue170006INS_4pairIKbNS_6vectorIfNS_9allocatorIfEEEEEELi0EEEvPT_, symObjAddr: 0x13D74, symBinAddr: 0x10001655C, symSize: 0x24 }
  - { offsetInCU: 0x69A94, offset: 0x69A94, size: 0x8, addend: 0x0, symName: __ZNSt3__17launderB8ue170006INS_4pairIKbNS_6vectorIfNS_9allocatorIfEEEEEEEEPT_S9_, symObjAddr: 0x13E18, symBinAddr: 0x100016600, symSize: 0x24 }
  - { offsetInCU: 0x69ACB, offset: 0x69ACB, size: 0x8, addend: 0x0, symName: __ZNSt3__19__launderB8ue170006INS_4pairIKbNS_6vectorIfNS_9allocatorIfEEEEEEEEPT_S9_, symObjAddr: 0x13E3C, symBinAddr: 0x100016624, symSize: 0x14 }
  - { offsetInCU: 0x69B02, offset: 0x69B02, size: 0x8, addend: 0x0, symName: __ZNSt3__17launderB8ue170006INS_4pairIKbNS_13unordered_mapIbNS_6vectorIfNS_9allocatorIfEEEENS_4hashIbEENS_8equal_toIbEENS5_INS1_IS2_S7_EEEEEEEEEEPT_SH_, symObjAddr: 0x1414C, symBinAddr: 0x100016934, symSize: 0x24 }
  - { offsetInCU: 0x69B39, offset: 0x69B39, size: 0x8, addend: 0x0, symName: __ZNSt3__19__launderB8ue170006INS_4pairIKbNS_13unordered_mapIbNS_6vectorIfNS_9allocatorIfEEEENS_4hashIbEENS_8equal_toIbEENS5_INS1_IS2_S7_EEEEEEEEEEPT_SH_, symObjAddr: 0x14170, symBinAddr: 0x100016958, symSize: 0x14 }
  - { offsetInCU: 0x69B70, offset: 0x69B70, size: 0x8, addend: 0x0, symName: __ZNSt3__17launderB8ue170006INS_4pairIKbNS_13unordered_mapIbNS3_IbNS_6vectorIfNS_9allocatorIfEEEENS_4hashIbEENS_8equal_toIbEENS5_INS1_IS2_S7_EEEEEES9_SB_NS5_INS1_IS2_SE_EEEEEEEEEEPT_SK_, symObjAddr: 0x1447C, symBinAddr: 0x100016C64, symSize: 0x24 }
  - { offsetInCU: 0x69BA7, offset: 0x69BA7, size: 0x8, addend: 0x0, symName: __ZNSt3__19__launderB8ue170006INS_4pairIKbNS_13unordered_mapIbNS3_IbNS_6vectorIfNS_9allocatorIfEEEENS_4hashIbEENS_8equal_toIbEENS5_INS1_IS2_S7_EEEEEES9_SB_NS5_INS1_IS2_SE_EEEEEEEEEEPT_SK_, symObjAddr: 0x144A0, symBinAddr: 0x100016C88, symSize: 0x14 }
  - { offsetInCU: 0x69BDE, offset: 0x69BDE, size: 0x8, addend: 0x0, symName: __ZNSt3__1neB8ue170006ERKNS_16__deque_iteratorINS_12basic_stringIcNS_11char_traitsIcEENS_9allocatorIcEEEEPS6_RS6_PS7_lLl170EEESC_, symObjAddr: 0x14CB4, symBinAddr: 0x10001749C, symSize: 0x34 }
  - { offsetInCU: 0x69C1B, offset: 0x69C1B, size: 0x8, addend: 0x0, symName: __ZNSt3__1eqB8ue170006ERKNS_16__deque_iteratorINS_12basic_stringIcNS_11char_traitsIcEENS_9allocatorIcEEEEPS6_RS6_PS7_lLl170EEESC_, symObjAddr: 0x14FDC, symBinAddr: 0x1000177C4, symSize: 0x30 }
  - { offsetInCU: 0x69C58, offset: 0x69C58, size: 0x8, addend: 0x0, symName: __ZNSt3__112__to_addressB8ue170006IPNS_12basic_stringIcNS_11char_traitsIcEENS_9allocatorIcEEEEEEPT_S9_, symObjAddr: 0x159BC, symBinAddr: 0x1000181A4, symSize: 0x14 }
  - { offsetInCU: 0x69C8D, offset: 0x69C8D, size: 0x8, addend: 0x0, symName: __ZNSt3__110destroy_atB8ue170006IPNS_12basic_stringIcNS_11char_traitsIcEENS_9allocatorIcEEEELi0EEEvPT_, symObjAddr: 0x159D0, symBinAddr: 0x1000181B8, symSize: 0x24 }
  - { offsetInCU: 0x69CC5, offset: 0x69CC5, size: 0x8, addend: 0x0, symName: __ZNSt3__112__destroy_atB8ue170006IPNS_12basic_stringIcNS_11char_traitsIcEENS_9allocatorIcEEEELi0EEEvPT_, symObjAddr: 0x159F4, symBinAddr: 0x1000181DC, symSize: 0x10 }
  - { offsetInCU: 0x69D2F, offset: 0x69D2F, size: 0x8, addend: 0x0, symName: __ZNSt3__110destroy_atB8ue170006INS_4pairIKiNS_6vectorIfNS_9allocatorIfEEEEEELi0EEEvPT_, symObjAddr: 0x16108, symBinAddr: 0x1000188F0, symSize: 0x24 }
  - { offsetInCU: 0x69D66, offset: 0x69D66, size: 0x8, addend: 0x0, symName: __ZNSt3__112__destroy_atB8ue170006INS_4pairIKiNS_6vectorIfNS_9allocatorIfEEEEEELi0EEEvPT_, symObjAddr: 0x1612C, symBinAddr: 0x100018914, symSize: 0x24 }
  - { offsetInCU: 0x69D9D, offset: 0x69D9D, size: 0x8, addend: 0x0, symName: __ZNSt3__17launderB8ue170006INS_4pairIKiNS_6vectorIfNS_9allocatorIfEEEEEEEEPT_S9_, symObjAddr: 0x161D0, symBinAddr: 0x1000189B8, symSize: 0x24 }
  - { offsetInCU: 0x69DD4, offset: 0x69DD4, size: 0x8, addend: 0x0, symName: __ZNSt3__19__launderB8ue170006INS_4pairIKiNS_6vectorIfNS_9allocatorIfEEEEEEEEPT_S9_, symObjAddr: 0x161F4, symBinAddr: 0x1000189DC, symSize: 0x14 }
  - { offsetInCU: 0x6A22A, offset: 0x6A22A, size: 0x8, addend: 0x0, symName: __ZNSt3__122__libcpp_thread_createB8ue170006EPP17_opaque_pthread_tPFPvS3_ES3_, symObjAddr: 0x16498, symBinAddr: 0x100018C80, symSize: 0x38 }
  - { offsetInCU: 0x6A277, offset: 0x6A277, size: 0x8, addend: 0x0, symName: '__ZNSt3__114__thread_proxyB8ue170006INS_5tupleIJNS_10unique_ptrINS_15__thread_structENS_14default_deleteIS3_EEEEZ18SimulatedAnnealingRKN5Eigen6MatrixIfLin1ELin1ELi0ELin1ELin1EEEiNS_12basic_stringIcNS_11char_traitsIcEENS_9allocatorIcEEEEbdiPKcijNS_6vectorIiNSF_IiEEEENS_5dequeISH_NSF_ISH_EEEEmfffffffE3$_0EEEEEPvSS_', symObjAddr: 0x164D0, symBinAddr: 0x100018CB8, symSize: 0x90 }
  - { offsetInCU: 0x6A3D6, offset: 0x6A3D6, size: 0x8, addend: 0x0, symName: '__ZNSt3__13getB8ue170006ILm0EJNS_10unique_ptrINS_15__thread_structENS_14default_deleteIS2_EEEEZ18SimulatedAnnealingRKN5Eigen6MatrixIfLin1ELin1ELi0ELin1ELin1EEEiNS_12basic_stringIcNS_11char_traitsIcEENS_9allocatorIcEEEEbdiPKcijNS_6vectorIiNSE_IiEEEENS_5dequeISG_NSE_ISG_EEEEmfffffffE3$_0EEERNS_13tuple_elementIXT_ENS_5tupleIJDpT0_EEEE4typeERSU_', symObjAddr: 0x16B98, symBinAddr: 0x100019380, symSize: 0x24 }
  - { offsetInCU: 0x6A41F, offset: 0x6A41F, size: 0x8, addend: 0x0, symName: '__ZNSt3__116__thread_executeB8ue170006INS_10unique_ptrINS_15__thread_structENS_14default_deleteIS2_EEEEZ18SimulatedAnnealingRKN5Eigen6MatrixIfLin1ELin1ELi0ELin1ELin1EEEiNS_12basic_stringIcNS_11char_traitsIcEENS_9allocatorIcEEEEbdiPKcijNS_6vectorIiNSE_IiEEEENS_5dequeISG_NSE_ISG_EEEEmfffffffE3$_0JEJEEEvRNS_5tupleIJT_T0_DpT1_EEENS_15__tuple_indicesIJXspT2_EEEE', symObjAddr: 0x16BBC, symBinAddr: 0x1000193A4, symSize: 0x28 }
  - { offsetInCU: 0x6A46E, offset: 0x6A46E, size: 0x8, addend: 0x0, symName: __ZNSt3__116__libcpp_tls_setB8ue170006EmPv, symObjAddr: 0x16BE4, symBinAddr: 0x1000193CC, symSize: 0x2C }
  - { offsetInCU: 0x6A4AC, offset: 0x6A4AC, size: 0x8, addend: 0x0, symName: '__ZNSt3__18__invokeB8ue170006IZ18SimulatedAnnealingRKN5Eigen6MatrixIfLin1ELin1ELi0ELin1ELin1EEEiNS_12basic_stringIcNS_11char_traitsIcEENS_9allocatorIcEEEEbdiPKcijNS_6vectorIiNS9_IiEEEENS_5dequeISB_NS9_ISB_EEEEmfffffffE3$_0JEEEDTclclsr3stdE7declvalIT_EEspclsr3stdE7declvalIT0_EEEEOSL_DpOSM_', symObjAddr: 0x16C24, symBinAddr: 0x10001940C, symSize: 0x24 }
  - { offsetInCU: 0x6A4E4, offset: 0x6A4E4, size: 0x8, addend: 0x0, symName: '__ZNSt3__13getB8ue170006ILm1EJNS_10unique_ptrINS_15__thread_structENS_14default_deleteIS2_EEEEZ18SimulatedAnnealingRKN5Eigen6MatrixIfLin1ELin1ELi0ELin1ELin1EEEiNS_12basic_stringIcNS_11char_traitsIcEENS_9allocatorIcEEEEbdiPKcijNS_6vectorIiNSE_IiEEEENS_5dequeISG_NSE_ISG_EEEEmfffffffE3$_0EEERNS_13tuple_elementIXT_ENS_5tupleIJDpT0_EEEE4typeERSU_', symObjAddr: 0x16C48, symBinAddr: 0x100019430, symSize: 0x28 }
  - { offsetInCU: 0x6A531, offset: 0x6A531, size: 0x8, addend: 0x0, symName: __ZNSt3__111this_thread9sleep_forB8ue170006IxNS_5ratioILl1ELl1EEEEEvRKNS_6chrono8durationIT_T0_EE, symObjAddr: 0x16DD4, symBinAddr: 0x1000195BC, symSize: 0x110 }
  - { offsetInCU: 0x6A5B2, offset: 0x6A5B2, size: 0x8, addend: 0x0, symName: __ZNSt3__19make_pairB8ue170006ImfEENS_4pairINS_18__unwrap_ref_decayIT_E4typeENS2_IT0_E4typeEEEOS3_OS6_, symObjAddr: 0x16F8C, symBinAddr: 0x100019774, symSize: 0x38 }
  - { offsetInCU: 0x6A601, offset: 0x6A601, size: 0x8, addend: 0x0, symName: __ZNSt3__1gtB8ue170006ENS_15strong_orderingENS_20_CmpUnspecifiedParamE, symObjAddr: 0x171F8, symBinAddr: 0x1000199E0, symSize: 0x24 }
  - { offsetInCU: 0x6A656, offset: 0x6A656, size: 0x8, addend: 0x0, symName: __ZNSt3__1ltB8ue170006ENS_16partial_orderingENS_20_CmpUnspecifiedParamE, symObjAddr: 0x17318, symBinAddr: 0x100019B00, symSize: 0x54 }
  - { offsetInCU: 0x6A68D, offset: 0x6A68D, size: 0x8, addend: 0x0, symName: __ZNSt3__1ltB8ue170006ENS_15strong_orderingENS_20_CmpUnspecifiedParamE, symObjAddr: 0x17444, symBinAddr: 0x100019C2C, symSize: 0x24 }
  - { offsetInCU: 0x6A8D7, offset: 0x6A8D7, size: 0x8, addend: 0x0, symName: __ZNSt3__112construct_atB8ue170006INS_4pairIifEEJS2_EPS2_EEPT_S5_DpOT0_, symObjAddr: 0x17B60, symBinAddr: 0x10001A348, symSize: 0x2C }
  - { offsetInCU: 0x6A948, offset: 0x6A948, size: 0x8, addend: 0x0, symName: __ZNSt3__119__allocate_at_leastB8ue170006INS_9allocatorINS_4pairIifEEEEEENS_19__allocation_resultINS_16allocator_traitsIT_E7pointerEEERS7_m, symObjAddr: 0x17FF4, symBinAddr: 0x10001A7DC, symSize: 0x40 }
  - { offsetInCU: 0x6A98B, offset: 0x6A98B, size: 0x8, addend: 0x0, symName: __ZNSt3__142__uninitialized_allocator_move_if_noexceptB8ue170006INS_9allocatorINS_4pairIifEEEENS_16reverse_iteratorIPS3_EES7_S7_EET2_RT_T0_T1_S8_, symObjAddr: 0x181A8, symBinAddr: 0x10001A990, symSize: 0x12C }
  - { offsetInCU: 0x6AA2B, offset: 0x6AA2B, size: 0x8, addend: 0x0, symName: __ZNSt3__14swapB8ue170006IPNS_4pairIifEEEENS_9enable_ifIXaasr21is_move_constructibleIT_EE5valuesr18is_move_assignableIS5_EE5valueEvE4typeERS5_S8_, symObjAddr: 0x18320, symBinAddr: 0x10001AB08, symSize: 0x3C }
  - { offsetInCU: 0x6AA7C, offset: 0x6AA7C, size: 0x8, addend: 0x0, symName: __ZNSt3__122__make_exception_guardB8ue170006INS_29_AllocatorDestroyRangeReverseINS_9allocatorINS_4pairIifEEEENS_16reverse_iteratorIPS4_EEEEEENS_28__exception_guard_exceptionsIT_EESB_, symObjAddr: 0x18408, symBinAddr: 0x10001ABF0, symSize: 0x4C }
  - { offsetInCU: 0x6AAB2, offset: 0x6AAB2, size: 0x8, addend: 0x0, symName: __ZNSt3__1neB8ue170006IPNS_4pairIifEES3_EEbRKNS_16reverse_iteratorIT_EERKNS4_IT0_EE, symObjAddr: 0x18498, symBinAddr: 0x10001AC80, symSize: 0x48 }
  - { offsetInCU: 0x6AAFE, offset: 0x6AAFE, size: 0x8, addend: 0x0, symName: __ZNSt3__112__to_addressB8ue170006INS_16reverse_iteratorIPNS_4pairIifEEEEvEEu7__decayIDTclsr19__to_address_helperIT_EE6__callclsr3stdE7declvalIRKS6_EEEEES8_, symObjAddr: 0x184E0, symBinAddr: 0x10001ACC8, symSize: 0x24 }
  - { offsetInCU: 0x6AB5E, offset: 0x6AB5E, size: 0x8, addend: 0x0, symName: __ZNSt3__14prevB8ue170006IPNS_4pairIifEEEENS_9enable_ifIXsr29__has_input_iterator_categoryIT_EE5valueES5_E4typeES5_NS_15iterator_traitsIS5_E15difference_typeE, symObjAddr: 0x18694, symBinAddr: 0x10001AE7C, symSize: 0x3C }
  - { offsetInCU: 0x6ABA1, offset: 0x6ABA1, size: 0x8, addend: 0x0, symName: __ZNSt3__121__convert_to_integralB8ue170006El, symObjAddr: 0x18708, symBinAddr: 0x10001AEF0, symSize: 0x14 }
  - { offsetInCU: 0x6ABCE, offset: 0x6ABCE, size: 0x8, addend: 0x0, symName: __ZNSt3__19__advanceB8ue170006IPNS_4pairIifEEEEvRT_NS_15iterator_traitsIS4_E15difference_typeENS_26random_access_iterator_tagE, symObjAddr: 0x1871C, symBinAddr: 0x10001AF04, symSize: 0x28 }
  - { offsetInCU: 0x6AC18, offset: 0x6AC18, size: 0x8, addend: 0x0, symName: __ZNSt3__119__allocator_destroyB8ue170006INS_9allocatorINS_4pairIifEEEENS_16reverse_iteratorINS5_IPS3_EEEES8_EEvRT_T0_T1_, symObjAddr: 0x18848, symBinAddr: 0x10001B030, symSize: 0x70 }
  - { offsetInCU: 0x6AC7D, offset: 0x6AC7D, size: 0x8, addend: 0x0, symName: __ZNSt3__1neB8ue170006INS_16reverse_iteratorIPNS_4pairIifEEEES5_EEbRKNS1_IT_EERKNS1_IT0_EE, symObjAddr: 0x188F4, symBinAddr: 0x10001B0DC, symSize: 0x60 }
  - { offsetInCU: 0x6ACC9, offset: 0x6ACC9, size: 0x8, addend: 0x0, symName: __ZNSt3__112__to_addressB8ue170006INS_16reverse_iteratorINS1_IPNS_4pairIifEEEEEEvEEu7__decayIDTclsr19__to_address_helperIT_EE6__callclsr3stdE7declvalIRKS7_EEEEES9_, symObjAddr: 0x18954, symBinAddr: 0x10001B13C, symSize: 0x24 }
  - { offsetInCU: 0x6AD29, offset: 0x6AD29, size: 0x8, addend: 0x0, symName: __ZNSt3__14prevB8ue170006INS_16reverse_iteratorIPNS_4pairIifEEEEEENS_9enable_ifIXsr29__has_input_iterator_categoryIT_EE5valueES7_E4typeES7_NS_15iterator_traitsIS7_E15difference_typeE, symObjAddr: 0x18A50, symBinAddr: 0x10001B238, symSize: 0x4C }
  - { offsetInCU: 0x6AD6C, offset: 0x6AD6C, size: 0x8, addend: 0x0, symName: __ZNSt3__19__advanceB8ue170006INS_16reverse_iteratorIPNS_4pairIifEEEEEEvRT_NS_15iterator_traitsIS6_E15difference_typeENS_26random_access_iterator_tagE, symObjAddr: 0x18AD4, symBinAddr: 0x10001B2BC, symSize: 0x2C }
  - { offsetInCU: 0x6B1D6, offset: 0x6B1D6, size: 0x8, addend: 0x0, symName: '__ZNSt3__114__thread_proxyB8ue170006INS_5tupleIJNS_10unique_ptrINS_15__thread_structENS_14default_deleteIS3_EEEEZ18SimulatedAnnealingRKN5Eigen6MatrixIfLin1ELin1ELi0ELin1ELin1EEEiNS_12basic_stringIcNS_11char_traitsIcEENS_9allocatorIcEEEEbdiPKcijNS_6vectorIiNSF_IiEEEENS_5dequeISH_NSF_ISH_EEEEmfffffffE3$_1EEEEEPvSS_', symObjAddr: 0x193E8, symBinAddr: 0x10001BBD0, symSize: 0x90 }
  - { offsetInCU: 0x6B233, offset: 0x6B233, size: 0x8, addend: 0x0, symName: '__ZNSt3__13getB8ue170006ILm0EJNS_10unique_ptrINS_15__thread_structENS_14default_deleteIS2_EEEEZ18SimulatedAnnealingRKN5Eigen6MatrixIfLin1ELin1ELi0ELin1ELin1EEEiNS_12basic_stringIcNS_11char_traitsIcEENS_9allocatorIcEEEEbdiPKcijNS_6vectorIiNSE_IiEEEENS_5dequeISG_NSE_ISG_EEEEmfffffffE3$_1EEERNS_13tuple_elementIXT_ENS_5tupleIJDpT0_EEEE4typeERSU_', symObjAddr: 0x19700, symBinAddr: 0x10001BEE8, symSize: 0x24 }
  - { offsetInCU: 0x6B27C, offset: 0x6B27C, size: 0x8, addend: 0x0, symName: '__ZNSt3__116__thread_executeB8ue170006INS_10unique_ptrINS_15__thread_structENS_14default_deleteIS2_EEEEZ18SimulatedAnnealingRKN5Eigen6MatrixIfLin1ELin1ELi0ELin1ELin1EEEiNS_12basic_stringIcNS_11char_traitsIcEENS_9allocatorIcEEEEbdiPKcijNS_6vectorIiNSE_IiEEEENS_5dequeISG_NSE_ISG_EEEEmfffffffE3$_1JEJEEEvRNS_5tupleIJT_T0_DpT1_EEENS_15__tuple_indicesIJXspT2_EEEE', symObjAddr: 0x19724, symBinAddr: 0x10001BF0C, symSize: 0x28 }
  - { offsetInCU: 0x6B2CC, offset: 0x6B2CC, size: 0x8, addend: 0x0, symName: '__ZNSt3__18__invokeB8ue170006IZ18SimulatedAnnealingRKN5Eigen6MatrixIfLin1ELin1ELi0ELin1ELin1EEEiNS_12basic_stringIcNS_11char_traitsIcEENS_9allocatorIcEEEEbdiPKcijNS_6vectorIiNS9_IiEEEENS_5dequeISB_NS9_ISB_EEEEmfffffffE3$_1JEEEDTclclsr3stdE7declvalIT_EEspclsr3stdE7declvalIT0_EEEEOSL_DpOSM_', symObjAddr: 0x1974C, symBinAddr: 0x10001BF34, symSize: 0x24 }
  - { offsetInCU: 0x6B304, offset: 0x6B304, size: 0x8, addend: 0x0, symName: '__ZNSt3__13getB8ue170006ILm1EJNS_10unique_ptrINS_15__thread_structENS_14default_deleteIS2_EEEEZ18SimulatedAnnealingRKN5Eigen6MatrixIfLin1ELin1ELi0ELin1ELin1EEEiNS_12basic_stringIcNS_11char_traitsIcEENS_9allocatorIcEEEEbdiPKcijNS_6vectorIiNSE_IiEEEENS_5dequeISG_NSE_ISG_EEEEmfffffffE3$_1EEERNS_13tuple_elementIXT_ENS_5tupleIJDpT0_EEEE4typeERSU_', symObjAddr: 0x19770, symBinAddr: 0x10001BF58, symSize: 0x28 }
  - { offsetInCU: 0x6B34C, offset: 0x6B34C, size: 0x8, addend: 0x0, symName: __ZNSt3__13minB8ue170006IfEERKT_S3_S3_, symObjAddr: 0x1B698, symBinAddr: 0x10001DE80, symSize: 0x2C }
  - { offsetInCU: 0x6B38F, offset: 0x6B38F, size: 0x8, addend: 0x0, symName: __ZNSt3__13maxB8ue170006IfEERKT_S3_S3_, symObjAddr: 0x1B6C4, symBinAddr: 0x10001DEAC, symSize: 0x2C }
  - { offsetInCU: 0x6B3D2, offset: 0x6B3D2, size: 0x8, addend: 0x0, symName: __ZNSt3__130__uninitialized_allocator_copyB8ue170006INS_9allocatorIiEEPiS3_S3_EET2_RT_T0_T1_S4_, symObjAddr: 0x1BD54, symBinAddr: 0x10001E53C, symSize: 0x80 }
  - { offsetInCU: 0x6B46F, offset: 0x6B46F, size: 0x8, addend: 0x0, symName: __ZNSt3__114__unwrap_rangeB8ue170006IPiS1_EEDaT_T0_, symObjAddr: 0x1BDD4, symBinAddr: 0x10001E5BC, symSize: 0x3C }
  - { offsetInCU: 0x6B4BB, offset: 0x6B4BB, size: 0x8, addend: 0x0, symName: __ZNSt3__135__uninitialized_allocator_copy_implB8ue170006INS_9allocatorIiEEiiiLPv0EEEPT2_RT_PT0_S9_S5_, symObjAddr: 0x1BE10, symBinAddr: 0x10001E5F8, symSize: 0x38 }
  - { offsetInCU: 0x6B687, offset: 0x6B687, size: 0x8, addend: 0x0, symName: __ZNSt3__14copyB8ue170006IPiS1_EET0_T_S3_S2_, symObjAddr: 0x1BF10, symBinAddr: 0x10001E6F8, symSize: 0x40 }
  - { offsetInCU: 0x6B6E1, offset: 0x6B6E1, size: 0x8, addend: 0x0, symName: __ZNSt3__16__copyB8ue170006INS_17_ClassicAlgPolicyEPiS2_S2_EENS_4pairIT0_T2_EES4_T1_S5_, symObjAddr: 0x1BF50, symBinAddr: 0x10001E738, symSize: 0x44 }
  - { offsetInCU: 0x6B74D, offset: 0x6B74D, size: 0x8, addend: 0x0, symName: __ZNSt3__123__dispatch_copy_or_moveB8ue170006INS_17_ClassicAlgPolicyENS_11__copy_loopIS1_EENS_14__copy_trivialEPiS5_S5_EENS_4pairIT2_T4_EES7_T3_S8_, symObjAddr: 0x1BF94, symBinAddr: 0x10001E77C, symSize: 0x44 }
  - { offsetInCU: 0x6B7CB, offset: 0x6B7CB, size: 0x8, addend: 0x0, symName: __ZNSt3__121__unwrap_and_dispatchB8ue170006INS_10__overloadINS_11__copy_loopINS_17_ClassicAlgPolicyEEENS_14__copy_trivialEEEPiS7_S7_Li0EEENS_4pairIT0_T2_EES9_T1_SA_, symObjAddr: 0x1BFD8, symBinAddr: 0x10001E7C0, symSize: 0xB4 }
  - { offsetInCU: 0x6B859, offset: 0x6B859, size: 0x8, addend: 0x0, symName: __ZNSt3__19make_pairB8ue170006IPiS1_EENS_4pairINS_18__unwrap_ref_decayIT_E4typeENS3_IT0_E4typeEEEOS4_OS7_, symObjAddr: 0x1C0D4, symBinAddr: 0x10001E8BC, symSize: 0x38 }
  - { offsetInCU: 0x6B8A8, offset: 0x6B8A8, size: 0x8, addend: 0x0, symName: __ZNSt3__114__rewrap_rangeB8ue170006IPiS1_S1_EET0_S2_T1_, symObjAddr: 0x1C10C, symBinAddr: 0x10001E8F4, symSize: 0x2C }
  - { offsetInCU: 0x6B8FD, offset: 0x6B8FD, size: 0x8, addend: 0x0, symName: __ZNSt3__119__copy_trivial_implB8ue170006IiiEENS_4pairIPT_PT0_EES3_S3_S5_, symObjAddr: 0x1C138, symBinAddr: 0x10001E920, symSize: 0x80 }
  - { offsetInCU: 0x6B965, offset: 0x6B965, size: 0x8, addend: 0x0, symName: __ZNSt3__119__constexpr_memmoveB8ue170006IiiLi0EEEPT_S2_PT0_NS_15__element_countE, symObjAddr: 0x1C1B8, symBinAddr: 0x10001E9A0, symSize: 0x64 }
  - { offsetInCU: 0x6B9D3, offset: 0x6B9D3, size: 0x8, addend: 0x0, symName: __ZNSt3__19make_pairB8ue170006IRPiS1_EENS_4pairINS_18__unwrap_ref_decayIT_E4typeENS4_IT0_E4typeEEEOS5_OS8_, symObjAddr: 0x1C21C, symBinAddr: 0x10001EA04, symSize: 0x38 }
  - { offsetInCU: 0x6BA22, offset: 0x6BA22, size: 0x8, addend: 0x0, symName: __ZNSt3__18distanceB8ue170006INS_16__deque_iteratorINS_12basic_stringIcNS_11char_traitsIcEENS_9allocatorIcEEEEPKS7_RS8_PKS9_lLl170EEEEENS_15iterator_traitsIT_E15difference_typeESF_SF_, symObjAddr: 0x1CAF0, symBinAddr: 0x10001F2D8, symSize: 0x4C }
  - { offsetInCU: 0x6BA65, offset: 0x6BA65, size: 0x8, addend: 0x0, symName: __ZNSt3__1neB8ue170006ERKNS_5dequeINS_12basic_stringIcNS_11char_traitsIcEENS_9allocatorIcEEEENS4_IS6_EEE13__deque_rangeESB_, symObjAddr: 0x1D34C, symBinAddr: 0x10001FB34, symSize: 0x34 }
  - { offsetInCU: 0x6BAA2, offset: 0x6BAA2, size: 0x8, addend: 0x0, symName: __ZNSt3__14swapB8ue170006IPPNS_12basic_stringIcNS_11char_traitsIcEENS_9allocatorIcEEEEEENS_9enable_ifIXaasr21is_move_constructibleIT_EE5valuesr18is_move_assignableISA_EE5valueEvE4typeERSA_SD_, symObjAddr: 0x1E570, symBinAddr: 0x100020D58, symSize: 0x3C }
  - { offsetInCU: 0x6BAF3, offset: 0x6BAF3, size: 0x8, addend: 0x0, symName: __ZNSt3__14moveB8ue170006IPPNS_12basic_stringIcNS_11char_traitsIcEENS_9allocatorIcEEEES8_EET0_T_SA_S9_, symObjAddr: 0x1E628, symBinAddr: 0x100020E10, symSize: 0x40 }
  - { offsetInCU: 0x6BB4D, offset: 0x6BB4D, size: 0x8, addend: 0x0, symName: __ZNSt3__16__moveB8ue170006INS_17_ClassicAlgPolicyEPPNS_12basic_stringIcNS_11char_traitsIcEENS_9allocatorIcEEEES9_S9_EENS_4pairIT0_T2_EESB_T1_SC_, symObjAddr: 0x1E72C, symBinAddr: 0x100020F14, symSize: 0x44 }
  - { offsetInCU: 0x6BBB9, offset: 0x6BBB9, size: 0x8, addend: 0x0, symName: __ZNSt3__123__dispatch_copy_or_moveB8ue170006INS_17_ClassicAlgPolicyENS_11__move_loopIS1_EENS_14__move_trivialEPPNS_12basic_stringIcNS_11char_traitsIcEENS_9allocatorIcEEEESC_SC_EENS_4pairIT2_T4_EESE_T3_SF_, symObjAddr: 0x1E770, symBinAddr: 0x100020F58, symSize: 0x44 }
  - { offsetInCU: 0x6BC37, offset: 0x6BC37, size: 0x8, addend: 0x0, symName: __ZNSt3__121__unwrap_and_dispatchB8ue170006INS_10__overloadINS_11__move_loopINS_17_ClassicAlgPolicyEEENS_14__move_trivialEEEPPNS_12basic_stringIcNS_11char_traitsIcEENS_9allocatorIcEEEESE_SE_Li0EEENS_4pairIT0_T2_EESG_T1_SH_, symObjAddr: 0x1E7B4, symBinAddr: 0x100020F9C, symSize: 0xB4 }
  - { offsetInCU: 0x6BCC5, offset: 0x6BCC5, size: 0x8, addend: 0x0, symName: __ZNSt3__114__unwrap_rangeB8ue170006IPPNS_12basic_stringIcNS_11char_traitsIcEENS_9allocatorIcEEEES8_EEDaT_T0_, symObjAddr: 0x1E868, symBinAddr: 0x100021050, symSize: 0x3C }
  - { offsetInCU: 0x6BEC5, offset: 0x6BEC5, size: 0x8, addend: 0x0, symName: __ZNSt3__113__unwrap_iterB8ue170006IPPNS_12basic_stringIcNS_11char_traitsIcEENS_9allocatorIcEEEENS_18__unwrap_iter_implIS8_Lb1EEELi0EEEDTclsrT0_8__unwrapclsr3stdE7declvalIT_EEEESC_, symObjAddr: 0x1E8EC, symBinAddr: 0x1000210D4, symSize: 0x24 }
  - { offsetInCU: 0x6BF09, offset: 0x6BF09, size: 0x8, addend: 0x0, symName: __ZNSt3__19make_pairB8ue170006IPPNS_12basic_stringIcNS_11char_traitsIcEENS_9allocatorIcEEEES8_EENS_4pairINS_18__unwrap_ref_decayIT_E4typeENSA_IT0_E4typeEEEOSB_OSE_, symObjAddr: 0x1E910, symBinAddr: 0x1000210F8, symSize: 0x38 }
  - { offsetInCU: 0x6BF58, offset: 0x6BF58, size: 0x8, addend: 0x0, symName: __ZNSt3__114__rewrap_rangeB8ue170006IPPNS_12basic_stringIcNS_11char_traitsIcEENS_9allocatorIcEEEES8_S8_EET0_S9_T1_, symObjAddr: 0x1E948, symBinAddr: 0x100021130, symSize: 0x2C }
  - { offsetInCU: 0x6BFAD, offset: 0x6BFAD, size: 0x8, addend: 0x0, symName: __ZNSt3__113__rewrap_iterB8ue170006IPPNS_12basic_stringIcNS_11char_traitsIcEENS_9allocatorIcEEEES8_NS_18__unwrap_iter_implIS8_Lb1EEEEET_SB_T0_, symObjAddr: 0x1E974, symBinAddr: 0x10002115C, symSize: 0x3C }
  - { offsetInCU: 0x6C052, offset: 0x6C052, size: 0x8, addend: 0x0, symName: __ZNSt3__119__copy_trivial_implB8ue170006IPNS_12basic_stringIcNS_11char_traitsIcEENS_9allocatorIcEEEES7_EENS_4pairIPT_PT0_EESA_SA_SC_, symObjAddr: 0x1EA78, symBinAddr: 0x100021260, symSize: 0x80 }
  - { offsetInCU: 0x6C0BA, offset: 0x6C0BA, size: 0x8, addend: 0x0, symName: __ZNSt3__119__constexpr_memmoveB8ue170006IPNS_12basic_stringIcNS_11char_traitsIcEENS_9allocatorIcEEEES7_Li0EEEPT_S9_PT0_NS_15__element_countE, symObjAddr: 0x1EAF8, symBinAddr: 0x1000212E0, symSize: 0x64 }
  - { offsetInCU: 0x6C128, offset: 0x6C128, size: 0x8, addend: 0x0, symName: __ZNSt3__19make_pairB8ue170006IRPPNS_12basic_stringIcNS_11char_traitsIcEENS_9allocatorIcEEEES8_EENS_4pairINS_18__unwrap_ref_decayIT_E4typeENSB_IT0_E4typeEEEOSC_OSF_, symObjAddr: 0x1EB5C, symBinAddr: 0x100021344, symSize: 0x38 }
  - { offsetInCU: 0x6C1CA, offset: 0x6C1CA, size: 0x8, addend: 0x0, symName: __ZNSt3__18distanceB8ue170006INS_13move_iteratorIPPNS_12basic_stringIcNS_11char_traitsIcEENS_9allocatorIcEEEEEEEENS_15iterator_traitsIT_E15difference_typeESC_SC_, symObjAddr: 0x1ED80, symBinAddr: 0x100021568, symSize: 0x3C }
  - { offsetInCU: 0x6C234, offset: 0x6C234, size: 0x8, addend: 0x0, symName: __ZNSt3__112construct_atB8ue170006IPNS_12basic_stringIcNS_11char_traitsIcEENS_9allocatorIcEEEEJS7_EPS7_EEPT_SA_DpOT0_, symObjAddr: 0x1EF0C, symBinAddr: 0x1000216F4, symSize: 0x2C }
  - { offsetInCU: 0x6C2A5, offset: 0x6C2A5, size: 0x8, addend: 0x0, symName: __ZNSt3__110__distanceB8ue170006INS_13move_iteratorIPPNS_12basic_stringIcNS_11char_traitsIcEENS_9allocatorIcEEEEEEEENS_15iterator_traitsIT_E15difference_typeESC_SC_NS_26random_access_iterator_tagE, symObjAddr: 0x1EFB4, symBinAddr: 0x10002179C, symSize: 0x30 }
  - { offsetInCU: 0x6C2F3, offset: 0x6C2F3, size: 0x8, addend: 0x0, symName: __ZNSt3__1miB8ue170006IPPNS_12basic_stringIcNS_11char_traitsIcEENS_9allocatorIcEEEES8_EEDTmicldtfp_4baseEcldtfp0_4baseEERKNS_13move_iteratorIT_EERKNSA_IT0_EE, symObjAddr: 0x1EFE4, symBinAddr: 0x1000217CC, symSize: 0x4C }
  - { offsetInCU: 0x6C342, offset: 0x6C342, size: 0x8, addend: 0x0, symName: __ZNSt3__112construct_atB8ue170006IPNS_12basic_stringIcNS_11char_traitsIcEENS_9allocatorIcEEEEJRKS7_EPS7_EEPT_SC_DpOT0_, symObjAddr: 0x1F064, symBinAddr: 0x10002184C, symSize: 0x2C }
  - { offsetInCU: 0x6C3B3, offset: 0x6C3B3, size: 0x8, addend: 0x0, symName: __ZNSt3__113move_backwardB8ue170006IPPNS_12basic_stringIcNS_11char_traitsIcEENS_9allocatorIcEEEES8_EET0_T_SA_S9_, symObjAddr: 0x1F090, symBinAddr: 0x100021878, symSize: 0x40 }
  - { offsetInCU: 0x6C40D, offset: 0x6C40D, size: 0x8, addend: 0x0, symName: __ZNSt3__115__move_backwardB8ue170006INS_17_ClassicAlgPolicyEPPNS_12basic_stringIcNS_11char_traitsIcEENS_9allocatorIcEEEES9_S9_EENS_4pairIT0_T2_EESB_T1_SC_, symObjAddr: 0x1F0D0, symBinAddr: 0x1000218B8, symSize: 0x44 }
  - { offsetInCU: 0x6C479, offset: 0x6C479, size: 0x8, addend: 0x0, symName: __ZNSt3__123__dispatch_copy_or_moveB8ue170006INS_17_ClassicAlgPolicyENS_20__move_backward_loopIS1_EENS_23__move_backward_trivialEPPNS_12basic_stringIcNS_11char_traitsIcEENS_9allocatorIcEEEESC_SC_EENS_4pairIT2_T4_EESE_T3_SF_, symObjAddr: 0x1F114, symBinAddr: 0x1000218FC, symSize: 0x44 }
  - { offsetInCU: 0x6C4F7, offset: 0x6C4F7, size: 0x8, addend: 0x0, symName: __ZNSt3__121__unwrap_and_dispatchB8ue170006INS_10__overloadINS_20__move_backward_loopINS_17_ClassicAlgPolicyEEENS_23__move_backward_trivialEEEPPNS_12basic_stringIcNS_11char_traitsIcEENS_9allocatorIcEEEESE_SE_Li0EEENS_4pairIT0_T2_EESG_T1_SH_, symObjAddr: 0x1F158, symBinAddr: 0x100021940, symSize: 0xB4 }
  - { offsetInCU: 0x6C607, offset: 0x6C607, size: 0x8, addend: 0x0, symName: __ZNSt3__128__copy_backward_trivial_implB8ue170006IPNS_12basic_stringIcNS_11char_traitsIcEENS_9allocatorIcEEEES7_EENS_4pairIPT_PT0_EESA_SA_SC_, symObjAddr: 0x1F254, symBinAddr: 0x100021A3C, symSize: 0x90 }
  - { offsetInCU: 0x6C66F, offset: 0x6C66F, size: 0x8, addend: 0x0, symName: __ZNSt3__19make_pairB8ue170006IRPPNS_12basic_stringIcNS_11char_traitsIcEENS_9allocatorIcEEEES9_EENS_4pairINS_18__unwrap_ref_decayIT_E4typeENSB_IT0_E4typeEEEOSC_OSF_, symObjAddr: 0x1F2E4, symBinAddr: 0x100021ACC, symSize: 0x38 }
  - { offsetInCU: 0x6C6BE, offset: 0x6C6BE, size: 0x8, addend: 0x0, symName: __ZNSt3__119__allocate_at_leastB8ue170006INS_9allocatorIPNS_12basic_stringIcNS_11char_traitsIcEENS1_IcEEEEEEEENS_19__allocation_resultINS_16allocator_traitsIT_E7pointerEEERSB_m, symObjAddr: 0x1F49C, symBinAddr: 0x100021C84, symSize: 0x40 }
  - { offsetInCU: 0x6C701, offset: 0x6C701, size: 0x8, addend: 0x0, symName: __ZNSt3__1eqB8ue170006ERKNS_5dequeINS_12basic_stringIcNS_11char_traitsIcEENS_9allocatorIcEEEENS4_IS6_EEE13__deque_rangeESB_, symObjAddr: 0x1F960, symBinAddr: 0x100022148, symSize: 0x30 }
  - { offsetInCU: 0x6C765, offset: 0x6C765, size: 0x8, addend: 0x0, symName: __ZNSt3__112construct_atB8ue170006INS_12basic_stringIcNS_11char_traitsIcEENS_9allocatorIcEEEEJRKS6_EPS6_EEPT_SB_DpOT0_, symObjAddr: 0x1FA40, symBinAddr: 0x100022228, symSize: 0x3C }
  - { offsetInCU: 0x6C7D6, offset: 0x6C7D6, size: 0x8, addend: 0x0, symName: __ZNSt3__110__distanceB8ue170006INS_16__deque_iteratorINS_12basic_stringIcNS_11char_traitsIcEENS_9allocatorIcEEEEPKS7_RS8_PKS9_lLl170EEEEENS_15iterator_traitsIT_E15difference_typeESF_SF_NS_26random_access_iterator_tagE, symObjAddr: 0x1FAD8, symBinAddr: 0x1000222C0, symSize: 0x38 }
  - { offsetInCU: 0x6C824, offset: 0x6C824, size: 0x8, addend: 0x0, symName: __ZNSt3__1miB8ue170006ERKNS_16__deque_iteratorINS_12basic_stringIcNS_11char_traitsIcEENS_9allocatorIcEEEEPKS6_RS7_PKS8_lLl170EEESE_, symObjAddr: 0x1FB10, symBinAddr: 0x1000222F8, symSize: 0xB0 }
  - { offsetInCU: 0x6C861, offset: 0x6C861, size: 0x8, addend: 0x0, symName: __ZNSt3__1neB8ue170006ERKNS_16__deque_iteratorINS_12basic_stringIcNS_11char_traitsIcEENS_9allocatorIcEEEEPKS6_RS7_PKS8_lLl170EEESE_, symObjAddr: 0x1FBC0, symBinAddr: 0x1000223A8, symSize: 0x34 }
  - { offsetInCU: 0x6C89E, offset: 0x6C89E, size: 0x8, addend: 0x0, symName: __ZNSt3__1eqB8ue170006ERKNS_16__deque_iteratorINS_12basic_stringIcNS_11char_traitsIcEENS_9allocatorIcEEEEPKS6_RS7_PKS8_lLl170EEESE_, symObjAddr: 0x1FBF4, symBinAddr: 0x1000223DC, symSize: 0x30 }
  - { offsetInCU: 0x6C8DB, offset: 0x6C8DB, size: 0x8, addend: 0x0, symName: __ZNSt3__19call_onceB8ue170006IZN5BoardC1EiRKNS_12basic_stringIcNS_11char_traitsIcEENS_9allocatorIcEEEERKN5Eigen6MatrixIfLin1ELin1ELi0ELin1ELin1EEEbbNS_6vectorIiNS5_IiEEEENS_5dequeIS7_NS5_IS7_EEEEmfffffffEUlvE_JEEEvRNS_9once_flagEOT_DpOT0_, symObjAddr: 0x20250, symBinAddr: 0x100022A38, symSize: 0x70 }
  - { offsetInCU: 0x6C95A, offset: 0x6C95A, size: 0x8, addend: 0x0, symName: __ZNSt3__18distanceB8ue170006IPKfEENS_15iterator_traitsIT_E15difference_typeES4_S4_, symObjAddr: 0x2054C, symBinAddr: 0x100022D34, symSize: 0x2C }
  - { offsetInCU: 0x6C99D, offset: 0x6C99D, size: 0x8, addend: 0x0, symName: __ZNSt3__14nextB8ue170006IPKfEENS_9enable_ifIXsr29__has_input_iterator_categoryIT_EE5valueES4_E4typeES4_NS_15iterator_traitsIS4_E15difference_typeE, symObjAddr: 0x20578, symBinAddr: 0x100022D60, symSize: 0x34 }
  - { offsetInCU: 0x6C9E0, offset: 0x6C9E0, size: 0x8, addend: 0x0, symName: __ZNSt3__14copyB8ue170006IPKfPfEET0_T_S5_S4_, symObjAddr: 0x205AC, symBinAddr: 0x100022D94, symSize: 0x40 }
  - { offsetInCU: 0x6CA3A, offset: 0x6CA3A, size: 0x8, addend: 0x0, symName: __ZNSt3__16__copyB8ue170006INS_17_ClassicAlgPolicyEPKfS3_PfEENS_4pairIT0_T2_EES6_T1_S7_, symObjAddr: 0x20678, symBinAddr: 0x100022E60, symSize: 0x44 }
  - { offsetInCU: 0x6CAA7, offset: 0x6CAA7, size: 0x8, addend: 0x0, symName: __ZNSt3__19__advanceB8ue170006IPKfEEvRT_NS_15iterator_traitsIS3_E15difference_typeENS_26random_access_iterator_tagE, symObjAddr: 0x20880, symBinAddr: 0x100023068, symSize: 0x28 }
  - { offsetInCU: 0x6CAF1, offset: 0x6CAF1, size: 0x8, addend: 0x0, symName: __ZNSt3__130__uninitialized_allocator_copyB8ue170006INS_9allocatorIfEEPKfS4_PfEET2_RT_T0_T1_S6_, symObjAddr: 0x208A8, symBinAddr: 0x100023090, symSize: 0x80 }
  - { offsetInCU: 0x6CB8E, offset: 0x6CB8E, size: 0x8, addend: 0x0, symName: __ZNSt3__114__unwrap_rangeB8ue170006IPKfS2_EEDaT_T0_, symObjAddr: 0x20928, symBinAddr: 0x100023110, symSize: 0x3C }
  - { offsetInCU: 0x6CBDA, offset: 0x6CBDA, size: 0x8, addend: 0x0, symName: __ZNSt3__135__uninitialized_allocator_copy_implB8ue170006INS_9allocatorIfEEKfffLPv0EEEPT2_RT_PT0_SA_S6_, symObjAddr: 0x20964, symBinAddr: 0x10002314C, symSize: 0x38 }
  - { offsetInCU: 0x6CC5B, offset: 0x6CC5B, size: 0x8, addend: 0x0, symName: __ZNSt3__113__unwrap_iterB8ue170006IPfNS_18__unwrap_iter_implIS1_Lb1EEELi0EEEDTclsrT0_8__unwrapclsr3stdE7declvalIT_EEEES5_, symObjAddr: 0x2099C, symBinAddr: 0x100023184, symSize: 0x24 }
  - { offsetInCU: 0x6CC9F, offset: 0x6CC9F, size: 0x8, addend: 0x0, symName: __ZNSt3__113__rewrap_iterB8ue170006IPfS1_NS_18__unwrap_iter_implIS1_Lb1EEEEET_S4_T0_, symObjAddr: 0x209C0, symBinAddr: 0x1000231A8, symSize: 0x3C }
  - { offsetInCU: 0x6CE10, offset: 0x6CE10, size: 0x8, addend: 0x0, symName: __ZNSt3__113__unwrap_iterB8ue170006IPKfNS_18__unwrap_iter_implIS2_Lb1EEELi0EEEDTclsrT0_8__unwrapclsr3stdE7declvalIT_EEEES6_, symObjAddr: 0x20A54, symBinAddr: 0x10002323C, symSize: 0x24 }
  - { offsetInCU: 0x6CEA7, offset: 0x6CEA7, size: 0x8, addend: 0x0, symName: __ZNSt3__112__to_addressB8ue170006IKfEEPT_S3_, symObjAddr: 0x20AD8, symBinAddr: 0x1000232C0, symSize: 0x14 }
  - { offsetInCU: 0x6CF2F, offset: 0x6CF2F, size: 0x8, addend: 0x0, symName: __ZNSt3__123__dispatch_copy_or_moveB8ue170006INS_17_ClassicAlgPolicyENS_11__copy_loopIS1_EENS_14__copy_trivialEPKfS6_PfEENS_4pairIT2_T4_EES9_T3_SA_, symObjAddr: 0x20B94, symBinAddr: 0x10002337C, symSize: 0x44 }
  - { offsetInCU: 0x6CFAD, offset: 0x6CFAD, size: 0x8, addend: 0x0, symName: __ZNSt3__121__unwrap_and_dispatchB8ue170006INS_10__overloadINS_11__copy_loopINS_17_ClassicAlgPolicyEEENS_14__copy_trivialEEEPKfS8_PfLi0EEENS_4pairIT0_T2_EESB_T1_SC_, symObjAddr: 0x20BD8, symBinAddr: 0x1000233C0, symSize: 0xB4 }
  - { offsetInCU: 0x6D13E, offset: 0x6D13E, size: 0x8, addend: 0x0, symName: __ZNSt3__19make_pairB8ue170006IPKfPfEENS_4pairINS_18__unwrap_ref_decayIT_E4typeENS5_IT0_E4typeEEEOS6_OS9_, symObjAddr: 0x20CD4, symBinAddr: 0x1000234BC, symSize: 0x38 }
  - { offsetInCU: 0x6D18D, offset: 0x6D18D, size: 0x8, addend: 0x0, symName: __ZNSt3__114__rewrap_rangeB8ue170006IPKfS2_S2_EET0_S3_T1_, symObjAddr: 0x20D0C, symBinAddr: 0x1000234F4, symSize: 0x2C }
  - { offsetInCU: 0x6D1E2, offset: 0x6D1E2, size: 0x8, addend: 0x0, symName: __ZNSt3__119__copy_trivial_implB8ue170006IKffEENS_4pairIPT_PT0_EES4_S4_S6_, symObjAddr: 0x20D38, symBinAddr: 0x100023520, symSize: 0x80 }
  - { offsetInCU: 0x6D24A, offset: 0x6D24A, size: 0x8, addend: 0x0, symName: __ZNSt3__119__constexpr_memmoveB8ue170006IfKfLi0EEEPT_S3_PT0_NS_15__element_countE, symObjAddr: 0x20DB8, symBinAddr: 0x1000235A0, symSize: 0x64 }
  - { offsetInCU: 0x6D2B8, offset: 0x6D2B8, size: 0x8, addend: 0x0, symName: __ZNSt3__19make_pairB8ue170006IRPKfPfEENS_4pairINS_18__unwrap_ref_decayIT_E4typeENS6_IT0_E4typeEEEOS7_OSA_, symObjAddr: 0x20E1C, symBinAddr: 0x100023604, symSize: 0x38 }
  - { offsetInCU: 0x6D307, offset: 0x6D307, size: 0x8, addend: 0x0, symName: __ZNSt3__113__rewrap_iterB8ue170006IPKfS2_NS_18__unwrap_iter_implIS2_Lb1EEEEET_S5_T0_, symObjAddr: 0x20F60, symBinAddr: 0x100023748, symSize: 0x3C }
  - { offsetInCU: 0x6D35C, offset: 0x6D35C, size: 0x8, addend: 0x0, symName: __ZNSt3__110__distanceB8ue170006IPKfEENS_15iterator_traitsIT_E15difference_typeES4_S4_NS_26random_access_iterator_tagE, symObjAddr: 0x210E4, symBinAddr: 0x1000238CC, symSize: 0x28 }
  - { offsetInCU: 0x6D3AA, offset: 0x6D3AA, size: 0x8, addend: 0x0, symName: __ZNSt3__121__libcpp_acquire_loadB8ue170006ImEET_PKS1_, symObjAddr: 0x2110C, symBinAddr: 0x1000238F4, symSize: 0x20 }
  - { offsetInCU: 0x6D3DF, offset: 0x6D3DF, size: 0x8, addend: 0x0, symName: __ZNSt3__117__call_once_proxyB8ue170006INS_5tupleIJOZN5BoardC1EiRKNS_12basic_stringIcNS_11char_traitsIcEENS_9allocatorIcEEEERKN5Eigen6MatrixIfLin1ELin1ELi0ELin1ELin1EEEbbNS_6vectorIiNS6_IiEEEENS_5dequeIS8_NS6_IS8_EEEEmfffffffEUlvE_EEEEEvPv, symObjAddr: 0x21194, symBinAddr: 0x10002397C, symSize: 0x2C }
  - { offsetInCU: 0x6D436, offset: 0x6D436, size: 0x8, addend: 0x0, symName: __ZNSt3__18__invokeB8ue170006IZN5BoardC1EiRKNS_12basic_stringIcNS_11char_traitsIcEENS_9allocatorIcEEEERKN5Eigen6MatrixIfLin1ELin1ELi0ELin1ELin1EEEbbNS_6vectorIiNS5_IiEEEENS_5dequeIS7_NS5_IS7_EEEEmfffffffEUlvE_JEEEDTclclsr3stdE7declvalIT_EEspclsr3stdE7declvalIT0_EEEEOSM_DpOSN_, symObjAddr: 0x212EC, symBinAddr: 0x100023AD4, symSize: 0x24 }
  - { offsetInCU: 0x6D46E, offset: 0x6D46E, size: 0x8, addend: 0x0, symName: __ZNSt3__13getB8ue170006ILm0EJOZN5BoardC1EiRKNS_12basic_stringIcNS_11char_traitsIcEENS_9allocatorIcEEEERKN5Eigen6MatrixIfLin1ELin1ELi0ELin1ELin1EEEbbNS_6vectorIiNS5_IiEEEENS_5dequeIS7_NS5_IS7_EEEEmfffffffEUlvE_EEEONS_13tuple_elementIXT_ENS_5tupleIJDpT0_EEEE4typeEOSR_, symObjAddr: 0x21310, symBinAddr: 0x100023AF8, symSize: 0x24 }
  - { offsetInCU: 0x6D4B1, offset: 0x6D4B1, size: 0x8, addend: 0x0, symName: __ZNSt3__1neB8ue170006IPNS_12basic_stringIcNS_11char_traitsIcEENS_9allocatorIcEEEEEEbRKNS_11__wrap_iterIT_EESC_, symObjAddr: 0x22DCC, symBinAddr: 0x1000255B4, symSize: 0x34 }
  - { offsetInCU: 0x6D4F4, offset: 0x6D4F4, size: 0x8, addend: 0x0, symName: __ZNSt3__1plB8ue170006IcNS_11char_traitsIcEENS_9allocatorIcEEEENS_12basic_stringIT_T0_T1_EEPKS6_OS9_, symObjAddr: 0x23398, symBinAddr: 0x100025B80, symSize: 0x44 }
  - { offsetInCU: 0x6D583, offset: 0x6D583, size: 0x8, addend: 0x0, symName: __ZNSt3__116forward_as_tupleB8ue170006IJNS_12basic_stringIcNS_11char_traitsIcEENS_9allocatorIcEEEEEEENS_5tupleIJDpOT_EEESA_, symObjAddr: 0x243F4, symBinAddr: 0x100026BDC, symSize: 0x2C }
  - { offsetInCU: 0x6D5BC, offset: 0x6D5BC, size: 0x8, addend: 0x0, symName: __ZNSt3__116forward_as_tupleB8ue170006IJEEENS_5tupleIJDpOT_EEES4_, symObjAddr: 0x24420, symBinAddr: 0x100026C08, symSize: 0x4 }
  - { offsetInCU: 0x6D5E0, offset: 0x6D5E0, size: 0x8, addend: 0x0, symName: __ZNSt3__116__constrain_hashB8ue170006Emm, symObjAddr: 0x244D0, symBinAddr: 0x100026CB8, symSize: 0x98 }
  - { offsetInCU: 0x6D61A, offset: 0x6D61A, size: 0x8, addend: 0x0, symName: __ZNSt3__116__is_hash_power2B8ue170006Em, symObjAddr: 0x247F0, symBinAddr: 0x100026FD8, symSize: 0x50 }
  - { offsetInCU: 0x6D646, offset: 0x6D646, size: 0x8, addend: 0x0, symName: __ZNSt3__116__do_string_hashB8ue170006IPKcEEmT_S3_, symObjAddr: 0x24A48, symBinAddr: 0x100027230, symSize: 0x3C }
  - { offsetInCU: 0x6D68C, offset: 0x6D68C, size: 0x8, addend: 0x0, symName: __ZNSt3__110__loadwordB8ue170006ImEET_PKv, symObjAddr: 0x254B8, symBinAddr: 0x100027CA0, symSize: 0x20 }
  - { offsetInCU: 0x6D6CF, offset: 0x6D6CF, size: 0x8, addend: 0x0, symName: __ZNSt3__14swapB8ue170006ImEENS_9enable_ifIXaasr21is_move_constructibleIT_EE5valuesr18is_move_assignableIS2_EE5valueEvE4typeERS2_S5_, symObjAddr: 0x25674, symBinAddr: 0x100027E5C, symSize: 0x3C }
  - { offsetInCU: 0x6D720, offset: 0x6D720, size: 0x8, addend: 0x0, symName: __ZNSt3__110__loadwordB8ue170006IjEET_PKv, symObjAddr: 0x25704, symBinAddr: 0x100027EEC, symSize: 0x20 }
  - { offsetInCU: 0x6D763, offset: 0x6D763, size: 0x8, addend: 0x0, symName: __ZNSt3__112__to_addressB8ue170006IKcEEPT_S3_, symObjAddr: 0x2586C, symBinAddr: 0x100028054, symSize: 0x14 }
  - { offsetInCU: 0x6D7CB, offset: 0x6D7CB, size: 0x8, addend: 0x0, symName: __ZNSt3__1eqB8ue170006INS_9allocatorIcEEEEbRKNS_12basic_stringIcNS_11char_traitsIcEET_EES9_, symObjAddr: 0x25B78, symBinAddr: 0x100028360, symSize: 0x148 }
  - { offsetInCU: 0x6D83E, offset: 0x6D83E, size: 0x8, addend: 0x0, symName: __ZNSt3__17launderB8ue170006IKNS_4pairIKNS_12basic_stringIcNS_11char_traitsIcEENS_9allocatorIcEEEEN5Eigen6MatrixIfLin1ELi1ELi0ELin1ELi1EEEEEEEPT_SF_, symObjAddr: 0x25CF4, symBinAddr: 0x1000284DC, symSize: 0x24 }
  - { offsetInCU: 0x6D875, offset: 0x6D875, size: 0x8, addend: 0x0, symName: __ZNSt3__19__launderB8ue170006IKNS_4pairIKNS_12basic_stringIcNS_11char_traitsIcEENS_9allocatorIcEEEEN5Eigen6MatrixIfLin1ELi1ELi0ELin1ELi1EEEEEEEPT_SF_, symObjAddr: 0x25D18, symBinAddr: 0x100028500, symSize: 0x14 }
  - { offsetInCU: 0x6D8F1, offset: 0x6D8F1, size: 0x8, addend: 0x0, symName: __ZNSt3__112construct_atB8ue170006INS_4pairIKNS_12basic_stringIcNS_11char_traitsIcEENS_9allocatorIcEEEEN5Eigen6MatrixIfLin1ELi1ELi0ELin1ELi1EEEEEJRKNS_21piecewise_construct_tENS_5tupleIJOS7_EEENSG_IJEEEEPSC_EEPT_SM_DpOT0_, symObjAddr: 0x26010, symBinAddr: 0x1000287F8, symSize: 0x50 }
  - { offsetInCU: 0x6D988, offset: 0x6D988, size: 0x8, addend: 0x0, symName: __ZNSt3__13getB8ue170006ILm0EJONS_12basic_stringIcNS_11char_traitsIcEENS_9allocatorIcEEEEEEERNS_13tuple_elementIXT_ENS_5tupleIJDpT0_EEEE4typeERSC_, symObjAddr: 0x26150, symBinAddr: 0x100028938, symSize: 0x24 }
  - { offsetInCU: 0x6D9CB, offset: 0x6D9CB, size: 0x8, addend: 0x0, symName: __ZNSt3__116__next_hash_pow2B8ue170006Em, symObjAddr: 0x2672C, symBinAddr: 0x100028F14, symSize: 0x6C }
  - { offsetInCU: 0x6D9F7, offset: 0x6D9F7, size: 0x8, addend: 0x0, symName: __ZNSt3__112__libcpp_clzB8ue170006Em, symObjAddr: 0x268E0, symBinAddr: 0x1000290C8, symSize: 0x1C }
  - { offsetInCU: 0x6DA6B, offset: 0x6DA6B, size: 0x8, addend: 0x0, symName: __ZNSt3__14swapB8ue170006IlEENS_9enable_ifIXaasr21is_move_constructibleIT_EE5valuesr18is_move_assignableIS2_EE5valueEvE4typeERS2_S5_, symObjAddr: 0x26CF0, symBinAddr: 0x1000294D8, symSize: 0x3C }
  - { offsetInCU: 0x6DAE3, offset: 0x6DAE3, size: 0x8, addend: 0x0, symName: __ZNSt3__112construct_atB8ue170006IN5Eigen6MatrixIfLin1ELi1ELi0ELin1ELi1EEEJEPS3_EEPT_S6_DpOT0_, symObjAddr: 0x27364, symBinAddr: 0x100029B4C, symSize: 0x34 }
  - { offsetInCU: 0x6DB40, offset: 0x6DB40, size: 0x8, addend: 0x0, symName: __ZNSt3__119__allocate_at_leastB8ue170006INS_9allocatorIN5Eigen6MatrixIfLin1ELi1ELi0ELin1ELi1EEEEEEENS_19__allocation_resultINS_16allocator_traitsIT_E7pointerEEERS8_m, symObjAddr: 0x275CC, symBinAddr: 0x100029DB4, symSize: 0x40 }
  - { offsetInCU: 0x6DB83, offset: 0x6DB83, size: 0x8, addend: 0x0, symName: __ZNSt3__142__uninitialized_allocator_move_if_noexceptB8ue170006INS_9allocatorIN5Eigen6MatrixIfLin1ELi1ELi0ELin1ELi1EEEEENS_16reverse_iteratorIPS4_EES8_S8_EET2_RT_T0_T1_S9_, symObjAddr: 0x2784C, symBinAddr: 0x10002A034, symSize: 0x12C }
  - { offsetInCU: 0x6DC23, offset: 0x6DC23, size: 0x8, addend: 0x0, symName: __ZNSt3__14swapB8ue170006IPN5Eigen6MatrixIfLin1ELi1ELi0ELin1ELi1EEEEENS_9enable_ifIXaasr21is_move_constructibleIT_EE5valuesr18is_move_assignableIS6_EE5valueEvE4typeERS6_S9_, symObjAddr: 0x279C4, symBinAddr: 0x10002A1AC, symSize: 0x3C }
  - { offsetInCU: 0x6DC74, offset: 0x6DC74, size: 0x8, addend: 0x0, symName: __ZNSt3__122__make_exception_guardB8ue170006INS_29_AllocatorDestroyRangeReverseINS_9allocatorIN5Eigen6MatrixIfLin1ELi1ELi0ELin1ELi1EEEEENS_16reverse_iteratorIPS5_EEEEEENS_28__exception_guard_exceptionsIT_EESC_, symObjAddr: 0x27AAC, symBinAddr: 0x10002A294, symSize: 0x4C }
  - { offsetInCU: 0x6DCAA, offset: 0x6DCAA, size: 0x8, addend: 0x0, symName: __ZNSt3__1neB8ue170006IPN5Eigen6MatrixIfLin1ELi1ELi0ELin1ELi1EEES4_EEbRKNS_16reverse_iteratorIT_EERKNS5_IT0_EE, symObjAddr: 0x27B3C, symBinAddr: 0x10002A324, symSize: 0x48 }
  - { offsetInCU: 0x6DCF6, offset: 0x6DCF6, size: 0x8, addend: 0x0, symName: __ZNSt3__112__to_addressB8ue170006INS_16reverse_iteratorIPN5Eigen6MatrixIfLin1ELi1ELi0ELin1ELi1EEEEEvEEu7__decayIDTclsr19__to_address_helperIT_EE6__callclsr3stdE7declvalIRKS7_EEEEES9_, symObjAddr: 0x27BB4, symBinAddr: 0x10002A39C, symSize: 0x24 }
  - { offsetInCU: 0x6DD2C, offset: 0x6DD2C, size: 0x8, addend: 0x0, symName: __ZNSt3__112construct_atB8ue170006IN5Eigen6MatrixIfLin1ELi1ELi0ELin1ELi1EEEJS3_EPS3_EEPT_S6_DpOT0_, symObjAddr: 0x27D04, symBinAddr: 0x10002A4EC, symSize: 0x3C }
  - { offsetInCU: 0x6DDC7, offset: 0x6DDC7, size: 0x8, addend: 0x0, symName: __ZNSt3__14prevB8ue170006IPN5Eigen6MatrixIfLin1ELi1ELi0ELin1ELi1EEEEENS_9enable_ifIXsr29__has_input_iterator_categoryIT_EE5valueES6_E4typeES6_NS_15iterator_traitsIS6_E15difference_typeE, symObjAddr: 0x27EC8, symBinAddr: 0x10002A6B0, symSize: 0x3C }
  - { offsetInCU: 0x6DE0B, offset: 0x6DE0B, size: 0x8, addend: 0x0, symName: __ZNSt3__19__advanceB8ue170006IPN5Eigen6MatrixIfLin1ELi1ELi0ELin1ELi1EEEEEvRT_NS_15iterator_traitsIS5_E15difference_typeENS_26random_access_iterator_tagE, symObjAddr: 0x27F3C, symBinAddr: 0x10002A724, symSize: 0x28 }
  - { offsetInCU: 0x6DE55, offset: 0x6DE55, size: 0x8, addend: 0x0, symName: __ZNSt3__119__allocator_destroyB8ue170006INS_9allocatorIN5Eigen6MatrixIfLin1ELi1ELi0ELin1ELi1EEEEENS_16reverse_iteratorINS6_IPS4_EEEES9_EEvRT_T0_T1_, symObjAddr: 0x28068, symBinAddr: 0x10002A850, symSize: 0x70 }
  - { offsetInCU: 0x6DEBA, offset: 0x6DEBA, size: 0x8, addend: 0x0, symName: __ZNSt3__1neB8ue170006INS_16reverse_iteratorIPN5Eigen6MatrixIfLin1ELi1ELi0ELin1ELi1EEEEES6_EEbRKNS1_IT_EERKNS1_IT0_EE, symObjAddr: 0x28114, symBinAddr: 0x10002A8FC, symSize: 0x60 }
  - { offsetInCU: 0x6DF06, offset: 0x6DF06, size: 0x8, addend: 0x0, symName: __ZNSt3__112__to_addressB8ue170006INS_16reverse_iteratorINS1_IPN5Eigen6MatrixIfLin1ELi1ELi0ELin1ELi1EEEEEEEvEEu7__decayIDTclsr19__to_address_helperIT_EE6__callclsr3stdE7declvalIRKS8_EEEEESA_, symObjAddr: 0x28174, symBinAddr: 0x10002A95C, symSize: 0x24 }
  - { offsetInCU: 0x6DF66, offset: 0x6DF66, size: 0x8, addend: 0x0, symName: __ZNSt3__14prevB8ue170006INS_16reverse_iteratorIPN5Eigen6MatrixIfLin1ELi1ELi0ELin1ELi1EEEEEEENS_9enable_ifIXsr29__has_input_iterator_categoryIT_EE5valueES8_E4typeES8_NS_15iterator_traitsIS8_E15difference_typeE, symObjAddr: 0x28270, symBinAddr: 0x10002AA58, symSize: 0x4C }
  - { offsetInCU: 0x6DFA9, offset: 0x6DFA9, size: 0x8, addend: 0x0, symName: __ZNSt3__19__advanceB8ue170006INS_16reverse_iteratorIPN5Eigen6MatrixIfLin1ELi1ELi0ELin1ELi1EEEEEEEvRT_NS_15iterator_traitsIS7_E15difference_typeENS_26random_access_iterator_tagE, symObjAddr: 0x282F4, symBinAddr: 0x10002AADC, symSize: 0x2C }
  - { offsetInCU: 0x6DFF3, offset: 0x6DFF3, size: 0x8, addend: 0x0, symName: __ZNSt3__134__cxx_atomic_compare_exchange_weakB8ue170006IjEEbPNS_22__cxx_atomic_base_implIT_EEPS2_S2_NS_12memory_orderES6_, symObjAddr: 0x2B2C0, symBinAddr: 0x10002DAA8, symSize: 0x63C }
  - { offsetInCU: 0x6E066, offset: 0x6E066, size: 0x8, addend: 0x0, symName: __ZNSt3__118__to_failure_orderB8ue170006ENS_12memory_orderE, symObjAddr: 0x2B910, symBinAddr: 0x10002E0F8, symSize: 0x6C }
  - { offsetInCU: 0x6E094, offset: 0x6E094, size: 0x8, addend: 0x0, symName: __ZNSt3__118__cxx_atomic_storeB8ue170006ImEEvPNS_22__cxx_atomic_base_implIT_EES2_NS_12memory_orderE, symObjAddr: 0x2BAA0, symBinAddr: 0x10002E288, symSize: 0x84 }
  - { offsetInCU: 0x6E0E5, offset: 0x6E0E5, size: 0x8, addend: 0x0, symName: __ZNSt3__118__cxx_atomic_storeB8ue170006IjEEvPNS_22__cxx_atomic_base_implIT_EES2_NS_12memory_orderE, symObjAddr: 0x2BCA4, symBinAddr: 0x10002E48C, symSize: 0x84 }
  - { offsetInCU: 0x6E136, offset: 0x6E136, size: 0x8, addend: 0x0, symName: __ZNSt3__18distanceB8ue170006IPKNS_12basic_stringIcNS_11char_traitsIcEENS_9allocatorIcEEEEEENS_15iterator_traitsIT_E15difference_typeESA_SA_, symObjAddr: 0x2BFB8, symBinAddr: 0x10002E7A0, symSize: 0x2C }
  - { offsetInCU: 0x6E179, offset: 0x6E179, size: 0x8, addend: 0x0, symName: __ZNSt3__14nextB8ue170006IPKNS_12basic_stringIcNS_11char_traitsIcEENS_9allocatorIcEEEEEENS_9enable_ifIXsr29__has_input_iterator_categoryIT_EE5valueESA_E4typeESA_NS_15iterator_traitsISA_E15difference_typeE, symObjAddr: 0x2BFE4, symBinAddr: 0x10002E7CC, symSize: 0x34 }
  - { offsetInCU: 0x6E1BC, offset: 0x6E1BC, size: 0x8, addend: 0x0, symName: __ZNSt3__14copyB8ue170006IPKNS_12basic_stringIcNS_11char_traitsIcEENS_9allocatorIcEEEEPS6_EET0_T_SB_SA_, symObjAddr: 0x2C018, symBinAddr: 0x10002E800, symSize: 0x40 }
  - { offsetInCU: 0x6E216, offset: 0x6E216, size: 0x8, addend: 0x0, symName: __ZNSt3__16__copyB8ue170006INS_17_ClassicAlgPolicyEPKNS_12basic_stringIcNS_11char_traitsIcEENS_9allocatorIcEEEES9_PS7_EENS_4pairIT0_T2_EESC_T1_SD_, symObjAddr: 0x2C0E4, symBinAddr: 0x10002E8CC, symSize: 0x44 }
  - { offsetInCU: 0x6E283, offset: 0x6E283, size: 0x8, addend: 0x0, symName: __ZNSt3__19__advanceB8ue170006IPKNS_12basic_stringIcNS_11char_traitsIcEENS_9allocatorIcEEEEEEvRT_NS_15iterator_traitsIS9_E15difference_typeENS_26random_access_iterator_tagE, symObjAddr: 0x2C3A8, symBinAddr: 0x10002EB90, symSize: 0x30 }
  - { offsetInCU: 0x6E2CD, offset: 0x6E2CD, size: 0x8, addend: 0x0, symName: __ZNSt3__130__uninitialized_allocator_copyB8ue170006INS_9allocatorINS_12basic_stringIcNS_11char_traitsIcEENS1_IcEEEEEEPKS6_S9_PS6_EET2_RT_T0_T1_SB_, symObjAddr: 0x2C414, symBinAddr: 0x10002EBFC, symSize: 0x80 }
  - { offsetInCU: 0x6E36A, offset: 0x6E36A, size: 0x8, addend: 0x0, symName: __ZNSt3__114__unwrap_rangeB8ue170006IPKNS_12basic_stringIcNS_11char_traitsIcEENS_9allocatorIcEEEES8_EEDaT_T0_, symObjAddr: 0x2C50C, symBinAddr: 0x10002ECF4, symSize: 0x3C }
  - { offsetInCU: 0x6E3B6, offset: 0x6E3B6, size: 0x8, addend: 0x0, symName: __ZNSt3__135__uninitialized_allocator_copy_implB8ue170006INS_9allocatorINS_12basic_stringIcNS_11char_traitsIcEENS1_IcEEEEEEPKS6_S9_PS6_EET2_RT_T0_T1_SB_, symObjAddr: 0x2C548, symBinAddr: 0x10002ED30, symSize: 0xF4 }
  - { offsetInCU: 0x6E454, offset: 0x6E454, size: 0x8, addend: 0x0, symName: __ZNSt3__113__unwrap_iterB8ue170006IPNS_12basic_stringIcNS_11char_traitsIcEENS_9allocatorIcEEEENS_18__unwrap_iter_implIS7_Lb1EEELi0EEEDTclsrT0_8__unwrapclsr3stdE7declvalIT_EEEESB_, symObjAddr: 0x2C63C, symBinAddr: 0x10002EE24, symSize: 0x24 }
  - { offsetInCU: 0x6E498, offset: 0x6E498, size: 0x8, addend: 0x0, symName: __ZNSt3__113__rewrap_iterB8ue170006IPNS_12basic_stringIcNS_11char_traitsIcEENS_9allocatorIcEEEES7_NS_18__unwrap_iter_implIS7_Lb1EEEEET_SA_T0_, symObjAddr: 0x2C660, symBinAddr: 0x10002EE48, symSize: 0x3C }
  - { offsetInCU: 0x6E609, offset: 0x6E609, size: 0x8, addend: 0x0, symName: __ZNSt3__113__unwrap_iterB8ue170006IPKNS_12basic_stringIcNS_11char_traitsIcEENS_9allocatorIcEEEENS_18__unwrap_iter_implIS8_Lb1EEELi0EEEDTclsrT0_8__unwrapclsr3stdE7declvalIT_EEEESC_, symObjAddr: 0x2C6F4, symBinAddr: 0x10002EEDC, symSize: 0x24 }
  - { offsetInCU: 0x6E6A0, offset: 0x6E6A0, size: 0x8, addend: 0x0, symName: __ZNSt3__112__to_addressB8ue170006IKNS_12basic_stringIcNS_11char_traitsIcEENS_9allocatorIcEEEEEEPT_S9_, symObjAddr: 0x2C778, symBinAddr: 0x10002EF60, symSize: 0x14 }
  - { offsetInCU: 0x6E6D5, offset: 0x6E6D5, size: 0x8, addend: 0x0, symName: __ZNSt3__122__make_exception_guardB8ue170006INS_29_AllocatorDestroyRangeReverseINS_9allocatorINS_12basic_stringIcNS_11char_traitsIcEENS2_IcEEEEEEPS7_EEEENS_28__exception_guard_exceptionsIT_EESC_, symObjAddr: 0x2C7C0, symBinAddr: 0x10002EFA8, symSize: 0x4C }
  - { offsetInCU: 0x6E70B, offset: 0x6E70B, size: 0x8, addend: 0x0, symName: __ZNSt3__119__allocator_destroyB8ue170006INS_9allocatorINS_12basic_stringIcNS_11char_traitsIcEENS1_IcEEEEEENS_16reverse_iteratorIPS6_EESA_EEvRT_T0_T1_, symObjAddr: 0x2C9EC, symBinAddr: 0x10002F1D4, symSize: 0x70 }
  - { offsetInCU: 0x6E76E, offset: 0x6E76E, size: 0x8, addend: 0x0, symName: __ZNSt3__1neB8ue170006IPNS_12basic_stringIcNS_11char_traitsIcEENS_9allocatorIcEEEES7_EEbRKNS_16reverse_iteratorIT_EERKNS8_IT0_EE, symObjAddr: 0x2CA90, symBinAddr: 0x10002F278, symSize: 0x48 }
  - { offsetInCU: 0x6E7BA, offset: 0x6E7BA, size: 0x8, addend: 0x0, symName: __ZNSt3__112__to_addressB8ue170006INS_16reverse_iteratorIPNS_12basic_stringIcNS_11char_traitsIcEENS_9allocatorIcEEEEEEvEEu7__decayIDTclsr19__to_address_helperIT_EE6__callclsr3stdE7declvalIRKSA_EEEEESC_, symObjAddr: 0x2CAD8, symBinAddr: 0x10002F2C0, symSize: 0x24 }
  - { offsetInCU: 0x6E81A, offset: 0x6E81A, size: 0x8, addend: 0x0, symName: __ZNSt3__14prevB8ue170006IPNS_12basic_stringIcNS_11char_traitsIcEENS_9allocatorIcEEEEEENS_9enable_ifIXsr29__has_input_iterator_categoryIT_EE5valueES9_E4typeES9_NS_15iterator_traitsIS9_E15difference_typeE, symObjAddr: 0x2CB98, symBinAddr: 0x10002F380, symSize: 0x3C }
  - { offsetInCU: 0x6E85E, offset: 0x6E85E, size: 0x8, addend: 0x0, symName: __ZNSt3__19__advanceB8ue170006IPNS_12basic_stringIcNS_11char_traitsIcEENS_9allocatorIcEEEEEEvRT_NS_15iterator_traitsIS8_E15difference_typeENS_26random_access_iterator_tagE, symObjAddr: 0x2CC0C, symBinAddr: 0x10002F3F4, symSize: 0x30 }
  - { offsetInCU: 0x6E8FB, offset: 0x6E8FB, size: 0x8, addend: 0x0, symName: __ZNSt3__123__dispatch_copy_or_moveB8ue170006INS_17_ClassicAlgPolicyENS_11__copy_loopIS1_EENS_14__copy_trivialEPKNS_12basic_stringIcNS_11char_traitsIcEENS_9allocatorIcEEEESC_PSA_EENS_4pairIT2_T4_EESF_T3_SG_, symObjAddr: 0x2CD00, symBinAddr: 0x10002F4E8, symSize: 0x44 }
  - { offsetInCU: 0x6E979, offset: 0x6E979, size: 0x8, addend: 0x0, symName: __ZNSt3__121__unwrap_and_dispatchB8ue170006INS_10__overloadINS_11__copy_loopINS_17_ClassicAlgPolicyEEENS_14__copy_trivialEEEPKNS_12basic_stringIcNS_11char_traitsIcEENS_9allocatorIcEEEESE_PSC_Li0EEENS_4pairIT0_T2_EESH_T1_SI_, symObjAddr: 0x2CD44, symBinAddr: 0x10002F52C, symSize: 0xB4 }
  - { offsetInCU: 0x6EB6C, offset: 0x6EB6C, size: 0x8, addend: 0x0, symName: __ZNSt3__19make_pairB8ue170006IPKNS_12basic_stringIcNS_11char_traitsIcEENS_9allocatorIcEEEEPS6_EENS_4pairINS_18__unwrap_ref_decayIT_E4typeENSB_IT0_E4typeEEEOSC_OSF_, symObjAddr: 0x2CE80, symBinAddr: 0x10002F668, symSize: 0x38 }
  - { offsetInCU: 0x6EBBB, offset: 0x6EBBB, size: 0x8, addend: 0x0, symName: __ZNSt3__114__rewrap_rangeB8ue170006IPKNS_12basic_stringIcNS_11char_traitsIcEENS_9allocatorIcEEEES8_S8_EET0_S9_T1_, symObjAddr: 0x2CEB8, symBinAddr: 0x10002F6A0, symSize: 0x2C }
  - { offsetInCU: 0x6EC10, offset: 0x6EC10, size: 0x8, addend: 0x0, symName: __ZNSt3__113__rewrap_iterB8ue170006IPKNS_12basic_stringIcNS_11char_traitsIcEENS_9allocatorIcEEEES8_NS_18__unwrap_iter_implIS8_Lb1EEEEET_SB_T0_, symObjAddr: 0x2CF80, symBinAddr: 0x10002F768, symSize: 0x3C }
  - { offsetInCU: 0x6EC65, offset: 0x6EC65, size: 0x8, addend: 0x0, symName: __ZNSt3__119__allocate_at_leastB8ue170006INS_9allocatorINS_12basic_stringIcNS_11char_traitsIcEENS1_IcEEEEEEEENS_19__allocation_resultINS_16allocator_traitsIT_E7pointerEEERSA_m, symObjAddr: 0x2D0F0, symBinAddr: 0x10002F8D8, symSize: 0x40 }
  - { offsetInCU: 0x6ECA8, offset: 0x6ECA8, size: 0x8, addend: 0x0, symName: __ZNSt3__110__distanceB8ue170006IPKNS_12basic_stringIcNS_11char_traitsIcEENS_9allocatorIcEEEEEENS_15iterator_traitsIT_E15difference_typeESA_SA_NS_26random_access_iterator_tagE, symObjAddr: 0x2D244, symBinAddr: 0x10002FA2C, symSize: 0x28 }
  - { offsetInCU: 0x6ECF6, offset: 0x6ECF6, size: 0x8, addend: 0x0, symName: __ZNSt3__1eqB8ue170006IPNS_12basic_stringIcNS_11char_traitsIcEENS_9allocatorIcEEEEEEbRKNS_11__wrap_iterIT_EESC_, symObjAddr: 0x2D2F0, symBinAddr: 0x10002FAD8, symSize: 0x48 }
  - { offsetInCU: 0x6ED39, offset: 0x6ED39, size: 0x8, addend: 0x0, symName: __ZNSt3__142__uninitialized_allocator_move_if_noexceptB8ue170006INS_9allocatorINS_12basic_stringIcNS_11char_traitsIcEENS1_IcEEEEEENS_16reverse_iteratorIPS6_EESA_SA_EET2_RT_T0_T1_SB_, symObjAddr: 0x2D88C, symBinAddr: 0x100030074, symSize: 0x124 }
  - { offsetInCU: 0x6EDD9, offset: 0x6EDD9, size: 0x8, addend: 0x0, symName: __ZNSt3__14swapB8ue170006IPNS_12basic_stringIcNS_11char_traitsIcEENS_9allocatorIcEEEEEENS_9enable_ifIXaasr21is_move_constructibleIT_EE5valuesr18is_move_assignableIS9_EE5valueEvE4typeERS9_SC_, symObjAddr: 0x2D9B0, symBinAddr: 0x100030198, symSize: 0x3C }
  - { offsetInCU: 0x6EE2A, offset: 0x6EE2A, size: 0x8, addend: 0x0, symName: __ZNSt3__122__make_exception_guardB8ue170006INS_29_AllocatorDestroyRangeReverseINS_9allocatorINS_12basic_stringIcNS_11char_traitsIcEENS2_IcEEEEEENS_16reverse_iteratorIPS7_EEEEEENS_28__exception_guard_exceptionsIT_EESE_, symObjAddr: 0x2D9EC, symBinAddr: 0x1000301D4, symSize: 0x4C }
  - { offsetInCU: 0x6EE60, offset: 0x6EE60, size: 0x8, addend: 0x0, symName: __ZNSt3__112construct_atB8ue170006INS_12basic_stringIcNS_11char_traitsIcEENS_9allocatorIcEEEEJS6_EPS6_EEPT_S9_DpOT0_, symObjAddr: 0x2DBB8, symBinAddr: 0x1000303A0, symSize: 0x3C }
  - { offsetInCU: 0x6EED1, offset: 0x6EED1, size: 0x8, addend: 0x0, symName: __ZNSt3__119__allocator_destroyB8ue170006INS_9allocatorINS_12basic_stringIcNS_11char_traitsIcEENS1_IcEEEEEENS_16reverse_iteratorINS8_IPS6_EEEESB_EEvRT_T0_T1_, symObjAddr: 0x2DCF8, symBinAddr: 0x1000304E0, symSize: 0x70 }
  - { offsetInCU: 0x6EF36, offset: 0x6EF36, size: 0x8, addend: 0x0, symName: __ZNSt3__1neB8ue170006INS_16reverse_iteratorIPNS_12basic_stringIcNS_11char_traitsIcEENS_9allocatorIcEEEEEES9_EEbRKNS1_IT_EERKNS1_IT0_EE, symObjAddr: 0x2DDA4, symBinAddr: 0x10003058C, symSize: 0x60 }
  - { offsetInCU: 0x6EF82, offset: 0x6EF82, size: 0x8, addend: 0x0, symName: __ZNSt3__112__to_addressB8ue170006INS_16reverse_iteratorINS1_IPNS_12basic_stringIcNS_11char_traitsIcEENS_9allocatorIcEEEEEEEEvEEu7__decayIDTclsr19__to_address_helperIT_EE6__callclsr3stdE7declvalIRKSB_EEEEESD_, symObjAddr: 0x2DE04, symBinAddr: 0x1000305EC, symSize: 0x24 }
  - { offsetInCU: 0x6EFE2, offset: 0x6EFE2, size: 0x8, addend: 0x0, symName: __ZNSt3__14prevB8ue170006INS_16reverse_iteratorIPNS_12basic_stringIcNS_11char_traitsIcEENS_9allocatorIcEEEEEEEENS_9enable_ifIXsr29__has_input_iterator_categoryIT_EE5valueESB_E4typeESB_NS_15iterator_traitsISB_E15difference_typeE, symObjAddr: 0x2DF00, symBinAddr: 0x1000306E8, symSize: 0x4C }
  - { offsetInCU: 0x6F025, offset: 0x6F025, size: 0x8, addend: 0x0, symName: __ZNSt3__19__advanceB8ue170006INS_16reverse_iteratorIPNS_12basic_stringIcNS_11char_traitsIcEENS_9allocatorIcEEEEEEEEvRT_NS_15iterator_traitsISA_E15difference_typeENS_26random_access_iterator_tagE, symObjAddr: 0x2DF84, symBinAddr: 0x10003076C, symSize: 0x2C }
  - { offsetInCU: 0x6F06F, offset: 0x6F06F, size: 0x8, addend: 0x0, symName: __ZNSt3__18distanceB8ue170006IPNS_12basic_stringIcNS_11char_traitsIcEENS_9allocatorIcEEEEEENS_15iterator_traitsIT_E15difference_typeES9_S9_, symObjAddr: 0x2E434, symBinAddr: 0x100030C1C, symSize: 0x2C }
  - { offsetInCU: 0x6F0B2, offset: 0x6F0B2, size: 0x8, addend: 0x0, symName: __ZNSt3__14nextB8ue170006IPNS_12basic_stringIcNS_11char_traitsIcEENS_9allocatorIcEEEEEENS_9enable_ifIXsr29__has_input_iterator_categoryIT_EE5valueES9_E4typeES9_NS_15iterator_traitsIS9_E15difference_typeE, symObjAddr: 0x2E460, symBinAddr: 0x100030C48, symSize: 0x34 }
  - { offsetInCU: 0x6F0F5, offset: 0x6F0F5, size: 0x8, addend: 0x0, symName: __ZNSt3__14copyB8ue170006IPNS_12basic_stringIcNS_11char_traitsIcEENS_9allocatorIcEEEES7_EET0_T_S9_S8_, symObjAddr: 0x2E494, symBinAddr: 0x100030C7C, symSize: 0x40 }
  - { offsetInCU: 0x6F14F, offset: 0x6F14F, size: 0x8, addend: 0x0, symName: __ZNSt3__16__copyB8ue170006INS_17_ClassicAlgPolicyEPNS_12basic_stringIcNS_11char_traitsIcEENS_9allocatorIcEEEES8_S8_EENS_4pairIT0_T2_EESA_T1_SB_, symObjAddr: 0x2E560, symBinAddr: 0x100030D48, symSize: 0x44 }
  - { offsetInCU: 0x6F1BB, offset: 0x6F1BB, size: 0x8, addend: 0x0, symName: __ZNSt3__130__uninitialized_allocator_copyB8ue170006INS_9allocatorINS_12basic_stringIcNS_11char_traitsIcEENS1_IcEEEEEEPS6_S8_S8_EET2_RT_T0_T1_S9_, symObjAddr: 0x2E5A4, symBinAddr: 0x100030D8C, symSize: 0x80 }
  - { offsetInCU: 0x6F258, offset: 0x6F258, size: 0x8, addend: 0x0, symName: __ZNSt3__114__unwrap_rangeB8ue170006IPNS_12basic_stringIcNS_11char_traitsIcEENS_9allocatorIcEEEES7_EEDaT_T0_, symObjAddr: 0x2E624, symBinAddr: 0x100030E0C, symSize: 0x3C }
  - { offsetInCU: 0x6F2A4, offset: 0x6F2A4, size: 0x8, addend: 0x0, symName: __ZNSt3__135__uninitialized_allocator_copy_implB8ue170006INS_9allocatorINS_12basic_stringIcNS_11char_traitsIcEENS1_IcEEEEEEPS6_S8_S8_EET2_RT_T0_T1_S9_, symObjAddr: 0x2E660, symBinAddr: 0x100030E48, symSize: 0xF4 }
  - { offsetInCU: 0x6F466, offset: 0x6F466, size: 0x8, addend: 0x0, symName: __ZNSt3__112construct_atB8ue170006INS_12basic_stringIcNS_11char_traitsIcEENS_9allocatorIcEEEEJRS6_EPS6_EEPT_SA_DpOT0_, symObjAddr: 0x2E84C, symBinAddr: 0x100031034, symSize: 0x3C }
  - { offsetInCU: 0x6F4D7, offset: 0x6F4D7, size: 0x8, addend: 0x0, symName: __ZNSt3__123__dispatch_copy_or_moveB8ue170006INS_17_ClassicAlgPolicyENS_11__copy_loopIS1_EENS_14__copy_trivialEPNS_12basic_stringIcNS_11char_traitsIcEENS_9allocatorIcEEEESB_SB_EENS_4pairIT2_T4_EESD_T3_SE_, symObjAddr: 0x2E888, symBinAddr: 0x100031070, symSize: 0x44 }
  - { offsetInCU: 0x6F555, offset: 0x6F555, size: 0x8, addend: 0x0, symName: __ZNSt3__121__unwrap_and_dispatchB8ue170006INS_10__overloadINS_11__copy_loopINS_17_ClassicAlgPolicyEEENS_14__copy_trivialEEEPNS_12basic_stringIcNS_11char_traitsIcEENS_9allocatorIcEEEESD_SD_Li0EEENS_4pairIT0_T2_EESF_T1_SG_, symObjAddr: 0x2E8CC, symBinAddr: 0x1000310B4, symSize: 0xB4 }
  - { offsetInCU: 0x6F5E3, offset: 0x6F5E3, size: 0x8, addend: 0x0, symName: __ZNSt3__19make_pairB8ue170006IPNS_12basic_stringIcNS_11char_traitsIcEENS_9allocatorIcEEEES7_EENS_4pairINS_18__unwrap_ref_decayIT_E4typeENS9_IT0_E4typeEEEOSA_OSD_, symObjAddr: 0x2EA08, symBinAddr: 0x1000311F0, symSize: 0x38 }
  - { offsetInCU: 0x6F632, offset: 0x6F632, size: 0x8, addend: 0x0, symName: __ZNSt3__114__rewrap_rangeB8ue170006IPNS_12basic_stringIcNS_11char_traitsIcEENS_9allocatorIcEEEES7_S7_EET0_S8_T1_, symObjAddr: 0x2EA40, symBinAddr: 0x100031228, symSize: 0x2C }
  - { offsetInCU: 0x6F687, offset: 0x6F687, size: 0x8, addend: 0x0, symName: __ZNSt3__110__distanceB8ue170006IPNS_12basic_stringIcNS_11char_traitsIcEENS_9allocatorIcEEEEEENS_15iterator_traitsIT_E15difference_typeES9_S9_NS_26random_access_iterator_tagE, symObjAddr: 0x2EA98, symBinAddr: 0x100031280, symSize: 0x28 }
  - { offsetInCU: 0x6F6D5, offset: 0x6F6D5, size: 0x8, addend: 0x0, symName: __ZNSt3__112construct_atB8ue170006IfJfEPfEEPT_S3_DpOT0_, symObjAddr: 0x2EC58, symBinAddr: 0x100031440, symSize: 0x2C }
  - { offsetInCU: 0x6F746, offset: 0x6F746, size: 0x8, addend: 0x0, symName: __ZNSt3__116forward_as_tupleB8ue170006IJRKfEEENS_5tupleIJDpOT_EEES6_, symObjAddr: 0x2F150, symBinAddr: 0x100031938, symSize: 0x2C }
  - { offsetInCU: 0x6F77F, offset: 0x6F77F, size: 0x8, addend: 0x0, symName: __ZNSt3__17launderB8ue170006IKNS_4pairIKfNS_12basic_stringIcNS_11char_traitsIcEENS_9allocatorIcEEEEEEEEPT_SC_, symObjAddr: 0x2F834, symBinAddr: 0x10003201C, symSize: 0x24 }
  - { offsetInCU: 0x6F7B6, offset: 0x6F7B6, size: 0x8, addend: 0x0, symName: __ZNSt3__19__launderB8ue170006IKNS_4pairIKfNS_12basic_stringIcNS_11char_traitsIcEENS_9allocatorIcEEEEEEEEPT_SC_, symObjAddr: 0x2F858, symBinAddr: 0x100032040, symSize: 0x14 }
  - { offsetInCU: 0x6F832, offset: 0x6F832, size: 0x8, addend: 0x0, symName: __ZNSt3__112construct_atB8ue170006INS_4pairIKfNS_12basic_stringIcNS_11char_traitsIcEENS_9allocatorIcEEEEEEJRKNS_21piecewise_construct_tENS_5tupleIJRS2_EEENSD_IJEEEEPS9_EEPT_SJ_DpOT0_, symObjAddr: 0x2FB50, symBinAddr: 0x100032338, symSize: 0x50 }
  - { offsetInCU: 0x6F8C9, offset: 0x6F8C9, size: 0x8, addend: 0x0, symName: __ZNSt3__13getB8ue170006ILm0EJRKfEEERNS_13tuple_elementIXT_ENS_5tupleIJDpT0_EEEE4typeERS7_, symObjAddr: 0x2FC6C, symBinAddr: 0x100032454, symSize: 0x24 }
  - { offsetInCU: 0x6F954, offset: 0x6F954, size: 0x8, addend: 0x0, symName: __ZNSt3__116forward_as_tupleB8ue170006IJRKNS_12basic_stringIcNS_11char_traitsIcEENS_9allocatorIcEEEEEEENS_5tupleIJDpOT_EEESC_, symObjAddr: 0x30A7C, symBinAddr: 0x100033264, symSize: 0x2C }
  - { offsetInCU: 0x6F98D, offset: 0x6F98D, size: 0x8, addend: 0x0, symName: __ZNSt3__17launderB8ue170006IKNS_4pairIKNS_12basic_stringIcNS_11char_traitsIcEENS_9allocatorIcEEEEfEEEEPT_SC_, symObjAddr: 0x310A8, symBinAddr: 0x100033890, symSize: 0x24 }
  - { offsetInCU: 0x6F9C4, offset: 0x6F9C4, size: 0x8, addend: 0x0, symName: __ZNSt3__19__launderB8ue170006IKNS_4pairIKNS_12basic_stringIcNS_11char_traitsIcEENS_9allocatorIcEEEEfEEEEPT_SC_, symObjAddr: 0x310CC, symBinAddr: 0x1000338B4, symSize: 0x14 }
  - { offsetInCU: 0x6FA40, offset: 0x6FA40, size: 0x8, addend: 0x0, symName: __ZNSt3__112construct_atB8ue170006INS_4pairIKNS_12basic_stringIcNS_11char_traitsIcEENS_9allocatorIcEEEEfEEJRKNS_21piecewise_construct_tENS_5tupleIJRS8_EEENSD_IJEEEEPS9_EEPT_SJ_DpOT0_, symObjAddr: 0x313C4, symBinAddr: 0x100033BAC, symSize: 0x50 }
  - { offsetInCU: 0x6FAD7, offset: 0x6FAD7, size: 0x8, addend: 0x0, symName: __ZNSt3__13getB8ue170006ILm0EJRKNS_12basic_stringIcNS_11char_traitsIcEENS_9allocatorIcEEEEEEERNS_13tuple_elementIXT_ENS_5tupleIJDpT0_EEEE4typeERSD_, symObjAddr: 0x314D8, symBinAddr: 0x100033CC0, symSize: 0x24 }
  - { offsetInCU: 0x6FB62, offset: 0x6FB62, size: 0x8, addend: 0x0, symName: __ZNSt3__116forward_as_tupleB8ue170006IJbEEENS_5tupleIJDpOT_EEES4_, symObjAddr: 0x322E8, symBinAddr: 0x100034AD0, symSize: 0x2C }
  - { offsetInCU: 0x6FB9B, offset: 0x6FB9B, size: 0x8, addend: 0x0, symName: __ZNSt3__17launderB8ue170006IKNS_4pairIKbNS_13unordered_mapIbNS3_IbNS_6vectorIfNS_9allocatorIfEEEENS_4hashIbEENS_8equal_toIbEENS5_INS1_IS2_S7_EEEEEES9_SB_NS5_INS1_IS2_SE_EEEEEEEEEEPT_SL_, symObjAddr: 0x32978, symBinAddr: 0x100035160, symSize: 0x24 }
  - { offsetInCU: 0x6FBD2, offset: 0x6FBD2, size: 0x8, addend: 0x0, symName: __ZNSt3__19__launderB8ue170006IKNS_4pairIKbNS_13unordered_mapIbNS3_IbNS_6vectorIfNS_9allocatorIfEEEENS_4hashIbEENS_8equal_toIbEENS5_INS1_IS2_S7_EEEEEES9_SB_NS5_INS1_IS2_SE_EEEEEEEEEEPT_SL_, symObjAddr: 0x3299C, symBinAddr: 0x100035184, symSize: 0x14 }
  - { offsetInCU: 0x6FC4E, offset: 0x6FC4E, size: 0x8, addend: 0x0, symName: __ZNSt3__112construct_atB8ue170006INS_4pairIKbNS_13unordered_mapIbNS3_IbNS_6vectorIfNS_9allocatorIfEEEENS_4hashIbEENS_8equal_toIbEENS5_INS1_IS2_S7_EEEEEES9_SB_NS5_INS1_IS2_SE_EEEEEEEEJRKNS_21piecewise_construct_tENS_5tupleIJObEEENSM_IJEEEEPSI_EEPT_SS_DpOT0_, symObjAddr: 0x32C90, symBinAddr: 0x100035478, symSize: 0x50 }
  - { offsetInCU: 0x6FCE5, offset: 0x6FCE5, size: 0x8, addend: 0x0, symName: __ZNSt3__13getB8ue170006ILm0EJObEEERNS_13tuple_elementIXT_ENS_5tupleIJDpT0_EEEE4typeERS6_, symObjAddr: 0x32DB0, symBinAddr: 0x100035598, symSize: 0x24 }
  - { offsetInCU: 0x6FD70, offset: 0x6FD70, size: 0x8, addend: 0x0, symName: __ZNSt3__17launderB8ue170006IKNS_4pairIKbNS_13unordered_mapIbNS_6vectorIfNS_9allocatorIfEEEENS_4hashIbEENS_8equal_toIbEENS5_INS1_IS2_S7_EEEEEEEEEEPT_SI_, symObjAddr: 0x347F8, symBinAddr: 0x100036FE0, symSize: 0x24 }
  - { offsetInCU: 0x6FDA7, offset: 0x6FDA7, size: 0x8, addend: 0x0, symName: __ZNSt3__19__launderB8ue170006IKNS_4pairIKbNS_13unordered_mapIbNS_6vectorIfNS_9allocatorIfEEEENS_4hashIbEENS_8equal_toIbEENS5_INS1_IS2_S7_EEEEEEEEEEPT_SI_, symObjAddr: 0x3481C, symBinAddr: 0x100037004, symSize: 0x14 }
  - { offsetInCU: 0x6FE23, offset: 0x6FE23, size: 0x8, addend: 0x0, symName: __ZNSt3__112construct_atB8ue170006INS_4pairIKbNS_13unordered_mapIbNS_6vectorIfNS_9allocatorIfEEEENS_4hashIbEENS_8equal_toIbEENS5_INS1_IS2_S7_EEEEEEEEJRKNS_21piecewise_construct_tENS_5tupleIJObEEENSJ_IJEEEEPSF_EEPT_SP_DpOT0_, symObjAddr: 0x34B10, symBinAddr: 0x1000372F8, symSize: 0x50 }
  - { offsetInCU: 0x6FEED, offset: 0x6FEED, size: 0x8, addend: 0x0, symName: __ZNSt3__17launderB8ue170006IKNS_4pairIKbNS_6vectorIfNS_9allocatorIfEEEEEEEEPT_SA_, symObjAddr: 0x3654C, symBinAddr: 0x100038D34, symSize: 0x24 }
  - { offsetInCU: 0x6FF24, offset: 0x6FF24, size: 0x8, addend: 0x0, symName: __ZNSt3__19__launderB8ue170006IKNS_4pairIKbNS_6vectorIfNS_9allocatorIfEEEEEEEEPT_SA_, symObjAddr: 0x36570, symBinAddr: 0x100038D58, symSize: 0x14 }
  - { offsetInCU: 0x6FFA0, offset: 0x6FFA0, size: 0x8, addend: 0x0, symName: __ZNSt3__112construct_atB8ue170006INS_4pairIKbNS_6vectorIfNS_9allocatorIfEEEEEEJRKNS_21piecewise_construct_tENS_5tupleIJObEEENSB_IJEEEEPS7_EEPT_SH_DpOT0_, symObjAddr: 0x36868, symBinAddr: 0x100039050, symSize: 0x50 }
  - { offsetInCU: 0x7006A, offset: 0x7006A, size: 0x8, addend: 0x0, symName: __ZNSt3__18distanceB8ue170006IPfEENS_15iterator_traitsIT_E15difference_typeES3_S3_, symObjAddr: 0x373A0, symBinAddr: 0x100039B88, symSize: 0x2C }
  - { offsetInCU: 0x700AD, offset: 0x700AD, size: 0x8, addend: 0x0, symName: __ZNSt3__14nextB8ue170006IPfEENS_9enable_ifIXsr29__has_input_iterator_categoryIT_EE5valueES3_E4typeES3_NS_15iterator_traitsIS3_E15difference_typeE, symObjAddr: 0x373CC, symBinAddr: 0x100039BB4, symSize: 0x34 }
  - { offsetInCU: 0x700F0, offset: 0x700F0, size: 0x8, addend: 0x0, symName: __ZNSt3__14copyB8ue170006IPfS1_EET0_T_S3_S2_, symObjAddr: 0x37400, symBinAddr: 0x100039BE8, symSize: 0x40 }
  - { offsetInCU: 0x7014A, offset: 0x7014A, size: 0x8, addend: 0x0, symName: __ZNSt3__16__copyB8ue170006INS_17_ClassicAlgPolicyEPfS2_S2_EENS_4pairIT0_T2_EES4_T1_S5_, symObjAddr: 0x374CC, symBinAddr: 0x100039CB4, symSize: 0x44 }
  - { offsetInCU: 0x701B7, offset: 0x701B7, size: 0x8, addend: 0x0, symName: __ZNSt3__19__advanceB8ue170006IPfEEvRT_NS_15iterator_traitsIS2_E15difference_typeENS_26random_access_iterator_tagE, symObjAddr: 0x37548, symBinAddr: 0x100039D30, symSize: 0x28 }
  - { offsetInCU: 0x70201, offset: 0x70201, size: 0x8, addend: 0x0, symName: __ZNSt3__130__uninitialized_allocator_copyB8ue170006INS_9allocatorIfEEPfS3_S3_EET2_RT_T0_T1_S4_, symObjAddr: 0x37570, symBinAddr: 0x100039D58, symSize: 0x80 }
  - { offsetInCU: 0x7029E, offset: 0x7029E, size: 0x8, addend: 0x0, symName: __ZNSt3__114__unwrap_rangeB8ue170006IPfS1_EEDaT_T0_, symObjAddr: 0x375F0, symBinAddr: 0x100039DD8, symSize: 0x3C }
  - { offsetInCU: 0x702EA, offset: 0x702EA, size: 0x8, addend: 0x0, symName: __ZNSt3__135__uninitialized_allocator_copy_implB8ue170006INS_9allocatorIfEEfffLPv0EEEPT2_RT_PT0_S9_S5_, symObjAddr: 0x3762C, symBinAddr: 0x100039E14, symSize: 0x38 }
  - { offsetInCU: 0x704ED, offset: 0x704ED, size: 0x8, addend: 0x0, symName: __ZNSt3__123__dispatch_copy_or_moveB8ue170006INS_17_ClassicAlgPolicyENS_11__copy_loopIS1_EENS_14__copy_trivialEPfS5_S5_EENS_4pairIT2_T4_EES7_T3_S8_, symObjAddr: 0x3772C, symBinAddr: 0x100039F14, symSize: 0x44 }
  - { offsetInCU: 0x7056B, offset: 0x7056B, size: 0x8, addend: 0x0, symName: __ZNSt3__121__unwrap_and_dispatchB8ue170006INS_10__overloadINS_11__copy_loopINS_17_ClassicAlgPolicyEEENS_14__copy_trivialEEEPfS7_S7_Li0EEENS_4pairIT0_T2_EES9_T1_SA_, symObjAddr: 0x37770, symBinAddr: 0x100039F58, symSize: 0xB4 }
  - { offsetInCU: 0x705F9, offset: 0x705F9, size: 0x8, addend: 0x0, symName: __ZNSt3__19make_pairB8ue170006IPfS1_EENS_4pairINS_18__unwrap_ref_decayIT_E4typeENS3_IT0_E4typeEEEOS4_OS7_, symObjAddr: 0x3786C, symBinAddr: 0x10003A054, symSize: 0x38 }
  - { offsetInCU: 0x70648, offset: 0x70648, size: 0x8, addend: 0x0, symName: __ZNSt3__114__rewrap_rangeB8ue170006IPfS1_S1_EET0_S2_T1_, symObjAddr: 0x378A4, symBinAddr: 0x10003A08C, symSize: 0x2C }
  - { offsetInCU: 0x7069D, offset: 0x7069D, size: 0x8, addend: 0x0, symName: __ZNSt3__119__copy_trivial_implB8ue170006IffEENS_4pairIPT_PT0_EES3_S3_S5_, symObjAddr: 0x378D0, symBinAddr: 0x10003A0B8, symSize: 0x80 }
  - { offsetInCU: 0x70705, offset: 0x70705, size: 0x8, addend: 0x0, symName: __ZNSt3__119__constexpr_memmoveB8ue170006IffLi0EEEPT_S2_PT0_NS_15__element_countE, symObjAddr: 0x37950, symBinAddr: 0x10003A138, symSize: 0x64 }
  - { offsetInCU: 0x70773, offset: 0x70773, size: 0x8, addend: 0x0, symName: __ZNSt3__19make_pairB8ue170006IRPfS1_EENS_4pairINS_18__unwrap_ref_decayIT_E4typeENS4_IT0_E4typeEEEOS5_OS8_, symObjAddr: 0x379B4, symBinAddr: 0x10003A19C, symSize: 0x38 }
  - { offsetInCU: 0x707C2, offset: 0x707C2, size: 0x8, addend: 0x0, symName: __ZNSt3__110__distanceB8ue170006IPfEENS_15iterator_traitsIT_E15difference_typeES3_S3_NS_26random_access_iterator_tagE, symObjAddr: 0x37A88, symBinAddr: 0x10003A270, symSize: 0x28 }
  - { offsetInCU: 0x70810, offset: 0x70810, size: 0x8, addend: 0x0, symName: __ZNSt3__112__to_addressB8ue170006INS_6vectorI10PerceptronNS_9allocatorIS2_EEEEEEPT_S7_, symObjAddr: 0x37F00, symBinAddr: 0x10003A6E8, symSize: 0x14 }
  - { offsetInCU: 0x70845, offset: 0x70845, size: 0x8, addend: 0x0, symName: __ZNSt3__110destroy_atB8ue170006INS_6vectorI10PerceptronNS_9allocatorIS2_EEEELi0EEEvPT_, symObjAddr: 0x37F14, symBinAddr: 0x10003A6FC, symSize: 0x24 }
  - { offsetInCU: 0x7087C, offset: 0x7087C, size: 0x8, addend: 0x0, symName: __ZNSt3__112__destroy_atB8ue170006INS_6vectorI10PerceptronNS_9allocatorIS2_EEEELi0EEEvPT_, symObjAddr: 0x37F38, symBinAddr: 0x10003A720, symSize: 0x24 }
  - { offsetInCU: 0x708B3, offset: 0x708B3, size: 0x8, addend: 0x0, symName: __ZNSt3__112__to_addressB8ue170006I10PerceptronEEPT_S3_, symObjAddr: 0x382FC, symBinAddr: 0x10003AAE4, symSize: 0x14 }
  - { offsetInCU: 0x708E8, offset: 0x708E8, size: 0x8, addend: 0x0, symName: __ZNSt3__110destroy_atB8ue170006I10PerceptronLi0EEEvPT_, symObjAddr: 0x38310, symBinAddr: 0x10003AAF8, symSize: 0x24 }
  - { offsetInCU: 0x7091F, offset: 0x7091F, size: 0x8, addend: 0x0, symName: __ZNSt3__112__destroy_atB8ue170006I10PerceptronLi0EEEvPT_, symObjAddr: 0x38334, symBinAddr: 0x10003AB1C, symSize: 0x24 }
  - { offsetInCU: 0x70956, offset: 0x70956, size: 0x8, addend: 0x0, symName: __ZNSt3__122__cxx_atomic_fetch_subB8ue170006IlEET_PNS_22__cxx_atomic_base_implIS1_EES1_NS_12memory_orderE, symObjAddr: 0x38790, symBinAddr: 0x10003AF78, symSize: 0xD8 }
  - { offsetInCU: 0x709AB, offset: 0x709AB, size: 0x8, addend: 0x0, symName: __ZNSt3__117__cxx_atomic_waitB8ue170006INS_17__cxx_atomic_implIlNS_22__cxx_atomic_base_implIlEEEEZNKS_5latch4waitB8ue170006EvEUlvE_EEbPT_OT0_, symObjAddr: 0x3887C, symBinAddr: 0x10003B064, symSize: 0x64 }
  - { offsetInCU: 0x70A05, offset: 0x70A05, size: 0x8, addend: 0x0, symName: __ZNSt3__133__libcpp_thread_poll_with_backoffB8ue170006IRZNKS_5latch4waitB8ue170006EvEUlvE_RNS_33__libcpp_atomic_wait_backoff_implINS_17__cxx_atomic_implIlNS_22__cxx_atomic_base_implIlEEEES2_EEEEbOT_OT0_NS_6chrono8durationIxNS_5ratioILl1ELl1000000000EEEEE, symObjAddr: 0x388E0, symBinAddr: 0x10003B0C8, symSize: 0x148 }
  - { offsetInCU: 0x70AF4, offset: 0x70AF4, size: 0x8, addend: 0x0, symName: __ZNSt3__121__libcpp_thread_yieldB8ue170006Ev, symObjAddr: 0x38E90, symBinAddr: 0x10003B678, symSize: 0x14 }
  - { offsetInCU: 0x70B0E, offset: 0x70B0E, size: 0x8, addend: 0x0, symName: __ZNSt3__1eqB8ue170006IcNS_11char_traitsIcEENS_9allocatorIcEEEEbRKNS_12basic_stringIT_T0_T1_EEPKS6_, symObjAddr: 0x39A10, symBinAddr: 0x10003C1F8, symSize: 0x5C }
  - { offsetInCU: 0x70B66, offset: 0x70B66, size: 0x8, addend: 0x0, symName: __ZNSt3__13getB8ue170006ILm0EibEEONS_13tuple_elementIXT_ENS_4pairIT0_T1_EEE4typeEOS5_, symObjAddr: 0x3A964, symBinAddr: 0x10003D14C, symSize: 0x24 }
  - { offsetInCU: 0x70BB0, offset: 0x70BB0, size: 0x8, addend: 0x0, symName: __ZNSt3__13getB8ue170006ILm1EibEEONS_13tuple_elementIXT_ENS_4pairIT0_T1_EEE4typeEOS5_, symObjAddr: 0x3A988, symBinAddr: 0x10003D170, symSize: 0x24 }
  - { offsetInCU: 0x70BFA, offset: 0x70BFA, size: 0x8, addend: 0x0, symName: __ZNSt3__1plB8ue170006IcNS_11char_traitsIcEENS_9allocatorIcEEEENS_12basic_stringIT_T0_T1_EEOS9_PKS6_, symObjAddr: 0x3AA24, symBinAddr: 0x10003D20C, symSize: 0x40 }
  - { offsetInCU: 0x70C52, offset: 0x70C52, size: 0x8, addend: 0x0, symName: __ZNSt3__1eqB8ue170006IcNS_11char_traitsIcEEEEbNS_17basic_string_viewIT_T0_EES6_, symObjAddr: 0x3AB44, symBinAddr: 0x10003D32C, symSize: 0xB0 }
  - { offsetInCU: 0x70CA1, offset: 0x70CA1, size: 0x8, addend: 0x0, symName: __ZNSt3__128__char_traits_length_checkedB8ue170006INS_11char_traitsIcEEEEmPKNT_9char_typeE, symObjAddr: 0x3AE90, symBinAddr: 0x10003D678, symSize: 0x24 }
  - { offsetInCU: 0x70CD8, offset: 0x70CD8, size: 0x8, addend: 0x0, symName: __ZNSt3__19make_pairB8ue170006IibEENS_4pairINS_18__unwrap_ref_decayIT_E4typeENS2_IT0_E4typeEEEOS3_OS6_, symObjAddr: 0x3AEB4, symBinAddr: 0x10003D69C, symSize: 0x34 }
  - { offsetInCU: 0x70D27, offset: 0x70D27, size: 0x8, addend: 0x0, symName: __ZNSt3__13maxB8ue170006IiEERKT_S3_S3_, symObjAddr: 0x3B108, symBinAddr: 0x10003D8F0, symSize: 0x2C }
  - { offsetInCU: 0x70D6A, offset: 0x70D6A, size: 0x8, addend: 0x0, symName: __ZNSt3__17find_ifB8ue170006INS_16reverse_iteratorINS_11__wrap_iterIPiEEEEZN5Board10getPNdepthERKNS_6vectorIfNS_9allocatorIfEEEEmmbbbbbEUliE_EET_SE_SE_T0_, symObjAddr: 0x3B134, symBinAddr: 0x10003D91C, symSize: 0x80 }
  - { offsetInCU: 0x70DC4, offset: 0x70DC4, size: 0x8, addend: 0x0, symName: __ZNSt3__1miB8ue170006INS_11__wrap_iterIPiEES3_EEDTmicldtfp0_4baseEcldtfp_4baseEERKNS_16reverse_iteratorIT_EERKNS5_IT0_EE, symObjAddr: 0x3B23C, symBinAddr: 0x10003DA24, symSize: 0x50 }
  - { offsetInCU: 0x70E13, offset: 0x70E13, size: 0x8, addend: 0x0, symName: __ZNSt3__14findB8ue170006INS_11__wrap_iterIPfEEfEET_S4_S4_RKT0_, symObjAddr: 0x3B300, symBinAddr: 0x10003DAE8, symSize: 0x78 }
  - { offsetInCU: 0x70E7B, offset: 0x70E7B, size: 0x8, addend: 0x0, symName: __ZNSt3__113__rewrap_iterB8ue170006INS_11__wrap_iterIPfEES2_NS_18__unwrap_iter_implIS3_Lb1EEEEET_S6_T0_, symObjAddr: 0x3B378, symBinAddr: 0x10003DB60, symSize: 0x4C }
  - { offsetInCU: 0x70ED0, offset: 0x70ED0, size: 0x8, addend: 0x0, symName: __ZNSt3__111__find_implB8ue170006IPfS1_fNS_10__identityEEET_S3_T0_RKT1_RT2_, symObjAddr: 0x3B3C4, symBinAddr: 0x10003DBAC, symSize: 0x88 }
  - { offsetInCU: 0x70F4A, offset: 0x70F4A, size: 0x8, addend: 0x0, symName: __ZNSt3__113__unwrap_iterB8ue170006INS_11__wrap_iterIPfEENS_18__unwrap_iter_implIS3_Lb1EEELi0EEEDTclsrT0_8__unwrapclsr3stdE7declvalIT_EEEES7_, symObjAddr: 0x3B44C, symBinAddr: 0x10003DC34, symSize: 0x2C }
  - { offsetInCU: 0x70FE1, offset: 0x70FE1, size: 0x8, addend: 0x0, symName: __ZNSt3__112__to_addressB8ue170006INS_11__wrap_iterIPfEEvEEu7__decayIDTclsr19__to_address_helperIT_EE6__callclsr3stdE7declvalIRKS4_EEEEES6_, symObjAddr: 0x3B510, symBinAddr: 0x10003DCF8, symSize: 0x24 }
  - { offsetInCU: 0x7107F, offset: 0x7107F, size: 0x8, addend: 0x0, symName: __ZNSt3__18__invokeB8ue170006IRNS_10__identityEJRfEEEDTclclsr3stdE7declvalIT_EEspclsr3stdE7declvalIT0_EEEEOS4_DpOS5_, symObjAddr: 0x3B5B8, symBinAddr: 0x10003DDA0, symSize: 0x2C }
  - { offsetInCU: 0x71124, offset: 0x71124, size: 0x8, addend: 0x0, symName: __ZNSt3__112construct_atB8ue170006IiJiEPiEEPT_S3_DpOT0_, symObjAddr: 0x3B7BC, symBinAddr: 0x10003DFA4, symSize: 0x2C }
  - { offsetInCU: 0x71195, offset: 0x71195, size: 0x8, addend: 0x0, symName: __ZNSt3__142__uninitialized_allocator_move_if_noexceptB8ue170006INS_9allocatorIiEENS_16reverse_iteratorIPiEES5_ivEET1_RT_T0_S9_S6_, symObjAddr: 0x3BC48, symBinAddr: 0x10003E430, symSize: 0x78 }
  - { offsetInCU: 0x71212, offset: 0x71212, size: 0x8, addend: 0x0, symName: __ZNSt3__14swapB8ue170006IPiEENS_9enable_ifIXaasr21is_move_constructibleIT_EE5valuesr18is_move_assignableIS3_EE5valueEvE4typeERS3_S6_, symObjAddr: 0x3BD0C, symBinAddr: 0x10003E4F4, symSize: 0x3C }
  - { offsetInCU: 0x71263, offset: 0x71263, size: 0x8, addend: 0x0, symName: __ZNSt3__14moveB8ue170006INS_16reverse_iteratorIPiEES3_EET0_T_S5_S4_, symObjAddr: 0x3BD48, symBinAddr: 0x10003E530, symSize: 0x78 }
  - { offsetInCU: 0x712BD, offset: 0x712BD, size: 0x8, addend: 0x0, symName: __ZNSt3__16__moveB8ue170006INS_17_ClassicAlgPolicyENS_16reverse_iteratorIPiEES4_S4_EENS_4pairIT0_T2_EES6_T1_S7_, symObjAddr: 0x3BDC0, symBinAddr: 0x10003E5A8, symSize: 0x64 }
  - { offsetInCU: 0x71329, offset: 0x71329, size: 0x8, addend: 0x0, symName: __ZNSt3__123__dispatch_copy_or_moveB8ue170006INS_17_ClassicAlgPolicyENS_11__move_loopIS1_EENS_14__move_trivialENS_16reverse_iteratorIPiEES7_S7_EENS_4pairIT2_T4_EES9_T3_SA_, symObjAddr: 0x3BE24, symBinAddr: 0x10003E60C, symSize: 0x64 }
  - { offsetInCU: 0x713A7, offset: 0x713A7, size: 0x8, addend: 0x0, symName: __ZNSt3__121__unwrap_and_dispatchB8ue170006INS_10__overloadINS_11__move_loopINS_17_ClassicAlgPolicyEEENS_14__move_trivialEEENS_16reverse_iteratorIPiEES9_S9_Li0EEENS_4pairIT0_T2_EESB_T1_SC_, symObjAddr: 0x3BE88, symBinAddr: 0x10003E670, symSize: 0x12C }
  - { offsetInCU: 0x71437, offset: 0x71437, size: 0x8, addend: 0x0, symName: __ZNSt3__114__unwrap_rangeB8ue170006INS_16reverse_iteratorIPiEES3_EEDaT_T0_, symObjAddr: 0x3BFB4, symBinAddr: 0x10003E79C, symSize: 0x4C }
  - { offsetInCU: 0x71557, offset: 0x71557, size: 0x8, addend: 0x0, symName: __ZNSt3__113__unwrap_iterB8ue170006INS_16reverse_iteratorIPiEENS_18__unwrap_iter_implIS3_Lb0EEELi0EEEDTclsrT0_8__unwrapclsr3stdE7declvalIT_EEEES7_, symObjAddr: 0x3C0A0, symBinAddr: 0x10003E888, symSize: 0x44 }
  - { offsetInCU: 0x7159B, offset: 0x7159B, size: 0x8, addend: 0x0, symName: __ZNSt3__19make_pairB8ue170006INS_16reverse_iteratorIPiEES3_EENS_4pairINS_18__unwrap_ref_decayIT_E4typeENS5_IT0_E4typeEEEOS6_OS9_, symObjAddr: 0x3C0E4, symBinAddr: 0x10003E8CC, symSize: 0x38 }
  - { offsetInCU: 0x715EA, offset: 0x715EA, size: 0x8, addend: 0x0, symName: __ZNSt3__114__rewrap_rangeB8ue170006INS_16reverse_iteratorIPiEES3_S3_EET0_S4_T1_, symObjAddr: 0x3C11C, symBinAddr: 0x10003E904, symSize: 0x5C }
  - { offsetInCU: 0x7163F, offset: 0x7163F, size: 0x8, addend: 0x0, symName: __ZNSt3__113__rewrap_iterB8ue170006INS_16reverse_iteratorIPiEES3_NS_18__unwrap_iter_implIS3_Lb0EEEEET_S6_T0_, symObjAddr: 0x3C178, symBinAddr: 0x10003E960, symSize: 0x74 }
  - { offsetInCU: 0x716E4, offset: 0x716E4, size: 0x8, addend: 0x0, symName: __ZNSt3__1neB8ue170006IPiS1_EEbRKNS_16reverse_iteratorIT_EERKNS2_IT0_EE, symObjAddr: 0x3C2E0, symBinAddr: 0x10003EAC8, symSize: 0x48 }
  - { offsetInCU: 0x7179C, offset: 0x7179C, size: 0x8, addend: 0x0, symName: __ZNSt3__13maxB8ue170006IiNS_6__lessIvvEEEERKT_S5_S5_T0_, symObjAddr: 0x3C6A8, symBinAddr: 0x10003EE90, symSize: 0x54 }
  - { offsetInCU: 0x717F6, offset: 0x717F6, size: 0x8, addend: 0x0, symName: __ZNSt3__1neB8ue170006INS_11__wrap_iterIPiEES3_EEbRKNS_16reverse_iteratorIT_EERKNS4_IT0_EE, symObjAddr: 0x3C730, symBinAddr: 0x10003EF18, symSize: 0x54 }
  - { offsetInCU: 0x71842, offset: 0x71842, size: 0x8, addend: 0x0, symName: __ZNSt3__1neB8ue170006IPiEEbRKNS_11__wrap_iterIT_EES6_, symObjAddr: 0x3C80C, symBinAddr: 0x10003EFF4, symSize: 0x34 }
  - { offsetInCU: 0x71885, offset: 0x71885, size: 0x8, addend: 0x0, symName: __ZNSt3__1eqB8ue170006IPiEEbRKNS_11__wrap_iterIT_EES6_, symObjAddr: 0x3C860, symBinAddr: 0x10003F048, symSize: 0x48 }
  - { offsetInCU: 0x718C8, offset: 0x718C8, size: 0x8, addend: 0x0, symName: __ZNSt3__1miB8ue170006IPiS1_EEDTmicldtfp_4baseEcldtfp0_4baseEERKNS_11__wrap_iterIT_EERKNS3_IT0_EE, symObjAddr: 0x3CA38, symBinAddr: 0x10003F220, symSize: 0x48 }
  - { offsetInCU: 0x71914, offset: 0x71914, size: 0x8, addend: 0x0, symName: __ZNSt3__19make_pairB8ue170006IiRbEENS_4pairINS_18__unwrap_ref_decayIT_E4typeENS3_IT0_E4typeEEEOS4_OS7_, symObjAddr: 0x3CA80, symBinAddr: 0x10003F268, symSize: 0x34 }
  - { offsetInCU: 0x71963, offset: 0x71963, size: 0x8, addend: 0x0, symName: __ZNSt3__19make_pairB8ue170006IRibEENS_4pairINS_18__unwrap_ref_decayIT_E4typeENS3_IT0_E4typeEEEOS4_OS7_, symObjAddr: 0x3CAB4, symBinAddr: 0x10003F29C, symSize: 0x34 }
  - { offsetInCU: 0x71A7C, offset: 0x71A7C, size: 0x8, addend: 0x0, symName: __ZNSt3__122__cxx_atomic_fetch_addB8ue170006ImEET_PNS_22__cxx_atomic_base_implIS1_EES1_NS_12memory_orderE, symObjAddr: 0x3D118, symBinAddr: 0x10003F900, symSize: 0xC4 }
  - { offsetInCU: 0x71AD1, offset: 0x71AD1, size: 0x8, addend: 0x0, symName: __ZNSt3__122__cxx_atomic_fetch_subB8ue170006IjEET_PNS_22__cxx_atomic_base_implIS1_EES1_NS_12memory_orderE, symObjAddr: 0x3E134, symBinAddr: 0x10004091C, symSize: 0xD8 }
  - { offsetInCU: 0x71B26, offset: 0x71B26, size: 0x8, addend: 0x0, symName: __ZNSt3__122__cxx_atomic_fetch_addB8ue170006IjEET_PNS_22__cxx_atomic_base_implIS1_EES1_NS_12memory_orderE, symObjAddr: 0x3E54C, symBinAddr: 0x100040D34, symSize: 0xC4 }
  - { offsetInCU: 0x71B7B, offset: 0x71B7B, size: 0x8, addend: 0x0, symName: __ZNSt3__121__cxx_atomic_fetch_orB8ue170006IhEET_PNS_22__cxx_atomic_base_implIS1_EES1_NS_12memory_orderE, symObjAddr: 0x3E7E4, symBinAddr: 0x100040FCC, symSize: 0xC4 }
  - { offsetInCU: 0x71BD0, offset: 0x71BD0, size: 0x8, addend: 0x0, symName: __ZNSt3__122__cxx_atomic_fetch_subB8ue170006ImEET_PNS_22__cxx_atomic_base_implIS1_EES1_NS_12memory_orderE, symObjAddr: 0x3E9A0, symBinAddr: 0x100041188, symSize: 0xD8 }
  - { offsetInCU: 0x71C25, offset: 0x71C25, size: 0x8, addend: 0x0, symName: __ZNSt3__122__make_exception_guardB8ue170006INS_6vectorIfNS_9allocatorIfEEE16__destroy_vectorEEENS_28__exception_guard_exceptionsIT_EES7_, symObjAddr: 0x401C4, symBinAddr: 0x1000429AC, symSize: 0x40 }
  - { offsetInCU: 0x71C5A, offset: 0x71C5A, size: 0x8, addend: 0x0, symName: __ZNSt3__1neB8ue170006IPKfEEbRKNS_11__wrap_iterIT_EES7_, symObjAddr: 0x4034C, symBinAddr: 0x100042B34, symSize: 0x34 }
  - { offsetInCU: 0x71C9D, offset: 0x71C9D, size: 0x8, addend: 0x0, symName: __ZNSt3__1eqB8ue170006IPKfEEbRKNS_11__wrap_iterIT_EES7_, symObjAddr: 0x4043C, symBinAddr: 0x100042C24, symSize: 0x48 }
  - { offsetInCU: 0x71CE0, offset: 0x71CE0, size: 0x8, addend: 0x0, symName: __ZNSt3__116forward_as_tupleB8ue170006IJRKbEEENS_5tupleIJDpOT_EEES6_, symObjAddr: 0x4094C, symBinAddr: 0x100043134, symSize: 0x2C }
  - { offsetInCU: 0x71D19, offset: 0x71D19, size: 0x8, addend: 0x0, symName: __ZNSt3__112construct_atB8ue170006INS_4pairIKbNS_13unordered_mapIbNS3_IbNS_6vectorIfNS_9allocatorIfEEEENS_4hashIbEENS_8equal_toIbEENS5_INS1_IS2_S7_EEEEEES9_SB_NS5_INS1_IS2_SE_EEEEEEEEJRKNS_21piecewise_construct_tENS_5tupleIJRS2_EEENSM_IJEEEEPSI_EEPT_SS_DpOT0_, symObjAddr: 0x40B08, symBinAddr: 0x1000432F0, symSize: 0x50 }
  - { offsetInCU: 0x71DB0, offset: 0x71DB0, size: 0x8, addend: 0x0, symName: __ZNSt3__13getB8ue170006ILm0EJRKbEEERNS_13tuple_elementIXT_ENS_5tupleIJDpT0_EEEE4typeERS7_, symObjAddr: 0x40C28, symBinAddr: 0x100043410, symSize: 0x24 }
  - { offsetInCU: 0x71E08, offset: 0x71E08, size: 0x8, addend: 0x0, symName: __ZNSt3__112construct_atB8ue170006INS_4pairIKbNS_13unordered_mapIbNS_6vectorIfNS_9allocatorIfEEEENS_4hashIbEENS_8equal_toIbEENS5_INS1_IS2_S7_EEEEEEEEJRKNS_21piecewise_construct_tENS_5tupleIJRS2_EEENSJ_IJEEEEPSF_EEPT_SP_DpOT0_, symObjAddr: 0x41394, symBinAddr: 0x100043B7C, symSize: 0x50 }
  - { offsetInCU: 0x71E9F, offset: 0x71E9F, size: 0x8, addend: 0x0, symName: __ZNSt3__112construct_atB8ue170006INS_4pairIKbNS_6vectorIfNS_9allocatorIfEEEEEEJRKNS_21piecewise_construct_tENS_5tupleIJRS2_EEENSB_IJEEEEPS7_EEPT_SH_DpOT0_, symObjAddr: 0x41AF4, symBinAddr: 0x1000442DC, symSize: 0x50 }
  - { offsetInCU: 0x71F36, offset: 0x71F36, size: 0x8, addend: 0x0, symName: __ZNSt3__113__countl_zeroB8ue170006IjEEiT_, symObjAddr: 0x41F24, symBinAddr: 0x10004470C, symSize: 0x54 }
  - { offsetInCU: 0x71F6B, offset: 0x71F6B, size: 0x8, addend: 0x0, symName: __ZNSt3__112__libcpp_clzB8ue170006Ej, symObjAddr: 0x421F0, symBinAddr: 0x1000449D8, symSize: 0x18 }
  - { offsetInCU: 0x72033, offset: 0x72033, size: 0x8, addend: 0x0, symName: __ZNSt3__118__cxx_atomic_storeB8ue170006IfEEvPNS_22__cxx_atomic_base_implIT_EES2_NS_12memory_orderE, symObjAddr: 0x42CC4, symBinAddr: 0x1000454AC, symSize: 0x84 }
  - { offsetInCU: 0x72252, offset: 0x72252, size: 0x8, addend: 0x0, symName: __ZNSt3__1plB8ue170006IcNS_11char_traitsIcEENS_9allocatorIcEEEENS_12basic_stringIT_T0_T1_EEOS9_RKS9_, symObjAddr: 0x42E24, symBinAddr: 0x10004560C, symSize: 0x40 }
  - { offsetInCU: 0x722AA, offset: 0x722AA, size: 0x8, addend: 0x0, symName: __ZNSt3__1plB8ue170006IcNS_11char_traitsIcEENS_9allocatorIcEEEENS_12basic_stringIT_T0_T1_EERKS9_PKS6_, symObjAddr: 0x42E64, symBinAddr: 0x10004564C, symSize: 0x11C }
  - { offsetInCU: 0x726FA, offset: 0x726FA, size: 0x8, addend: 0x0, symName: __ZNSt3__112__to_addressB8ue170006IcEEPT_S2_, symObjAddr: 0x43B04, symBinAddr: 0x1000462EC, symSize: 0x14 }
  - { offsetInCU: 0x7272F, offset: 0x7272F, size: 0x8, addend: 0x0, symName: __ZNSt3__14copyB8ue170006IPKcPcEET0_T_S5_S4_, symObjAddr: 0x44180, symBinAddr: 0x100046968, symSize: 0x40 }
  - { offsetInCU: 0x72789, offset: 0x72789, size: 0x8, addend: 0x0, symName: __ZNSt3__16__copyB8ue170006INS_17_ClassicAlgPolicyEPKcS3_PcEENS_4pairIT0_T2_EES6_T1_S7_, symObjAddr: 0x441C0, symBinAddr: 0x1000469A8, symSize: 0x44 }
  - { offsetInCU: 0x727F5, offset: 0x727F5, size: 0x8, addend: 0x0, symName: __ZNSt3__123__dispatch_copy_or_moveB8ue170006INS_17_ClassicAlgPolicyENS_11__copy_loopIS1_EENS_14__copy_trivialEPKcS6_PcEENS_4pairIT2_T4_EES9_T3_SA_, symObjAddr: 0x44204, symBinAddr: 0x1000469EC, symSize: 0x44 }
  - { offsetInCU: 0x72873, offset: 0x72873, size: 0x8, addend: 0x0, symName: __ZNSt3__121__unwrap_and_dispatchB8ue170006INS_10__overloadINS_11__copy_loopINS_17_ClassicAlgPolicyEEENS_14__copy_trivialEEEPKcS8_PcLi0EEENS_4pairIT0_T2_EESB_T1_SC_, symObjAddr: 0x44248, symBinAddr: 0x100046A30, symSize: 0xB4 }
  - { offsetInCU: 0x72901, offset: 0x72901, size: 0x8, addend: 0x0, symName: __ZNSt3__114__unwrap_rangeB8ue170006IPKcS2_EEDaT_T0_, symObjAddr: 0x442FC, symBinAddr: 0x100046AE4, symSize: 0x3C }
  - { offsetInCU: 0x72A50, offset: 0x72A50, size: 0x8, addend: 0x0, symName: __ZNSt3__113__unwrap_iterB8ue170006IPcNS_18__unwrap_iter_implIS1_Lb1EEELi0EEEDTclsrT0_8__unwrapclsr3stdE7declvalIT_EEEES5_, symObjAddr: 0x44380, symBinAddr: 0x100046B68, symSize: 0x24 }
  - { offsetInCU: 0x72A94, offset: 0x72A94, size: 0x8, addend: 0x0, symName: __ZNSt3__19make_pairB8ue170006IPKcPcEENS_4pairINS_18__unwrap_ref_decayIT_E4typeENS5_IT0_E4typeEEEOS6_OS9_, symObjAddr: 0x443A4, symBinAddr: 0x100046B8C, symSize: 0x38 }
  - { offsetInCU: 0x72AE3, offset: 0x72AE3, size: 0x8, addend: 0x0, symName: __ZNSt3__114__rewrap_rangeB8ue170006IPKcS2_S2_EET0_S3_T1_, symObjAddr: 0x443DC, symBinAddr: 0x100046BC4, symSize: 0x2C }
  - { offsetInCU: 0x72B38, offset: 0x72B38, size: 0x8, addend: 0x0, symName: __ZNSt3__113__rewrap_iterB8ue170006IPcS1_NS_18__unwrap_iter_implIS1_Lb1EEEEET_S4_T0_, symObjAddr: 0x44408, symBinAddr: 0x100046BF0, symSize: 0x3C }
  - { offsetInCU: 0x72CA9, offset: 0x72CA9, size: 0x8, addend: 0x0, symName: __ZNSt3__113__unwrap_iterB8ue170006IPKcNS_18__unwrap_iter_implIS2_Lb1EEELi0EEEDTclsrT0_8__unwrapclsr3stdE7declvalIT_EEEES6_, symObjAddr: 0x4449C, symBinAddr: 0x100046C84, symSize: 0x24 }
  - { offsetInCU: 0x72D40, offset: 0x72D40, size: 0x8, addend: 0x0, symName: __ZNSt3__119__copy_trivial_implB8ue170006IKccEENS_4pairIPT_PT0_EES4_S4_S6_, symObjAddr: 0x44554, symBinAddr: 0x100046D3C, symSize: 0x78 }
  - { offsetInCU: 0x72DA8, offset: 0x72DA8, size: 0x8, addend: 0x0, symName: __ZNSt3__119__constexpr_memmoveB8ue170006IcKcLi0EEEPT_S3_PT0_NS_15__element_countE, symObjAddr: 0x445CC, symBinAddr: 0x100046DB4, symSize: 0x64 }
  - { offsetInCU: 0x72E16, offset: 0x72E16, size: 0x8, addend: 0x0, symName: __ZNSt3__19make_pairB8ue170006IRPKcPcEENS_4pairINS_18__unwrap_ref_decayIT_E4typeENS6_IT0_E4typeEEEOS7_OSA_, symObjAddr: 0x44630, symBinAddr: 0x100046E18, symSize: 0x38 }
  - { offsetInCU: 0x72EB8, offset: 0x72EB8, size: 0x8, addend: 0x0, symName: __ZNSt3__113__rewrap_iterB8ue170006IPKcS2_NS_18__unwrap_iter_implIS2_Lb1EEEEET_S5_T0_, symObjAddr: 0x44798, symBinAddr: 0x100046F80, symSize: 0x3C }
  - { offsetInCU: 0x72F0E, offset: 0x72F0E, size: 0x8, addend: 0x0, symName: __ZNSt3__16fill_nB8ue170006IPcmcEET_S2_T0_RKT1_, symObjAddr: 0x44864, symBinAddr: 0x10004704C, symSize: 0x44 }
  - { offsetInCU: 0x72F79, offset: 0x72F79, size: 0x8, addend: 0x0, symName: __ZNSt3__18__fill_nB8ue170006IPcmcEET_S2_T0_RKT1_, symObjAddr: 0x448A8, symBinAddr: 0x100047090, symSize: 0x64 }
  - { offsetInCU: 0x72FE3, offset: 0x72FE3, size: 0x8, addend: 0x0, symName: __ZNSt3__121__convert_to_integralB8ue170006Em, symObjAddr: 0x4490C, symBinAddr: 0x1000470F4, symSize: 0x14 }
  - { offsetInCU: 0x7300F, offset: 0x7300F, size: 0x8, addend: 0x0, symName: __ZNSt3__13minB8ue170006IfNS_6__lessIvvEEEERKT_S5_S5_T0_, symObjAddr: 0x44B4C, symBinAddr: 0x100047334, symSize: 0x54 }
  - { offsetInCU: 0x73069, offset: 0x73069, size: 0x8, addend: 0x0, symName: __ZNSt3__13maxB8ue170006IfNS_6__lessIvvEEEERKT_S5_S5_T0_, symObjAddr: 0x44BD4, symBinAddr: 0x1000473BC, symSize: 0x54 }
  - { offsetInCU: 0x730C3, offset: 0x730C3, size: 0x8, addend: 0x0, symName: __ZNSt3__14swapB8ue170006IfNS_9allocatorIfEEEEvRNS_6vectorIT_T0_EES7_, symObjAddr: 0x44C6C, symBinAddr: 0x100047454, symSize: 0x2C }
  - { offsetInCU: 0x7310E, offset: 0x7310E, size: 0x8, addend: 0x0, symName: __ZNSt3__13minB8ue170006INS_11__wrap_iterIPfEEEERKT_S6_S6_, symObjAddr: 0x44FC8, symBinAddr: 0x1000477B0, symSize: 0x2C }
  - { offsetInCU: 0x73151, offset: 0x73151, size: 0x8, addend: 0x0, symName: __ZNSt3__112__to_addressB8ue170006INS_4pairIiiEEEEPT_S4_, symObjAddr: 0x45368, symBinAddr: 0x100047B50, symSize: 0x14 }
  - { offsetInCU: 0x73186, offset: 0x73186, size: 0x8, addend: 0x0, symName: __ZNSt3__110destroy_atB8ue170006INS_4pairIiiEELi0EEEvPT_, symObjAddr: 0x4537C, symBinAddr: 0x100047B64, symSize: 0x24 }
  - { offsetInCU: 0x731BE, offset: 0x731BE, size: 0x8, addend: 0x0, symName: __ZNSt3__112__destroy_atB8ue170006INS_4pairIiiEELi0EEEvPT_, symObjAddr: 0x453A0, symBinAddr: 0x100047B88, symSize: 0x10 }
  - { offsetInCU: 0x731F6, offset: 0x731F6, size: 0x8, addend: 0x0, symName: __ZNSt3__116__swap_allocatorB8ue170006INS_9allocatorIfEEEEvRT_S4_NS_17integral_constantIbLb0EEE, symObjAddr: 0x45554, symBinAddr: 0x100047D3C, symSize: 0x14 }
  - { offsetInCU: 0x7323E, offset: 0x7323E, size: 0x8, addend: 0x0, symName: __ZNSt3__19make_pairB8ue170006IRmS1_EENS_4pairINS_18__unwrap_ref_decayIT_E4typeENS3_IT0_E4typeEEEOS4_OS7_, symObjAddr: 0x45700, symBinAddr: 0x100047EE8, symSize: 0x38 }
  - { offsetInCU: 0x7328D, offset: 0x7328D, size: 0x8, addend: 0x0, symName: __ZNSt3__19make_pairB8ue170006IRKmS2_EENS_4pairINS_18__unwrap_ref_decayIT_E4typeENS4_IT0_E4typeEEEOS5_OS8_, symObjAddr: 0x4576C, symBinAddr: 0x100047F54, symSize: 0x38 }
  - { offsetInCU: 0x732DC, offset: 0x732DC, size: 0x8, addend: 0x0, symName: __ZNSt3__13getB8ue170006ILm0EmmEEONS_13tuple_elementIXT_ENS_4pairIT0_T1_EEE4typeEOS5_, symObjAddr: 0x457A4, symBinAddr: 0x100047F8C, symSize: 0x24 }
  - { offsetInCU: 0x73326, offset: 0x73326, size: 0x8, addend: 0x0, symName: __ZNSt3__13getB8ue170006ILm1EmmEEONS_13tuple_elementIXT_ENS_4pairIT0_T1_EEE4typeEOS5_, symObjAddr: 0x457C8, symBinAddr: 0x100047FB0, symSize: 0x24 }
  - { offsetInCU: 0x73397, offset: 0x73397, size: 0x8, addend: 0x0, symName: __ZNSt3__112construct_atB8ue170006INS_4pairIiiEEJS2_EPS2_EEPT_S5_DpOT0_, symObjAddr: 0x45A90, symBinAddr: 0x100048278, symSize: 0x2C }
  - { offsetInCU: 0x73408, offset: 0x73408, size: 0x8, addend: 0x0, symName: __ZNSt3__119__allocate_at_leastB8ue170006INS_9allocatorINS_4pairIiiEEEEEENS_19__allocation_resultINS_16allocator_traitsIT_E7pointerEEERS7_m, symObjAddr: 0x45F24, symBinAddr: 0x10004870C, symSize: 0x40 }
  - { offsetInCU: 0x7344B, offset: 0x7344B, size: 0x8, addend: 0x0, symName: __ZNSt3__142__uninitialized_allocator_move_if_noexceptB8ue170006INS_9allocatorINS_4pairIiiEEEENS_16reverse_iteratorIPS3_EES7_S7_EET2_RT_T0_T1_S8_, symObjAddr: 0x46190, symBinAddr: 0x100048978, symSize: 0x12C }
  - { offsetInCU: 0x734EB, offset: 0x734EB, size: 0x8, addend: 0x0, symName: __ZNSt3__14swapB8ue170006IPNS_4pairIiiEEEENS_9enable_ifIXaasr21is_move_constructibleIT_EE5valuesr18is_move_assignableIS5_EE5valueEvE4typeERS5_S8_, symObjAddr: 0x46308, symBinAddr: 0x100048AF0, symSize: 0x3C }
  - { offsetInCU: 0x7353C, offset: 0x7353C, size: 0x8, addend: 0x0, symName: __ZNSt3__122__make_exception_guardB8ue170006INS_29_AllocatorDestroyRangeReverseINS_9allocatorINS_4pairIiiEEEENS_16reverse_iteratorIPS4_EEEEEENS_28__exception_guard_exceptionsIT_EESB_, symObjAddr: 0x463F0, symBinAddr: 0x100048BD8, symSize: 0x4C }
  - { offsetInCU: 0x73572, offset: 0x73572, size: 0x8, addend: 0x0, symName: __ZNSt3__1neB8ue170006IPNS_4pairIiiEES3_EEbRKNS_16reverse_iteratorIT_EERKNS4_IT0_EE, symObjAddr: 0x46480, symBinAddr: 0x100048C68, symSize: 0x48 }
  - { offsetInCU: 0x735BE, offset: 0x735BE, size: 0x8, addend: 0x0, symName: __ZNSt3__112__to_addressB8ue170006INS_16reverse_iteratorIPNS_4pairIiiEEEEvEEu7__decayIDTclsr19__to_address_helperIT_EE6__callclsr3stdE7declvalIRKS6_EEEEES8_, symObjAddr: 0x464C8, symBinAddr: 0x100048CB0, symSize: 0x24 }
  - { offsetInCU: 0x7361E, offset: 0x7361E, size: 0x8, addend: 0x0, symName: __ZNSt3__14prevB8ue170006IPNS_4pairIiiEEEENS_9enable_ifIXsr29__has_input_iterator_categoryIT_EE5valueES5_E4typeES5_NS_15iterator_traitsIS5_E15difference_typeE, symObjAddr: 0x4667C, symBinAddr: 0x100048E64, symSize: 0x3C }
  - { offsetInCU: 0x73662, offset: 0x73662, size: 0x8, addend: 0x0, symName: __ZNSt3__19__advanceB8ue170006IPNS_4pairIiiEEEEvRT_NS_15iterator_traitsIS4_E15difference_typeENS_26random_access_iterator_tagE, symObjAddr: 0x466F0, symBinAddr: 0x100048ED8, symSize: 0x28 }
  - { offsetInCU: 0x736AC, offset: 0x736AC, size: 0x8, addend: 0x0, symName: __ZNSt3__119__allocator_destroyB8ue170006INS_9allocatorINS_4pairIiiEEEENS_16reverse_iteratorINS5_IPS3_EEEES8_EEvRT_T0_T1_, symObjAddr: 0x4681C, symBinAddr: 0x100049004, symSize: 0x70 }
  - { offsetInCU: 0x73711, offset: 0x73711, size: 0x8, addend: 0x0, symName: __ZNSt3__1neB8ue170006INS_16reverse_iteratorIPNS_4pairIiiEEEES5_EEbRKNS1_IT_EERKNS1_IT0_EE, symObjAddr: 0x468C8, symBinAddr: 0x1000490B0, symSize: 0x60 }
  - { offsetInCU: 0x7375D, offset: 0x7375D, size: 0x8, addend: 0x0, symName: __ZNSt3__112__to_addressB8ue170006INS_16reverse_iteratorINS1_IPNS_4pairIiiEEEEEEvEEu7__decayIDTclsr19__to_address_helperIT_EE6__callclsr3stdE7declvalIRKS7_EEEEES9_, symObjAddr: 0x46928, symBinAddr: 0x100049110, symSize: 0x24 }
  - { offsetInCU: 0x737BD, offset: 0x737BD, size: 0x8, addend: 0x0, symName: __ZNSt3__14prevB8ue170006INS_16reverse_iteratorIPNS_4pairIiiEEEEEENS_9enable_ifIXsr29__has_input_iterator_categoryIT_EE5valueES7_E4typeES7_NS_15iterator_traitsIS7_E15difference_typeE, symObjAddr: 0x46A24, symBinAddr: 0x10004920C, symSize: 0x4C }
  - { offsetInCU: 0x73800, offset: 0x73800, size: 0x8, addend: 0x0, symName: __ZNSt3__19__advanceB8ue170006INS_16reverse_iteratorIPNS_4pairIiiEEEEEEvRT_NS_15iterator_traitsIS6_E15difference_typeENS_26random_access_iterator_tagE, symObjAddr: 0x46AA8, symBinAddr: 0x100049290, symSize: 0x2C }
  - { offsetInCU: 0x7384A, offset: 0x7384A, size: 0x8, addend: 0x0, symName: __ZNSt3__13minB8ue170006INS_11__wrap_iterIPfEENS_6__lessIvvEEEERKT_S8_S8_T0_, symObjAddr: 0x46F14, symBinAddr: 0x1000496FC, symSize: 0x54 }
  - { offsetInCU: 0x738A4, offset: 0x738A4, size: 0x8, addend: 0x0, symName: __ZNSt3__1ltB8ue170006IPfEEbRKNS_11__wrap_iterIT_EES6_, symObjAddr: 0x46F9C, symBinAddr: 0x100049784, symSize: 0x48 }
  - { offsetInCU: 0x738E7, offset: 0x738E7, size: 0x8, addend: 0x0, symName: __ZNSt3__1miB8ue170006IPKfPfEEDTmicldtfp_4baseEcldtfp0_4baseEERKNS_11__wrap_iterIT_EERKNS5_IT0_EE, symObjAddr: 0x46FE4, symBinAddr: 0x1000497CC, symSize: 0x48 }
  - { offsetInCU: 0x73933, offset: 0x73933, size: 0x8, addend: 0x0, symName: __ZNSt3__14moveB8ue170006IPfS1_EET0_T_S3_S2_, symObjAddr: 0x4702C, symBinAddr: 0x100049814, symSize: 0x40 }
  - { offsetInCU: 0x7398D, offset: 0x7398D, size: 0x8, addend: 0x0, symName: __ZNSt3__1miB8ue170006IPKfS2_EEDTmicldtfp_4baseEcldtfp0_4baseEERKNS_11__wrap_iterIT_EERKNS4_IT0_EE, symObjAddr: 0x4706C, symBinAddr: 0x100049854, symSize: 0x48 }
  - { offsetInCU: 0x739D9, offset: 0x739D9, size: 0x8, addend: 0x0, symName: __ZNSt3__16__moveB8ue170006INS_17_ClassicAlgPolicyEPfS2_S2_EENS_4pairIT0_T2_EES4_T1_S5_, symObjAddr: 0x470B4, symBinAddr: 0x10004989C, symSize: 0x44 }
  - { offsetInCU: 0x73A45, offset: 0x73A45, size: 0x8, addend: 0x0, symName: __ZNSt3__123__dispatch_copy_or_moveB8ue170006INS_17_ClassicAlgPolicyENS_11__move_loopIS1_EENS_14__move_trivialEPfS5_S5_EENS_4pairIT2_T4_EES7_T3_S8_, symObjAddr: 0x470F8, symBinAddr: 0x1000498E0, symSize: 0x44 }
  - { offsetInCU: 0x73AC3, offset: 0x73AC3, size: 0x8, addend: 0x0, symName: __ZNSt3__121__unwrap_and_dispatchB8ue170006INS_10__overloadINS_11__move_loopINS_17_ClassicAlgPolicyEEENS_14__move_trivialEEEPfS7_S7_Li0EEENS_4pairIT0_T2_EES9_T1_SA_, symObjAddr: 0x4713C, symBinAddr: 0x100049924, symSize: 0xB4 }
  - { offsetInCU: 0x73B51, offset: 0x73B51, size: 0x8, addend: 0x0, symName: __ZNSt3__18distanceB8ue170006INS_11__wrap_iterIPfEEEENS_15iterator_traitsIT_E15difference_typeES5_S5_, symObjAddr: 0x47588, symBinAddr: 0x100049D70, symSize: 0x3C }
  - { offsetInCU: 0x73B94, offset: 0x73B94, size: 0x8, addend: 0x0, symName: __ZNSt3__14nextB8ue170006INS_11__wrap_iterIPfEEEENS_9enable_ifIXsr29__has_input_iterator_categoryIT_EE5valueES5_E4typeES5_NS_15iterator_traitsIS5_E15difference_typeE, symObjAddr: 0x475C4, symBinAddr: 0x100049DAC, symSize: 0x3C }
  - { offsetInCU: 0x73BD7, offset: 0x73BD7, size: 0x8, addend: 0x0, symName: __ZNSt3__14copyB8ue170006INS_11__wrap_iterIPfEES2_EET0_T_S5_S4_, symObjAddr: 0x47800, symBinAddr: 0x100049FE8, symSize: 0x50 }
  - { offsetInCU: 0x73C31, offset: 0x73C31, size: 0x8, addend: 0x0, symName: __ZNSt3__19__advanceB8ue170006INS_11__wrap_iterIPfEEEEvRT_NS_15iterator_traitsIS4_E15difference_typeENS_26random_access_iterator_tagE, symObjAddr: 0x47A6C, symBinAddr: 0x10004A254, symSize: 0x2C }
  - { offsetInCU: 0x73C7B, offset: 0x73C7B, size: 0x8, addend: 0x0, symName: __ZNSt3__130__uninitialized_allocator_copyB8ue170006INS_9allocatorIfEENS_11__wrap_iterIPfEES5_S4_EET2_RT_T0_T1_S6_, symObjAddr: 0x47A98, symBinAddr: 0x10004A280, symSize: 0x90 }
  - { offsetInCU: 0x73D18, offset: 0x73D18, size: 0x8, addend: 0x0, symName: __ZNSt3__114__unwrap_rangeB8ue170006INS_11__wrap_iterIPfEES3_EEDaT_T0_, symObjAddr: 0x47B28, symBinAddr: 0x10004A310, symSize: 0x4C }
  - { offsetInCU: 0x73DB4, offset: 0x73DB4, size: 0x8, addend: 0x0, symName: __ZNSt3__113move_backwardB8ue170006IPfS1_EET0_T_S3_S2_, symObjAddr: 0x47BDC, symBinAddr: 0x10004A3C4, symSize: 0x40 }
  - { offsetInCU: 0x73E0E, offset: 0x73E0E, size: 0x8, addend: 0x0, symName: __ZNSt3__115__move_backwardB8ue170006INS_17_ClassicAlgPolicyEPfS2_S2_EENS_4pairIT0_T2_EES4_T1_S5_, symObjAddr: 0x47C1C, symBinAddr: 0x10004A404, symSize: 0x44 }
  - { offsetInCU: 0x73E7A, offset: 0x73E7A, size: 0x8, addend: 0x0, symName: __ZNSt3__123__dispatch_copy_or_moveB8ue170006INS_17_ClassicAlgPolicyENS_20__move_backward_loopIS1_EENS_23__move_backward_trivialEPfS5_S5_EENS_4pairIT2_T4_EES7_T3_S8_, symObjAddr: 0x47C60, symBinAddr: 0x10004A448, symSize: 0x44 }
  - { offsetInCU: 0x73EF8, offset: 0x73EF8, size: 0x8, addend: 0x0, symName: __ZNSt3__121__unwrap_and_dispatchB8ue170006INS_10__overloadINS_20__move_backward_loopINS_17_ClassicAlgPolicyEEENS_23__move_backward_trivialEEEPfS7_S7_Li0EEENS_4pairIT0_T2_EES9_T1_SA_, symObjAddr: 0x47CA4, symBinAddr: 0x10004A48C, symSize: 0xB4 }
  - { offsetInCU: 0x73F86, offset: 0x73F86, size: 0x8, addend: 0x0, symName: __ZNSt3__128__copy_backward_trivial_implB8ue170006IffEENS_4pairIPT_PT0_EES3_S3_S5_, symObjAddr: 0x47DA0, symBinAddr: 0x10004A588, symSize: 0x90 }
  - { offsetInCU: 0x73FEE, offset: 0x73FEE, size: 0x8, addend: 0x0, symName: __ZNSt3__19make_pairB8ue170006IRPfS2_EENS_4pairINS_18__unwrap_ref_decayIT_E4typeENS4_IT0_E4typeEEEOS5_OS8_, symObjAddr: 0x47E30, symBinAddr: 0x10004A618, symSize: 0x38 }
  - { offsetInCU: 0x7403D, offset: 0x7403D, size: 0x8, addend: 0x0, symName: __ZNSt3__16__copyB8ue170006INS_17_ClassicAlgPolicyENS_11__wrap_iterIPfEES4_S3_EENS_4pairIT0_T2_EES6_T1_S7_, symObjAddr: 0x47ED8, symBinAddr: 0x10004A6C0, symSize: 0x54 }
  - { offsetInCU: 0x740A9, offset: 0x740A9, size: 0x8, addend: 0x0, symName: __ZNSt3__123__dispatch_copy_or_moveB8ue170006INS_17_ClassicAlgPolicyENS_11__copy_loopIS1_EENS_14__copy_trivialENS_11__wrap_iterIPfEES7_S6_EENS_4pairIT2_T4_EES9_T3_SA_, symObjAddr: 0x47F2C, symBinAddr: 0x10004A714, symSize: 0x54 }
  - { offsetInCU: 0x74127, offset: 0x74127, size: 0x8, addend: 0x0, symName: __ZNSt3__121__unwrap_and_dispatchB8ue170006INS_10__overloadINS_11__copy_loopINS_17_ClassicAlgPolicyEEENS_14__copy_trivialEEENS_11__wrap_iterIPfEES9_S8_Li0EEENS_4pairIT0_T2_EESB_T1_SC_, symObjAddr: 0x47F80, symBinAddr: 0x10004A768, symSize: 0xCC }
  - { offsetInCU: 0x741B5, offset: 0x741B5, size: 0x8, addend: 0x0, symName: __ZNSt3__19make_pairB8ue170006INS_11__wrap_iterIPfEES2_EENS_4pairINS_18__unwrap_ref_decayIT_E4typeENS5_IT0_E4typeEEEOS6_OS9_, symObjAddr: 0x4804C, symBinAddr: 0x10004A834, symSize: 0x38 }
  - { offsetInCU: 0x74204, offset: 0x74204, size: 0x8, addend: 0x0, symName: __ZNSt3__114__rewrap_rangeB8ue170006INS_11__wrap_iterIPfEES3_S2_EET0_S4_T1_, symObjAddr: 0x48084, symBinAddr: 0x10004A86C, symSize: 0x3C }
  - { offsetInCU: 0x7432D, offset: 0x7432D, size: 0x8, addend: 0x0, symName: __ZNSt3__112construct_atB8ue170006IfJRfEPfEEPT_S4_DpOT0_, symObjAddr: 0x48248, symBinAddr: 0x10004AA30, symSize: 0x2C }
  - { offsetInCU: 0x7439E, offset: 0x7439E, size: 0x8, addend: 0x0, symName: __ZNSt3__142__uninitialized_allocator_move_if_noexceptB8ue170006INS_9allocatorIfEEPfS3_fvEET1_RT_T0_S7_S4_, symObjAddr: 0x48294, symBinAddr: 0x10004AA7C, symSize: 0x38 }
  - { offsetInCU: 0x7441A, offset: 0x7441A, size: 0x8, addend: 0x0, symName: __ZNSt3__110__distanceB8ue170006INS_11__wrap_iterIPfEEEENS_15iterator_traitsIT_E15difference_typeES5_S5_NS_26random_access_iterator_tagE, symObjAddr: 0x482CC, symBinAddr: 0x10004AAB4, symSize: 0x30 }
  - { offsetInCU: 0x74468, offset: 0x74468, size: 0x8, addend: 0x0, symName: __ZNSt3__1miB8ue170006IPfS1_EEDTmicldtfp_4baseEcldtfp0_4baseEERKNS_11__wrap_iterIT_EERKNS3_IT0_EE, symObjAddr: 0x482FC, symBinAddr: 0x10004AAE4, symSize: 0x48 }
  - { offsetInCU: 0x744B4, offset: 0x744B4, size: 0x8, addend: 0x0, symName: __ZNSt3__116forward_as_tupleB8ue170006IJRKiEEENS_5tupleIJDpOT_EEES6_, symObjAddr: 0x48828, symBinAddr: 0x10004B010, symSize: 0x2C }
  - { offsetInCU: 0x744ED, offset: 0x744ED, size: 0x8, addend: 0x0, symName: __ZNSt3__17launderB8ue170006IKNS_4pairIKiNS_6vectorIfNS_9allocatorIfEEEEEEEEPT_SA_, symObjAddr: 0x48E6C, symBinAddr: 0x10004B654, symSize: 0x24 }
  - { offsetInCU: 0x74524, offset: 0x74524, size: 0x8, addend: 0x0, symName: __ZNSt3__19__launderB8ue170006IKNS_4pairIKiNS_6vectorIfNS_9allocatorIfEEEEEEEEPT_SA_, symObjAddr: 0x48E90, symBinAddr: 0x10004B678, symSize: 0x14 }
  - { offsetInCU: 0x745A0, offset: 0x745A0, size: 0x8, addend: 0x0, symName: __ZNSt3__112construct_atB8ue170006INS_4pairIKiNS_6vectorIfNS_9allocatorIfEEEEEEJRKNS_21piecewise_construct_tENS_5tupleIJRS2_EEENSB_IJEEEEPS7_EEPT_SH_DpOT0_, symObjAddr: 0x491AC, symBinAddr: 0x10004B994, symSize: 0x50 }
  - { offsetInCU: 0x74637, offset: 0x74637, size: 0x8, addend: 0x0, symName: __ZNSt3__13getB8ue170006ILm0EJRKiEEERNS_13tuple_elementIXT_ENS_5tupleIJDpT0_EEEE4typeERS7_, symObjAddr: 0x492C8, symBinAddr: 0x10004BAB0, symSize: 0x24 }
  - { offsetInCU: 0x7467A, offset: 0x7467A, size: 0x8, addend: 0x0, symName: __ZNSt3__127__tree_balance_after_insertB8ue170006IPNS_16__tree_node_baseIPvEEEEvT_S5_, symObjAddr: 0x49378, symBinAddr: 0x10004BB60, symSize: 0x32C }
  - { offsetInCU: 0x746F6, offset: 0x746F6, size: 0x8, addend: 0x0, symName: __ZNSt3__120__tree_is_left_childB8ue170006IPNS_16__tree_node_baseIPvEEEEbT_, symObjAddr: 0x496E4, symBinAddr: 0x10004BECC, symSize: 0x2C }
  - { offsetInCU: 0x7472B, offset: 0x7472B, size: 0x8, addend: 0x0, symName: __ZNSt3__118__tree_left_rotateB8ue170006IPNS_16__tree_node_baseIPvEEEEvT_, symObjAddr: 0x49710, symBinAddr: 0x10004BEF8, symSize: 0xD8 }
  - { offsetInCU: 0x7476D, offset: 0x7476D, size: 0x8, addend: 0x0, symName: __ZNSt3__119__tree_right_rotateB8ue170006IPNS_16__tree_node_baseIPvEEEEvT_, symObjAddr: 0x497E8, symBinAddr: 0x10004BFD0, symSize: 0xCC }
  - { offsetInCU: 0x747F8, offset: 0x747F8, size: 0x8, addend: 0x0, symName: __ZNSt3__116__pad_and_outputB8ue170006IcNS_11char_traitsIcEEEENS_19ostreambuf_iteratorIT_T0_EES6_PKS4_S8_S8_RNS_8ios_baseES4_, symObjAddr: 0x49DEC, symBinAddr: 0x10004C5D4, symSize: 0x240 }
  - { offsetInCU: 0x748DD, offset: 0x748DD, size: 0x8, addend: 0x0, symName: __ZNSt3__19use_facetB8ue170006INS_5ctypeIcEEEERKT_RKNS_6localeE, symObjAddr: 0x4A3A0, symBinAddr: 0x10004CB88, symSize: 0x2C }
  - { offsetInCU: 0x74DB3, offset: 0x74DB3, size: 0x8, addend: 0x0, symName: __ZNSt3__1neB8ue170006ERKNS_15__tree_iteratorINS_12__value_typeIiNS_6vectorIfNS_9allocatorIfEEEEEEPNS_11__tree_nodeIS6_PvEElEESD_, symObjAddr: 0x4A718, symBinAddr: 0x10004CF00, symSize: 0x34 }
  - { offsetInCU: 0x74DF0, offset: 0x74DF0, size: 0x8, addend: 0x0, symName: __ZNSt3__1eqB8ue170006ERKNS_15__tree_iteratorINS_12__value_typeIiNS_6vectorIfNS_9allocatorIfEEEEEEPNS_11__tree_nodeIS6_PvEElEESD_, symObjAddr: 0x4A74C, symBinAddr: 0x10004CF34, symSize: 0x30 }
  - { offsetInCU: 0x74E2D, offset: 0x74E2D, size: 0x8, addend: 0x0, symName: __ZNSt3__116__tree_next_iterB8ue170006IPNS_15__tree_end_nodeIPNS_16__tree_node_baseIPvEEEES5_EET_T0_, symObjAddr: 0x4A7B4, symBinAddr: 0x10004CF9C, symSize: 0x80 }
  - { offsetInCU: 0x74E6B, offset: 0x74E6B, size: 0x8, addend: 0x0, symName: __ZNSt3__110__tree_minB8ue170006IPNS_16__tree_node_baseIPvEEEET_S5_, symObjAddr: 0x4A834, symBinAddr: 0x10004D01C, symSize: 0x40 }
  - { offsetInCU: 0x752C0, offset: 0x752C0, size: 0x8, addend: 0x0, symName: '__ZNSt3__114__thread_proxyB8ue170006INS_5tupleIJNS_10unique_ptrINS_15__thread_structENS_14default_deleteIS3_EEEEZ2GPRKN5Eigen6MatrixIfLin1ELin1ELi0ELin1ELin1EEEiNS_12basic_stringIcNS_11char_traitsIcEENS_9allocatorIcEEEEbdiPKcijNS_6vectorIiNSF_IiEEEENS_5dequeISH_NSF_ISH_EEEEmfffffffE3$_3EEEEEPvSS_', symObjAddr: 0x4AA2C, symBinAddr: 0x10004D214, symSize: 0x90 }
  - { offsetInCU: 0x7531D, offset: 0x7531D, size: 0x8, addend: 0x0, symName: '__ZNSt3__13getB8ue170006ILm0EJNS_10unique_ptrINS_15__thread_structENS_14default_deleteIS2_EEEEZ2GPRKN5Eigen6MatrixIfLin1ELin1ELi0ELin1ELin1EEEiNS_12basic_stringIcNS_11char_traitsIcEENS_9allocatorIcEEEEbdiPKcijNS_6vectorIiNSE_IiEEEENS_5dequeISG_NSE_ISG_EEEEmfffffffE3$_3EEERNS_13tuple_elementIXT_ENS_5tupleIJDpT0_EEEE4typeERSU_', symObjAddr: 0x4AD44, symBinAddr: 0x10004D52C, symSize: 0x24 }
  - { offsetInCU: 0x75366, offset: 0x75366, size: 0x8, addend: 0x0, symName: '__ZNSt3__116__thread_executeB8ue170006INS_10unique_ptrINS_15__thread_structENS_14default_deleteIS2_EEEEZ2GPRKN5Eigen6MatrixIfLin1ELin1ELi0ELin1ELin1EEEiNS_12basic_stringIcNS_11char_traitsIcEENS_9allocatorIcEEEEbdiPKcijNS_6vectorIiNSE_IiEEEENS_5dequeISG_NSE_ISG_EEEEmfffffffE3$_3JEJEEEvRNS_5tupleIJT_T0_DpT1_EEENS_15__tuple_indicesIJXspT2_EEEE', symObjAddr: 0x4AD68, symBinAddr: 0x10004D550, symSize: 0x28 }
  - { offsetInCU: 0x753B6, offset: 0x753B6, size: 0x8, addend: 0x0, symName: '__ZNSt3__18__invokeB8ue170006IZ2GPRKN5Eigen6MatrixIfLin1ELin1ELi0ELin1ELin1EEEiNS_12basic_stringIcNS_11char_traitsIcEENS_9allocatorIcEEEEbdiPKcijNS_6vectorIiNS9_IiEEEENS_5dequeISB_NS9_ISB_EEEEmfffffffE3$_3JEEEDTclclsr3stdE7declvalIT_EEspclsr3stdE7declvalIT0_EEEEOSL_DpOSM_', symObjAddr: 0x4AD90, symBinAddr: 0x10004D578, symSize: 0x24 }
  - { offsetInCU: 0x753EE, offset: 0x753EE, size: 0x8, addend: 0x0, symName: '__ZNSt3__13getB8ue170006ILm1EJNS_10unique_ptrINS_15__thread_structENS_14default_deleteIS2_EEEEZ2GPRKN5Eigen6MatrixIfLin1ELin1ELi0ELin1ELin1EEEiNS_12basic_stringIcNS_11char_traitsIcEENS_9allocatorIcEEEEbdiPKcijNS_6vectorIiNSE_IiEEEENS_5dequeISG_NSE_ISG_EEEEmfffffffE3$_3EEERNS_13tuple_elementIXT_ENS_5tupleIJDpT0_EEEE4typeERSU_', symObjAddr: 0x4ADB4, symBinAddr: 0x10004D59C, symSize: 0x28 }
  - { offsetInCU: 0x75856, offset: 0x75856, size: 0x8, addend: 0x0, symName: '__ZNSt3__114__thread_proxyB8ue170006INS_5tupleIJNS_10unique_ptrINS_15__thread_structENS_14default_deleteIS3_EEEEZ2GPRKN5Eigen6MatrixIfLin1ELin1ELi0ELin1ELin1EEEiNS_12basic_stringIcNS_11char_traitsIcEENS_9allocatorIcEEEEbdiPKcijNS_6vectorIiNSF_IiEEEENS_5dequeISH_NSF_ISH_EEEEmfffffffE3$_2EEEEEPvSS_', symObjAddr: 0x4B2EC, symBinAddr: 0x10004DAD4, symSize: 0x90 }
  - { offsetInCU: 0x758B3, offset: 0x758B3, size: 0x8, addend: 0x0, symName: '__ZNSt3__13getB8ue170006ILm0EJNS_10unique_ptrINS_15__thread_structENS_14default_deleteIS2_EEEEZ2GPRKN5Eigen6MatrixIfLin1ELin1ELi0ELin1ELin1EEEiNS_12basic_stringIcNS_11char_traitsIcEENS_9allocatorIcEEEEbdiPKcijNS_6vectorIiNSE_IiEEEENS_5dequeISG_NSE_ISG_EEEEmfffffffE3$_2EEERNS_13tuple_elementIXT_ENS_5tupleIJDpT0_EEEE4typeERSU_', symObjAddr: 0x4B604, symBinAddr: 0x10004DDEC, symSize: 0x24 }
  - { offsetInCU: 0x758FC, offset: 0x758FC, size: 0x8, addend: 0x0, symName: '__ZNSt3__116__thread_executeB8ue170006INS_10unique_ptrINS_15__thread_structENS_14default_deleteIS2_EEEEZ2GPRKN5Eigen6MatrixIfLin1ELin1ELi0ELin1ELin1EEEiNS_12basic_stringIcNS_11char_traitsIcEENS_9allocatorIcEEEEbdiPKcijNS_6vectorIiNSE_IiEEEENS_5dequeISG_NSE_ISG_EEEEmfffffffE3$_2JEJEEEvRNS_5tupleIJT_T0_DpT1_EEENS_15__tuple_indicesIJXspT2_EEEE', symObjAddr: 0x4B628, symBinAddr: 0x10004DE10, symSize: 0x28 }
  - { offsetInCU: 0x7594C, offset: 0x7594C, size: 0x8, addend: 0x0, symName: '__ZNSt3__18__invokeB8ue170006IZ2GPRKN5Eigen6MatrixIfLin1ELin1ELi0ELin1ELin1EEEiNS_12basic_stringIcNS_11char_traitsIcEENS_9allocatorIcEEEEbdiPKcijNS_6vectorIiNS9_IiEEEENS_5dequeISB_NS9_ISB_EEEEmfffffffE3$_2JEEEDTclclsr3stdE7declvalIT_EEspclsr3stdE7declvalIT0_EEEEOSL_DpOSM_', symObjAddr: 0x4B650, symBinAddr: 0x10004DE38, symSize: 0x24 }
  - { offsetInCU: 0x75984, offset: 0x75984, size: 0x8, addend: 0x0, symName: '__ZNSt3__13getB8ue170006ILm1EJNS_10unique_ptrINS_15__thread_structENS_14default_deleteIS2_EEEEZ2GPRKN5Eigen6MatrixIfLin1ELin1ELi0ELin1ELin1EEEiNS_12basic_stringIcNS_11char_traitsIcEENS_9allocatorIcEEEEbdiPKcijNS_6vectorIiNSE_IiEEEENS_5dequeISG_NSE_ISG_EEEEmfffffffE3$_2EEERNS_13tuple_elementIXT_ENS_5tupleIJDpT0_EEEE4typeERSU_', symObjAddr: 0x4B674, symBinAddr: 0x10004DE5C, symSize: 0x28 }
  - { offsetInCU: 0x759CC, offset: 0x759CC, size: 0x8, addend: 0x0, symName: __ZNSt3__19make_pairB8ue170006IRNS_6vectorIfNS_9allocatorIfEEEERfEENS_4pairINS_18__unwrap_ref_decayIT_E4typeENS8_IT0_E4typeEEEOS9_OSC_, symObjAddr: 0x4C18C, symBinAddr: 0x10004E974, symSize: 0x40 }
  - { offsetInCU: 0x75A1C, offset: 0x75A1C, size: 0x8, addend: 0x0, symName: '__ZNSt3__14sortB8ue170006INS_11__wrap_iterIPNS_4pairINS_6vectorIfNS_9allocatorIfEEEEfEEEEZZ2GPRKN5Eigen6MatrixIfLin1ELin1ELi0ELin1ELin1EEEiNS_12basic_stringIcNS_11char_traitsIcEENS4_IcEEEEbdiPKcijNS3_IiNS4_IiEEEENS_5dequeISJ_NS4_ISJ_EEEEmfffffffENK3$_2clEvEUlRS7_SS_E_EEvT_SU_T0_', symObjAddr: 0x4CF44, symBinAddr: 0x10004F72C, symSize: 0x40 }
  - { offsetInCU: 0x75A76, offset: 0x75A76, size: 0x8, addend: 0x0, symName: __ZNSt3__119__allocate_at_leastB8ue170006INS_9allocatorINS_4pairINS_6vectorIfNS1_IfEEEEfEEEEEENS_19__allocation_resultINS_16allocator_traitsIT_E7pointerEEERSA_m, symObjAddr: 0x4D6E4, symBinAddr: 0x10004FECC, symSize: 0x40 }
  - { offsetInCU: 0x75AB9, offset: 0x75AB9, size: 0x8, addend: 0x0, symName: __ZNSt3__142__uninitialized_allocator_move_if_noexceptB8ue170006INS_9allocatorINS_4pairINS_6vectorIfNS1_IfEEEEfEEEENS_16reverse_iteratorIPS6_EESA_SA_EET2_RT_T0_T1_SB_, symObjAddr: 0x4D964, symBinAddr: 0x10005014C, symSize: 0x12C }
  - { offsetInCU: 0x75B59, offset: 0x75B59, size: 0x8, addend: 0x0, symName: __ZNSt3__14swapB8ue170006IPNS_4pairINS_6vectorIfNS_9allocatorIfEEEEfEEEENS_9enable_ifIXaasr21is_move_constructibleIT_EE5valuesr18is_move_assignableIS9_EE5valueEvE4typeERS9_SC_, symObjAddr: 0x4DADC, symBinAddr: 0x1000502C4, symSize: 0x3C }
  - { offsetInCU: 0x75BAA, offset: 0x75BAA, size: 0x8, addend: 0x0, symName: __ZNSt3__112__to_addressB8ue170006INS_4pairINS_6vectorIfNS_9allocatorIfEEEEfEEEEPT_S8_, symObjAddr: 0x4DC34, symBinAddr: 0x10005041C, symSize: 0x14 }
  - { offsetInCU: 0x75BDF, offset: 0x75BDF, size: 0x8, addend: 0x0, symName: __ZNSt3__122__make_exception_guardB8ue170006INS_29_AllocatorDestroyRangeReverseINS_9allocatorINS_4pairINS_6vectorIfNS2_IfEEEEfEEEENS_16reverse_iteratorIPS7_EEEEEENS_28__exception_guard_exceptionsIT_EESE_, symObjAddr: 0x4DC48, symBinAddr: 0x100050430, symSize: 0x4C }
  - { offsetInCU: 0x75C15, offset: 0x75C15, size: 0x8, addend: 0x0, symName: __ZNSt3__1neB8ue170006IPNS_4pairINS_6vectorIfNS_9allocatorIfEEEEfEES7_EEbRKNS_16reverse_iteratorIT_EERKNS8_IT0_EE, symObjAddr: 0x4DCD8, symBinAddr: 0x1000504C0, symSize: 0x48 }
  - { offsetInCU: 0x75C61, offset: 0x75C61, size: 0x8, addend: 0x0, symName: __ZNSt3__112__to_addressB8ue170006INS_16reverse_iteratorIPNS_4pairINS_6vectorIfNS_9allocatorIfEEEEfEEEEvEEu7__decayIDTclsr19__to_address_helperIT_EE6__callclsr3stdE7declvalIRKSA_EEEEESC_, symObjAddr: 0x4DD50, symBinAddr: 0x100050538, symSize: 0x24 }
  - { offsetInCU: 0x75CBE, offset: 0x75CBE, size: 0x8, addend: 0x0, symName: __ZNSt3__112construct_atB8ue170006INS_4pairINS_6vectorIfNS_9allocatorIfEEEEfEEJS6_EPS6_EEPT_S9_DpOT0_, symObjAddr: 0x4DEA0, symBinAddr: 0x100050688, symSize: 0x3C }
  - { offsetInCU: 0x75D59, offset: 0x75D59, size: 0x8, addend: 0x0, symName: __ZNSt3__14prevB8ue170006IPNS_4pairINS_6vectorIfNS_9allocatorIfEEEEfEEEENS_9enable_ifIXsr29__has_input_iterator_categoryIT_EE5valueES9_E4typeES9_NS_15iterator_traitsIS9_E15difference_typeE, symObjAddr: 0x4E0AC, symBinAddr: 0x100050894, symSize: 0x3C }
  - { offsetInCU: 0x75D9D, offset: 0x75D9D, size: 0x8, addend: 0x0, symName: __ZNSt3__19__advanceB8ue170006IPNS_4pairINS_6vectorIfNS_9allocatorIfEEEEfEEEEvRT_NS_15iterator_traitsIS8_E15difference_typeENS_26random_access_iterator_tagE, symObjAddr: 0x4E120, symBinAddr: 0x100050908, symSize: 0x28 }
  - { offsetInCU: 0x75DE7, offset: 0x75DE7, size: 0x8, addend: 0x0, symName: __ZNSt3__119__allocator_destroyB8ue170006INS_9allocatorINS_4pairINS_6vectorIfNS1_IfEEEEfEEEENS_16reverse_iteratorINS8_IPS6_EEEESB_EEvRT_T0_T1_, symObjAddr: 0x4E24C, symBinAddr: 0x100050A34, symSize: 0x70 }
  - { offsetInCU: 0x75E4C, offset: 0x75E4C, size: 0x8, addend: 0x0, symName: __ZNSt3__1neB8ue170006INS_16reverse_iteratorIPNS_4pairINS_6vectorIfNS_9allocatorIfEEEEfEEEES9_EEbRKNS1_IT_EERKNS1_IT0_EE, symObjAddr: 0x4E2F8, symBinAddr: 0x100050AE0, symSize: 0x60 }
  - { offsetInCU: 0x75E98, offset: 0x75E98, size: 0x8, addend: 0x0, symName: __ZNSt3__112__to_addressB8ue170006INS_16reverse_iteratorINS1_IPNS_4pairINS_6vectorIfNS_9allocatorIfEEEEfEEEEEEvEEu7__decayIDTclsr19__to_address_helperIT_EE6__callclsr3stdE7declvalIRKSB_EEEEESD_, symObjAddr: 0x4E380, symBinAddr: 0x100050B68, symSize: 0x24 }
  - { offsetInCU: 0x75ECE, offset: 0x75ECE, size: 0x8, addend: 0x0, symName: __ZNSt3__110destroy_atB8ue170006INS_4pairINS_6vectorIfNS_9allocatorIfEEEEfEELi0EEEvPT_, symObjAddr: 0x4E3F8, symBinAddr: 0x100050BE0, symSize: 0x24 }
  - { offsetInCU: 0x75F05, offset: 0x75F05, size: 0x8, addend: 0x0, symName: __ZNSt3__112__destroy_atB8ue170006INS_4pairINS_6vectorIfNS_9allocatorIfEEEEfEELi0EEEvPT_, symObjAddr: 0x4E41C, symBinAddr: 0x100050C04, symSize: 0x24 }
  - { offsetInCU: 0x75F66, offset: 0x75F66, size: 0x8, addend: 0x0, symName: __ZNSt3__14prevB8ue170006INS_16reverse_iteratorIPNS_4pairINS_6vectorIfNS_9allocatorIfEEEEfEEEEEENS_9enable_ifIXsr29__has_input_iterator_categoryIT_EE5valueESB_E4typeESB_NS_15iterator_traitsISB_E15difference_typeE, symObjAddr: 0x4E4C4, symBinAddr: 0x100050CAC, symSize: 0x4C }
  - { offsetInCU: 0x75FA9, offset: 0x75FA9, size: 0x8, addend: 0x0, symName: __ZNSt3__19__advanceB8ue170006INS_16reverse_iteratorIPNS_4pairINS_6vectorIfNS_9allocatorIfEEEEfEEEEEEvRT_NS_15iterator_traitsISA_E15difference_typeENS_26random_access_iterator_tagE, symObjAddr: 0x4E548, symBinAddr: 0x100050D30, symSize: 0x2C }
  - { offsetInCU: 0x75FF4, offset: 0x75FF4, size: 0x8, addend: 0x0, symName: __ZNSt3__111swap_rangesB8ue170006INS_11__wrap_iterIPfEES3_EET0_T_S5_S4_, symObjAddr: 0x4ECD0, symBinAddr: 0x1000514B8, symSize: 0x60 }
  - { offsetInCU: 0x76056, offset: 0x76056, size: 0x8, addend: 0x0, symName: __ZNSt3__113__swap_rangesB8ue170006INS_17_ClassicAlgPolicyENS_11__wrap_iterIPfEES4_S4_EENS_4pairIT0_T2_EES6_T1_S7_, symObjAddr: 0x4ED30, symBinAddr: 0x100051518, symSize: 0x7C }
  - { offsetInCU: 0x7619E, offset: 0x7619E, size: 0x8, addend: 0x0, symName: __ZNSt3__19iter_swapB8ue170006INS_11__wrap_iterIPfEES3_EEvT_T0_, symObjAddr: 0x4EE2C, symBinAddr: 0x100051614, symSize: 0x50 }
  - { offsetInCU: 0x761EB, offset: 0x761EB, size: 0x8, addend: 0x0, symName: __ZNSt3__14swapB8ue170006IfEENS_9enable_ifIXaasr21is_move_constructibleIT_EE5valuesr18is_move_assignableIS2_EE5valueEvE4typeERS2_S5_, symObjAddr: 0x4EE7C, symBinAddr: 0x100051664, symSize: 0x3C }
  - { offsetInCU: 0x7623D, offset: 0x7623D, size: 0x8, addend: 0x0, symName: '__ZNSt3__111__sort_implB8ue170006INS_17_ClassicAlgPolicyENS_11__wrap_iterIPNS_4pairINS_6vectorIfNS_9allocatorIfEEEEfEEEEZZ2GPRKN5Eigen6MatrixIfLin1ELin1ELi0ELin1ELin1EEEiNS_12basic_stringIcNS_11char_traitsIcEENS5_IcEEEEbdiPKcijNS4_IiNS5_IiEEEENS_5dequeISK_NS5_ISK_EEEEmfffffffENK3$_2clEvEUlRS8_ST_E_EEvT0_SV_RT1_', symObjAddr: 0x4EEEC, symBinAddr: 0x1000516D4, symSize: 0xA8 }
  - { offsetInCU: 0x762A1, offset: 0x762A1, size: 0x8, addend: 0x0, symName: __ZNSt3__123__debug_randomize_rangeB8ue170006INS_17_ClassicAlgPolicyENS_11__wrap_iterIPNS_4pairINS_6vectorIfNS_9allocatorIfEEEEfEEEESA_EEvT0_T1_, symObjAddr: 0x4EF94, symBinAddr: 0x10005177C, symSize: 0x14 }
  - { offsetInCU: 0x762F8, offset: 0x762F8, size: 0x8, addend: 0x0, symName: '__ZNSt3__115__sort_dispatchB8ue170006INS_17_ClassicAlgPolicyEPNS_4pairINS_6vectorIfNS_9allocatorIfEEEEfEEZZ2GPRKN5Eigen6MatrixIfLin1ELin1ELi0ELin1ELin1EEEiNS_12basic_stringIcNS_11char_traitsIcEENS4_IcEEEEbdiPKcijNS3_IiNS4_IiEEEENS_5dequeISI_NS4_ISI_EEEEmfffffffENK3$_2clEvEUlRS7_SR_E_EEvT0_ST_RT1_', symObjAddr: 0x4EFA8, symBinAddr: 0x100051790, symSize: 0x64 }
  - { offsetInCU: 0x76376, offset: 0x76376, size: 0x8, addend: 0x0, symName: __ZNSt3__113__unwrap_iterB8ue170006INS_11__wrap_iterIPNS_4pairINS_6vectorIfNS_9allocatorIfEEEEfEEEENS_18__unwrap_iter_implIS9_Lb1EEELi0EEEDTclsrT0_8__unwrapclsr3stdE7declvalIT_EEEESD_, symObjAddr: 0x4F00C, symBinAddr: 0x1000517F4, symSize: 0x2C }
  - { offsetInCU: 0x763BB, offset: 0x763BB, size: 0x8, addend: 0x0, symName: '__ZNSt3__135__check_strict_weak_ordering_sortedB8ue170006IPNS_4pairINS_6vectorIfNS_9allocatorIfEEEEfEEZZ2GPRKN5Eigen6MatrixIfLin1ELin1ELi0ELin1ELin1EEEiNS_12basic_stringIcNS_11char_traitsIcEENS3_IcEEEEbdiPKcijNS2_IiNS3_IiEEEENS_5dequeISH_NS3_ISH_EEEEmfffffffENK3$_2clEvEUlRS6_SQ_E_EEvT_SS_RT0_', symObjAddr: 0x4F038, symBinAddr: 0x100051820, symSize: 0x18 }
  - { offsetInCU: 0x76418, offset: 0x76418, size: 0x8, addend: 0x0, symName: __ZNSt3__17__log2iB8ue170006IlEET_S1_, symObjAddr: 0x4F050, symBinAddr: 0x100051838, symSize: 0x54 }
  - { offsetInCU: 0x76450, offset: 0x76450, size: 0x8, addend: 0x0, symName: '__ZNSt3__124__sort3_maybe_branchlessB8ue170006INS_17_ClassicAlgPolicyERZZ2GPRKN5Eigen6MatrixIfLin1ELin1ELi0ELin1ELin1EEEiNS_12basic_stringIcNS_11char_traitsIcEENS_9allocatorIcEEEEbdiPKcijNS_6vectorIiNSA_IiEEEENS_5dequeISC_NSA_ISC_EEEEmfffffffENK3$_2clEvEUlRNS_4pairINSF_IfNSA_IfEEEEfEESQ_E_PSP_EENS_9enable_ifIXntsr21__use_branchless_sortIT0_T1_EE5valueEvE4typeESW_SW_SW_SV_', symObjAddr: 0x4F558, symBinAddr: 0x100051D40, symSize: 0x3C }
  - { offsetInCU: 0x764C2, offset: 0x764C2, size: 0x8, addend: 0x0, symName: '__ZNSt3__124__sort4_maybe_branchlessB8ue170006INS_17_ClassicAlgPolicyERZZ2GPRKN5Eigen6MatrixIfLin1ELin1ELi0ELin1ELin1EEEiNS_12basic_stringIcNS_11char_traitsIcEENS_9allocatorIcEEEEbdiPKcijNS_6vectorIiNSA_IiEEEENS_5dequeISC_NSA_ISC_EEEEmfffffffENK3$_2clEvEUlRNS_4pairINSF_IfNSA_IfEEEEfEESQ_E_PSP_EENS_9enable_ifIXntsr21__use_branchless_sortIT0_T1_EE5valueEvE4typeESW_SW_SW_SW_SV_', symObjAddr: 0x4F594, symBinAddr: 0x100051D7C, symSize: 0x44 }
  - { offsetInCU: 0x76542, offset: 0x76542, size: 0x8, addend: 0x0, symName: '__ZNSt3__124__sort5_maybe_branchlessB8ue170006INS_17_ClassicAlgPolicyERZZ2GPRKN5Eigen6MatrixIfLin1ELin1ELi0ELin1ELin1EEEiNS_12basic_stringIcNS_11char_traitsIcEENS_9allocatorIcEEEEbdiPKcijNS_6vectorIiNSA_IiEEEENS_5dequeISC_NSA_ISC_EEEEmfffffffENK3$_2clEvEUlRNS_4pairINSF_IfNSA_IfEEEEfEESQ_E_PSP_EENS_9enable_ifIXntsr21__use_branchless_sortIT0_T1_EE5valueEvE4typeESW_SW_SW_SW_SW_SV_', symObjAddr: 0x4F5D8, symBinAddr: 0x100051DC0, symSize: 0x4C }
  - { offsetInCU: 0x765D0, offset: 0x765D0, size: 0x8, addend: 0x0, symName: '__ZNSt3__116__insertion_sortB8ue170006INS_17_ClassicAlgPolicyERZZ2GPRKN5Eigen6MatrixIfLin1ELin1ELi0ELin1ELin1EEEiNS_12basic_stringIcNS_11char_traitsIcEENS_9allocatorIcEEEEbdiPKcijNS_6vectorIiNSA_IiEEEENS_5dequeISC_NSA_ISC_EEEEmfffffffENK3$_2clEvEUlRNS_4pairINSF_IfNSA_IfEEEEfEESQ_E_PSP_EEvT1_SU_T0_', symObjAddr: 0x4F624, symBinAddr: 0x100051E0C, symSize: 0x188 }
  - { offsetInCU: 0x76686, offset: 0x76686, size: 0x8, addend: 0x0, symName: '__ZNSt3__114__partial_sortB8ue170006INS_17_ClassicAlgPolicyERZZ2GPRKN5Eigen6MatrixIfLin1ELin1ELi0ELin1ELin1EEEiNS_12basic_stringIcNS_11char_traitsIcEENS_9allocatorIcEEEEbdiPKcijNS_6vectorIiNSA_IiEEEENS_5dequeISC_NSA_ISC_EEEEmfffffffENK3$_2clEvEUlRNS_4pairINSF_IfNSA_IfEEEEfEESQ_E_PSP_ST_EET1_SU_SU_T2_RT0_', symObjAddr: 0x4F904, symBinAddr: 0x1000520EC, symSize: 0x94 }
  - { offsetInCU: 0x7671A, offset: 0x7671A, size: 0x8, addend: 0x0, symName: '__ZNSt3__17__sort3B8ue170006INS_17_ClassicAlgPolicyERZZ2GPRKN5Eigen6MatrixIfLin1ELin1ELi0ELin1ELin1EEEiNS_12basic_stringIcNS_11char_traitsIcEENS_9allocatorIcEEEEbdiPKcijNS_6vectorIiNSA_IiEEEENS_5dequeISC_NSA_ISC_EEEEmfffffffENK3$_2clEvEUlRNS_4pairINSF_IfNSA_IfEEEEfEESQ_E_PSP_EEjT1_SU_SU_T0_', symObjAddr: 0x4F998, symBinAddr: 0x100052180, symSize: 0x144 }
  - { offsetInCU: 0x7679A, offset: 0x7679A, size: 0x8, addend: 0x0, symName: __ZNSt3__19iter_swapB8ue170006IPNS_4pairINS_6vectorIfNS_9allocatorIfEEEEfEES7_EEvT_T0_, symObjAddr: 0x506B4, symBinAddr: 0x100052E9C, symSize: 0x2C }
  - { offsetInCU: 0x767E7, offset: 0x767E7, size: 0x8, addend: 0x0, symName: __ZNSt3__14swapB8ue170006INS_6vectorIfNS_9allocatorIfEEEEfEENS_9enable_ifIXaasr14__is_swappableIT_EE5valuesr14__is_swappableIT0_EE5valueEvE4typeERNS_4pairIS6_S7_EESC_, symObjAddr: 0x506E0, symBinAddr: 0x100052EC8, symSize: 0x2C }
  - { offsetInCU: 0x76837, offset: 0x76837, size: 0x8, addend: 0x0, symName: '__ZNSt3__17__sort4B8ue170006INS_17_ClassicAlgPolicyERZZ2GPRKN5Eigen6MatrixIfLin1ELin1ELi0ELin1ELin1EEEiNS_12basic_stringIcNS_11char_traitsIcEENS_9allocatorIcEEEEbdiPKcijNS_6vectorIiNSA_IiEEEENS_5dequeISC_NSA_ISC_EEEEmfffffffENK3$_2clEvEUlRNS_4pairINSF_IfNSA_IfEEEEfEESQ_E_PSP_EEvT1_SU_SU_SU_T0_', symObjAddr: 0x50750, symBinAddr: 0x100052F38, symSize: 0xB8 }
  - { offsetInCU: 0x768B3, offset: 0x768B3, size: 0x8, addend: 0x0, symName: '__ZNSt3__17__sort5B8ue170006INS_17_ClassicAlgPolicyERZZ2GPRKN5Eigen6MatrixIfLin1ELin1ELi0ELin1ELin1EEEiNS_12basic_stringIcNS_11char_traitsIcEENS_9allocatorIcEEEEbdiPKcijNS_6vectorIiNSA_IiEEEENS_5dequeISC_NSA_ISC_EEEEmfffffffENK3$_2clEvEUlRNS_4pairINSF_IfNSA_IfEEEEfEESQ_E_PSP_EEvT1_SU_SU_SU_SU_T0_', symObjAddr: 0x50808, symBinAddr: 0x100052FF0, symSize: 0xE8 }
  - { offsetInCU: 0x76961, offset: 0x76961, size: 0x8, addend: 0x0, symName: __ZNSt3__123__debug_randomize_rangeB8ue170006INS_17_ClassicAlgPolicyEPNS_4pairINS_6vectorIfNS_9allocatorIfEEEEfEES8_EEvT0_T1_, symObjAddr: 0x50974, symBinAddr: 0x10005315C, symSize: 0x14 }
  - { offsetInCU: 0x769B8, offset: 0x769B8, size: 0x8, addend: 0x0, symName: '__ZNSt3__119__partial_sort_implB8ue170006INS_17_ClassicAlgPolicyERZZ2GPRKN5Eigen6MatrixIfLin1ELin1ELi0ELin1ELin1EEEiNS_12basic_stringIcNS_11char_traitsIcEENS_9allocatorIcEEEEbdiPKcijNS_6vectorIiNSA_IiEEEENS_5dequeISC_NSA_ISC_EEEEmfffffffENK3$_2clEvEUlRNS_4pairINSF_IfNSA_IfEEEEfEESQ_E_PSP_ST_EET1_SU_SU_T2_OT0_', symObjAddr: 0x50988, symBinAddr: 0x100053170, symSize: 0x110 }
  - { offsetInCU: 0x76A5C, offset: 0x76A5C, size: 0x8, addend: 0x0, symName: '__ZNSt3__111__make_heapB8ue170006INS_17_ClassicAlgPolicyERZZ2GPRKN5Eigen6MatrixIfLin1ELin1ELi0ELin1ELin1EEEiNS_12basic_stringIcNS_11char_traitsIcEENS_9allocatorIcEEEEbdiPKcijNS_6vectorIiNSA_IiEEEENS_5dequeISC_NSA_ISC_EEEEmfffffffENK3$_2clEvEUlRNS_4pairINSF_IfNSA_IfEEEEfEESQ_E_PSP_EEvT1_SU_OT0_', symObjAddr: 0x50A98, symBinAddr: 0x100053280, symSize: 0xB8 }
  - { offsetInCU: 0x76B0E, offset: 0x76B0E, size: 0x8, addend: 0x0, symName: '__ZNSt3__111__sort_heapB8ue170006INS_17_ClassicAlgPolicyERZZ2GPRKN5Eigen6MatrixIfLin1ELin1ELi0ELin1ELin1EEEiNS_12basic_stringIcNS_11char_traitsIcEENS_9allocatorIcEEEEbdiPKcijNS_6vectorIiNSA_IiEEEENS_5dequeISC_NSA_ISC_EEEEmfffffffENK3$_2clEvEUlRNS_4pairINSF_IfNSA_IfEEEEfEESQ_E_PSP_EEvT1_SU_OT0_', symObjAddr: 0x50D94, symBinAddr: 0x10005357C, symSize: 0xA8 }
  - { offsetInCU: 0x76BC0, offset: 0x76BC0, size: 0x8, addend: 0x0, symName: '__ZNSt3__110__pop_heapB8ue170006INS_17_ClassicAlgPolicyEZZ2GPRKN5Eigen6MatrixIfLin1ELin1ELi0ELin1ELin1EEEiNS_12basic_stringIcNS_11char_traitsIcEENS_9allocatorIcEEEEbdiPKcijNS_6vectorIiNSA_IiEEEENS_5dequeISC_NSA_ISC_EEEEmfffffffENK3$_2clEvEUlRNS_4pairINSF_IfNSA_IfEEEEfEESQ_E_PSP_EEvT1_ST_RT0_NS_15iterator_traitsIST_E15difference_typeE', symObjAddr: 0x50E3C, symBinAddr: 0x100053624, symSize: 0x138 }
  - { offsetInCU: 0x76C7B, offset: 0x76C7B, size: 0x8, addend: 0x0, symName: '__ZNSt3__19__sift_upB8ue170006INS_17_ClassicAlgPolicyERZZ2GPRKN5Eigen6MatrixIfLin1ELin1ELi0ELin1ELin1EEEiNS_12basic_stringIcNS_11char_traitsIcEENS_9allocatorIcEEEEbdiPKcijNS_6vectorIiNSA_IiEEEENS_5dequeISC_NSA_ISC_EEEEmfffffffENK3$_2clEvEUlRNS_4pairINSF_IfNSA_IfEEEEfEESQ_E_PSP_EEvT1_SU_OT0_NS_15iterator_traitsISU_E15difference_typeE', symObjAddr: 0x51074, symBinAddr: 0x10005385C, symSize: 0x154 }
  - { offsetInCU: 0x76D2D, offset: 0x76D2D, size: 0x8, addend: 0x0, symName: '__ZNSt3__122__populate_left_bitsetB8ue170006IRZZ2GPRKN5Eigen6MatrixIfLin1ELin1ELi0ELin1ELin1EEEiNS_12basic_stringIcNS_11char_traitsIcEENS_9allocatorIcEEEEbdiPKcijNS_6vectorIiNS9_IiEEEENS_5dequeISB_NS9_ISB_EEEEmfffffffENK3$_2clEvEUlRNS_4pairINSE_IfNS9_IfEEEEfEESP_E_PSO_SO_EEvT0_T_RT1_Ry', symObjAddr: 0x511C8, symBinAddr: 0x1000539B0, symSize: 0xA8 }
  - { offsetInCU: 0x76DE9, offset: 0x76DE9, size: 0x8, addend: 0x0, symName: '__ZNSt3__123__populate_right_bitsetB8ue170006IRZZ2GPRKN5Eigen6MatrixIfLin1ELin1ELi0ELin1ELin1EEEiNS_12basic_stringIcNS_11char_traitsIcEENS_9allocatorIcEEEEbdiPKcijNS_6vectorIiNS9_IiEEEENS_5dequeISB_NS9_ISB_EEEEmfffffffENK3$_2clEvEUlRNS_4pairINSE_IfNS9_IfEEEEfEESP_E_PSO_SO_EEvT0_T_RT1_Ry', symObjAddr: 0x51270, symBinAddr: 0x100053A58, symSize: 0xA0 }
  - { offsetInCU: 0x76EA4, offset: 0x76EA4, size: 0x8, addend: 0x0, symName: __ZNSt3__117__swap_bitmap_posB8ue170006INS_17_ClassicAlgPolicyEPNS_4pairINS_6vectorIfNS_9allocatorIfEEEEfEEEEvT0_S9_RySA_, symObjAddr: 0x51310, symBinAddr: 0x100053AF8, symSize: 0x100 }
  - { offsetInCU: 0x76F46, offset: 0x76F46, size: 0x8, addend: 0x0, symName: '__ZNSt3__133__bitset_partition_partial_blocksB8ue170006INS_17_ClassicAlgPolicyERZZ2GPRKN5Eigen6MatrixIfLin1ELin1ELi0ELin1ELin1EEEiNS_12basic_stringIcNS_11char_traitsIcEENS_9allocatorIcEEEEbdiPKcijNS_6vectorIiNSA_IiEEEENS_5dequeISC_NSA_ISC_EEEEmfffffffENK3$_2clEvEUlRNS_4pairINSF_IfNSA_IfEEEEfEESQ_E_PSP_SP_EEvRT1_SV_T0_RT2_RySZ_', symObjAddr: 0x51410, symBinAddr: 0x100053BF8, symSize: 0x2E8 }
  - { offsetInCU: 0x770C7, offset: 0x770C7, size: 0x8, addend: 0x0, symName: __ZNSt3__19make_pairB8ue170006IRPNS_4pairINS_6vectorIfNS_9allocatorIfEEEEfEERbEENS1_INS_18__unwrap_ref_decayIT_E4typeENSA_IT0_E4typeEEEOSB_OSE_, symObjAddr: 0x518D8, symBinAddr: 0x1000540C0, symSize: 0x38 }
  - { offsetInCU: 0x77117, offset: 0x77117, size: 0x8, addend: 0x0, symName: __ZNSt3__112__libcpp_ctzB8ue170006Ey, symObjAddr: 0x51910, symBinAddr: 0x1000540F8, symSize: 0x20 }
  - { offsetInCU: 0x77147, offset: 0x77147, size: 0x8, addend: 0x0, symName: __ZNSt3__113__libcpp_blsrB8ue170006Ey, symObjAddr: 0x51930, symBinAddr: 0x100054118, symSize: 0x2C }
  - { offsetInCU: 0x77176, offset: 0x77176, size: 0x8, addend: 0x0, symName: __ZNSt3__112__libcpp_clzB8ue170006Ey, symObjAddr: 0x51990, symBinAddr: 0x100054178, symSize: 0x1C }
  - { offsetInCU: 0x772C9, offset: 0x772C9, size: 0x8, addend: 0x0, symName: __ZNSt3__112__to_addressB8ue170006INS_11__wrap_iterIPNS_4pairINS_6vectorIfNS_9allocatorIfEEEEfEEEEvEEu7__decayIDTclsr19__to_address_helperIT_EE6__callclsr3stdE7declvalIRKSA_EEEEESC_, symObjAddr: 0x51A48, symBinAddr: 0x100054230, symSize: 0x24 }
  - { offsetInCU: 0x77367, offset: 0x77367, size: 0x8, addend: 0x0, symName: __ZNSt3__112construct_atB8ue170006INS_4pairINS_6vectorIfNS_9allocatorIfEEEEfEEJEPS6_EEPT_S9_DpOT0_, symObjAddr: 0x51E5C, symBinAddr: 0x100054644, symSize: 0x34 }
  - { offsetInCU: 0x777E4, offset: 0x777E4, size: 0x8, addend: 0x0, symName: '__ZNSt3__114__thread_proxyB8ue170006INS_5tupleIJNS_10unique_ptrINS_15__thread_structENS_14default_deleteIS3_EEEEZ3PSORKN5Eigen6MatrixIfLin1ELin1ELi0ELin1ELin1EEEiNS_12basic_stringIcNS_11char_traitsIcEENS_9allocatorIcEEEEbdiPKcijNS_6vectorIiNSF_IiEEEENS_5dequeISH_NSF_ISH_EEEEmfffffffE3$_4EEEEEPvSS_', symObjAddr: 0x52604, symBinAddr: 0x100054DEC, symSize: 0x90 }
  - { offsetInCU: 0x77841, offset: 0x77841, size: 0x8, addend: 0x0, symName: '__ZNSt3__13getB8ue170006ILm0EJNS_10unique_ptrINS_15__thread_structENS_14default_deleteIS2_EEEEZ3PSORKN5Eigen6MatrixIfLin1ELin1ELi0ELin1ELin1EEEiNS_12basic_stringIcNS_11char_traitsIcEENS_9allocatorIcEEEEbdiPKcijNS_6vectorIiNSE_IiEEEENS_5dequeISG_NSE_ISG_EEEEmfffffffE3$_4EEERNS_13tuple_elementIXT_ENS_5tupleIJDpT0_EEEE4typeERSU_', symObjAddr: 0x5291C, symBinAddr: 0x100055104, symSize: 0x24 }
  - { offsetInCU: 0x7788A, offset: 0x7788A, size: 0x8, addend: 0x0, symName: '__ZNSt3__116__thread_executeB8ue170006INS_10unique_ptrINS_15__thread_structENS_14default_deleteIS2_EEEEZ3PSORKN5Eigen6MatrixIfLin1ELin1ELi0ELin1ELin1EEEiNS_12basic_stringIcNS_11char_traitsIcEENS_9allocatorIcEEEEbdiPKcijNS_6vectorIiNSE_IiEEEENS_5dequeISG_NSE_ISG_EEEEmfffffffE3$_4JEJEEEvRNS_5tupleIJT_T0_DpT1_EEENS_15__tuple_indicesIJXspT2_EEEE', symObjAddr: 0x52940, symBinAddr: 0x100055128, symSize: 0x28 }
  - { offsetInCU: 0x778DA, offset: 0x778DA, size: 0x8, addend: 0x0, symName: '__ZNSt3__18__invokeB8ue170006IZ3PSORKN5Eigen6MatrixIfLin1ELin1ELi0ELin1ELin1EEEiNS_12basic_stringIcNS_11char_traitsIcEENS_9allocatorIcEEEEbdiPKcijNS_6vectorIiNS9_IiEEEENS_5dequeISB_NS9_ISB_EEEEmfffffffE3$_4JEEEDTclclsr3stdE7declvalIT_EEspclsr3stdE7declvalIT0_EEEEOSL_DpOSM_', symObjAddr: 0x52968, symBinAddr: 0x100055150, symSize: 0x24 }
  - { offsetInCU: 0x77912, offset: 0x77912, size: 0x8, addend: 0x0, symName: '__ZNSt3__13getB8ue170006ILm1EJNS_10unique_ptrINS_15__thread_structENS_14default_deleteIS2_EEEEZ3PSORKN5Eigen6MatrixIfLin1ELin1ELi0ELin1ELin1EEEiNS_12basic_stringIcNS_11char_traitsIcEENS_9allocatorIcEEEEbdiPKcijNS_6vectorIiNSE_IiEEEENS_5dequeISG_NSE_ISG_EEEEmfffffffE3$_4EEERNS_13tuple_elementIXT_ENS_5tupleIJDpT0_EEEE4typeERSU_', symObjAddr: 0x5298C, symBinAddr: 0x100055174, symSize: 0x28 }
  - { offsetInCU: 0x77D7A, offset: 0x77D7A, size: 0x8, addend: 0x0, symName: '__ZNSt3__114__thread_proxyB8ue170006INS_5tupleIJNS_10unique_ptrINS_15__thread_structENS_14default_deleteIS3_EEEEZ3PSORKN5Eigen6MatrixIfLin1ELin1ELi0ELin1ELin1EEEiNS_12basic_stringIcNS_11char_traitsIcEENS_9allocatorIcEEEEbdiPKcijNS_6vectorIiNSF_IiEEEENS_5dequeISH_NSF_ISH_EEEEmfffffffE3$_5EEEEEPvSS_', symObjAddr: 0x52EC4, symBinAddr: 0x1000556AC, symSize: 0x90 }
  - { offsetInCU: 0x77DD7, offset: 0x77DD7, size: 0x8, addend: 0x0, symName: '__ZNSt3__13getB8ue170006ILm0EJNS_10unique_ptrINS_15__thread_structENS_14default_deleteIS2_EEEEZ3PSORKN5Eigen6MatrixIfLin1ELin1ELi0ELin1ELin1EEEiNS_12basic_stringIcNS_11char_traitsIcEENS_9allocatorIcEEEEbdiPKcijNS_6vectorIiNSE_IiEEEENS_5dequeISG_NSE_ISG_EEEEmfffffffE3$_5EEERNS_13tuple_elementIXT_ENS_5tupleIJDpT0_EEEE4typeERSU_', symObjAddr: 0x531DC, symBinAddr: 0x1000559C4, symSize: 0x24 }
  - { offsetInCU: 0x77E20, offset: 0x77E20, size: 0x8, addend: 0x0, symName: '__ZNSt3__116__thread_executeB8ue170006INS_10unique_ptrINS_15__thread_structENS_14default_deleteIS2_EEEEZ3PSORKN5Eigen6MatrixIfLin1ELin1ELi0ELin1ELin1EEEiNS_12basic_stringIcNS_11char_traitsIcEENS_9allocatorIcEEEEbdiPKcijNS_6vectorIiNSE_IiEEEENS_5dequeISG_NSE_ISG_EEEEmfffffffE3$_5JEJEEEvRNS_5tupleIJT_T0_DpT1_EEENS_15__tuple_indicesIJXspT2_EEEE', symObjAddr: 0x53200, symBinAddr: 0x1000559E8, symSize: 0x28 }
  - { offsetInCU: 0x77E70, offset: 0x77E70, size: 0x8, addend: 0x0, symName: '__ZNSt3__18__invokeB8ue170006IZ3PSORKN5Eigen6MatrixIfLin1ELin1ELi0ELin1ELin1EEEiNS_12basic_stringIcNS_11char_traitsIcEENS_9allocatorIcEEEEbdiPKcijNS_6vectorIiNS9_IiEEEENS_5dequeISB_NS9_ISB_EEEEmfffffffE3$_5JEEEDTclclsr3stdE7declvalIT_EEspclsr3stdE7declvalIT0_EEEEOSL_DpOSM_', symObjAddr: 0x53228, symBinAddr: 0x100055A10, symSize: 0x24 }
  - { offsetInCU: 0x77EA8, offset: 0x77EA8, size: 0x8, addend: 0x0, symName: '__ZNSt3__13getB8ue170006ILm1EJNS_10unique_ptrINS_15__thread_structENS_14default_deleteIS2_EEEEZ3PSORKN5Eigen6MatrixIfLin1ELin1ELi0ELin1ELin1EEEiNS_12basic_stringIcNS_11char_traitsIcEENS_9allocatorIcEEEEbdiPKcijNS_6vectorIiNSE_IiEEEENS_5dequeISG_NSE_ISG_EEEEmfffffffE3$_5EEERNS_13tuple_elementIXT_ENS_5tupleIJDpT0_EEEE4typeERSU_', symObjAddr: 0x5324C, symBinAddr: 0x100055A34, symSize: 0x28 }
  - { offsetInCU: 0x7913E, offset: 0x7913E, size: 0x8, addend: 0x0, symName: __ZNSt3__17launderB8ue170006IKNS_4pairIKifEEEEPT_S6_, symObjAddr: 0x55FE0, symBinAddr: 0x1000587C8, symSize: 0x24 }
  - { offsetInCU: 0x79175, offset: 0x79175, size: 0x8, addend: 0x0, symName: __ZNSt3__19__launderB8ue170006IKNS_4pairIKifEEEEPT_S6_, symObjAddr: 0x56004, symBinAddr: 0x1000587EC, symSize: 0x14 }
  - { offsetInCU: 0x79224, offset: 0x79224, size: 0x8, addend: 0x0, symName: __ZNSt3__112construct_atB8ue170006INS_4pairIKifEEJRKNS_21piecewise_construct_tENS_5tupleIJRS2_EEENS7_IJEEEEPS3_EEPT_SD_DpOT0_, symObjAddr: 0x56394, symBinAddr: 0x100058B7C, symSize: 0x50 }
  - { offsetInCU: 0x792BB, offset: 0x792BB, size: 0x8, addend: 0x0, symName: __ZNSt3__110destroy_atB8ue170006INS_4pairIKifEELi0EEEvPT_, symObjAddr: 0x56EB0, symBinAddr: 0x100059698, symSize: 0x24 }
  - { offsetInCU: 0x792F3, offset: 0x792F3, size: 0x8, addend: 0x0, symName: __ZNSt3__112__destroy_atB8ue170006INS_4pairIKifEELi0EEEvPT_, symObjAddr: 0x56ED4, symBinAddr: 0x1000596BC, symSize: 0x10 }
  - { offsetInCU: 0x7935D, offset: 0x7935D, size: 0x8, addend: 0x0, symName: __ZNSt3__17launderB8ue170006INS_4pairIKifEEEEPT_S5_, symObjAddr: 0x56F94, symBinAddr: 0x10005977C, symSize: 0x24 }
  - { offsetInCU: 0x79394, offset: 0x79394, size: 0x8, addend: 0x0, symName: __ZNSt3__19__launderB8ue170006INS_4pairIKifEEEEPT_S5_, symObjAddr: 0x56FB8, symBinAddr: 0x1000597A0, symSize: 0x14 }
  - { offsetInCU: 0x793CB, offset: 0x793CB, size: 0x8, addend: 0x0, symName: __ZNSt3__17launderB8ue170006IKNS_4pairIKfNS_13unordered_mapIiiNS_4hashIiEENS_8equal_toIiEENS_9allocatorINS1_IKiiEEEEEEEEEEPT_SG_, symObjAddr: 0x57B08, symBinAddr: 0x10005A2F0, symSize: 0x24 }
  - { offsetInCU: 0x79402, offset: 0x79402, size: 0x8, addend: 0x0, symName: __ZNSt3__19__launderB8ue170006IKNS_4pairIKfNS_13unordered_mapIiiNS_4hashIiEENS_8equal_toIiEENS_9allocatorINS1_IKiiEEEEEEEEEEPT_SG_, symObjAddr: 0x57B2C, symBinAddr: 0x10005A314, symSize: 0x14 }
  - { offsetInCU: 0x794B1, offset: 0x794B1, size: 0x8, addend: 0x0, symName: __ZNSt3__112construct_atB8ue170006INS_4pairIKfNS_13unordered_mapIiiNS_4hashIiEENS_8equal_toIiEENS_9allocatorINS1_IKiiEEEEEEEEJRKNS_21piecewise_construct_tENS_5tupleIJRS2_EEENSH_IJEEEEPSD_EEPT_SN_DpOT0_, symObjAddr: 0x57EB8, symBinAddr: 0x10005A6A0, symSize: 0x50 }
  - { offsetInCU: 0x79548, offset: 0x79548, size: 0x8, addend: 0x0, symName: __ZNSt3__110destroy_atB8ue170006INS_4pairIKfNS_13unordered_mapIiiNS_4hashIiEENS_8equal_toIiEENS_9allocatorINS1_IKiiEEEEEEEELi0EEEvPT_, symObjAddr: 0x59004, symBinAddr: 0x10005B7EC, symSize: 0x24 }
  - { offsetInCU: 0x7957F, offset: 0x7957F, size: 0x8, addend: 0x0, symName: __ZNSt3__112__destroy_atB8ue170006INS_4pairIKfNS_13unordered_mapIiiNS_4hashIiEENS_8equal_toIiEENS_9allocatorINS1_IKiiEEEEEEEELi0EEEvPT_, symObjAddr: 0x59028, symBinAddr: 0x10005B810, symSize: 0x24 }
  - { offsetInCU: 0x795E9, offset: 0x795E9, size: 0x8, addend: 0x0, symName: __ZNSt3__110destroy_atB8ue170006INS_4pairIKiiEELi0EEEvPT_, symObjAddr: 0x59384, symBinAddr: 0x10005BB6C, symSize: 0x24 }
  - { offsetInCU: 0x79621, offset: 0x79621, size: 0x8, addend: 0x0, symName: __ZNSt3__112__destroy_atB8ue170006INS_4pairIKiiEELi0EEEvPT_, symObjAddr: 0x593A8, symBinAddr: 0x10005BB90, symSize: 0x10 }
  - { offsetInCU: 0x79658, offset: 0x79658, size: 0x8, addend: 0x0, symName: __ZNSt3__17launderB8ue170006INS_4pairIKiiEEEEPT_S5_, symObjAddr: 0x593DC, symBinAddr: 0x10005BBC4, symSize: 0x24 }
  - { offsetInCU: 0x7968F, offset: 0x7968F, size: 0x8, addend: 0x0, symName: __ZNSt3__19__launderB8ue170006INS_4pairIKiiEEEEPT_S5_, symObjAddr: 0x59400, symBinAddr: 0x10005BBE8, symSize: 0x14 }
  - { offsetInCU: 0x796F9, offset: 0x796F9, size: 0x8, addend: 0x0, symName: __ZNSt3__17launderB8ue170006INS_4pairIKfNS_13unordered_mapIiiNS_4hashIiEENS_8equal_toIiEENS_9allocatorINS1_IKiiEEEEEEEEEEPT_SF_, symObjAddr: 0x59798, symBinAddr: 0x10005BF80, symSize: 0x24 }
  - { offsetInCU: 0x79730, offset: 0x79730, size: 0x8, addend: 0x0, symName: __ZNSt3__19__launderB8ue170006INS_4pairIKfNS_13unordered_mapIiiNS_4hashIiEENS_8equal_toIiEENS_9allocatorINS1_IKiiEEEEEEEEEEPT_SF_, symObjAddr: 0x597BC, symBinAddr: 0x10005BFA4, symSize: 0x14 }
  - { offsetInCU: 0x79767, offset: 0x79767, size: 0x8, addend: 0x0, symName: __ZNSt3__17launderB8ue170006IKNS_4pairIKiiEEEEPT_S6_, symObjAddr: 0x5A2A0, symBinAddr: 0x10005CA88, symSize: 0x24 }
  - { offsetInCU: 0x7979E, offset: 0x7979E, size: 0x8, addend: 0x0, symName: __ZNSt3__19__launderB8ue170006IKNS_4pairIKiiEEEEPT_S6_, symObjAddr: 0x5A2C4, symBinAddr: 0x10005CAAC, symSize: 0x14 }
  - { offsetInCU: 0x7981A, offset: 0x7981A, size: 0x8, addend: 0x0, symName: __ZNSt3__112construct_atB8ue170006INS_4pairIKiiEEJRKNS_21piecewise_construct_tENS_5tupleIJRS2_EEENS7_IJEEEEPS3_EEPT_SD_DpOT0_, symObjAddr: 0x5A5BC, symBinAddr: 0x10005CDA4, symSize: 0x50 }
  - { offsetInCU: 0x798E4, offset: 0x798E4, size: 0x8, addend: 0x0, symName: __ZNSt3__17launderB8ue170006IKNS_4pairIKfNS_13unordered_mapIifNS_4hashIiEENS_8equal_toIiEENS_9allocatorINS1_IKifEEEEEEEEEEPT_SG_, symObjAddr: 0x5BA28, symBinAddr: 0x10005E210, symSize: 0x24 }
  - { offsetInCU: 0x7991B, offset: 0x7991B, size: 0x8, addend: 0x0, symName: __ZNSt3__19__launderB8ue170006IKNS_4pairIKfNS_13unordered_mapIifNS_4hashIiEENS_8equal_toIiEENS_9allocatorINS1_IKifEEEEEEEEEEPT_SG_, symObjAddr: 0x5BA4C, symBinAddr: 0x10005E234, symSize: 0x14 }
  - { offsetInCU: 0x799CA, offset: 0x799CA, size: 0x8, addend: 0x0, symName: __ZNSt3__112construct_atB8ue170006INS_4pairIKfNS_13unordered_mapIifNS_4hashIiEENS_8equal_toIiEENS_9allocatorINS1_IKifEEEEEEEEJRKNS_21piecewise_construct_tENS_5tupleIJRS2_EEENSH_IJEEEEPSD_EEPT_SN_DpOT0_, symObjAddr: 0x5BDD8, symBinAddr: 0x10005E5C0, symSize: 0x50 }
  - { offsetInCU: 0x79A61, offset: 0x79A61, size: 0x8, addend: 0x0, symName: __ZNSt3__110destroy_atB8ue170006INS_4pairIKfNS_13unordered_mapIifNS_4hashIiEENS_8equal_toIiEENS_9allocatorINS1_IKifEEEEEEEELi0EEEvPT_, symObjAddr: 0x5C8F4, symBinAddr: 0x10005F0DC, symSize: 0x24 }
  - { offsetInCU: 0x79A98, offset: 0x79A98, size: 0x8, addend: 0x0, symName: __ZNSt3__112__destroy_atB8ue170006INS_4pairIKfNS_13unordered_mapIifNS_4hashIiEENS_8equal_toIiEENS_9allocatorINS1_IKifEEEEEEEELi0EEEvPT_, symObjAddr: 0x5C918, symBinAddr: 0x10005F100, symSize: 0x24 }
  - { offsetInCU: 0x79B02, offset: 0x79B02, size: 0x8, addend: 0x0, symName: __ZNSt3__17launderB8ue170006INS_4pairIKfNS_13unordered_mapIifNS_4hashIiEENS_8equal_toIiEENS_9allocatorINS1_IKifEEEEEEEEEEPT_SF_, symObjAddr: 0x5CA44, symBinAddr: 0x10005F22C, symSize: 0x24 }
  - { offsetInCU: 0x79B39, offset: 0x79B39, size: 0x8, addend: 0x0, symName: __ZNSt3__19__launderB8ue170006INS_4pairIKfNS_13unordered_mapIifNS_4hashIiEENS_8equal_toIiEENS_9allocatorINS1_IKifEEEEEEEEEEPT_SF_, symObjAddr: 0x5CA68, symBinAddr: 0x10005F250, symSize: 0x14 }
  - { offsetInCU: 0x79F90, offset: 0x79F90, size: 0x8, addend: 0x0, symName: '__ZNSt3__114__thread_proxyB8ue170006INS_5tupleIJNS_10unique_ptrINS_15__thread_structENS_14default_deleteIS3_EEEEZ4MCTSRKN5Eigen6MatrixIfLin1ELin1ELi0ELin1ELin1EEEiNS_12basic_stringIcNS_11char_traitsIcEENS_9allocatorIcEEEEbdiPKcijNS_6vectorIiNSF_IiEEEENS_5dequeISH_NSF_ISH_EEEEmfffffffE3$_6EEEEEPvSS_', symObjAddr: 0x5D4C4, symBinAddr: 0x10005FCAC, symSize: 0x90 }
  - { offsetInCU: 0x79FED, offset: 0x79FED, size: 0x8, addend: 0x0, symName: '__ZNSt3__13getB8ue170006ILm0EJNS_10unique_ptrINS_15__thread_structENS_14default_deleteIS2_EEEEZ4MCTSRKN5Eigen6MatrixIfLin1ELin1ELi0ELin1ELin1EEEiNS_12basic_stringIcNS_11char_traitsIcEENS_9allocatorIcEEEEbdiPKcijNS_6vectorIiNSE_IiEEEENS_5dequeISG_NSE_ISG_EEEEmfffffffE3$_6EEERNS_13tuple_elementIXT_ENS_5tupleIJDpT0_EEEE4typeERSU_', symObjAddr: 0x5D7DC, symBinAddr: 0x10005FFC4, symSize: 0x24 }
  - { offsetInCU: 0x7A036, offset: 0x7A036, size: 0x8, addend: 0x0, symName: '__ZNSt3__116__thread_executeB8ue170006INS_10unique_ptrINS_15__thread_structENS_14default_deleteIS2_EEEEZ4MCTSRKN5Eigen6MatrixIfLin1ELin1ELi0ELin1ELin1EEEiNS_12basic_stringIcNS_11char_traitsIcEENS_9allocatorIcEEEEbdiPKcijNS_6vectorIiNSE_IiEEEENS_5dequeISG_NSE_ISG_EEEEmfffffffE3$_6JEJEEEvRNS_5tupleIJT_T0_DpT1_EEENS_15__tuple_indicesIJXspT2_EEEE', symObjAddr: 0x5D800, symBinAddr: 0x10005FFE8, symSize: 0x28 }
  - { offsetInCU: 0x7A086, offset: 0x7A086, size: 0x8, addend: 0x0, symName: '__ZNSt3__18__invokeB8ue170006IZ4MCTSRKN5Eigen6MatrixIfLin1ELin1ELi0ELin1ELin1EEEiNS_12basic_stringIcNS_11char_traitsIcEENS_9allocatorIcEEEEbdiPKcijNS_6vectorIiNS9_IiEEEENS_5dequeISB_NS9_ISB_EEEEmfffffffE3$_6JEEEDTclclsr3stdE7declvalIT_EEspclsr3stdE7declvalIT0_EEEEOSL_DpOSM_', symObjAddr: 0x5D828, symBinAddr: 0x100060010, symSize: 0x24 }
  - { offsetInCU: 0x7A0BE, offset: 0x7A0BE, size: 0x8, addend: 0x0, symName: '__ZNSt3__13getB8ue170006ILm1EJNS_10unique_ptrINS_15__thread_structENS_14default_deleteIS2_EEEEZ4MCTSRKN5Eigen6MatrixIfLin1ELin1ELi0ELin1ELin1EEEiNS_12basic_stringIcNS_11char_traitsIcEENS_9allocatorIcEEEEbdiPKcijNS_6vectorIiNSE_IiEEEENS_5dequeISG_NSE_ISG_EEEEmfffffffE3$_6EEERNS_13tuple_elementIXT_ENS_5tupleIJDpT0_EEEE4typeERSU_', symObjAddr: 0x5D84C, symBinAddr: 0x100060034, symSize: 0x28 }
  - { offsetInCU: 0x7A12D, offset: 0x7A12D, size: 0x8, addend: 0x0, symName: __ZNSt3__112construct_atB8ue170006INS_4pairImfEEJS2_EPS2_EEPT_S5_DpOT0_, symObjAddr: 0x5DC70, symBinAddr: 0x100060458, symSize: 0x2C }
  - { offsetInCU: 0x7A19E, offset: 0x7A19E, size: 0x8, addend: 0x0, symName: __ZNSt3__119__allocate_at_leastB8ue170006INS_9allocatorINS_4pairImfEEEEEENS_19__allocation_resultINS_16allocator_traitsIT_E7pointerEEERS7_m, symObjAddr: 0x5E104, symBinAddr: 0x1000608EC, symSize: 0x40 }
  - { offsetInCU: 0x7A1E1, offset: 0x7A1E1, size: 0x8, addend: 0x0, symName: __ZNSt3__142__uninitialized_allocator_move_if_noexceptB8ue170006INS_9allocatorINS_4pairImfEEEENS_16reverse_iteratorIPS3_EES7_S7_EET2_RT_T0_T1_S8_, symObjAddr: 0x5E2B8, symBinAddr: 0x100060AA0, symSize: 0x12C }
  - { offsetInCU: 0x7A281, offset: 0x7A281, size: 0x8, addend: 0x0, symName: __ZNSt3__14swapB8ue170006IPNS_4pairImfEEEENS_9enable_ifIXaasr21is_move_constructibleIT_EE5valuesr18is_move_assignableIS5_EE5valueEvE4typeERS5_S8_, symObjAddr: 0x5E430, symBinAddr: 0x100060C18, symSize: 0x3C }
  - { offsetInCU: 0x7A2D2, offset: 0x7A2D2, size: 0x8, addend: 0x0, symName: __ZNSt3__122__make_exception_guardB8ue170006INS_29_AllocatorDestroyRangeReverseINS_9allocatorINS_4pairImfEEEENS_16reverse_iteratorIPS4_EEEEEENS_28__exception_guard_exceptionsIT_EESB_, symObjAddr: 0x5E518, symBinAddr: 0x100060D00, symSize: 0x4C }
  - { offsetInCU: 0x7A308, offset: 0x7A308, size: 0x8, addend: 0x0, symName: __ZNSt3__1neB8ue170006IPNS_4pairImfEES3_EEbRKNS_16reverse_iteratorIT_EERKNS4_IT0_EE, symObjAddr: 0x5E5A8, symBinAddr: 0x100060D90, symSize: 0x48 }
  - { offsetInCU: 0x7A354, offset: 0x7A354, size: 0x8, addend: 0x0, symName: __ZNSt3__112__to_addressB8ue170006INS_16reverse_iteratorIPNS_4pairImfEEEEvEEu7__decayIDTclsr19__to_address_helperIT_EE6__callclsr3stdE7declvalIRKS6_EEEEES8_, symObjAddr: 0x5E5F0, symBinAddr: 0x100060DD8, symSize: 0x24 }
  - { offsetInCU: 0x7A3B4, offset: 0x7A3B4, size: 0x8, addend: 0x0, symName: __ZNSt3__14prevB8ue170006IPNS_4pairImfEEEENS_9enable_ifIXsr29__has_input_iterator_categoryIT_EE5valueES5_E4typeES5_NS_15iterator_traitsIS5_E15difference_typeE, symObjAddr: 0x5E7A4, symBinAddr: 0x100060F8C, symSize: 0x3C }
  - { offsetInCU: 0x7A3F8, offset: 0x7A3F8, size: 0x8, addend: 0x0, symName: __ZNSt3__19__advanceB8ue170006IPNS_4pairImfEEEEvRT_NS_15iterator_traitsIS4_E15difference_typeENS_26random_access_iterator_tagE, symObjAddr: 0x5E818, symBinAddr: 0x100061000, symSize: 0x28 }
  - { offsetInCU: 0x7A442, offset: 0x7A442, size: 0x8, addend: 0x0, symName: __ZNSt3__119__allocator_destroyB8ue170006INS_9allocatorINS_4pairImfEEEENS_16reverse_iteratorINS5_IPS3_EEEES8_EEvRT_T0_T1_, symObjAddr: 0x5E944, symBinAddr: 0x10006112C, symSize: 0x70 }
  - { offsetInCU: 0x7A4A7, offset: 0x7A4A7, size: 0x8, addend: 0x0, symName: __ZNSt3__1neB8ue170006INS_16reverse_iteratorIPNS_4pairImfEEEES5_EEbRKNS1_IT_EERKNS1_IT0_EE, symObjAddr: 0x5E9F0, symBinAddr: 0x1000611D8, symSize: 0x60 }
  - { offsetInCU: 0x7A4F3, offset: 0x7A4F3, size: 0x8, addend: 0x0, symName: __ZNSt3__112__to_addressB8ue170006INS_16reverse_iteratorINS1_IPNS_4pairImfEEEEEEvEEu7__decayIDTclsr19__to_address_helperIT_EE6__callclsr3stdE7declvalIRKS7_EEEEES9_, symObjAddr: 0x5EA50, symBinAddr: 0x100061238, symSize: 0x24 }
  - { offsetInCU: 0x7A553, offset: 0x7A553, size: 0x8, addend: 0x0, symName: __ZNSt3__14prevB8ue170006INS_16reverse_iteratorIPNS_4pairImfEEEEEENS_9enable_ifIXsr29__has_input_iterator_categoryIT_EE5valueES7_E4typeES7_NS_15iterator_traitsIS7_E15difference_typeE, symObjAddr: 0x5EB4C, symBinAddr: 0x100061334, symSize: 0x4C }
  - { offsetInCU: 0x7A596, offset: 0x7A596, size: 0x8, addend: 0x0, symName: __ZNSt3__19__advanceB8ue170006INS_16reverse_iteratorIPNS_4pairImfEEEEEEvRT_NS_15iterator_traitsIS6_E15difference_typeENS_26random_access_iterator_tagE, symObjAddr: 0x5EBD0, symBinAddr: 0x1000613B8, symSize: 0x2C }
  - { offsetInCU: 0x7AA00, offset: 0x7AA00, size: 0x8, addend: 0x0, symName: '__ZNSt3__114__thread_proxyB8ue170006INS_5tupleIJNS_10unique_ptrINS_15__thread_structENS_14default_deleteIS3_EEEEZ4MCTSRKN5Eigen6MatrixIfLin1ELin1ELi0ELin1ELin1EEEiNS_12basic_stringIcNS_11char_traitsIcEENS_9allocatorIcEEEEbdiPKcijNS_6vectorIiNSF_IiEEEENS_5dequeISH_NSF_ISH_EEEEmfffffffE3$_7EEEEEPvSS_', symObjAddr: 0x5F2A4, symBinAddr: 0x100061A8C, symSize: 0x90 }
  - { offsetInCU: 0x7AA5D, offset: 0x7AA5D, size: 0x8, addend: 0x0, symName: '__ZNSt3__13getB8ue170006ILm0EJNS_10unique_ptrINS_15__thread_structENS_14default_deleteIS2_EEEEZ4MCTSRKN5Eigen6MatrixIfLin1ELin1ELi0ELin1ELin1EEEiNS_12basic_stringIcNS_11char_traitsIcEENS_9allocatorIcEEEEbdiPKcijNS_6vectorIiNSE_IiEEEENS_5dequeISG_NSE_ISG_EEEEmfffffffE3$_7EEERNS_13tuple_elementIXT_ENS_5tupleIJDpT0_EEEE4typeERSU_', symObjAddr: 0x5F5BC, symBinAddr: 0x100061DA4, symSize: 0x24 }
  - { offsetInCU: 0x7AAA6, offset: 0x7AAA6, size: 0x8, addend: 0x0, symName: '__ZNSt3__116__thread_executeB8ue170006INS_10unique_ptrINS_15__thread_structENS_14default_deleteIS2_EEEEZ4MCTSRKN5Eigen6MatrixIfLin1ELin1ELi0ELin1ELin1EEEiNS_12basic_stringIcNS_11char_traitsIcEENS_9allocatorIcEEEEbdiPKcijNS_6vectorIiNSE_IiEEEENS_5dequeISG_NSE_ISG_EEEEmfffffffE3$_7JEJEEEvRNS_5tupleIJT_T0_DpT1_EEENS_15__tuple_indicesIJXspT2_EEEE', symObjAddr: 0x5F5E0, symBinAddr: 0x100061DC8, symSize: 0x28 }
  - { offsetInCU: 0x7AAF6, offset: 0x7AAF6, size: 0x8, addend: 0x0, symName: '__ZNSt3__18__invokeB8ue170006IZ4MCTSRKN5Eigen6MatrixIfLin1ELin1ELi0ELin1ELin1EEEiNS_12basic_stringIcNS_11char_traitsIcEENS_9allocatorIcEEEEbdiPKcijNS_6vectorIiNS9_IiEEEENS_5dequeISB_NS9_ISB_EEEEmfffffffE3$_7JEEEDTclclsr3stdE7declvalIT_EEspclsr3stdE7declvalIT0_EEEEOSL_DpOSM_', symObjAddr: 0x5F608, symBinAddr: 0x100061DF0, symSize: 0x24 }
  - { offsetInCU: 0x7AB2E, offset: 0x7AB2E, size: 0x8, addend: 0x0, symName: '__ZNSt3__13getB8ue170006ILm1EJNS_10unique_ptrINS_15__thread_structENS_14default_deleteIS2_EEEEZ4MCTSRKN5Eigen6MatrixIfLin1ELin1ELi0ELin1ELin1EEEiNS_12basic_stringIcNS_11char_traitsIcEENS_9allocatorIcEEEEbdiPKcijNS_6vectorIiNSE_IiEEEENS_5dequeISG_NSE_ISG_EEEEmfffffffE3$_7EEERNS_13tuple_elementIXT_ENS_5tupleIJDpT0_EEEE4typeERSU_', symObjAddr: 0x5F62C, symBinAddr: 0x100061E14, symSize: 0x28 }
  - { offsetInCU: 0x7B49D, offset: 0x7B49D, size: 0x8, addend: 0x0, symName: __ZNSt3__19make_pairB8ue170006IRNS_12basic_stringIcNS_11char_traitsIcEENS_9allocatorIcEEEERfEENS_4pairINS_18__unwrap_ref_decayIT_E4typeENSA_IT0_E4typeEEEOSB_OSE_, symObjAddr: 0x603B0, symBinAddr: 0x100062B98, symSize: 0x40 }
  - { offsetInCU: 0x7B4EC, offset: 0x7B4EC, size: 0x8, addend: 0x0, symName: __ZNSt3__1neB8ue170006IPNS_4pairINS_12basic_stringIcNS_11char_traitsIcEENS_9allocatorIcEEEEfEEEEbRKNS_11__wrap_iterIT_EESE_, symObjAddr: 0x6047C, symBinAddr: 0x100062C64, symSize: 0x34 }
  - { offsetInCU: 0x7B52F, offset: 0x7B52F, size: 0x8, addend: 0x0, symName: __ZNSt3__119__allocate_at_leastB8ue170006INS_9allocatorINS_4pairINS_12basic_stringIcNS_11char_traitsIcEENS1_IcEEEEfEEEEEENS_19__allocation_resultINS_16allocator_traitsIT_E7pointerEEERSC_m, symObjAddr: 0x61194, symBinAddr: 0x10006397C, symSize: 0x40 }
  - { offsetInCU: 0x7B572, offset: 0x7B572, size: 0x8, addend: 0x0, symName: __ZNSt3__142__uninitialized_allocator_move_if_noexceptB8ue170006INS_9allocatorINS_4pairINS_12basic_stringIcNS_11char_traitsIcEENS1_IcEEEEfEEEENS_16reverse_iteratorIPS8_EESC_SC_EET2_RT_T0_T1_SD_, symObjAddr: 0x61414, symBinAddr: 0x100063BFC, symSize: 0x12C }
  - { offsetInCU: 0x7B612, offset: 0x7B612, size: 0x8, addend: 0x0, symName: __ZNSt3__14swapB8ue170006IPNS_4pairINS_12basic_stringIcNS_11char_traitsIcEENS_9allocatorIcEEEEfEEEENS_9enable_ifIXaasr21is_move_constructibleIT_EE5valuesr18is_move_assignableISB_EE5valueEvE4typeERSB_SE_, symObjAddr: 0x6158C, symBinAddr: 0x100063D74, symSize: 0x3C }
  - { offsetInCU: 0x7B663, offset: 0x7B663, size: 0x8, addend: 0x0, symName: __ZNSt3__112__to_addressB8ue170006INS_4pairINS_12basic_stringIcNS_11char_traitsIcEENS_9allocatorIcEEEEfEEEEPT_SA_, symObjAddr: 0x616E4, symBinAddr: 0x100063ECC, symSize: 0x14 }
  - { offsetInCU: 0x7B698, offset: 0x7B698, size: 0x8, addend: 0x0, symName: __ZNSt3__122__make_exception_guardB8ue170006INS_29_AllocatorDestroyRangeReverseINS_9allocatorINS_4pairINS_12basic_stringIcNS_11char_traitsIcEENS2_IcEEEEfEEEENS_16reverse_iteratorIPS9_EEEEEENS_28__exception_guard_exceptionsIT_EESG_, symObjAddr: 0x616F8, symBinAddr: 0x100063EE0, symSize: 0x4C }
  - { offsetInCU: 0x7B6CE, offset: 0x7B6CE, size: 0x8, addend: 0x0, symName: __ZNSt3__1neB8ue170006IPNS_4pairINS_12basic_stringIcNS_11char_traitsIcEENS_9allocatorIcEEEEfEES9_EEbRKNS_16reverse_iteratorIT_EERKNSA_IT0_EE, symObjAddr: 0x61788, symBinAddr: 0x100063F70, symSize: 0x48 }
  - { offsetInCU: 0x7B71A, offset: 0x7B71A, size: 0x8, addend: 0x0, symName: __ZNSt3__112__to_addressB8ue170006INS_16reverse_iteratorIPNS_4pairINS_12basic_stringIcNS_11char_traitsIcEENS_9allocatorIcEEEEfEEEEvEEu7__decayIDTclsr19__to_address_helperIT_EE6__callclsr3stdE7declvalIRKSC_EEEEESE_, symObjAddr: 0x61800, symBinAddr: 0x100063FE8, symSize: 0x24 }
  - { offsetInCU: 0x7B777, offset: 0x7B777, size: 0x8, addend: 0x0, symName: __ZNSt3__112construct_atB8ue170006INS_4pairINS_12basic_stringIcNS_11char_traitsIcEENS_9allocatorIcEEEEfEEJS8_EPS8_EEPT_SB_DpOT0_, symObjAddr: 0x61950, symBinAddr: 0x100064138, symSize: 0x3C }
  - { offsetInCU: 0x7B812, offset: 0x7B812, size: 0x8, addend: 0x0, symName: __ZNSt3__14prevB8ue170006IPNS_4pairINS_12basic_stringIcNS_11char_traitsIcEENS_9allocatorIcEEEEfEEEENS_9enable_ifIXsr29__has_input_iterator_categoryIT_EE5valueESB_E4typeESB_NS_15iterator_traitsISB_E15difference_typeE, symObjAddr: 0x61A64, symBinAddr: 0x10006424C, symSize: 0x3C }
  - { offsetInCU: 0x7B856, offset: 0x7B856, size: 0x8, addend: 0x0, symName: __ZNSt3__19__advanceB8ue170006IPNS_4pairINS_12basic_stringIcNS_11char_traitsIcEENS_9allocatorIcEEEEfEEEEvRT_NS_15iterator_traitsISA_E15difference_typeENS_26random_access_iterator_tagE, symObjAddr: 0x61AD8, symBinAddr: 0x1000642C0, symSize: 0x28 }
  - { offsetInCU: 0x7B8A0, offset: 0x7B8A0, size: 0x8, addend: 0x0, symName: __ZNSt3__119__allocator_destroyB8ue170006INS_9allocatorINS_4pairINS_12basic_stringIcNS_11char_traitsIcEENS1_IcEEEEfEEEENS_16reverse_iteratorINSA_IPS8_EEEESD_EEvRT_T0_T1_, symObjAddr: 0x61C04, symBinAddr: 0x1000643EC, symSize: 0x70 }
  - { offsetInCU: 0x7B905, offset: 0x7B905, size: 0x8, addend: 0x0, symName: __ZNSt3__1neB8ue170006INS_16reverse_iteratorIPNS_4pairINS_12basic_stringIcNS_11char_traitsIcEENS_9allocatorIcEEEEfEEEESB_EEbRKNS1_IT_EERKNS1_IT0_EE, symObjAddr: 0x61CB0, symBinAddr: 0x100064498, symSize: 0x60 }
  - { offsetInCU: 0x7B951, offset: 0x7B951, size: 0x8, addend: 0x0, symName: __ZNSt3__112__to_addressB8ue170006INS_16reverse_iteratorINS1_IPNS_4pairINS_12basic_stringIcNS_11char_traitsIcEENS_9allocatorIcEEEEfEEEEEEvEEu7__decayIDTclsr19__to_address_helperIT_EE6__callclsr3stdE7declvalIRKSD_EEEEESF_, symObjAddr: 0x61D38, symBinAddr: 0x100064520, symSize: 0x24 }
  - { offsetInCU: 0x7B987, offset: 0x7B987, size: 0x8, addend: 0x0, symName: __ZNSt3__110destroy_atB8ue170006INS_4pairINS_12basic_stringIcNS_11char_traitsIcEENS_9allocatorIcEEEEfEELi0EEEvPT_, symObjAddr: 0x61DB0, symBinAddr: 0x100064598, symSize: 0x24 }
  - { offsetInCU: 0x7B9BE, offset: 0x7B9BE, size: 0x8, addend: 0x0, symName: __ZNSt3__112__destroy_atB8ue170006INS_4pairINS_12basic_stringIcNS_11char_traitsIcEENS_9allocatorIcEEEEfEELi0EEEvPT_, symObjAddr: 0x61DD4, symBinAddr: 0x1000645BC, symSize: 0x24 }
  - { offsetInCU: 0x7BA1F, offset: 0x7BA1F, size: 0x8, addend: 0x0, symName: __ZNSt3__14prevB8ue170006INS_16reverse_iteratorIPNS_4pairINS_12basic_stringIcNS_11char_traitsIcEENS_9allocatorIcEEEEfEEEEEENS_9enable_ifIXsr29__has_input_iterator_categoryIT_EE5valueESD_E4typeESD_NS_15iterator_traitsISD_E15difference_typeE, symObjAddr: 0x61E7C, symBinAddr: 0x100064664, symSize: 0x4C }
  - { offsetInCU: 0x7BA62, offset: 0x7BA62, size: 0x8, addend: 0x0, symName: __ZNSt3__19__advanceB8ue170006INS_16reverse_iteratorIPNS_4pairINS_12basic_stringIcNS_11char_traitsIcEENS_9allocatorIcEEEEfEEEEEEvRT_NS_15iterator_traitsISC_E15difference_typeENS_26random_access_iterator_tagE, symObjAddr: 0x61F00, symBinAddr: 0x1000646E8, symSize: 0x2C }
  - { offsetInCU: 0x7BAAC, offset: 0x7BAAC, size: 0x8, addend: 0x0, symName: __ZNSt3__17launderB8ue170006IKNS_4pairIKNS_12basic_stringIcNS_11char_traitsIcEENS_9allocatorIcEEEENS_13unordered_mapIffNS_4hashIfEENS_8equal_toIfEENS5_INS1_IKffEEEEEEEEEEPT_SL_, symObjAddr: 0x62D8C, symBinAddr: 0x100065574, symSize: 0x24 }
  - { offsetInCU: 0x7BAE3, offset: 0x7BAE3, size: 0x8, addend: 0x0, symName: __ZNSt3__19__launderB8ue170006IKNS_4pairIKNS_12basic_stringIcNS_11char_traitsIcEENS_9allocatorIcEEEENS_13unordered_mapIffNS_4hashIfEENS_8equal_toIfEENS5_INS1_IKffEEEEEEEEEEPT_SL_, symObjAddr: 0x62DB0, symBinAddr: 0x100065598, symSize: 0x14 }
  - { offsetInCU: 0x7BB92, offset: 0x7BB92, size: 0x8, addend: 0x0, symName: __ZNSt3__112construct_atB8ue170006INS_4pairIKNS_12basic_stringIcNS_11char_traitsIcEENS_9allocatorIcEEEENS_13unordered_mapIffNS_4hashIfEENS_8equal_toIfEENS5_INS1_IKffEEEEEEEEJRKNS_21piecewise_construct_tENS_5tupleIJRS8_EEENSM_IJEEEEPSI_EEPT_SS_DpOT0_, symObjAddr: 0x63140, symBinAddr: 0x100065928, symSize: 0x50 }
  - { offsetInCU: 0x7BC29, offset: 0x7BC29, size: 0x8, addend: 0x0, symName: __ZNSt3__110destroy_atB8ue170006INS_4pairIKNS_12basic_stringIcNS_11char_traitsIcEENS_9allocatorIcEEEENS_13unordered_mapIffNS_4hashIfEENS_8equal_toIfEENS5_INS1_IKffEEEEEEEELi0EEEvPT_, symObjAddr: 0x64288, symBinAddr: 0x100066A70, symSize: 0x24 }
  - { offsetInCU: 0x7BC60, offset: 0x7BC60, size: 0x8, addend: 0x0, symName: __ZNSt3__112__destroy_atB8ue170006INS_4pairIKNS_12basic_stringIcNS_11char_traitsIcEENS_9allocatorIcEEEENS_13unordered_mapIffNS_4hashIfEENS_8equal_toIfEENS5_INS1_IKffEEEEEEEELi0EEEvPT_, symObjAddr: 0x642AC, symBinAddr: 0x100066A94, symSize: 0x24 }
  - { offsetInCU: 0x7BCCA, offset: 0x7BCCA, size: 0x8, addend: 0x0, symName: __ZNSt3__110destroy_atB8ue170006INS_4pairIKffEELi0EEEvPT_, symObjAddr: 0x64610, symBinAddr: 0x100066DF8, symSize: 0x24 }
  - { offsetInCU: 0x7BD02, offset: 0x7BD02, size: 0x8, addend: 0x0, symName: __ZNSt3__112__destroy_atB8ue170006INS_4pairIKffEELi0EEEvPT_, symObjAddr: 0x64634, symBinAddr: 0x100066E1C, symSize: 0x10 }
  - { offsetInCU: 0x7BD39, offset: 0x7BD39, size: 0x8, addend: 0x0, symName: __ZNSt3__17launderB8ue170006INS_4pairIKffEEEEPT_S5_, symObjAddr: 0x64668, symBinAddr: 0x100066E50, symSize: 0x24 }
  - { offsetInCU: 0x7BD70, offset: 0x7BD70, size: 0x8, addend: 0x0, symName: __ZNSt3__19__launderB8ue170006INS_4pairIKffEEEEPT_S5_, symObjAddr: 0x6468C, symBinAddr: 0x100066E74, symSize: 0x14 }
  - { offsetInCU: 0x7BDDA, offset: 0x7BDDA, size: 0x8, addend: 0x0, symName: __ZNSt3__17launderB8ue170006INS_4pairIKNS_12basic_stringIcNS_11char_traitsIcEENS_9allocatorIcEEEENS_13unordered_mapIffNS_4hashIfEENS_8equal_toIfEENS5_INS1_IKffEEEEEEEEEEPT_SK_, symObjAddr: 0x64A28, symBinAddr: 0x100067210, symSize: 0x24 }
  - { offsetInCU: 0x7BE11, offset: 0x7BE11, size: 0x8, addend: 0x0, symName: __ZNSt3__19__launderB8ue170006INS_4pairIKNS_12basic_stringIcNS_11char_traitsIcEENS_9allocatorIcEEEENS_13unordered_mapIffNS_4hashIfEENS_8equal_toIfEENS5_INS1_IKffEEEEEEEEEEPT_SK_, symObjAddr: 0x64A4C, symBinAddr: 0x100067234, symSize: 0x14 }
  - { offsetInCU: 0x7BE48, offset: 0x7BE48, size: 0x8, addend: 0x0, symName: __ZNSt3__1neB8ue170006ERKNS_21__hash_const_iteratorIPNS_11__hash_nodeINS_17__hash_value_typeIffEEPvEEEES9_, symObjAddr: 0x64AC4, symBinAddr: 0x1000672AC, symSize: 0x34 }
  - { offsetInCU: 0x7BE85, offset: 0x7BE85, size: 0x8, addend: 0x0, symName: __ZNSt3__1eqB8ue170006ERKNS_21__hash_const_iteratorIPNS_11__hash_nodeINS_17__hash_value_typeIffEEPvEEEES9_, symObjAddr: 0x64CDC, symBinAddr: 0x1000674C4, symSize: 0x30 }
  - { offsetInCU: 0x7BEC2, offset: 0x7BEC2, size: 0x8, addend: 0x0, symName: __ZNSt3__17launderB8ue170006IKNS_4pairIKffEEEEPT_S6_, symObjAddr: 0x64FF4, symBinAddr: 0x1000677DC, symSize: 0x24 }
  - { offsetInCU: 0x7BEF9, offset: 0x7BEF9, size: 0x8, addend: 0x0, symName: __ZNSt3__19__launderB8ue170006IKNS_4pairIKffEEEEPT_S6_, symObjAddr: 0x65018, symBinAddr: 0x100067800, symSize: 0x14 }
  - { offsetInCU: 0x7BF75, offset: 0x7BF75, size: 0x8, addend: 0x0, symName: __ZNSt3__112construct_atB8ue170006INS_4pairIKffEEJRKNS_21piecewise_construct_tENS_5tupleIJRS2_EEENS7_IJEEEEPS3_EEPT_SD_DpOT0_, symObjAddr: 0x65BF0, symBinAddr: 0x1000683D8, symSize: 0x50 }
  - { offsetInCU: 0x7C03F, offset: 0x7C03F, size: 0x8, addend: 0x0, symName: __ZNSt3__1eqB8ue170006IPNS_4pairINS_12basic_stringIcNS_11char_traitsIcEENS_9allocatorIcEEEEfEEEEbRKNS_11__wrap_iterIT_EESE_, symObjAddr: 0x6693C, symBinAddr: 0x100069124, symSize: 0x48 }
  - { offsetInCU: 0x7C082, offset: 0x7C082, size: 0x8, addend: 0x0, symName: __ZNSt3__116forward_as_tupleB8ue170006IJiEEENS_5tupleIJDpOT_EEES4_, symObjAddr: 0x6719C, symBinAddr: 0x100069984, symSize: 0x2C }
  - { offsetInCU: 0x7C0BB, offset: 0x7C0BB, size: 0x8, addend: 0x0, symName: __ZNSt3__112construct_atB8ue170006INS_4pairIKiNS_6vectorIfNS_9allocatorIfEEEEEEJRKNS_21piecewise_construct_tENS_5tupleIJOiEEENSB_IJEEEEPS7_EEPT_SH_DpOT0_, symObjAddr: 0x67328, symBinAddr: 0x100069B10, symSize: 0x50 }
  - { offsetInCU: 0x7C152, offset: 0x7C152, size: 0x8, addend: 0x0, symName: __ZNSt3__13getB8ue170006ILm0EJOiEEERNS_13tuple_elementIXT_ENS_5tupleIJDpT0_EEEE4typeERS6_, symObjAddr: 0x67444, symBinAddr: 0x100069C2C, symSize: 0x24 }
  - { offsetInCU: 0x7C5CA, offset: 0x7C5CA, size: 0x8, addend: 0x0, symName: '__ZNSt3__114__thread_proxyB8ue170006INS_5tupleIJNS_10unique_ptrINS_15__thread_structENS_14default_deleteIS3_EEEEZ12RandomSearchRKN5Eigen6MatrixIfLin1ELin1ELi0ELin1ELin1EEEiNS_12basic_stringIcNS_11char_traitsIcEENS_9allocatorIcEEEEbdiPKcijNS_6vectorIiNSF_IiEEEENS_5dequeISH_NSF_ISH_EEEEmfffffffE3$_8EEEEEPvSS_', symObjAddr: 0x67728, symBinAddr: 0x100069F10, symSize: 0x90 }
  - { offsetInCU: 0x7C627, offset: 0x7C627, size: 0x8, addend: 0x0, symName: '__ZNSt3__13getB8ue170006ILm0EJNS_10unique_ptrINS_15__thread_structENS_14default_deleteIS2_EEEEZ12RandomSearchRKN5Eigen6MatrixIfLin1ELin1ELi0ELin1ELin1EEEiNS_12basic_stringIcNS_11char_traitsIcEENS_9allocatorIcEEEEbdiPKcijNS_6vectorIiNSE_IiEEEENS_5dequeISG_NSE_ISG_EEEEmfffffffE3$_8EEERNS_13tuple_elementIXT_ENS_5tupleIJDpT0_EEEE4typeERSU_', symObjAddr: 0x67A40, symBinAddr: 0x10006A228, symSize: 0x24 }
  - { offsetInCU: 0x7C670, offset: 0x7C670, size: 0x8, addend: 0x0, symName: '__ZNSt3__116__thread_executeB8ue170006INS_10unique_ptrINS_15__thread_structENS_14default_deleteIS2_EEEEZ12RandomSearchRKN5Eigen6MatrixIfLin1ELin1ELi0ELin1ELin1EEEiNS_12basic_stringIcNS_11char_traitsIcEENS_9allocatorIcEEEEbdiPKcijNS_6vectorIiNSE_IiEEEENS_5dequeISG_NSE_ISG_EEEEmfffffffE3$_8JEJEEEvRNS_5tupleIJT_T0_DpT1_EEENS_15__tuple_indicesIJXspT2_EEEE', symObjAddr: 0x67A64, symBinAddr: 0x10006A24C, symSize: 0x28 }
  - { offsetInCU: 0x7C6C0, offset: 0x7C6C0, size: 0x8, addend: 0x0, symName: '__ZNSt3__18__invokeB8ue170006IZ12RandomSearchRKN5Eigen6MatrixIfLin1ELin1ELi0ELin1ELin1EEEiNS_12basic_stringIcNS_11char_traitsIcEENS_9allocatorIcEEEEbdiPKcijNS_6vectorIiNS9_IiEEEENS_5dequeISB_NS9_ISB_EEEEmfffffffE3$_8JEEEDTclclsr3stdE7declvalIT_EEspclsr3stdE7declvalIT0_EEEEOSL_DpOSM_', symObjAddr: 0x67A8C, symBinAddr: 0x10006A274, symSize: 0x24 }
  - { offsetInCU: 0x7C6F8, offset: 0x7C6F8, size: 0x8, addend: 0x0, symName: '__ZNSt3__13getB8ue170006ILm1EJNS_10unique_ptrINS_15__thread_structENS_14default_deleteIS2_EEEEZ12RandomSearchRKN5Eigen6MatrixIfLin1ELin1ELi0ELin1ELin1EEEiNS_12basic_stringIcNS_11char_traitsIcEENS_9allocatorIcEEEEbdiPKcijNS_6vectorIiNSE_IiEEEENS_5dequeISG_NSE_ISG_EEEEmfffffffE3$_8EEERNS_13tuple_elementIXT_ENS_5tupleIJDpT0_EEEE4typeERSU_', symObjAddr: 0x67AB0, symBinAddr: 0x10006A298, symSize: 0x28 }
  - { offsetInCU: 0x7CB60, offset: 0x7CB60, size: 0x8, addend: 0x0, symName: '__ZNSt3__114__thread_proxyB8ue170006INS_5tupleIJNS_10unique_ptrINS_15__thread_structENS_14default_deleteIS3_EEEEZ12RandomSearchRKN5Eigen6MatrixIfLin1ELin1ELi0ELin1ELin1EEEiNS_12basic_stringIcNS_11char_traitsIcEENS_9allocatorIcEEEEbdiPKcijNS_6vectorIiNSF_IiEEEENS_5dequeISH_NSF_ISH_EEEEmfffffffE3$_9EEEEEPvSS_', symObjAddr: 0x67FDC, symBinAddr: 0x10006A7C4, symSize: 0x90 }
  - { offsetInCU: 0x7CBBD, offset: 0x7CBBD, size: 0x8, addend: 0x0, symName: '__ZNSt3__13getB8ue170006ILm0EJNS_10unique_ptrINS_15__thread_structENS_14default_deleteIS2_EEEEZ12RandomSearchRKN5Eigen6MatrixIfLin1ELin1ELi0ELin1ELin1EEEiNS_12basic_stringIcNS_11char_traitsIcEENS_9allocatorIcEEEEbdiPKcijNS_6vectorIiNSE_IiEEEENS_5dequeISG_NSE_ISG_EEEEmfffffffE3$_9EEERNS_13tuple_elementIXT_ENS_5tupleIJDpT0_EEEE4typeERSU_', symObjAddr: 0x682F4, symBinAddr: 0x10006AADC, symSize: 0x24 }
  - { offsetInCU: 0x7CC06, offset: 0x7CC06, size: 0x8, addend: 0x0, symName: '__ZNSt3__116__thread_executeB8ue170006INS_10unique_ptrINS_15__thread_structENS_14default_deleteIS2_EEEEZ12RandomSearchRKN5Eigen6MatrixIfLin1ELin1ELi0ELin1ELin1EEEiNS_12basic_stringIcNS_11char_traitsIcEENS_9allocatorIcEEEEbdiPKcijNS_6vectorIiNSE_IiEEEENS_5dequeISG_NSE_ISG_EEEEmfffffffE3$_9JEJEEEvRNS_5tupleIJT_T0_DpT1_EEENS_15__tuple_indicesIJXspT2_EEEE', symObjAddr: 0x68318, symBinAddr: 0x10006AB00, symSize: 0x28 }
  - { offsetInCU: 0x7CC56, offset: 0x7CC56, size: 0x8, addend: 0x0, symName: '__ZNSt3__18__invokeB8ue170006IZ12RandomSearchRKN5Eigen6MatrixIfLin1ELin1ELi0ELin1ELin1EEEiNS_12basic_stringIcNS_11char_traitsIcEENS_9allocatorIcEEEEbdiPKcijNS_6vectorIiNS9_IiEEEENS_5dequeISB_NS9_ISB_EEEEmfffffffE3$_9JEEEDTclclsr3stdE7declvalIT_EEspclsr3stdE7declvalIT0_EEEEOSL_DpOSM_', symObjAddr: 0x68340, symBinAddr: 0x10006AB28, symSize: 0x24 }
  - { offsetInCU: 0x7CC8E, offset: 0x7CC8E, size: 0x8, addend: 0x0, symName: '__ZNSt3__13getB8ue170006ILm1EJNS_10unique_ptrINS_15__thread_structENS_14default_deleteIS2_EEEEZ12RandomSearchRKN5Eigen6MatrixIfLin1ELin1ELi0ELin1ELin1EEEiNS_12basic_stringIcNS_11char_traitsIcEENS_9allocatorIcEEEEbdiPKcijNS_6vectorIiNSE_IiEEEENS_5dequeISG_NSE_ISG_EEEEmfffffffE3$_9EEERNS_13tuple_elementIXT_ENS_5tupleIJDpT0_EEEE4typeERSU_', symObjAddr: 0x68364, symBinAddr: 0x10006AB4C, symSize: 0x28 }
  - { offsetInCU: 0x7E025, offset: 0x7E025, size: 0x8, addend: 0x0, symName: __ZSt28__throw_bad_array_new_lengthB8ue170006v, symObjAddr: 0x8CA4, symBinAddr: 0x10000B48C, symSize: 0x34 }
  - { offsetInCU: 0x7E08C, offset: 0x7E08C, size: 0x8, addend: 0x0, symName: __ZN20MultiLayerPerceptron13__tokens_dictE, symObjAddr: 0x6C130, symBinAddr: 0x100090000, symSize: 0x0 }
  - { offsetInCU: 0x7FADC, offset: 0x7FADC, size: 0x8, addend: 0x0, symName: __ZN20MultiLayerPerceptron17__operators_floatE, symObjAddr: 0x6C160, symBinAddr: 0x100090030, symSize: 0x0 }
  - { offsetInCU: 0x7FAF0, offset: 0x7FAF0, size: 0x8, addend: 0x0, symName: __ZN20MultiLayerPerceptron23__unary_operators_floatE, symObjAddr: 0x6C180, symBinAddr: 0x100090050, symSize: 0x0 }
  - { offsetInCU: 0x7FAFD, offset: 0x7FAFD, size: 0x8, addend: 0x0, symName: __Z12generateDataiiPFfRKN5Eigen6MatrixIfLin1ELi1ELi0ELin1ELi1EEEEff, symObjAddr: 0x134, symBinAddr: 0x10000291C, symSize: 0x2E8 }
  - { offsetInCU: 0x7FC2D, offset: 0x7FC2D, size: 0x8, addend: 0x0, symName: __ZN5Board14expression_setE, symObjAddr: 0x6C1A0, symBinAddr: 0x100090070, symSize: 0x0 }
  - { offsetInCU: 0x824CA, offset: 0x824CA, size: 0x8, addend: 0x0, symName: __ZN5boost9unordered6detail3foa12dummy_groupsINS2_7group15INS2_15atomic_integralEEELm2EEEPT_v, symObjAddr: 0x11314, symBinAddr: 0x100013AFC, symSize: 0xC }
  - { offsetInCU: 0x824F6, offset: 0x824F6, size: 0x8, addend: 0x0, symName: __ZZN5boost9unordered6detail3foa12dummy_groupsINS2_7group15INS2_15atomic_integralEEELm2EEEPT_vE7storage, symObjAddr: 0x6F6F0, symBinAddr: 0x1000868D0, symSize: 0x0 }
  - { offsetInCU: 0x82513, offset: 0x82513, size: 0x8, addend: 0x0, symName: __ZN5boost9unordered6detail3foa20dummy_group_accessesILm2EEEPNS2_12group_accessEv, symObjAddr: 0x119B8, symBinAddr: 0x1000141A0, symSize: 0xC }
  - { offsetInCU: 0x8253D, offset: 0x8253D, size: 0x8, addend: 0x0, symName: __ZZN5boost9unordered6detail3foa20dummy_group_accessesILm2EEEPNS2_12group_accessEvE8accesses, symObjAddr: 0x6E574, symBinAddr: 0x100092444, symSize: 0x0 }
  - { offsetInCU: 0x8256A, offset: 0x8256A, size: 0x8, addend: 0x0, symName: __ZN5boost9unordered6detail3foa16concurrent_tableINS2_14flat_set_typesINSt3__112basic_stringIcNS5_11char_traitsIcEENS5_9allocatorIcEEEEEENS_4hashISB_EENS5_8equal_toISB_EENS9_ISB_EEE14thread_counterE, symObjAddr: 0x6E598, symBinAddr: 0x100092468, symSize: 0x0 }
  - { offsetInCU: 0x82577, offset: 0x82577, size: 0x8, addend: 0x0, symName: __ZN5boost9unordered6detail3foa21unchecked_countr_zeroEi, symObjAddr: 0x6198, symBinAddr: 0x100008980, symSize: 0x5C }
  - { offsetInCU: 0x825A5, offset: 0x825A5, size: 0x8, addend: 0x0, symName: __ZN5boost9unordered6detail3foaL14size_index_forINS2_7group15INS2_15atomic_integralEEENS2_16pow2_size_policyEEEmm, symObjAddr: 0x110B8, symBinAddr: 0x1000138A0, symSize: 0x30 }
  - { offsetInCU: 0x82C7F, offset: 0x82C7F, size: 0x8, addend: 0x0, symName: __ZN5boost10empty_initE, symObjAddr: 0x6F6E4, symBinAddr: 0x1000868C4, symSize: 0x0 }
  - { offsetInCU: 0x82D52, offset: 0x82D52, size: 0x8, addend: 0x0, symName: __ZN5boost10to_addressINSt3__112basic_stringIcNS1_11char_traitsIcEENS1_9allocatorIcEEEEEEPT_S9_, symObjAddr: 0x6230, symBinAddr: 0x100008A18, symSize: 0x14 }
  - { offsetInCU: 0x82D87, offset: 0x82D87, size: 0x8, addend: 0x0, symName: __ZN5boost10to_addressINS_9unordered6detail3foa7group15INS3_15atomic_integralEEEEEPT_S8_, symObjAddr: 0x6244, symBinAddr: 0x100008A2C, symSize: 0x14 }
  - { offsetInCU: 0x82DC1, offset: 0x82DC1, size: 0x8, addend: 0x0, symName: __ZN5boost4core11countr_zeroIjEEiT_, symObjAddr: 0x63FC, symBinAddr: 0x100008BE4, symSize: 0x24 }
  - { offsetInCU: 0x82DFD, offset: 0x82DFD, size: 0x8, addend: 0x0, symName: __ZN5boost4core6detail11countr_implEj, symObjAddr: 0x6420, symBinAddr: 0x100008C08, symSize: 0x48 }
  - { offsetInCU: 0x82E2B, offset: 0x82E2B, size: 0x8, addend: 0x0, symName: __ZN5boost4core6detail11countl_implEm, symObjAddr: 0x11238, symBinAddr: 0x100013A20, symSize: 0x44 }
  - { offsetInCU: 0x82E58, offset: 0x82E58, size: 0x8, addend: 0x0, symName: __ZN5boost4core9bit_widthImEEiT_, symObjAddr: 0x111E8, symBinAddr: 0x1000139D0, symSize: 0x2C }
  - { offsetInCU: 0x82E8F, offset: 0x82E8F, size: 0x8, addend: 0x0, symName: __ZN5boost4core11countl_zeroImEEiT_, symObjAddr: 0x11214, symBinAddr: 0x1000139FC, symSize: 0x24 }
  - { offsetInCU: 0x82ED1, offset: 0x82ED1, size: 0x8, addend: 0x0, symName: __ZN5boost4core15sp_thread_yieldEv, symObjAddr: 0x2B97C, symBinAddr: 0x10002E164, symSize: 0x1C }
  - { offsetInCU: 0x82EEA, offset: 0x82EEA, size: 0x8, addend: 0x0, symName: __ZN5boost4core15sp_thread_sleepEv, symObjAddr: 0x2B998, symBinAddr: 0x10002E180, symSize: 0x60 }
  - { offsetInCU: 0x82F21, offset: 0x82F21, size: 0x8, addend: 0x0, symName: __ZN5boost17allocator_destroyINSt3__19allocatorINS1_12basic_stringIcNS1_11char_traitsIcEENS2_IcEEEEEES7_EENS_6detail8alloc_ifIXntsr6detail17alloc_has_destroyIT_T0_EE5valueEvE4typeERSB_PSC_, symObjAddr: 0x6568, symBinAddr: 0x100008D50, symSize: 0x28 }
  - { offsetInCU: 0x82F6C, offset: 0x82F6C, size: 0x8, addend: 0x0, symName: __ZN5boost20allocator_deallocateINSt3__19allocatorINS_9unordered6detail3foa12group_accessEEEEEvRT_NS_17allocator_pointerIS8_E4typeENS_19allocator_size_typeIS8_E4typeE, symObjAddr: 0x6714, symBinAddr: 0x100008EFC, symSize: 0x34 }
  - { offsetInCU: 0x830AB, offset: 0x830AB, size: 0x8, addend: 0x0, symName: __ZN5boost20allocator_deallocateINSt3__19allocatorINS1_12basic_stringIcNS1_11char_traitsIcEENS2_IcEEEEEEEEvRT_NS_17allocator_pointerIS9_E4typeENS_19allocator_size_typeIS9_E4typeE, symObjAddr: 0x6810, symBinAddr: 0x100008FF8, symSize: 0x34 }
  - { offsetInCU: 0x830FC, offset: 0x830FC, size: 0x8, addend: 0x0, symName: __ZN5boost18allocator_allocateINSt3__19allocatorINS1_12basic_stringIcNS1_11char_traitsIcEENS2_IcEEEEEEEENS_17allocator_pointerIT_E4typeERSA_NS_19allocator_size_typeISA_E4typeE, symObjAddr: 0x114DC, symBinAddr: 0x100013CC4, symSize: 0x2C }
  - { offsetInCU: 0x83142, offset: 0x83142, size: 0x8, addend: 0x0, symName: __ZN5boost9addressofINS_9unordered6detail3foa7group15INS3_15atomic_integralEEEEEPT_RS7_, symObjAddr: 0x1158C, symBinAddr: 0x100013D74, symSize: 0x14 }
  - { offsetInCU: 0x83177, offset: 0x83177, size: 0x8, addend: 0x0, symName: __ZN5boost18allocator_allocateINSt3__19allocatorINS_9unordered6detail3foa12group_accessEEEEENS_17allocator_pointerIT_E4typeERS9_NS_19allocator_size_typeIS9_E4typeE, symObjAddr: 0x11A50, symBinAddr: 0x100014238, symSize: 0x2C }
  - { offsetInCU: 0x831BD, offset: 0x831BD, size: 0x8, addend: 0x0, symName: __ZN5boost10to_addressINS_9unordered6detail3foa12group_accessEEEPT_S6_, symObjAddr: 0x11B50, symBinAddr: 0x100014338, symSize: 0x14 }
  - { offsetInCU: 0x831F2, offset: 0x831F2, size: 0x8, addend: 0x0, symName: __ZN5boost10hash_valueINSt3__112basic_stringIcNS1_11char_traitsIcEENS1_9allocatorIcEEEEEENS1_9enable_ifIXsr14container_hash19is_contiguous_rangeIT_EE5valueEmE4typeERKS9_, symObjAddr: 0x3D838, symBinAddr: 0x100040020, symSize: 0x50 }
  - { offsetInCU: 0x83229, offset: 0x83229, size: 0x8, addend: 0x0, symName: __ZN5boost10hash_rangeIPKcEEmT_S3_, symObjAddr: 0x3D888, symBinAddr: 0x100040070, symSize: 0x38 }
  - { offsetInCU: 0x83280, offset: 0x83280, size: 0x8, addend: 0x0, symName: __ZN5boost10hash_rangeIPKcEEvRmT_S4_, symObjAddr: 0x3D8C0, symBinAddr: 0x1000400A8, symSize: 0x40 }
  - { offsetInCU: 0x832D6, offset: 0x832D6, size: 0x8, addend: 0x0, symName: __ZN5boost11hash_detail10hash_rangeIPKcEENSt3__19enable_ifIXaaaasr12is_char_typeINS4_15iterator_traitsIT_E10value_typeEEE5valuesr3std7is_sameINS8_17iterator_categoryENS4_26random_access_iterator_tagEEE5valuegtL_ZNS4_14numeric_limitsImE6digitsEELi32EEmE4typeEmS7_S7_, symObjAddr: 0x3D900, symBinAddr: 0x1000400E8, symSize: 0x220 }
  - { offsetInCU: 0x833E6, offset: 0x833E6, size: 0x8, addend: 0x0, symName: __ZN5boost11hash_detail4mulxEyy, symObjAddr: 0x3DB20, symBinAddr: 0x100040308, symSize: 0x60 }
  - { offsetInCU: 0x8342E, offset: 0x8342E, size: 0x8, addend: 0x0, symName: __ZN5boost11hash_detail8read64leIPKcEEyT_, symObjAddr: 0x3DB80, symBinAddr: 0x100040368, symSize: 0x74 }
  - { offsetInCU: 0x83471, offset: 0x83471, size: 0x8, addend: 0x0, symName: __ZN5boost11hash_detail8read32leIPKcEEjT_, symObjAddr: 0x3DBF4, symBinAddr: 0x1000403DC, symSize: 0x44 }
  - { offsetInCU: 0x834B5, offset: 0x834B5, size: 0x8, addend: 0x0, symName: __ZN5boost19allocator_constructINSt3__19allocatorINS1_12basic_stringIcNS1_11char_traitsIcEENS2_IcEEEEEES7_JRKS7_EEENS1_9enable_ifIXntsr6detail19alloc_has_constructIT_T0_DpT1_EE5valueEvE4typeERSC_PSD_DpOSE_, symObjAddr: 0x3E658, symBinAddr: 0x100040E40, symSize: 0x30 }
  - { offsetInCU: 0x8351A, offset: 0x8351A, size: 0x8, addend: 0x0, symName: __ZN5boost19allocator_constructINSt3__19allocatorINS1_12basic_stringIcNS1_11char_traitsIcEENS2_IcEEEEEES7_JS7_EEENS1_9enable_ifIXntsr6detail19alloc_has_constructIT_T0_DpT1_EE5valueEvE4typeERSA_PSB_DpOSC_, symObjAddr: 0x3F404, symBinAddr: 0x100041BEC, symSize: 0x30 }
  - { offsetInCU: 0x85980, offset: 0x85980, size: 0x8, addend: 0x0, symName: __ZN5Board12__input_varsE, symObjAddr: 0x6E290, symBinAddr: 0x100092160, symSize: 0x0 }
  - { offsetInCU: 0x85994, offset: 0x85994, size: 0x8, addend: 0x0, symName: __ZN5Board17__unary_operatorsE, symObjAddr: 0x6E2B0, symBinAddr: 0x100092180, symSize: 0x0 }
  - { offsetInCU: 0x859A8, offset: 0x859A8, size: 0x8, addend: 0x0, symName: __ZN5Board18__binary_operatorsE, symObjAddr: 0x6E2D0, symBinAddr: 0x1000921A0, symSize: 0x0 }
  - { offsetInCU: 0x859BC, offset: 0x859BC, size: 0x8, addend: 0x0, symName: __ZN5Board11__operatorsE, symObjAddr: 0x6E2F0, symBinAddr: 0x1000921C0, symSize: 0x0 }
  - { offsetInCU: 0x859D0, offset: 0x859D0, size: 0x8, addend: 0x0, symName: __ZN5Board14__other_tokensE, symObjAddr: 0x6E310, symBinAddr: 0x1000921E0, symSize: 0x0 }
  - { offsetInCU: 0x859E4, offset: 0x859E4, size: 0x8, addend: 0x0, symName: __ZN5Board8__tokensE, symObjAddr: 0x6E330, symBinAddr: 0x100092200, symSize: 0x0 }
  - { offsetInCU: 0x859F8, offset: 0x859F8, size: 0x8, addend: 0x0, symName: __ZN5Board14__tokens_floatE, symObjAddr: 0x6E350, symBinAddr: 0x100092220, symSize: 0x0 }
  - { offsetInCU: 0x85A0C, offset: 0x85A0C, size: 0x8, addend: 0x0, symName: __ZN5Board4dataE, symObjAddr: 0x6E370, symBinAddr: 0x100092240, symSize: 0x0 }
  - { offsetInCU: 0x85A20, offset: 0x85A20, size: 0x8, addend: 0x0, symName: __ZN5Board13thread_lockerE, symObjAddr: 0x6E3F8, symBinAddr: 0x1000922C8, symSize: 0x0 }
  - { offsetInCU: 0x85A34, offset: 0x85A34, size: 0x8, addend: 0x0, symName: __ZN5Board17__operators_floatE, symObjAddr: 0x6E440, symBinAddr: 0x100092310, symSize: 0x0 }
  - { offsetInCU: 0x85A48, offset: 0x85A48, size: 0x8, addend: 0x0, symName: __ZN5Board23__unary_operators_floatE, symObjAddr: 0x6E460, symBinAddr: 0x100092330, symSize: 0x0 }
  - { offsetInCU: 0x85A5C, offset: 0x85A5C, size: 0x8, addend: 0x0, symName: __ZN5Board24__binary_operators_floatE, symObjAddr: 0x6E480, symBinAddr: 0x100092350, symSize: 0x0 }
  - { offsetInCU: 0x85A70, offset: 0x85A70, size: 0x8, addend: 0x0, symName: __ZN5Board18__input_vars_floatE, symObjAddr: 0x6E4A0, symBinAddr: 0x100092370, symSize: 0x0 }
  - { offsetInCU: 0x85A84, offset: 0x85A84, size: 0x8, addend: 0x0, symName: __ZN5Board20__other_tokens_floatE, symObjAddr: 0x6E4C0, symBinAddr: 0x100092390, symSize: 0x0 }
  - { offsetInCU: 0x85A98, offset: 0x85A98, size: 0x8, addend: 0x0, symName: __ZN5Board13__tokens_dictE, symObjAddr: 0x6E4E0, symBinAddr: 0x1000923B0, symSize: 0x0 }
  - { offsetInCU: 0x85AAC, offset: 0x85AAC, size: 0x8, addend: 0x0, symName: __ZN5Board17__tokens_inv_dictE, symObjAddr: 0x6E510, symBinAddr: 0x1000923E0, symSize: 0x0 }
  - { offsetInCU: 0x85AC0, offset: 0x85AC0, size: 0x8, addend: 0x0, symName: __ZN5Board29una_bin_leaf_legal_moves_dictE, symObjAddr: 0x6E540, symBinAddr: 0x100092410, symSize: 0x0 }
  - { offsetInCU: 0x85ACE, offset: 0x85ACE, size: 0x8, addend: 0x0, symName: __ZN5boost9unordered6detail3foa7group15INS2_15atomic_integralEE22simde_mm_movemask_epi8E17__simd128_uint8_t, symObjAddr: 0x62C4, symBinAddr: 0x100008AAC, symSize: 0x110 }
  - { offsetInCU: 0x85AEF, offset: 0x85AEF, size: 0x8, addend: 0x0, symName: __ZZN5boost9unordered6detail3foa7group15INS2_15atomic_integralEE22simde_mm_movemask_epi8E17__simd128_uint8_tE2md, symObjAddr: 0x6F6D4, symBinAddr: 0x1000868B4, symSize: 0x0 }
  - { offsetInCU: 0x85B6E, offset: 0x85B6E, size: 0x8, addend: 0x0, symName: __ZN5Board8fit_timeE, symObjAddr: 0x6E570, symBinAddr: 0x100092440, symSize: 0x0 }
  - { offsetInCU: 0x85BB5, offset: 0x85BB5, size: 0x8, addend: 0x0, symName: __ZNK5boost9unordered6detail3foa10table_coreINS2_14flat_set_typesINSt3__112basic_stringIcNS5_11char_traitsIcEENS5_9allocatorIcEEEEEENS2_7group15INS2_15atomic_integralEEENS2_23concurrent_table_arraysENS2_19atomic_size_controlENS_4hashISB_EENS5_8equal_toISB_EENS9_ISB_EEE16initial_max_loadEv, symObjAddr: 0x10EA0, symBinAddr: 0x100013688, symSize: 0x6C }
  - { offsetInCU: 0x85BDA, offset: 0x85BDA, size: 0x8, addend: 0x0, symName: __ZZNK5boost9unordered6detail3foa10table_coreINS2_14flat_set_typesINSt3__112basic_stringIcNS5_11char_traitsIcEENS5_9allocatorIcEEEEEENS2_7group15INS2_15atomic_integralEEENS2_23concurrent_table_arraysENS2_19atomic_size_controlENS_4hashISB_EENS5_8equal_toISB_EENS9_ISB_EEE16initial_max_loadEvE14small_capacity, symObjAddr: 0x6F710, symBinAddr: 0x1000868F0, symSize: 0x0 }
  - { offsetInCU: 0x85C16, offset: 0x85C16, size: 0x8, addend: 0x0, symName: __ZN5Board14__num_featuresE, symObjAddr: 0x6E590, symBinAddr: 0x100092460, symSize: 0x0 }
  - { offsetInCU: 0x85C24, offset: 0x85C24, size: 0x8, addend: 0x0, symName: __ZN5boost9unordered6detail3foa11entry_trace6headerEv, symObjAddr: 0x2AE8C, symBinAddr: 0x10002D674, symSize: 0x20 }
  - { offsetInCU: 0x85C56, offset: 0x85C56, size: 0x8, addend: 0x0, symName: __ZN5Board11action_sizeE, symObjAddr: 0x6E594, symBinAddr: 0x100092464, symSize: 0x0 }
  - { offsetInCU: 0x85C6A, offset: 0x85C6A, size: 0x8, addend: 0x0, symName: __ZN5Board19initialization_flagE, symObjAddr: 0x6E588, symBinAddr: 0x100092458, symSize: 0x0 }
  - { offsetInCU: 0x85C78, offset: 0x85C78, size: 0x8, addend: 0x0, symName: __ZNK5boost9unordered6detail3foa16concurrent_tableINS2_14flat_set_typesINSt3__112basic_stringIcNS5_11char_traitsIcEENS5_9allocatorIcEEEEEENS_4hashISB_EENS5_8equal_toISB_EENS9_ISB_EEE13shared_accessEv, symObjAddr: 0x3CE44, symBinAddr: 0x10003F62C, symSize: 0xE4 }
  - { offsetInCU: 0x85CB6, offset: 0x85CB6, size: 0x8, addend: 0x0, symName: __ZN5boost9unordered6detail3foa7group15INS2_15atomic_integralEE12reduced_hashEm, symObjAddr: 0x3DEE0, symBinAddr: 0x1000406C8, symSize: 0x24 }
  - { offsetInCU: 0x85CD7, offset: 0x85CD7, size: 0x8, addend: 0x0, symName: __ZZN5boost9unordered6detail3foa7group15INS2_15atomic_integralEE12reduced_hashEmE5table, symObjAddr: 0x6F71A, symBinAddr: 0x1000868FA, symSize: 0x0 }
  - { offsetInCU: 0x85D00, offset: 0x85D00, size: 0x8, addend: 0x0, symName: __ZNK5boost9unordered6detail3foa7group15INS2_15atomic_integralEE17is_not_overflowedEm, symObjAddr: 0x3DE84, symBinAddr: 0x10004066C, symSize: 0x5C }
  - { offsetInCU: 0x85D25, offset: 0x85D25, size: 0x8, addend: 0x0, symName: __ZZNK5boost9unordered6detail3foa7group15INS2_15atomic_integralEE17is_not_overflowedEmE5shift, symObjAddr: 0x6F81A, symBinAddr: 0x1000869FA, symSize: 0x0 }
  - { offsetInCU: 0x85D59, offset: 0x85D59, size: 0x8, addend: 0x0, symName: __Z4MCTSRKN5Eigen6MatrixIfLin1ELin1ELi0ELin1ELin1EEEiNSt3__112basic_stringIcNS4_11char_traitsIcEENS4_9allocatorIcEEEEbdiPKcijNS4_6vectorIiNS8_IiEEEENS4_5dequeISA_NS8_ISA_EEEEmfffffff, symObjAddr: 0x3CF0, symBinAddr: 0x1000064D8, symSize: 0x7C8 }
  - { offsetInCU: 0x8631B, offset: 0x8631B, size: 0x8, addend: 0x0, symName: '__ZZ4MCTSRKN5Eigen6MatrixIfLin1ELin1ELi0ELin1ELin1EEEiNSt3__112basic_stringIcNS4_11char_traitsIcEENS4_9allocatorIcEEEEbdiPKcijNS4_6vectorIiNS8_IiEEEENS4_5dequeISA_NS8_ISA_EEEEmfffffffENK3$_7clEv', symObjAddr: 0x5F654, symBinAddr: 0x100061E3C, symSize: 0x958 }
  - { offsetInCU: 0x8657E, offset: 0x8657E, size: 0x8, addend: 0x0, symName: __Z12RandomSearchRKN5Eigen6MatrixIfLin1ELin1ELi0ELin1ELin1EEEiNSt3__112basic_stringIcNS4_11char_traitsIcEENS4_9allocatorIcEEEEbdiPKcijNS4_6vectorIiNS8_IiEEEENS4_5dequeISA_NS8_ISA_EEEEmfffffff, symObjAddr: 0x46C4, symBinAddr: 0x100006EAC, symSize: 0x7C8 }
  - { offsetInCU: 0x86A87, offset: 0x86A87, size: 0x8, addend: 0x0, symName: '__ZZ12RandomSearchRKN5Eigen6MatrixIfLin1ELin1ELi0ELin1ELin1EEEiNSt3__112basic_stringIcNS4_11char_traitsIcEENS4_9allocatorIcEEEEbdiPKcijNS4_6vectorIiNS8_IiEEEENS4_5dequeISA_NS8_ISA_EEEEmfffffffENK3$_9clEv', symObjAddr: 0x6838C, symBinAddr: 0x10006AB74, symSize: 0x5D4 }
  - { offsetInCU: 0x872E2, offset: 0x872E2, size: 0x8, addend: 0x0, symName: __ZN5Eigen8internal21dense_assignment_loopINS0_31generic_dense_assignment_kernelINS0_9evaluatorINS_6MatrixIfLin1ELin1ELi0ELin1ELin1EEEEES6_NS0_9assign_opIffEELi0EEELi3ELi0EE3runERS9_, symObjAddr: 0x23A8C, symBinAddr: 0x100026274, symSize: 0xA8 }
  - { offsetInCU: 0x87620, offset: 0x87620, size: 0x8, addend: 0x0, symName: __ZN5Eigen8internal21dense_assignment_loopINS0_31generic_dense_assignment_kernelINS0_9evaluatorINS_6MatrixIfLin1ELi1ELi0ELin1ELi1EEEEES6_NS0_9assign_opIffEELi0EEELi3ELi0EE3runERS9_, symObjAddr: 0x2A78C, symBinAddr: 0x10002CF74, symSize: 0xA8 }
  - { offsetInCU: 0x87AB3, offset: 0x87AB3, size: 0x8, addend: 0x0, symName: __ZNSt3__16vectorIfNS_9allocatorIfEEE26__swap_out_circular_bufferERNS_14__split_bufferIfRS2_EE, symObjAddr: 0x9E1C, symBinAddr: 0x10000C604, symSize: 0x110 }
  - { offsetInCU: 0x880AC, offset: 0x880AC, size: 0x8, addend: 0x0, symName: __Z3powB8ue170006IfiENSt3__19enable_ifIXaasr3std13is_arithmeticIT_EE5valuesr3std13is_arithmeticIT0_EE5valueENS0_9__promoteIS2_S3_vEEE4type4typeES2_S3_, symObjAddr: 0x15D0, symBinAddr: 0x100003DB8, symSize: 0x3C }
  - { offsetInCU: 0x88129, offset: 0x88129, size: 0x8, addend: 0x0, symName: __Z3powB8ue170006IdiENSt3__19enable_ifIXaasr3std13is_arithmeticIT_EE5valuesr3std13is_arithmeticIT0_EE5valueENS0_9__promoteIS2_S3_vEEE4type4typeES2_S3_, symObjAddr: 0x1858, symBinAddr: 0x100004040, symSize: 0x38 }
  - { offsetInCU: 0x886F6, offset: 0x886F6, size: 0x8, addend: 0x0, symName: __Z18SimulatedAnnealingRKN5Eigen6MatrixIfLin1ELin1ELi0ELin1ELin1EEEiNSt3__112basic_stringIcNS4_11char_traitsIcEENS4_9allocatorIcEEEEbdiPKcijNS4_6vectorIiNS8_IiEEEENS4_5dequeISA_NS8_ISA_EEEEmfffffff, symObjAddr: 0x1BB0, symBinAddr: 0x100004398, symSize: 0x7BC }
  - { offsetInCU: 0x88CD0, offset: 0x88CD0, size: 0x8, addend: 0x0, symName: __ZNKSt3__16chrono15__duration_castINS0_8durationIxNS_5ratioILl1ELl1EEEEENS2_IxNS3_ILl1ELl1000000000EEEEENS3_ILl1000000000ELl1EEELb0ELb1EEclB8ue170006ERKS5_, symObjAddr: 0x1778C, symBinAddr: 0x100019F74, symSize: 0x4C }
  - { offsetInCU: 0x88D0F, offset: 0x88D0F, size: 0x8, addend: 0x0, symName: __ZNSt3__16vectorINS_4pairIifEENS_9allocatorIS2_EEE26__swap_out_circular_bufferERNS_14__split_bufferIS2_RS4_EE, symObjAddr: 0x17CA4, symBinAddr: 0x10001A48C, symSize: 0x110 }
  - { offsetInCU: 0x88EC5, offset: 0x88EC5, size: 0x8, addend: 0x0, symName: __Z3powB8ue170006IiiENSt3__19enable_ifIXaasr3std13is_arithmeticIT_EE5valuesr3std13is_arithmeticIT0_EE5valueENS0_9__promoteIS2_S3_vEEE4type4typeES2_S3_, symObjAddr: 0x20124, symBinAddr: 0x10002290C, symSize: 0x44 }
  - { offsetInCU: 0x88F2C, offset: 0x88F2C, size: 0x8, addend: 0x0, symName: __ZN5BoardC2EiRKNSt3__112basic_stringIcNS0_11char_traitsIcEENS0_9allocatorIcEEEERKN5Eigen6MatrixIfLin1ELin1ELi0ELin1ELin1EEEbbNS0_6vectorIiNS4_IiEEEENS0_5dequeIS6_NS4_IS6_EEEEmfffffff, symObjAddr: 0x1FC8C, symBinAddr: 0x100022474, symSize: 0x3E0 }
  - { offsetInCU: 0x8912B, offset: 0x8912B, size: 0x8, addend: 0x0, symName: __ZNSt3__16vectorIN5Eigen6MatrixIfLin1ELi1ELi0ELin1ELi1EEENS_9allocatorIS3_EEE26__swap_out_circular_bufferERNS_14__split_bufferIS3_RS5_EE, symObjAddr: 0x2711C, symBinAddr: 0x100029904, symSize: 0x110 }
  - { offsetInCU: 0x89247, offset: 0x89247, size: 0x8, addend: 0x0, symName: __ZNSt3__16vectorINS_12basic_stringIcNS_11char_traitsIcEENS_9allocatorIcEEEENS4_IS6_EEE26__swap_out_circular_bufferERNS_14__split_bufferIS6_RS7_EE, symObjAddr: 0x2D4FC, symBinAddr: 0x10002FCE4, symSize: 0x110 }
  - { offsetInCU: 0x893EE, offset: 0x893EE, size: 0x8, addend: 0x0, symName: __ZNKSt3__16chrono15__duration_castINS0_8durationIxNS_5ratioILl1ELl1000000EEEEENS2_IxNS3_ILl1ELl1000000000EEEEENS3_ILl1000ELl1EEELb0ELb1EEclB8ue170006ERKS5_, symObjAddr: 0x38F60, symBinAddr: 0x10003B748, symSize: 0x48 }
  - { offsetInCU: 0x8942D, offset: 0x8942D, size: 0x8, addend: 0x0, symName: __ZNSt3__16vectorIiNS_9allocatorIiEEE26__swap_out_circular_bufferERNS_14__split_bufferIiRS2_EE, symObjAddr: 0x3B8E0, symBinAddr: 0x10003E0C8, symSize: 0x110 }
  - { offsetInCU: 0x89533, offset: 0x89533, size: 0x8, addend: 0x0, symName: __ZNSt3__124uniform_int_distributionIiEclINS_23mersenne_twister_engineIjLm32ELm624ELm397ELm31ELj2567483615ELm11ELj4294967295ELm7ELj2636928640ELm15ELj4022730752ELm18ELj1812433253EEEEEiRT_RKNS1_10param_typeE, symObjAddr: 0x41D0C, symBinAddr: 0x1000444F4, symSize: 0x188 }
  - { offsetInCU: 0x895E6, offset: 0x895E6, size: 0x8, addend: 0x0, symName: __ZNSt3__16vectorINS_4pairIiiEENS_9allocatorIS2_EEE26__swap_out_circular_bufferERNS_14__split_bufferIS2_RS4_EE, symObjAddr: 0x45BD4, symBinAddr: 0x1000483BC, symSize: 0x110 }
  - { offsetInCU: 0x8967A, offset: 0x8967A, size: 0x8, addend: 0x0, symName: __ZNSt3__16vectorIfNS_9allocatorIfEEE26__swap_out_circular_bufferERNS_14__split_bufferIfRS2_EEPf, symObjAddr: 0x47920, symBinAddr: 0x10004A108, symSize: 0x14C }
  - { offsetInCU: 0x89813, offset: 0x89813, size: 0x8, addend: 0x0, symName: __Z2GPRKN5Eigen6MatrixIfLin1ELin1ELi0ELin1ELin1EEEiNSt3__112basic_stringIcNS4_11char_traitsIcEENS4_9allocatorIcEEEEbdiPKcijNS4_6vectorIiNS8_IiEEEENS4_5dequeISA_NS8_ISA_EEEEmfffffff, symObjAddr: 0x2CA8, symBinAddr: 0x100005490, symSize: 0x7BC }
  - { offsetInCU: 0x89F61, offset: 0x89F61, size: 0x8, addend: 0x0, symName: __ZNSt3__16vectorINS_4pairINS0_IfNS_9allocatorIfEEEEfEENS2_IS5_EEE26__swap_out_circular_bufferERNS_14__split_bufferIS5_RS6_EE, symObjAddr: 0x4D378, symBinAddr: 0x10004FB60, symSize: 0x110 }
  - { offsetInCU: 0x89FFE, offset: 0x89FFE, size: 0x8, addend: 0x0, symName: __Z3PSORKN5Eigen6MatrixIfLin1ELin1ELi0ELin1ELin1EEEiNSt3__112basic_stringIcNS4_11char_traitsIcEENS4_9allocatorIcEEEEbdiPKcijNS4_6vectorIiNS8_IiEEEENS4_5dequeISA_NS8_ISA_EEEEmfffffff, symObjAddr: 0x34CC, symBinAddr: 0x100005CB4, symSize: 0x7BC }
  - { offsetInCU: 0x8B6B5, offset: 0x8B6B5, size: 0x8, addend: 0x0, symName: __ZNSt3__16vectorINS_4pairImfEENS_9allocatorIS2_EEE26__swap_out_circular_bufferERNS_14__split_bufferIS2_RS4_EE, symObjAddr: 0x5DDB4, symBinAddr: 0x10006059C, symSize: 0x110 }
  - { offsetInCU: 0x8B93B, offset: 0x8B93B, size: 0x8, addend: 0x0, symName: __ZNSt3__16vectorINS_4pairINS_12basic_stringIcNS_11char_traitsIcEENS_9allocatorIcEEEEfEENS5_IS8_EEE26__swap_out_circular_bufferERNS_14__split_bufferIS8_RS9_EE, symObjAddr: 0x60E28, symBinAddr: 0x100063610, symSize: 0x110 }
  - { offsetInCU: 0x8E634, offset: 0x8E634, size: 0x8, addend: 0x0, symName: __ZN5Eigen8symbolic10SymbolExprINS_8internal17symbolic_last_tagEEC1Ev, symObjAddr: 0x0, symBinAddr: 0x1000027E8, symSize: 0x2C }
  - { offsetInCU: 0x8E65E, offset: 0x8E65E, size: 0x8, addend: 0x0, symName: __ZNK5Eigen8symbolic8BaseExprINS0_10SymbolExprINS_8internal17symbolic_last_tagEEEEplILi1EEENS0_7AddExprIS5_NS0_9ValueExprINS3_8FixedIntIXT_EEEEEEESB_, symObjAddr: 0x2C, symBinAddr: 0x100002814, symSize: 0x48 }
  - { offsetInCU: 0x8E699, offset: 0x8E699, size: 0x8, addend: 0x0, symName: __ZNK5Eigen8internal8FixedIntILi1EEclEv, symObjAddr: 0x74, symBinAddr: 0x10000285C, symSize: 0x10 }
  - { offsetInCU: 0x8E6BF, offset: 0x8E6BF, size: 0x8, addend: 0x0, symName: __ZN5Eigen8internal5all_tC1Ev, symObjAddr: 0x84, symBinAddr: 0x10000286C, symSize: 0x2C }
  - { offsetInCU: 0x8E6E9, offset: 0x8E6E9, size: 0x8, addend: 0x0, symName: __ZNSt3__113unordered_mapIfNS_12basic_stringIcNS_11char_traitsIcEENS_9allocatorIcEEEENS_4hashIfEENS_8equal_toIfEENS4_INS_4pairIKfS6_EEEEEC1B8ue170006Ev, symObjAddr: 0xB0, symBinAddr: 0x100002898, symSize: 0x2C }
  - { offsetInCU: 0x8E713, offset: 0x8E713, size: 0x8, addend: 0x0, symName: __ZNSt3__113unordered_mapIfNS_12basic_stringIcNS_11char_traitsIcEENS_9allocatorIcEEEENS_4hashIfEENS_8equal_toIfEENS4_INS_4pairIKfS6_EEEEED1B8ue170006Ev, symObjAddr: 0xDC, symBinAddr: 0x1000028C4, symSize: 0x2C }
  - { offsetInCU: 0x8E73D, offset: 0x8E73D, size: 0x8, addend: 0x0, symName: __ZNSt3__16vectorIfNS_9allocatorIfEEED1B8ue170006Ev, symObjAddr: 0x108, symBinAddr: 0x1000028F0, symSize: 0x2C }
  - { offsetInCU: 0x8E767, offset: 0x8E767, size: 0x8, addend: 0x0, symName: __ZNSt3__113random_deviceC1B8ue170006Ev, symObjAddr: 0x41C, symBinAddr: 0x100002C04, symSize: 0x74 }
  - { offsetInCU: 0x8E791, offset: 0x8E791, size: 0x8, addend: 0x0, symName: __ZNSt3__123mersenne_twister_engineIjLm32ELm624ELm397ELm31ELj2567483615ELm11ELj4294967295ELm7ELj2636928640ELm15ELj4022730752ELm18ELj1812433253EEC1B8ue170006Ej, symObjAddr: 0x490, symBinAddr: 0x100002C78, symSize: 0x34 }
  - { offsetInCU: 0x8E7C9, offset: 0x8E7C9, size: 0x8, addend: 0x0, symName: __ZNSt3__125uniform_real_distributionIfEC1B8ue170006Eff, symObjAddr: 0x4C4, symBinAddr: 0x100002CAC, symSize: 0x3C }
  - { offsetInCU: 0x8E80F, offset: 0x8E80F, size: 0x8, addend: 0x0, symName: __ZN5Eigen6MatrixIfLin1ELin1ELi0ELin1ELin1EEC1IiiEERKT_RKT0_, symObjAddr: 0x500, symBinAddr: 0x100002CE8, symSize: 0x3C }
  - { offsetInCU: 0x8E869, offset: 0x8E869, size: 0x8, addend: 0x0, symName: __ZNSt3__125uniform_real_distributionIfEclB8ue170006INS_23mersenne_twister_engineIjLm32ELm624ELm397ELm31ELj2567483615ELm11ELj4294967295ELm7ELj2636928640ELm15ELj4022730752ELm18ELj1812433253EEEEEfRT_, symObjAddr: 0x53C, symBinAddr: 0x100002D24, symSize: 0x30 }
  - { offsetInCU: 0x8E8A6, offset: 0x8E8A6, size: 0x8, addend: 0x0, symName: __ZN5Eigen15DenseCoeffsBaseINS_6MatrixIfLin1ELin1ELi0ELin1ELin1EEELi1EEclEll, symObjAddr: 0x56C, symBinAddr: 0x100002D54, symSize: 0xF4 }
  - { offsetInCU: 0x8E8EA, offset: 0x8E8EA, size: 0x8, addend: 0x0, symName: __ZN5Eigen6MatrixIfLin1ELi1ELi0ELin1ELi1EEC1IiEERKT_, symObjAddr: 0x660, symBinAddr: 0x100002E48, symSize: 0x34 }
  - { offsetInCU: 0x8E92C, offset: 0x8E92C, size: 0x8, addend: 0x0, symName: __ZN5Eigen15DenseCoeffsBaseINS_6MatrixIfLin1ELi1ELi0ELin1ELi1EEELi1EEclEl, symObjAddr: 0x694, symBinAddr: 0x100002E7C, symSize: 0xA4 }
  - { offsetInCU: 0x8E961, offset: 0x8E961, size: 0x8, addend: 0x0, symName: __ZN5Eigen6MatrixIfLin1ELi1ELi0ELin1ELi1EED1Ev, symObjAddr: 0x738, symBinAddr: 0x100002F20, symSize: 0x2C }
  - { offsetInCU: 0x8E98D, offset: 0x8E98D, size: 0x8, addend: 0x0, symName: __ZN5Eigen6MatrixIfLin1ELin1ELi0ELin1ELin1EED1Ev, symObjAddr: 0x764, symBinAddr: 0x100002F4C, symSize: 0x2C }
  - { offsetInCU: 0x8E9B8, offset: 0x8E9B8, size: 0x8, addend: 0x0, symName: __Z7trueModii, symObjAddr: 0x790, symBinAddr: 0x100002F78, symSize: 0x40 }
  - { offsetInCU: 0x8E9F2, offset: 0x8E9F2, size: 0x8, addend: 0x0, symName: __Z3MSERKN5Eigen6MatrixIfLin1ELi1ELi0ELin1ELi1EEES3_, symObjAddr: 0x7D0, symBinAddr: 0x100002FB8, symSize: 0xD8 }
  - { offsetInCU: 0x8EA2D, offset: 0x8EA2D, size: 0x8, addend: 0x0, symName: __ZNK5Eigen9EigenBaseINS_6MatrixIfLin1ELi1ELi0ELin1ELi1EEEE4sizeEv, symObjAddr: 0x8A8, symBinAddr: 0x100003090, symSize: 0x44 }
  - { offsetInCU: 0x8EA53, offset: 0x8EA53, size: 0x8, addend: 0x0, symName: __ZNSt16invalid_argumentC1B8ue170006EPKc, symObjAddr: 0x8EC, symBinAddr: 0x1000030D4, symSize: 0x34 }
  - { offsetInCU: 0x8EA8B, offset: 0x8EA8B, size: 0x8, addend: 0x0, symName: __ZNK5Eigen10MatrixBaseINS_6MatrixIfLin1ELi1ELi0ELin1ELi1EEEEmiIS2_EEKNS_13CwiseBinaryOpINS_8internal20scalar_difference_opIfNS6_6traitsIT_E6ScalarEEEKS2_KS9_EERKNS0_IS9_EE, symObjAddr: 0x920, symBinAddr: 0x100003108, symSize: 0x60 }
  - { offsetInCU: 0x8EAC8, offset: 0x8EAC8, size: 0x8, addend: 0x0, symName: __ZNK5Eigen10MatrixBaseINS_13CwiseBinaryOpINS_8internal20scalar_difference_opIffEEKNS_6MatrixIfLin1ELi1ELi0ELin1ELi1EEES7_EEE11squaredNormEv, symObjAddr: 0x980, symBinAddr: 0x100003168, symSize: 0x7C }
  - { offsetInCU: 0x8EAEF, offset: 0x8EAEF, size: 0x8, addend: 0x0, symName: __Z9loss_funcRKN5Eigen6MatrixIfLin1ELi1ELi0ELin1ELi1EEES3_, symObjAddr: 0x9FC, symBinAddr: 0x1000031E4, symSize: 0x3C }
  - { offsetInCU: 0x8EB2A, offset: 0x8EB2A, size: 0x8, addend: 0x0, symName: __ZN5boost9unordered19concurrent_flat_setINSt3__112basic_stringIcNS2_11char_traitsIcEENS2_9allocatorIcEEEENS_4hashIS8_EENS2_8equal_toIS8_EENS6_IS8_EEEC1Ev, symObjAddr: 0xA38, symBinAddr: 0x100003220, symSize: 0x4C }
  - { offsetInCU: 0x8EB54, offset: 0x8EB54, size: 0x8, addend: 0x0, symName: __ZN5boost9unordered19concurrent_flat_setINSt3__112basic_stringIcNS2_11char_traitsIcEENS2_9allocatorIcEEEENS_4hashIS8_EENS2_8equal_toIS8_EENS6_IS8_EEED1Ev, symObjAddr: 0xA84, symBinAddr: 0x10000326C, symSize: 0x2C }
  - { offsetInCU: 0x8EB7E, offset: 0x8EB7E, size: 0x8, addend: 0x0, symName: __ZNSt3__16vectorINS_12basic_stringIcNS_11char_traitsIcEENS_9allocatorIcEEEENS4_IS6_EEED1B8ue170006Ev, symObjAddr: 0xAB0, symBinAddr: 0x100003298, symSize: 0x2C }
  - { offsetInCU: 0x8EBA8, offset: 0x8EBA8, size: 0x8, addend: 0x0, symName: __ZN4DataC1Ev, symObjAddr: 0xADC, symBinAddr: 0x1000032C4, symSize: 0x2C }
  - { offsetInCU: 0x8EBD2, offset: 0x8EBD2, size: 0x8, addend: 0x0, symName: __ZN4DataD1Ev, symObjAddr: 0xB08, symBinAddr: 0x1000032F0, symSize: 0x2C }
  - { offsetInCU: 0x8EBFE, offset: 0x8EBFE, size: 0x8, addend: 0x0, symName: __ZNSt3__113unordered_mapINS_12basic_stringIcNS_11char_traitsIcEENS_9allocatorIcEEEEfNS_4hashIS6_EENS_8equal_toIS6_EENS4_INS_4pairIKS6_fEEEEEC1B8ue170006Ev, symObjAddr: 0xB34, symBinAddr: 0x10000331C, symSize: 0x2C }
  - { offsetInCU: 0x8EC28, offset: 0x8EC28, size: 0x8, addend: 0x0, symName: __ZNSt3__113unordered_mapINS_12basic_stringIcNS_11char_traitsIcEENS_9allocatorIcEEEEfNS_4hashIS6_EENS_8equal_toIS6_EENS4_INS_4pairIKS6_fEEEEED1B8ue170006Ev, symObjAddr: 0xB60, symBinAddr: 0x100003348, symSize: 0x2C }
  - { offsetInCU: 0x8EC52, offset: 0x8EC52, size: 0x8, addend: 0x0, symName: __ZNSt3__113unordered_mapIbNS0_IbNS0_IbNS_6vectorIfNS_9allocatorIfEEEENS_4hashIbEENS_8equal_toIbEENS2_INS_4pairIKbS4_EEEEEES6_S8_NS2_INS9_ISA_SD_EEEEEES6_S8_NS2_INS9_ISA_SG_EEEEEC1B8ue170006Ev, symObjAddr: 0xB8C, symBinAddr: 0x100003374, symSize: 0x2C }
  - { offsetInCU: 0x8EC7C, offset: 0x8EC7C, size: 0x8, addend: 0x0, symName: __ZNSt3__113unordered_mapIbNS0_IbNS0_IbNS_6vectorIfNS_9allocatorIfEEEENS_4hashIbEENS_8equal_toIbEENS2_INS_4pairIKbS4_EEEEEES6_S8_NS2_INS9_ISA_SD_EEEEEES6_S8_NS2_INS9_ISA_SG_EEEEED1B8ue170006Ev, symObjAddr: 0xBB8, symBinAddr: 0x1000033A0, symSize: 0x2C }
  - { offsetInCU: 0x8ECA5, offset: 0x8ECA5, size: 0x8, addend: 0x0, symName: __Z11exampleFuncRKN5Eigen6MatrixIfLin1ELi1ELi0ELin1ELi1EEE, symObjAddr: 0xBE4, symBinAddr: 0x1000033CC, symSize: 0x88 }
  - { offsetInCU: 0x8ECD3, offset: 0x8ECD3, size: 0x8, addend: 0x0, symName: __Z3cosB8ue170006f, symObjAddr: 0xC6C, symBinAddr: 0x100003454, symSize: 0x24 }
  - { offsetInCU: 0x8ED02, offset: 0x8ED02, size: 0x8, addend: 0x0, symName: __ZNK5Eigen15DenseCoeffsBaseINS_6MatrixIfLin1ELi1ELi0ELin1ELi1EEELi0EEixEl, symObjAddr: 0xC90, symBinAddr: 0x100003478, symSize: 0xA4 }
  - { offsetInCU: 0x8ED35, offset: 0x8ED35, size: 0x8, addend: 0x0, symName: __Z9Hemberg_1RKN5Eigen6MatrixIfLin1ELi1ELi0ELin1ELi1EEE, symObjAddr: 0xD34, symBinAddr: 0x10000351C, symSize: 0x98 }
  - { offsetInCU: 0x8ED63, offset: 0x8ED63, size: 0x8, addend: 0x0, symName: __Z9Hemberg_2RKN5Eigen6MatrixIfLin1ELi1ELi0ELin1ELi1EEE, symObjAddr: 0xDCC, symBinAddr: 0x1000035B4, symSize: 0xDC }
  - { offsetInCU: 0x8ED91, offset: 0x8ED91, size: 0x8, addend: 0x0, symName: __Z9Hemberg_3RKN5Eigen6MatrixIfLin1ELi1ELi0ELin1ELi1EEE, symObjAddr: 0xEA8, symBinAddr: 0x100003690, symSize: 0x108 }
  - { offsetInCU: 0x8EDBF, offset: 0x8EDBF, size: 0x8, addend: 0x0, symName: __Z9Hemberg_4RKN5Eigen6MatrixIfLin1ELi1ELi0ELin1ELi1EEE, symObjAddr: 0xFB0, symBinAddr: 0x100003798, symSize: 0x274 }
  - { offsetInCU: 0x8EDED, offset: 0x8EDED, size: 0x8, addend: 0x0, symName: __Z9Hemberg_5RKN5Eigen6MatrixIfLin1ELi1ELi0ELin1ELi1EEE, symObjAddr: 0x1224, symBinAddr: 0x100003A0C, symSize: 0x2E8 }
  - { offsetInCU: 0x8EE1B, offset: 0x8EE1B, size: 0x8, addend: 0x0, symName: __Z9Feynman_1RKN5Eigen6MatrixIfLin1ELi1ELi0ELin1ELi1EEE, symObjAddr: 0x150C, symBinAddr: 0x100003CF4, symSize: 0xC4 }
  - { offsetInCU: 0x8EE49, offset: 0x8EE49, size: 0x8, addend: 0x0, symName: __Z9Feynman_2RKN5Eigen6MatrixIfLin1ELi1ELi0ELin1ELi1EEE, symObjAddr: 0x160C, symBinAddr: 0x100003DF4, symSize: 0x140 }
  - { offsetInCU: 0x8EE77, offset: 0x8EE77, size: 0x8, addend: 0x0, symName: __Z9Feynman_3RKN5Eigen6MatrixIfLin1ELi1ELi0ELin1ELi1EEE, symObjAddr: 0x174C, symBinAddr: 0x100003F34, symSize: 0x10C }
  - { offsetInCU: 0x8EEA5, offset: 0x8EEA5, size: 0x8, addend: 0x0, symName: __Z3sinB8ue170006f, symObjAddr: 0x1890, symBinAddr: 0x100004078, symSize: 0x24 }
  - { offsetInCU: 0x8EED3, offset: 0x8EED3, size: 0x8, addend: 0x0, symName: __Z9Feynman_4RKN5Eigen6MatrixIfLin1ELi1ELi0ELin1ELi1EEE, symObjAddr: 0x18B4, symBinAddr: 0x10000409C, symSize: 0x178 }
  - { offsetInCU: 0x8EF01, offset: 0x8EF01, size: 0x8, addend: 0x0, symName: __Z9Feynman_5RKN5Eigen6MatrixIfLin1ELi1ELi0ELin1ELi1EEE, symObjAddr: 0x1A2C, symBinAddr: 0x100004214, symSize: 0x184 }
  - { offsetInCU: 0x8EF30, offset: 0x8EF30, size: 0x8, addend: 0x0, symName: __ZNSt3__13mapIiNS_6vectorIfNS_9allocatorIfEEEENS_4lessIiEENS2_INS_4pairIKiS4_EEEEEC1B8ue170006Ev, symObjAddr: 0x236C, symBinAddr: 0x100004B54, symSize: 0x2C }
  - { offsetInCU: 0x8EF5A, offset: 0x8EF5A, size: 0x8, addend: 0x0, symName: __ZNSt3__16vectorINS_6threadENS_9allocatorIS1_EEEC1Em, symObjAddr: 0x2398, symBinAddr: 0x100004B80, symSize: 0x34 }
  - { offsetInCU: 0x8EF95, offset: 0x8EF95, size: 0x8, addend: 0x0, symName: __ZNSt3__15latchC1B8ue170006El, symObjAddr: 0x23CC, symBinAddr: 0x100004BB4, symSize: 0x34 }
  - { offsetInCU: 0x8EFCD, offset: 0x8EFCD, size: 0x8, addend: 0x0, symName: __ZNSt3__16atomicIfEC1B8ue170006Ef, symObjAddr: 0x2400, symBinAddr: 0x100004BE8, symSize: 0x34 }
  - { offsetInCU: 0x8F005, offset: 0x8F005, size: 0x8, addend: 0x0, symName: __ZNSt3__16vectorINS_4pairIifEENS_9allocatorIS2_EEEC1B8ue170006Ev, symObjAddr: 0x2434, symBinAddr: 0x100004C1C, symSize: 0x2C }
  - { offsetInCU: 0x8F02F, offset: 0x8F02F, size: 0x8, addend: 0x0, symName: __ZNSt3__112basic_stringIcNS_11char_traitsIcEENS_9allocatorIcEEEC1B8ue170006Ev, symObjAddr: 0x2460, symBinAddr: 0x100004C48, symSize: 0x2C }
  - { offsetInCU: 0x8F05F, offset: 0x8F05F, size: 0x8, addend: 0x0, symName: '__ZNSt3__16threadC1IZ18SimulatedAnnealingRKN5Eigen6MatrixIfLin1ELin1ELi0ELin1ELin1EEEiNS_12basic_stringIcNS_11char_traitsIcEENS_9allocatorIcEEEEbdiPKcijNS_6vectorIiNSA_IiEEEENS_5dequeISC_NSA_ISC_EEEEmfffffffE3$_0JEvEEOT_DpOT0_', symObjAddr: 0x248C, symBinAddr: 0x100004C74, symSize: 0x34 }
  - { offsetInCU: 0x8F0A6, offset: 0x8F0A6, size: 0x8, addend: 0x0, symName: '__ZNSt3__16threadC1IRZ18SimulatedAnnealingRKN5Eigen6MatrixIfLin1ELin1ELi0ELin1ELin1EEEiNS_12basic_stringIcNS_11char_traitsIcEENS_9allocatorIcEEEEbdiPKcijNS_6vectorIiNSA_IiEEEENS_5dequeISC_NSA_ISC_EEEEmfffffffE3$_1JEvEEOT_DpOT0_', symObjAddr: 0x24C0, symBinAddr: 0x100004CA8, symSize: 0x34 }
  - { offsetInCU: 0x8F0ED, offset: 0x8F0ED, size: 0x8, addend: 0x0, symName: __ZNSt3__16vectorINS_6threadENS_9allocatorIS1_EEEixB8ue170006Em, symObjAddr: 0x24F4, symBinAddr: 0x100004CDC, symSize: 0x24 }
  - { offsetInCU: 0x8F124, offset: 0x8F124, size: 0x8, addend: 0x0, symName: __ZNSt3__16threadaSB8ue170006EOS0_, symObjAddr: 0x2518, symBinAddr: 0x100004D00, symSize: 0x60 }
  - { offsetInCU: 0x8F158, offset: 0x8F158, size: 0x8, addend: 0x0, symName: __ZNSt3__16vectorINS_4pairIifEENS_9allocatorIS2_EEE5beginB8ue170006Ev, symObjAddr: 0x2578, symBinAddr: 0x100004D60, symSize: 0x30 }
  - { offsetInCU: 0x8F180, offset: 0x8F180, size: 0x8, addend: 0x0, symName: __ZNSt3__16vectorINS_4pairIifEENS_9allocatorIS2_EEE3endB8ue170006Ev, symObjAddr: 0x25A8, symBinAddr: 0x100004D90, symSize: 0x30 }
  - { offsetInCU: 0x8F1A8, offset: 0x8F1A8, size: 0x8, addend: 0x0, symName: __ZNKSt3__111__wrap_iterIPNS_4pairIifEEEdeB8ue170006Ev, symObjAddr: 0x260C, symBinAddr: 0x100004DF4, symSize: 0x18 }
  - { offsetInCU: 0x8F1CE, offset: 0x8F1CE, size: 0x8, addend: 0x0, symName: __ZNSt3__13mapIiNS_6vectorIfNS_9allocatorIfEEEENS_4lessIiEENS2_INS_4pairIKiS4_EEEEEixERS8_, symObjAddr: 0x2624, symBinAddr: 0x100004E0C, symSize: 0x80 }
  - { offsetInCU: 0x8F205, offset: 0x8F205, size: 0x8, addend: 0x0, symName: __ZNSt3__16vectorIfNS_9allocatorIfEEE9push_backB8ue170006ERKf, symObjAddr: 0x26A4, symBinAddr: 0x100004E8C, symSize: 0x6C }
  - { offsetInCU: 0x8F23C, offset: 0x8F23C, size: 0x8, addend: 0x0, symName: __ZNSt3__111__wrap_iterIPNS_4pairIifEEEppB8ue170006Ev, symObjAddr: 0x2710, symBinAddr: 0x100004EF8, symSize: 0x20 }
  - { offsetInCU: 0x8F262, offset: 0x8F262, size: 0x8, addend: 0x0, symName: __ZNK5boost9unordered19concurrent_flat_setINSt3__112basic_stringIcNS2_11char_traitsIcEENS2_9allocatorIcEEEENS_4hashIS8_EENS2_8equal_toIS8_EENS6_IS8_EEE4sizeEv, symObjAddr: 0x27AC, symBinAddr: 0x100004F94, symSize: 0x24 }
  - { offsetInCU: 0x8F288, offset: 0x8F288, size: 0x8, addend: 0x0, symName: __ZNKSt3__113__atomic_baseIfLb0EEcvfB8ue170006Ev, symObjAddr: 0x27D0, symBinAddr: 0x100004FB8, symSize: 0x28 }
  - { offsetInCU: 0x8F2AE, offset: 0x8F2AE, size: 0x8, addend: 0x0, symName: __ZNSt3__16vectorINS_4pairIifEENS_9allocatorIS2_EEED1B8ue170006Ev, symObjAddr: 0x2844, symBinAddr: 0x10000502C, symSize: 0x2C }
  - { offsetInCU: 0x8F374, offset: 0x8F374, size: 0x8, addend: 0x0, symName: __ZNSt3__114basic_ofstreamIcNS_11char_traitsIcEEEC1EPKcj, symObjAddr: 0x2870, symBinAddr: 0x100005058, symSize: 0x16C }
  - { offsetInCU: 0x8F3BE, offset: 0x8F3BE, size: 0x8, addend: 0x0, symName: __ZNSt3__13mapIiNS_6vectorIfNS_9allocatorIfEEEENS_4lessIiEENS2_INS_4pairIKiS4_EEEEE5beginB8ue170006Ev, symObjAddr: 0x29DC, symBinAddr: 0x1000051C4, symSize: 0x38 }
  - { offsetInCU: 0x8F3E4, offset: 0x8F3E4, size: 0x8, addend: 0x0, symName: __ZNSt3__13mapIiNS_6vectorIfNS_9allocatorIfEEEENS_4lessIiEENS2_INS_4pairIKiS4_EEEEE3endB8ue170006Ev, symObjAddr: 0x2A14, symBinAddr: 0x1000051FC, symSize: 0x38 }
  - { offsetInCU: 0x8F40A, offset: 0x8F40A, size: 0x8, addend: 0x0, symName: __ZNKSt3__114__map_iteratorINS_15__tree_iteratorINS_12__value_typeIiNS_6vectorIfNS_9allocatorIfEEEEEEPNS_11__tree_nodeIS7_PvEElEEEdeB8ue170006Ev, symObjAddr: 0x2A7C, symBinAddr: 0x100005264, symSize: 0x28 }
  - { offsetInCU: 0x8F430, offset: 0x8F430, size: 0x8, addend: 0x0, symName: __ZNSt3__16vectorIfNS_9allocatorIfEEE5beginB8ue170006Ev, symObjAddr: 0x2AA4, symBinAddr: 0x10000528C, symSize: 0x30 }
  - { offsetInCU: 0x8F458, offset: 0x8F458, size: 0x8, addend: 0x0, symName: __ZNSt3__16vectorIfNS_9allocatorIfEEE3endB8ue170006Ev, symObjAddr: 0x2AD4, symBinAddr: 0x1000052BC, symSize: 0x30 }
  - { offsetInCU: 0x8F480, offset: 0x8F480, size: 0x8, addend: 0x0, symName: __ZNKSt3__111__wrap_iterIPfEdeB8ue170006Ev, symObjAddr: 0x2B38, symBinAddr: 0x100005320, symSize: 0x18 }
  - { offsetInCU: 0x8F4A6, offset: 0x8F4A6, size: 0x8, addend: 0x0, symName: __ZNSt3__16vectorIfNS_9allocatorIfEEE4backB8ue170006Ev, symObjAddr: 0x2B50, symBinAddr: 0x100005338, symSize: 0x1C }
  - { offsetInCU: 0x8F4CC, offset: 0x8F4CC, size: 0x8, addend: 0x0, symName: __ZNSt3__111__wrap_iterIPfEppB8ue170006Ev, symObjAddr: 0x2B6C, symBinAddr: 0x100005354, symSize: 0x20 }
  - { offsetInCU: 0x8F4F2, offset: 0x8F4F2, size: 0x8, addend: 0x0, symName: __ZNSt3__114__map_iteratorINS_15__tree_iteratorINS_12__value_typeIiNS_6vectorIfNS_9allocatorIfEEEEEEPNS_11__tree_nodeIS7_PvEElEEEppB8ue170006Ev, symObjAddr: 0x2B8C, symBinAddr: 0x100005374, symSize: 0x2C }
  - { offsetInCU: 0x8F518, offset: 0x8F518, size: 0x8, addend: 0x0, symName: __ZNSt3__114basic_ofstreamIcNS_11char_traitsIcEEE5closeEv, symObjAddr: 0x2BB8, symBinAddr: 0x1000053A0, symSize: 0x58 }
  - { offsetInCU: 0x8F545, offset: 0x8F545, size: 0x8, addend: 0x0, symName: __ZNSt3__114basic_ofstreamIcNS_11char_traitsIcEEED1Ev, symObjAddr: 0x2C10, symBinAddr: 0x1000053F8, symSize: 0x40 }
  - { offsetInCU: 0x8F572, offset: 0x8F572, size: 0x8, addend: 0x0, symName: __ZNSt3__16vectorINS_6threadENS_9allocatorIS1_EEED1B8ue170006Ev, symObjAddr: 0x2C50, symBinAddr: 0x100005438, symSize: 0x2C }
  - { offsetInCU: 0x8F59C, offset: 0x8F59C, size: 0x8, addend: 0x0, symName: __ZNSt3__13mapIiNS_6vectorIfNS_9allocatorIfEEEENS_4lessIiEENS2_INS_4pairIKiS4_EEEEED1B8ue170006Ev, symObjAddr: 0x2C7C, symBinAddr: 0x100005464, symSize: 0x2C }
  - { offsetInCU: 0x8F5CC, offset: 0x8F5CC, size: 0x8, addend: 0x0, symName: '__ZNSt3__16threadC1IZ2GPRKN5Eigen6MatrixIfLin1ELin1ELi0ELin1ELin1EEEiNS_12basic_stringIcNS_11char_traitsIcEENS_9allocatorIcEEEEbdiPKcijNS_6vectorIiNSA_IiEEEENS_5dequeISC_NSA_ISC_EEEEmfffffffE3$_3JEvEEOT_DpOT0_', symObjAddr: 0x3464, symBinAddr: 0x100005C4C, symSize: 0x34 }
  - { offsetInCU: 0x8F613, offset: 0x8F613, size: 0x8, addend: 0x0, symName: '__ZNSt3__16threadC1IRZ2GPRKN5Eigen6MatrixIfLin1ELin1ELi0ELin1ELin1EEEiNS_12basic_stringIcNS_11char_traitsIcEENS_9allocatorIcEEEEbdiPKcijNS_6vectorIiNSA_IiEEEENS_5dequeISC_NSA_ISC_EEEEmfffffffE3$_2JEvEEOT_DpOT0_', symObjAddr: 0x3498, symBinAddr: 0x100005C80, symSize: 0x34 }
  - { offsetInCU: 0x8F660, offset: 0x8F660, size: 0x8, addend: 0x0, symName: '__ZNSt3__16threadC1IZ3PSORKN5Eigen6MatrixIfLin1ELin1ELi0ELin1ELin1EEEiNS_12basic_stringIcNS_11char_traitsIcEENS_9allocatorIcEEEEbdiPKcijNS_6vectorIiNSA_IiEEEENS_5dequeISC_NSA_ISC_EEEEmfffffffE3$_4JEvEEOT_DpOT0_', symObjAddr: 0x3C88, symBinAddr: 0x100006470, symSize: 0x34 }
  - { offsetInCU: 0x8F6A7, offset: 0x8F6A7, size: 0x8, addend: 0x0, symName: '__ZNSt3__16threadC1IRZ3PSORKN5Eigen6MatrixIfLin1ELin1ELi0ELin1ELin1EEEiNS_12basic_stringIcNS_11char_traitsIcEENS_9allocatorIcEEEEbdiPKcijNS_6vectorIiNSA_IiEEEENS_5dequeISC_NSA_ISC_EEEEmfffffffE3$_5JEvEEOT_DpOT0_', symObjAddr: 0x3CBC, symBinAddr: 0x1000064A4, symSize: 0x34 }
  - { offsetInCU: 0x8F6EE, offset: 0x8F6EE, size: 0x8, addend: 0x0, symName: __ZNSt3__16vectorINS_4pairImfEENS_9allocatorIS2_EEEC1B8ue170006Ev, symObjAddr: 0x44B8, symBinAddr: 0x100006CA0, symSize: 0x2C }
  - { offsetInCU: 0x8F71E, offset: 0x8F71E, size: 0x8, addend: 0x0, symName: '__ZNSt3__16threadC1IZ4MCTSRKN5Eigen6MatrixIfLin1ELin1ELi0ELin1ELin1EEEiNS_12basic_stringIcNS_11char_traitsIcEENS_9allocatorIcEEEEbdiPKcijNS_6vectorIiNSA_IiEEEENS_5dequeISC_NSA_ISC_EEEEmfffffffE3$_6JEvEEOT_DpOT0_', symObjAddr: 0x44E4, symBinAddr: 0x100006CCC, symSize: 0x34 }
  - { offsetInCU: 0x8F765, offset: 0x8F765, size: 0x8, addend: 0x0, symName: '__ZNSt3__16threadC1IRZ4MCTSRKN5Eigen6MatrixIfLin1ELin1ELi0ELin1ELin1EEEiNS_12basic_stringIcNS_11char_traitsIcEENS_9allocatorIcEEEEbdiPKcijNS_6vectorIiNSA_IiEEEENS_5dequeISC_NSA_ISC_EEEEmfffffffE3$_7JEvEEOT_DpOT0_', symObjAddr: 0x4518, symBinAddr: 0x100006D00, symSize: 0x34 }
  - { offsetInCU: 0x8F7AC, offset: 0x8F7AC, size: 0x8, addend: 0x0, symName: __ZNSt3__16vectorINS_4pairImfEENS_9allocatorIS2_EEE5beginB8ue170006Ev, symObjAddr: 0x454C, symBinAddr: 0x100006D34, symSize: 0x30 }
  - { offsetInCU: 0x8F7D4, offset: 0x8F7D4, size: 0x8, addend: 0x0, symName: __ZNSt3__16vectorINS_4pairImfEENS_9allocatorIS2_EEE3endB8ue170006Ev, symObjAddr: 0x457C, symBinAddr: 0x100006D64, symSize: 0x30 }
  - { offsetInCU: 0x8F7FC, offset: 0x8F7FC, size: 0x8, addend: 0x0, symName: __ZNKSt3__111__wrap_iterIPNS_4pairImfEEEdeB8ue170006Ev, symObjAddr: 0x45E0, symBinAddr: 0x100006DC8, symSize: 0x18 }
  - { offsetInCU: 0x8F822, offset: 0x8F822, size: 0x8, addend: 0x0, symName: __ZNSt3__13mapIiNS_6vectorIfNS_9allocatorIfEEEENS_4lessIiEENS2_INS_4pairIKiS4_EEEEEixEOi, symObjAddr: 0x45F8, symBinAddr: 0x100006DE0, symSize: 0x80 }
  - { offsetInCU: 0x8F859, offset: 0x8F859, size: 0x8, addend: 0x0, symName: __ZNSt3__111__wrap_iterIPNS_4pairImfEEEppB8ue170006Ev, symObjAddr: 0x4678, symBinAddr: 0x100006E60, symSize: 0x20 }
  - { offsetInCU: 0x8F87F, offset: 0x8F87F, size: 0x8, addend: 0x0, symName: __ZNSt3__16vectorINS_4pairImfEENS_9allocatorIS2_EEED1B8ue170006Ev, symObjAddr: 0x4698, symBinAddr: 0x100006E80, symSize: 0x2C }
  - { offsetInCU: 0x8F8AF, offset: 0x8F8AF, size: 0x8, addend: 0x0, symName: '__ZNSt3__16threadC1IZ12RandomSearchRKN5Eigen6MatrixIfLin1ELin1ELi0ELin1ELin1EEEiNS_12basic_stringIcNS_11char_traitsIcEENS_9allocatorIcEEEEbdiPKcijNS_6vectorIiNSA_IiEEEENS_5dequeISC_NSA_ISC_EEEEmfffffffE3$_8JEvEEOT_DpOT0_', symObjAddr: 0x4E8C, symBinAddr: 0x100007674, symSize: 0x34 }
  - { offsetInCU: 0x8F8F6, offset: 0x8F8F6, size: 0x8, addend: 0x0, symName: '__ZNSt3__16threadC1IRZ12RandomSearchRKN5Eigen6MatrixIfLin1ELin1ELi0ELin1ELin1EEEiNS_12basic_stringIcNS_11char_traitsIcEENS_9allocatorIcEEEEbdiPKcijNS_6vectorIiNSA_IiEEEENS_5dequeISC_NSA_ISC_EEEEmfffffffE3$_9JEvEEOT_DpOT0_', symObjAddr: 0x4EC0, symBinAddr: 0x1000076A8, symSize: 0x34 }
  - { offsetInCU: 0x8F93D, offset: 0x8F93D, size: 0x8, addend: 0x0, symName: _main, symObjAddr: 0x4EF4, symBinAddr: 0x1000076DC, symSize: 0x360 }
  - { offsetInCU: 0x8F95D, offset: 0x8F95D, size: 0x8, addend: 0x0, symName: __ZNSt3__112basic_stringIcNS_11char_traitsIcEENS_9allocatorIcEEEC1B8ue170006ILi0EEEPKc, symObjAddr: 0x5254, symBinAddr: 0x100007A3C, symSize: 0x34 }
  - { offsetInCU: 0x8F99C, offset: 0x8F99C, size: 0x8, addend: 0x0, symName: __ZNSt3__16vectorIiNS_9allocatorIiEEEC1B8ue170006ESt16initializer_listIiE, symObjAddr: 0x5288, symBinAddr: 0x100007A70, symSize: 0x3C }
  - { offsetInCU: 0x8F9D7, offset: 0x8F9D7, size: 0x8, addend: 0x0, symName: __ZNSt3__15dequeINS_12basic_stringIcNS_11char_traitsIcEENS_9allocatorIcEEEENS4_IS6_EEEC1ESt16initializer_listIS6_E, symObjAddr: 0x52C4, symBinAddr: 0x100007AAC, symSize: 0x3C }
  - { offsetInCU: 0x8FA12, offset: 0x8FA12, size: 0x8, addend: 0x0, symName: __ZNSt3__15dequeINS_12basic_stringIcNS_11char_traitsIcEENS_9allocatorIcEEEENS4_IS6_EEED1B8ue170006Ev, symObjAddr: 0x5300, symBinAddr: 0x100007AE8, symSize: 0x2C }
  - { offsetInCU: 0x8FA3C, offset: 0x8FA3C, size: 0x8, addend: 0x0, symName: __ZNSt3__16vectorIiNS_9allocatorIiEEED1B8ue170006Ev, symObjAddr: 0x532C, symBinAddr: 0x100007B14, symSize: 0x2C }
  - { offsetInCU: 0x8FA66, offset: 0x8FA66, size: 0x8, addend: 0x0, symName: __ZN5Eigen8internal8FixedIntILi1EEC1Ev, symObjAddr: 0x5358, symBinAddr: 0x100007B40, symSize: 0x2C }
  - { offsetInCU: 0x8FA90, offset: 0x8FA90, size: 0x8, addend: 0x0, symName: __ZN5Eigen8internal5all_tC2Ev, symObjAddr: 0x5384, symBinAddr: 0x100007B6C, symSize: 0x14 }
  - { offsetInCU: 0x8FABA, offset: 0x8FABA, size: 0x8, addend: 0x0, symName: __ZNSt3__16vectorIfNS_9allocatorIfEEED2B8ue170006Ev, symObjAddr: 0x5398, symBinAddr: 0x100007B80, symSize: 0x44 }
  - { offsetInCU: 0x8FAE4, offset: 0x8FAE4, size: 0x8, addend: 0x0, symName: __ZNSt3__16vectorIfNS_9allocatorIfEEE16__destroy_vectorC1B8ue170006ERS3_, symObjAddr: 0x53DC, symBinAddr: 0x100007BC4, symSize: 0x34 }
  - { offsetInCU: 0x8FB1D, offset: 0x8FB1D, size: 0x8, addend: 0x0, symName: __ZNSt3__16vectorIfNS_9allocatorIfEEE16__destroy_vectorclB8ue170006Ev, symObjAddr: 0x541C, symBinAddr: 0x100007C04, symSize: 0x90 }
  - { offsetInCU: 0x8FB43, offset: 0x8FB43, size: 0x8, addend: 0x0, symName: __ZNSt3__16vectorIfNS_9allocatorIfEEE16__destroy_vectorC2B8ue170006ERS3_, symObjAddr: 0x54AC, symBinAddr: 0x100007C94, symSize: 0x20 }
  - { offsetInCU: 0x8FB7C, offset: 0x8FB7C, size: 0x8, addend: 0x0, symName: __ZNSt3__16vectorIfNS_9allocatorIfEEE7__clearB8ue170006Ev, symObjAddr: 0x54CC, symBinAddr: 0x100007CB4, symSize: 0x28 }
  - { offsetInCU: 0x8FBA2, offset: 0x8FBA2, size: 0x8, addend: 0x0, symName: __ZNKSt3__16vectorIfNS_9allocatorIfEEE17__annotate_deleteB8ue170006Ev, symObjAddr: 0x54F4, symBinAddr: 0x100007CDC, symSize: 0xB8 }
  - { offsetInCU: 0x8FBC8, offset: 0x8FBC8, size: 0x8, addend: 0x0, symName: __ZNSt3__116allocator_traitsINS_9allocatorIfEEE10deallocateB8ue170006ERS2_Pfm, symObjAddr: 0x55AC, symBinAddr: 0x100007D94, symSize: 0x34 }
  - { offsetInCU: 0x8FC0A, offset: 0x8FC0A, size: 0x8, addend: 0x0, symName: __ZNSt3__16vectorIfNS_9allocatorIfEEE7__allocB8ue170006Ev, symObjAddr: 0x55E0, symBinAddr: 0x100007DC8, symSize: 0x28 }
  - { offsetInCU: 0x8FC30, offset: 0x8FC30, size: 0x8, addend: 0x0, symName: __ZNKSt3__16vectorIfNS_9allocatorIfEEE8capacityB8ue170006Ev, symObjAddr: 0x5608, symBinAddr: 0x100007DF0, symSize: 0x40 }
  - { offsetInCU: 0x8FC56, offset: 0x8FC56, size: 0x8, addend: 0x0, symName: __ZNSt3__16vectorIfNS_9allocatorIfEEE22__base_destruct_at_endB8ue170006EPf, symObjAddr: 0x5648, symBinAddr: 0x100007E30, symSize: 0x8C }
  - { offsetInCU: 0x8FC9A, offset: 0x8FC9A, size: 0x8, addend: 0x0, symName: __ZNSt3__116allocator_traitsINS_9allocatorIfEEE7destroyB8ue170006IfvvEEvRS2_PT_, symObjAddr: 0x56D4, symBinAddr: 0x100007EBC, symSize: 0x28 }
  - { offsetInCU: 0x8FCD4, offset: 0x8FCD4, size: 0x8, addend: 0x0, symName: __ZNKSt3__16vectorIfNS_9allocatorIfEEE31__annotate_contiguous_containerB8ue170006EPKvS5_S5_S5_, symObjAddr: 0x5744, symBinAddr: 0x100007F2C, symSize: 0x20 }
  - { offsetInCU: 0x8FD26, offset: 0x8FD26, size: 0x8, addend: 0x0, symName: __ZNKSt3__16vectorIfNS_9allocatorIfEEE4dataB8ue170006Ev, symObjAddr: 0x5764, symBinAddr: 0x100007F4C, symSize: 0x28 }
  - { offsetInCU: 0x8FD4C, offset: 0x8FD4C, size: 0x8, addend: 0x0, symName: __ZNKSt3__16vectorIfNS_9allocatorIfEEE4sizeB8ue170006Ev, symObjAddr: 0x578C, symBinAddr: 0x100007F74, symSize: 0x28 }
  - { offsetInCU: 0x8FD72, offset: 0x8FD72, size: 0x8, addend: 0x0, symName: __ZNSt3__19allocatorIfE10deallocateB8ue170006EPfm, symObjAddr: 0x57B4, symBinAddr: 0x100007F9C, symSize: 0x40 }
  - { offsetInCU: 0x8FDB4, offset: 0x8FDB4, size: 0x8, addend: 0x0, symName: __ZNSt3__117__compressed_pairIPfNS_9allocatorIfEEE6secondB8ue170006Ev, symObjAddr: 0x591C, symBinAddr: 0x100008104, symSize: 0x24 }
  - { offsetInCU: 0x8FDDA, offset: 0x8FDDA, size: 0x8, addend: 0x0, symName: __ZNSt3__122__compressed_pair_elemINS_9allocatorIfEELi1ELb1EE5__getB8ue170006Ev, symObjAddr: 0x5940, symBinAddr: 0x100008128, symSize: 0x14 }
  - { offsetInCU: 0x8FE00, offset: 0x8FE00, size: 0x8, addend: 0x0, symName: __ZNKSt3__16vectorIfNS_9allocatorIfEEE9__end_capB8ue170006Ev, symObjAddr: 0x5954, symBinAddr: 0x10000813C, symSize: 0x28 }
  - { offsetInCU: 0x8FE26, offset: 0x8FE26, size: 0x8, addend: 0x0, symName: __ZNKSt3__117__compressed_pairIPfNS_9allocatorIfEEE5firstB8ue170006Ev, symObjAddr: 0x597C, symBinAddr: 0x100008164, symSize: 0x24 }
  - { offsetInCU: 0x8FE4C, offset: 0x8FE4C, size: 0x8, addend: 0x0, symName: __ZNKSt3__122__compressed_pair_elemIPfLi0ELb0EE5__getB8ue170006Ev, symObjAddr: 0x59A0, symBinAddr: 0x100008188, symSize: 0x14 }
  - { offsetInCU: 0x8FE72, offset: 0x8FE72, size: 0x8, addend: 0x0, symName: __ZN5Eigen6MatrixIfLin1ELi1ELi0ELin1ELi1EED2Ev, symObjAddr: 0x59B4, symBinAddr: 0x10000819C, symSize: 0x2C }
  - { offsetInCU: 0x8FE9E, offset: 0x8FE9E, size: 0x8, addend: 0x0, symName: __ZN5Eigen15PlainObjectBaseINS_6MatrixIfLin1ELi1ELi0ELin1ELi1EEEED2Ev, symObjAddr: 0x59E0, symBinAddr: 0x1000081C8, symSize: 0x2C }
  - { offsetInCU: 0x8FECA, offset: 0x8FECA, size: 0x8, addend: 0x0, symName: __ZN5Eigen12DenseStorageIfLin1ELin1ELi1ELi0EED1Ev, symObjAddr: 0x5A0C, symBinAddr: 0x1000081F4, symSize: 0x2C }
  - { offsetInCU: 0x8FEF4, offset: 0x8FEF4, size: 0x8, addend: 0x0, symName: __ZN5Eigen12DenseStorageIfLin1ELin1ELi1ELi0EED2Ev, symObjAddr: 0x5A38, symBinAddr: 0x100008220, symSize: 0x44 }
  - { offsetInCU: 0x8FF1E, offset: 0x8FF1E, size: 0x8, addend: 0x0, symName: __ZN5Eigen6MatrixIfLin1ELin1ELi0ELin1ELin1EED2Ev, symObjAddr: 0x5AEC, symBinAddr: 0x1000082D4, symSize: 0x2C }
  - { offsetInCU: 0x8FF4A, offset: 0x8FF4A, size: 0x8, addend: 0x0, symName: __ZN5Eigen15PlainObjectBaseINS_6MatrixIfLin1ELin1ELi0ELin1ELin1EEEED2Ev, symObjAddr: 0x5B18, symBinAddr: 0x100008300, symSize: 0x2C }
  - { offsetInCU: 0x8FF76, offset: 0x8FF76, size: 0x8, addend: 0x0, symName: __ZN5Eigen12DenseStorageIfLin1ELin1ELin1ELi0EED1Ev, symObjAddr: 0x5B44, symBinAddr: 0x10000832C, symSize: 0x2C }
  - { offsetInCU: 0x8FFA0, offset: 0x8FFA0, size: 0x8, addend: 0x0, symName: __ZN5Eigen12DenseStorageIfLin1ELin1ELin1ELi0EED2Ev, symObjAddr: 0x5B70, symBinAddr: 0x100008358, symSize: 0x44 }
  - { offsetInCU: 0x8FFCA, offset: 0x8FFCA, size: 0x8, addend: 0x0, symName: __ZNK5Eigen9EigenBaseINS_6MatrixIfLin1ELi1ELi0ELin1ELi1EEEE4rowsEv, symObjAddr: 0x5BB4, symBinAddr: 0x10000839C, symSize: 0x38 }
  - { offsetInCU: 0x8FFF0, offset: 0x8FFF0, size: 0x8, addend: 0x0, symName: __ZNK5Eigen9EigenBaseINS_6MatrixIfLin1ELi1ELi0ELin1ELi1EEEE4colsEv, symObjAddr: 0x5BEC, symBinAddr: 0x1000083D4, symSize: 0x28 }
  - { offsetInCU: 0x90016, offset: 0x90016, size: 0x8, addend: 0x0, symName: __ZNK5Eigen9EigenBaseINS_6MatrixIfLin1ELi1ELi0ELin1ELi1EEEE7derivedEv, symObjAddr: 0x5C14, symBinAddr: 0x1000083FC, symSize: 0x14 }
  - { offsetInCU: 0x9003C, offset: 0x9003C, size: 0x8, addend: 0x0, symName: __ZNK5Eigen15PlainObjectBaseINS_6MatrixIfLin1ELi1ELi0ELin1ELi1EEEE4rowsEv, symObjAddr: 0x5C28, symBinAddr: 0x100008410, symSize: 0x24 }
  - { offsetInCU: 0x90062, offset: 0x90062, size: 0x8, addend: 0x0, symName: __ZNK5Eigen12DenseStorageIfLin1ELin1ELi1ELi0EE4rowsEv, symObjAddr: 0x5C4C, symBinAddr: 0x100008434, symSize: 0x18 }
  - { offsetInCU: 0x90088, offset: 0x90088, size: 0x8, addend: 0x0, symName: __ZNK5Eigen15PlainObjectBaseINS_6MatrixIfLin1ELi1ELi0ELin1ELi1EEEE4colsEv, symObjAddr: 0x5C64, symBinAddr: 0x10000844C, symSize: 0x30 }
  - { offsetInCU: 0x900AE, offset: 0x900AE, size: 0x8, addend: 0x0, symName: __ZN5Eigen12DenseStorageIfLin1ELin1ELi1ELi0EE4colsEv, symObjAddr: 0x5C94, symBinAddr: 0x10000847C, symSize: 0x8 }
  - { offsetInCU: 0x900C2, offset: 0x900C2, size: 0x8, addend: 0x0, symName: __ZNSt16invalid_argumentC2B8ue170006EPKc, symObjAddr: 0x5C9C, symBinAddr: 0x100008484, symSize: 0x4C }
  - { offsetInCU: 0x900FA, offset: 0x900FA, size: 0x8, addend: 0x0, symName: __ZN5boost9unordered19concurrent_flat_setINSt3__112basic_stringIcNS2_11char_traitsIcEENS2_9allocatorIcEEEENS_4hashIS8_EENS2_8equal_toIS8_EENS6_IS8_EEED2Ev, symObjAddr: 0x5CE8, symBinAddr: 0x1000084D0, symSize: 0x2C }
  - { offsetInCU: 0x90124, offset: 0x90124, size: 0x8, addend: 0x0, symName: __ZN5boost9unordered6detail3foa16concurrent_tableINS2_14flat_set_typesINSt3__112basic_stringIcNS5_11char_traitsIcEENS5_9allocatorIcEEEEEENS_4hashISB_EENS5_8equal_toISB_EENS9_ISB_EEED1Ev, symObjAddr: 0x5D14, symBinAddr: 0x1000084FC, symSize: 0x2C }
  - { offsetInCU: 0x9014E, offset: 0x9014E, size: 0x8, addend: 0x0, symName: __ZN5boost9unordered6detail3foa16concurrent_tableINS2_14flat_set_typesINSt3__112basic_stringIcNS5_11char_traitsIcEENS5_9allocatorIcEEEEEENS_4hashISB_EENS5_8equal_toISB_EENS9_ISB_EEED2Ev, symObjAddr: 0x5D40, symBinAddr: 0x100008528, symSize: 0x38 }
  - { offsetInCU: 0x90178, offset: 0x90178, size: 0x8, addend: 0x0, symName: __ZN5boost9unordered6detail3foa10multimutexINS2_11rw_spinlockELm128EED1Ev, symObjAddr: 0x5D78, symBinAddr: 0x100008560, symSize: 0x2C }
  - { offsetInCU: 0x901A4, offset: 0x901A4, size: 0x8, addend: 0x0, symName: __ZN5boost9unordered6detail3foa10table_coreINS2_14flat_set_typesINSt3__112basic_stringIcNS5_11char_traitsIcEENS5_9allocatorIcEEEEEENS2_7group15INS2_15atomic_integralEEENS2_23concurrent_table_arraysENS2_19atomic_size_controlENS_4hashISB_EENS5_8equal_toISB_EENS9_ISB_EEED2Ev, symObjAddr: 0x5DA4, symBinAddr: 0x10000858C, symSize: 0x48 }
  - { offsetInCU: 0x901F7, offset: 0x901F7, size: 0x8, addend: 0x0, symName: __ZN5boost9unordered6detail3foa10multimutexINS2_11rw_spinlockELm128EED2Ev, symObjAddr: 0x5DEC, symBinAddr: 0x1000085D4, symSize: 0x2C }
  - { offsetInCU: 0x90223, offset: 0x90223, size: 0x8, addend: 0x0, symName: __ZN5boost9unordered6detail3foa19cache_aligned_arrayINS2_11rw_spinlockELm128EED1Ev, symObjAddr: 0x5E18, symBinAddr: 0x100008600, symSize: 0x2C }
  - { offsetInCU: 0x9024D, offset: 0x9024D, size: 0x8, addend: 0x0, symName: __ZN5boost9unordered6detail3foa19cache_aligned_arrayINS2_11rw_spinlockELm128EED2Ev, symObjAddr: 0x5E44, symBinAddr: 0x10000862C, symSize: 0x64 }
  - { offsetInCU: 0x90293, offset: 0x90293, size: 0x8, addend: 0x0, symName: __ZN5boost9unordered6detail3foa19cache_aligned_arrayINS2_11rw_spinlockELm128EE4dataEm, symObjAddr: 0x5EA8, symBinAddr: 0x100008690, symSize: 0x34 }
  - { offsetInCU: 0x902CC, offset: 0x902CC, size: 0x8, addend: 0x0, symName: __ZNK5boost9unordered6detail3foa10table_coreINS2_14flat_set_typesINSt3__112basic_stringIcNS5_11char_traitsIcEENS5_9allocatorIcEEEEEENS2_7group15INS2_15atomic_integralEEENS2_23concurrent_table_arraysENS2_19atomic_size_controlENS_4hashISB_EENS5_8equal_toISB_EENS9_ISB_EEE16for_all_elementsIZNSN_D1EvEUlPSB_E_EEvT_, symObjAddr: 0x5EDC, symBinAddr: 0x1000086C4, symSize: 0x34 }
  - { offsetInCU: 0x9030A, offset: 0x9030A, size: 0x8, addend: 0x0, symName: __ZN5boost9unordered6detail3foa10table_coreINS2_14flat_set_typesINSt3__112basic_stringIcNS5_11char_traitsIcEENS5_9allocatorIcEEEEEENS2_7group15INS2_15atomic_integralEEENS2_23concurrent_table_arraysENS2_19atomic_size_controlENS_4hashISB_EENS5_8equal_toISB_EENS9_ISB_EEE13delete_arraysERNSG_ISB_SF_NS2_16pow2_size_policyESM_EE, symObjAddr: 0x5F10, symBinAddr: 0x1000086F8, symSize: 0x3C }
  - { offsetInCU: 0x9033F, offset: 0x9033F, size: 0x8, addend: 0x0, symName: __ZN5boost9unordered6detail3foa10table_coreINS2_14flat_set_typesINSt3__112basic_stringIcNS5_11char_traitsIcEENS5_9allocatorIcEEEEEENS2_7group15INS2_15atomic_integralEEENS2_23concurrent_table_arraysENS2_19atomic_size_controlENS_4hashISB_EENS5_8equal_toISB_EENS9_ISB_EEE16for_all_elementsIZNSN_D1EvEUlPSB_E_EEDTcmclfp0_LDnEEcvv_EERKNSG_ISB_SF_NS2_16pow2_size_policyESM_EET_, symObjAddr: 0x5F4C, symBinAddr: 0x100008734, symSize: 0x34 }
  - { offsetInCU: 0x903AE, offset: 0x903AE, size: 0x8, addend: 0x0, symName: __ZN5boost9unordered6detail3foa10table_coreINS2_14flat_set_typesINSt3__112basic_stringIcNS5_11char_traitsIcEENS5_9allocatorIcEEEEEENS2_7group15INS2_15atomic_integralEEENS2_23concurrent_table_arraysENS2_19atomic_size_controlENS_4hashISB_EENS5_8equal_toISB_EENS9_ISB_EEE22for_all_elements_whileIZNSN_16for_all_elementsIZNSN_D1EvEUlPSB_E_EEDTcmclfp0_LDnEEcvv_EERKNSG_ISB_SF_NS2_16pow2_size_policyESM_EET_EUlSQ_E_EESS_SW_SX_, symObjAddr: 0x5F80, symBinAddr: 0x100008768, symSize: 0x38 }
  - { offsetInCU: 0x90427, offset: 0x90427, size: 0x8, addend: 0x0, symName: __ZN5boost9unordered6detail3foa10table_coreINS2_14flat_set_typesINSt3__112basic_stringIcNS5_11char_traitsIcEENS5_9allocatorIcEEEEEENS2_7group15INS2_15atomic_integralEEENS2_23concurrent_table_arraysENS2_19atomic_size_controlENS_4hashISB_EENS5_8equal_toISB_EENS9_ISB_EEE22for_all_elements_whileIZNSN_22for_all_elements_whileIZNSN_16for_all_elementsIZNSN_D1EvEUlPSB_E_EEDTcmclfp0_LDnEEcvv_EERKNSG_ISB_SF_NS2_16pow2_size_policyESM_EET_EUlSR_E_EEST_SX_SY_EUlPSF_jSR_E_EEDTcmclfp0_LDnELi0ELDnEEcvv_EESX_SY_, symObjAddr: 0x5FB8, symBinAddr: 0x1000087A0, symSize: 0x14C }
  - { offsetInCU: 0x904D8, offset: 0x904D8, size: 0x8, addend: 0x0, symName: __ZNK5boost9unordered6detail3foa12table_arraysINSt3__112basic_stringIcNS4_11char_traitsIcEENS4_9allocatorIcEEEENS2_7group15INS2_15atomic_integralEEENS2_16pow2_size_policyENS8_ISA_EEE8elementsEv, symObjAddr: 0x6104, symBinAddr: 0x1000088EC, symSize: 0x28 }
  - { offsetInCU: 0x904FE, offset: 0x904FE, size: 0x8, addend: 0x0, symName: __ZNK5boost9unordered6detail3foa12table_arraysINSt3__112basic_stringIcNS4_11char_traitsIcEENS4_9allocatorIcEEEENS2_7group15INS2_15atomic_integralEEENS2_16pow2_size_policyENS8_ISA_EEE6groupsEv, symObjAddr: 0x612C, symBinAddr: 0x100008914, symSize: 0x28 }
  - { offsetInCU: 0x90524, offset: 0x90524, size: 0x8, addend: 0x0, symName: __ZN5boost9unordered6detail3foa10table_coreINS2_14flat_set_typesINSt3__112basic_stringIcNS5_11char_traitsIcEENS5_9allocatorIcEEEEEENS2_7group15INS2_15atomic_integralEEENS2_23concurrent_table_arraysENS2_19atomic_size_controlENS_4hashISB_EENS5_8equal_toISB_EENS9_ISB_EEE21match_really_occupiedEPSF_SO_, symObjAddr: 0x6154, symBinAddr: 0x10000893C, symSize: 0x44 }
  - { offsetInCU: 0x90561, offset: 0x90561, size: 0x8, addend: 0x0, symName: __ZZN5boost9unordered6detail3foa10table_coreINS2_14flat_set_typesINSt3__112basic_stringIcNS5_11char_traitsIcEENS5_9allocatorIcEEEEEENS2_7group15INS2_15atomic_integralEEENS2_23concurrent_table_arraysENS2_19atomic_size_controlENS_4hashISB_EENS5_8equal_toISB_EENS9_ISB_EEE22for_all_elements_whileIZNSN_16for_all_elementsIZNSN_D1EvEUlPSB_E_EEDTcmclfp0_LDnEEcvv_EERKNSG_ISB_SF_NS2_16pow2_size_policyESM_EET_EUlSQ_E_EESS_SW_SX_ENKUlPSF_jSQ_E_clESZ_jSQ_, symObjAddr: 0x61F4, symBinAddr: 0x1000089DC, symSize: 0x3C }
  - { offsetInCU: 0x905B0, offset: 0x905B0, size: 0x8, addend: 0x0, symName: __ZNK5boost9unordered6detail3foa7group15INS2_15atomic_integralEE14match_occupiedEv, symObjAddr: 0x6258, symBinAddr: 0x100008A40, symSize: 0x6C }
  - { offsetInCU: 0x905D6, offset: 0x905D6, size: 0x8, addend: 0x0, symName: __ZNK5boost9unordered6detail3foa7group15INS2_15atomic_integralEE13load_metadataEv, symObjAddr: 0x63D4, symBinAddr: 0x100008BBC, symSize: 0x28 }
  - { offsetInCU: 0x90623, offset: 0x90623, size: 0x8, addend: 0x0, symName: __ZZN5boost9unordered6detail3foa10table_coreINS2_14flat_set_typesINSt3__112basic_stringIcNS5_11char_traitsIcEENS5_9allocatorIcEEEEEENS2_7group15INS2_15atomic_integralEEENS2_23concurrent_table_arraysENS2_19atomic_size_controlENS_4hashISB_EENS5_8equal_toISB_EENS9_ISB_EEE16for_all_elementsIZNSN_D1EvEUlPSB_E_EEDTcmclfp0_LDnEEcvv_EERKNSG_ISB_SF_NS2_16pow2_size_policyESM_EET_ENKUlSP_E_clESP_, symObjAddr: 0x6468, symBinAddr: 0x100008C50, symSize: 0x38 }
  - { offsetInCU: 0x90666, offset: 0x90666, size: 0x8, addend: 0x0, symName: __ZZN5boost9unordered6detail3foa10table_coreINS2_14flat_set_typesINSt3__112basic_stringIcNS5_11char_traitsIcEENS5_9allocatorIcEEEEEENS2_7group15INS2_15atomic_integralEEENS2_23concurrent_table_arraysENS2_19atomic_size_controlENS_4hashISB_EENS5_8equal_toISB_EENS9_ISB_EEED1EvENKUlPSB_E_clESO_, symObjAddr: 0x64A0, symBinAddr: 0x100008C88, symSize: 0x30 }
  - { offsetInCU: 0x9069F, offset: 0x9069F, size: 0x8, addend: 0x0, symName: __ZN5boost9unordered6detail3foa10table_coreINS2_14flat_set_typesINSt3__112basic_stringIcNS5_11char_traitsIcEENS5_9allocatorIcEEEEEENS2_7group15INS2_15atomic_integralEEENS2_23concurrent_table_arraysENS2_19atomic_size_controlENS_4hashISB_EENS5_8equal_toISB_EENS9_ISB_EEE15destroy_elementEPSB_, symObjAddr: 0x64D0, symBinAddr: 0x100008CB8, symSize: 0x40 }
  - { offsetInCU: 0x906D9, offset: 0x906D9, size: 0x8, addend: 0x0, symName: __ZN5boost9unordered6detail3foa14flat_set_typesINSt3__112basic_stringIcNS4_11char_traitsIcEENS4_9allocatorIcEEEEE7destroyINS8_ISA_EEEEvRT_PSA_, symObjAddr: 0x6510, symBinAddr: 0x100008CF8, symSize: 0x34 }
  - { offsetInCU: 0x90713, offset: 0x90713, size: 0x8, addend: 0x0, symName: __ZN5boost9unordered6detail3foa10table_coreINS2_14flat_set_typesINSt3__112basic_stringIcNS5_11char_traitsIcEENS5_9allocatorIcEEEEEENS2_7group15INS2_15atomic_integralEEENS2_23concurrent_table_arraysENS2_19atomic_size_controlENS_4hashISB_EENS5_8equal_toISB_EENS9_ISB_EEE2alEv, symObjAddr: 0x6544, symBinAddr: 0x100008D2C, symSize: 0x24 }
  - { offsetInCU: 0x90739, offset: 0x90739, size: 0x8, addend: 0x0, symName: __ZN5boost6empty_11empty_valueINSt3__19allocatorINS2_12basic_stringIcNS2_11char_traitsIcEENS3_IcEEEEEELj2ELb1EE3getEv, symObjAddr: 0x6590, symBinAddr: 0x100008D78, symSize: 0x14 }
  - { offsetInCU: 0x9075F, offset: 0x9075F, size: 0x8, addend: 0x0, symName: __ZN5boost9unordered6detail3foa23concurrent_table_arraysINSt3__112basic_stringIcNS4_11char_traitsIcEENS4_9allocatorIcEEEENS2_7group15INS2_15atomic_integralEEENS2_16pow2_size_policyENS8_ISA_EEE7delete_ENS8_INS2_12group_accessEEERSG_, symObjAddr: 0x65A4, symBinAddr: 0x100008D8C, symSize: 0x38 }
  - { offsetInCU: 0x90792, offset: 0x90792, size: 0x8, addend: 0x0, symName: __ZNSt3__19allocatorIN5boost9unordered6detail3foa12group_accessEEC1B8ue170006INS_12basic_stringIcNS_11char_traitsIcEENS0_IcEEEEEERKNS0_IT_EE, symObjAddr: 0x65DC, symBinAddr: 0x100008DC4, symSize: 0x34 }
  - { offsetInCU: 0x907D0, offset: 0x907D0, size: 0x8, addend: 0x0, symName: __ZN5boost9unordered6detail3foa23concurrent_table_arraysINSt3__112basic_stringIcNS4_11char_traitsIcEENS4_9allocatorIcEEEENS2_7group15INS2_15atomic_integralEEENS2_16pow2_size_policyENS8_ISA_EEE19delete_group_accessENS8_INS2_12group_accessEEERSG_, symObjAddr: 0x6610, symBinAddr: 0x100008DF8, symSize: 0x5C }
  - { offsetInCU: 0x90803, offset: 0x90803, size: 0x8, addend: 0x0, symName: __ZN5boost9unordered6detail3foa12table_arraysINSt3__112basic_stringIcNS4_11char_traitsIcEENS4_9allocatorIcEEEENS2_7group15INS2_15atomic_integralEEENS2_16pow2_size_policyENS8_ISA_EEE7delete_ESF_RSG_, symObjAddr: 0x666C, symBinAddr: 0x100008E54, symSize: 0x74 }
  - { offsetInCU: 0x9084F, offset: 0x9084F, size: 0x8, addend: 0x0, symName: __ZNSt3__19allocatorINS_12basic_stringIcNS_11char_traitsIcEENS0_IcEEEEEC1B8ue170006IN5boost9unordered6detail3foa12group_accessEEERKNS0_IT_EE, symObjAddr: 0x66E0, symBinAddr: 0x100008EC8, symSize: 0x34 }
  - { offsetInCU: 0x9088D, offset: 0x9088D, size: 0x8, addend: 0x0, symName: __ZNSt3__19allocatorIN5boost9unordered6detail3foa12group_accessEE10deallocateB8ue170006EPS5_m, symObjAddr: 0x6748, symBinAddr: 0x100008F30, symSize: 0x40 }
  - { offsetInCU: 0x908CF, offset: 0x908CF, size: 0x8, addend: 0x0, symName: __ZN5boost16allocator_traitsINSt3__19allocatorINS1_12basic_stringIcNS1_11char_traitsIcEENS2_IcEEEEEEE10deallocateERS8_PS7_m, symObjAddr: 0x6788, symBinAddr: 0x100008F70, symSize: 0x34 }
  - { offsetInCU: 0x9090E, offset: 0x9090E, size: 0x8, addend: 0x0, symName: __ZN5boost9unordered6detail3foa12table_arraysINSt3__112basic_stringIcNS4_11char_traitsIcEENS4_9allocatorIcEEEENS2_7group15INS2_15atomic_integralEEENS2_16pow2_size_policyENS8_ISA_EEE11buffer_sizeEm, symObjAddr: 0x67BC, symBinAddr: 0x100008FA4, symSize: 0x54 }
  - { offsetInCU: 0x90941, offset: 0x90941, size: 0x8, addend: 0x0, symName: __ZNSt3__19allocatorINS_12basic_stringIcNS_11char_traitsIcEENS0_IcEEEEE10deallocateB8ue170006EPS5_m, symObjAddr: 0x6844, symBinAddr: 0x10000902C, symSize: 0x44 }
  - { offsetInCU: 0x90983, offset: 0x90983, size: 0x8, addend: 0x0, symName: __ZNSt3__19allocatorINS_12basic_stringIcNS_11char_traitsIcEENS0_IcEEEEEC2B8ue170006IN5boost9unordered6detail3foa12group_accessEEERKNS0_IT_EE, symObjAddr: 0x6888, symBinAddr: 0x100009070, symSize: 0x30 }
  - { offsetInCU: 0x909C1, offset: 0x909C1, size: 0x8, addend: 0x0, symName: __ZNSt3__116__non_trivial_ifILb1ENS_9allocatorINS_12basic_stringIcNS_11char_traitsIcEENS1_IcEEEEEEEC2B8ue170006Ev, symObjAddr: 0x68B8, symBinAddr: 0x1000090A0, symSize: 0x14 }
  - { offsetInCU: 0x909EB, offset: 0x909EB, size: 0x8, addend: 0x0, symName: __ZNSt3__19allocatorIN5boost9unordered6detail3foa12group_accessEEC2B8ue170006INS_12basic_stringIcNS_11char_traitsIcEENS0_IcEEEEEERKNS0_IT_EE, symObjAddr: 0x68CC, symBinAddr: 0x1000090B4, symSize: 0x30 }
  - { offsetInCU: 0x90A29, offset: 0x90A29, size: 0x8, addend: 0x0, symName: __ZNSt3__116__non_trivial_ifILb1ENS_9allocatorIN5boost9unordered6detail3foa12group_accessEEEEC2B8ue170006Ev, symObjAddr: 0x68FC, symBinAddr: 0x1000090E4, symSize: 0x14 }
  - { offsetInCU: 0x90A53, offset: 0x90A53, size: 0x8, addend: 0x0, symName: __ZNSt3__16vectorINS_12basic_stringIcNS_11char_traitsIcEENS_9allocatorIcEEEENS4_IS6_EEED2B8ue170006Ev, symObjAddr: 0x6910, symBinAddr: 0x1000090F8, symSize: 0x44 }
  - { offsetInCU: 0x90A7D, offset: 0x90A7D, size: 0x8, addend: 0x0, symName: __ZNSt3__16vectorINS_12basic_stringIcNS_11char_traitsIcEENS_9allocatorIcEEEENS4_IS6_EEE16__destroy_vectorC1B8ue170006ERS8_, symObjAddr: 0x6954, symBinAddr: 0x10000913C, symSize: 0x34 }
  - { offsetInCU: 0x90AB6, offset: 0x90AB6, size: 0x8, addend: 0x0, symName: __ZNSt3__16vectorINS_12basic_stringIcNS_11char_traitsIcEENS_9allocatorIcEEEENS4_IS6_EEE16__destroy_vectorclB8ue170006Ev, symObjAddr: 0x6988, symBinAddr: 0x100009170, symSize: 0x90 }
  - { offsetInCU: 0x90ADC, offset: 0x90ADC, size: 0x8, addend: 0x0, symName: __ZNSt3__16vectorINS_12basic_stringIcNS_11char_traitsIcEENS_9allocatorIcEEEENS4_IS6_EEE16__destroy_vectorC2B8ue170006ERS8_, symObjAddr: 0x6A18, symBinAddr: 0x100009200, symSize: 0x20 }
  - { offsetInCU: 0x90B15, offset: 0x90B15, size: 0x8, addend: 0x0, symName: __ZNSt3__16vectorINS_12basic_stringIcNS_11char_traitsIcEENS_9allocatorIcEEEENS4_IS6_EEE7__clearB8ue170006Ev, symObjAddr: 0x6A38, symBinAddr: 0x100009220, symSize: 0x28 }
  - { offsetInCU: 0x90B3B, offset: 0x90B3B, size: 0x8, addend: 0x0, symName: __ZNKSt3__16vectorINS_12basic_stringIcNS_11char_traitsIcEENS_9allocatorIcEEEENS4_IS6_EEE17__annotate_deleteB8ue170006Ev, symObjAddr: 0x6A60, symBinAddr: 0x100009248, symSize: 0xD4 }
  - { offsetInCU: 0x90B61, offset: 0x90B61, size: 0x8, addend: 0x0, symName: __ZNSt3__116allocator_traitsINS_9allocatorINS_12basic_stringIcNS_11char_traitsIcEENS1_IcEEEEEEE10deallocateB8ue170006ERS7_PS6_m, symObjAddr: 0x6B34, symBinAddr: 0x10000931C, symSize: 0x34 }
  - { offsetInCU: 0x90BA3, offset: 0x90BA3, size: 0x8, addend: 0x0, symName: __ZNSt3__16vectorINS_12basic_stringIcNS_11char_traitsIcEENS_9allocatorIcEEEENS4_IS6_EEE7__allocB8ue170006Ev, symObjAddr: 0x6B68, symBinAddr: 0x100009350, symSize: 0x28 }
  - { offsetInCU: 0x90BC9, offset: 0x90BC9, size: 0x8, addend: 0x0, symName: __ZNKSt3__16vectorINS_12basic_stringIcNS_11char_traitsIcEENS_9allocatorIcEEEENS4_IS6_EEE8capacityB8ue170006Ev, symObjAddr: 0x6B90, symBinAddr: 0x100009378, symSize: 0x40 }
  - { offsetInCU: 0x90BEF, offset: 0x90BEF, size: 0x8, addend: 0x0, symName: __ZNSt3__16vectorINS_12basic_stringIcNS_11char_traitsIcEENS_9allocatorIcEEEENS4_IS6_EEE22__base_destruct_at_endB8ue170006EPS6_, symObjAddr: 0x6BD0, symBinAddr: 0x1000093B8, symSize: 0x8C }
  - { offsetInCU: 0x90C33, offset: 0x90C33, size: 0x8, addend: 0x0, symName: __ZNSt3__116allocator_traitsINS_9allocatorINS_12basic_stringIcNS_11char_traitsIcEENS1_IcEEEEEEE7destroyB8ue170006IS6_vvEEvRS7_PT_, symObjAddr: 0x6C5C, symBinAddr: 0x100009444, symSize: 0x28 }
  - { offsetInCU: 0x90C6D, offset: 0x90C6D, size: 0x8, addend: 0x0, symName: __ZNKSt3__16vectorINS_12basic_stringIcNS_11char_traitsIcEENS_9allocatorIcEEEENS4_IS6_EEE31__annotate_contiguous_containerB8ue170006EPKvSA_SA_SA_, symObjAddr: 0x6CE0, symBinAddr: 0x1000094C8, symSize: 0x20 }
  - { offsetInCU: 0x90CBF, offset: 0x90CBF, size: 0x8, addend: 0x0, symName: __ZNKSt3__16vectorINS_12basic_stringIcNS_11char_traitsIcEENS_9allocatorIcEEEENS4_IS6_EEE4dataB8ue170006Ev, symObjAddr: 0x6D00, symBinAddr: 0x1000094E8, symSize: 0x28 }
  - { offsetInCU: 0x90CE5, offset: 0x90CE5, size: 0x8, addend: 0x0, symName: __ZNKSt3__16vectorINS_12basic_stringIcNS_11char_traitsIcEENS_9allocatorIcEEEENS4_IS6_EEE4sizeB8ue170006Ev, symObjAddr: 0x6D28, symBinAddr: 0x100009510, symSize: 0x28 }
  - { offsetInCU: 0x90D0B, offset: 0x90D0B, size: 0x8, addend: 0x0, symName: __ZNSt3__117__compressed_pairIPNS_12basic_stringIcNS_11char_traitsIcEENS_9allocatorIcEEEENS4_IS6_EEE6secondB8ue170006Ev, symObjAddr: 0x6D50, symBinAddr: 0x100009538, symSize: 0x24 }
  - { offsetInCU: 0x90D31, offset: 0x90D31, size: 0x8, addend: 0x0, symName: __ZNSt3__122__compressed_pair_elemINS_9allocatorINS_12basic_stringIcNS_11char_traitsIcEENS1_IcEEEEEELi1ELb1EE5__getB8ue170006Ev, symObjAddr: 0x6D74, symBinAddr: 0x10000955C, symSize: 0x14 }
  - { offsetInCU: 0x90D57, offset: 0x90D57, size: 0x8, addend: 0x0, symName: __ZNKSt3__16vectorINS_12basic_stringIcNS_11char_traitsIcEENS_9allocatorIcEEEENS4_IS6_EEE9__end_capB8ue170006Ev, symObjAddr: 0x6D88, symBinAddr: 0x100009570, symSize: 0x28 }
  - { offsetInCU: 0x90D7D, offset: 0x90D7D, size: 0x8, addend: 0x0, symName: __ZNKSt3__117__compressed_pairIPNS_12basic_stringIcNS_11char_traitsIcEENS_9allocatorIcEEEENS4_IS6_EEE5firstB8ue170006Ev, symObjAddr: 0x6DB0, symBinAddr: 0x100009598, symSize: 0x24 }
  - { offsetInCU: 0x90DA3, offset: 0x90DA3, size: 0x8, addend: 0x0, symName: __ZNKSt3__122__compressed_pair_elemIPNS_12basic_stringIcNS_11char_traitsIcEENS_9allocatorIcEEEELi0ELb0EE5__getB8ue170006Ev, symObjAddr: 0x6DD4, symBinAddr: 0x1000095BC, symSize: 0x14 }
  - { offsetInCU: 0x90DC9, offset: 0x90DC9, size: 0x8, addend: 0x0, symName: __ZN4DataC2Ev, symObjAddr: 0x6DE8, symBinAddr: 0x1000095D0, symSize: 0x50 }
  - { offsetInCU: 0x90DF3, offset: 0x90DF3, size: 0x8, addend: 0x0, symName: __ZN5Eigen6MatrixIfLin1ELin1ELi0ELin1ELin1EEC1Ev, symObjAddr: 0x6E38, symBinAddr: 0x100009620, symSize: 0x2C }
  - { offsetInCU: 0x90E1D, offset: 0x90E1D, size: 0x8, addend: 0x0, symName: __ZNSt3__113unordered_mapINS_12basic_stringIcNS_11char_traitsIcEENS_9allocatorIcEEEEN5Eigen6MatrixIfLin1ELi1ELi0ELin1ELi1EEENS_4hashIS6_EENS_8equal_toIS6_EENS4_INS_4pairIKS6_S9_EEEEEC1B8ue170006Ev, symObjAddr: 0x6E64, symBinAddr: 0x10000964C, symSize: 0x2C }
  - { offsetInCU: 0x90E47, offset: 0x90E47, size: 0x8, addend: 0x0, symName: __ZNSt3__16vectorIN5Eigen6MatrixIfLin1ELi1ELi0ELin1ELi1EEENS_9allocatorIS3_EEEC1B8ue170006Ev, symObjAddr: 0x6E90, symBinAddr: 0x100009678, symSize: 0x2C }
  - { offsetInCU: 0x90E71, offset: 0x90E71, size: 0x8, addend: 0x0, symName: __ZN5Eigen6MatrixIfLin1ELin1ELi0ELin1ELin1EEC2Ev, symObjAddr: 0x6EBC, symBinAddr: 0x1000096A4, symSize: 0x58 }
  - { offsetInCU: 0x90E9B, offset: 0x90E9B, size: 0x8, addend: 0x0, symName: __ZN5Eigen15PlainObjectBaseINS_6MatrixIfLin1ELin1ELi0ELin1ELin1EEEEC2Ev, symObjAddr: 0x6F14, symBinAddr: 0x1000096FC, symSize: 0x34 }
  - { offsetInCU: 0x90EC5, offset: 0x90EC5, size: 0x8, addend: 0x0, symName: __ZN5Eigen15PlainObjectBaseINS_6MatrixIfLin1ELin1ELi0ELin1ELin1EEEE22_check_template_paramsEv, symObjAddr: 0x6F48, symBinAddr: 0x100009730, symSize: 0x4 }
  - { offsetInCU: 0x90ED9, offset: 0x90ED9, size: 0x8, addend: 0x0, symName: __ZN5Eigen10MatrixBaseINS_6MatrixIfLin1ELin1ELi0ELin1ELin1EEEEC2Ev, symObjAddr: 0x6F4C, symBinAddr: 0x100009734, symSize: 0x2C }
  - { offsetInCU: 0x90F03, offset: 0x90F03, size: 0x8, addend: 0x0, symName: __ZN5Eigen12DenseStorageIfLin1ELin1ELin1ELi0EEC1Ev, symObjAddr: 0x6F78, symBinAddr: 0x100009760, symSize: 0x2C }
  - { offsetInCU: 0x90F2D, offset: 0x90F2D, size: 0x8, addend: 0x0, symName: __ZN5Eigen9DenseBaseINS_6MatrixIfLin1ELin1ELi0ELin1ELin1EEEEC2Ev, symObjAddr: 0x6FA4, symBinAddr: 0x10000978C, symSize: 0x14 }
  - { offsetInCU: 0x90F57, offset: 0x90F57, size: 0x8, addend: 0x0, symName: __ZN5Eigen12DenseStorageIfLin1ELin1ELin1ELi0EEC2Ev, symObjAddr: 0x6FB8, symBinAddr: 0x1000097A0, symSize: 0x20 }
  - { offsetInCU: 0x90F81, offset: 0x90F81, size: 0x8, addend: 0x0, symName: __ZNSt3__113unordered_mapINS_12basic_stringIcNS_11char_traitsIcEENS_9allocatorIcEEEEN5Eigen6MatrixIfLin1ELi1ELi0ELin1ELi1EEENS_4hashIS6_EENS_8equal_toIS6_EENS4_INS_4pairIKS6_S9_EEEEEC2B8ue170006Ev, symObjAddr: 0x6FD8, symBinAddr: 0x1000097C0, symSize: 0x2C }
  - { offsetInCU: 0x90FAB, offset: 0x90FAB, size: 0x8, addend: 0x0, symName: __ZNSt3__112__hash_tableINS_17__hash_value_typeINS_12basic_stringIcNS_11char_traitsIcEENS_9allocatorIcEEEEN5Eigen6MatrixIfLin1ELi1ELi0ELin1ELi1EEEEENS_22__unordered_map_hasherIS7_SB_NS_4hashIS7_EENS_8equal_toIS7_EELb1EEENS_21__unordered_map_equalIS7_SB_SG_SE_Lb1EEENS5_ISB_EEEC1Ev, symObjAddr: 0x7004, symBinAddr: 0x1000097EC, symSize: 0x2C }
  - { offsetInCU: 0x90FD7, offset: 0x90FD7, size: 0x8, addend: 0x0, symName: __ZNSt3__112__hash_tableINS_17__hash_value_typeINS_12basic_stringIcNS_11char_traitsIcEENS_9allocatorIcEEEEN5Eigen6MatrixIfLin1ELi1ELi0ELin1ELi1EEEEENS_22__unordered_map_hasherIS7_SB_NS_4hashIS7_EENS_8equal_toIS7_EELb1EEENS_21__unordered_map_equalIS7_SB_SG_SE_Lb1EEENS5_ISB_EEEC2Ev, symObjAddr: 0x7030, symBinAddr: 0x100009818, symSize: 0x7C }
  - { offsetInCU: 0x91003, offset: 0x91003, size: 0x8, addend: 0x0, symName: __ZNSt3__110unique_ptrIA_PNS_16__hash_node_baseIPNS_11__hash_nodeINS_17__hash_value_typeINS_12basic_stringIcNS_11char_traitsIcEENS_9allocatorIcEEEEN5Eigen6MatrixIfLin1ELi1ELi0ELin1ELi1EEEEEPvEEEENS_25__bucket_list_deallocatorINS7_ISI_EEEEEC1B8ue170006ILb1EvEEv, symObjAddr: 0x70AC, symBinAddr: 0x100009894, symSize: 0x2C }
  - { offsetInCU: 0x91038, offset: 0x91038, size: 0x8, addend: 0x0, symName: __ZNSt3__117__compressed_pairINS_16__hash_node_baseIPNS_11__hash_nodeINS_17__hash_value_typeINS_12basic_stringIcNS_11char_traitsIcEENS_9allocatorIcEEEEN5Eigen6MatrixIfLin1ELi1ELi0ELin1ELi1EEEEEPvEEEENS7_ISF_EEEC1B8ue170006ILb1EvEEv, symObjAddr: 0x70D8, symBinAddr: 0x1000098C0, symSize: 0x2C }
  - { offsetInCU: 0x91073, offset: 0x91073, size: 0x8, addend: 0x0, symName: __ZNSt3__117__compressed_pairImNS_22__unordered_map_hasherINS_12basic_stringIcNS_11char_traitsIcEENS_9allocatorIcEEEENS_17__hash_value_typeIS7_N5Eigen6MatrixIfLin1ELi1ELi0ELin1ELi1EEEEENS_4hashIS7_EENS_8equal_toIS7_EELb1EEEEC1B8ue170006IiNS_18__default_init_tagEEEOT_OT0_, symObjAddr: 0x7104, symBinAddr: 0x1000098EC, symSize: 0x3C }
  - { offsetInCU: 0x910D1, offset: 0x910D1, size: 0x8, addend: 0x0, symName: __ZNSt3__117__compressed_pairIfNS_21__unordered_map_equalINS_12basic_stringIcNS_11char_traitsIcEENS_9allocatorIcEEEENS_17__hash_value_typeIS7_N5Eigen6MatrixIfLin1ELi1ELi0ELin1ELi1EEEEENS_8equal_toIS7_EENS_4hashIS7_EELb1EEEEC1B8ue170006IfNS_18__default_init_tagEEEOT_OT0_, symObjAddr: 0x7140, symBinAddr: 0x100009928, symSize: 0x3C }
  - { offsetInCU: 0x91129, offset: 0x91129, size: 0x8, addend: 0x0, symName: __ZNSt3__110unique_ptrIA_PNS_16__hash_node_baseIPNS_11__hash_nodeINS_17__hash_value_typeINS_12basic_stringIcNS_11char_traitsIcEENS_9allocatorIcEEEEN5Eigen6MatrixIfLin1ELi1ELi0ELin1ELi1EEEEEPvEEEENS_25__bucket_list_deallocatorINS7_ISI_EEEEEC2B8ue170006ILb1EvEEv, symObjAddr: 0x717C, symBinAddr: 0x100009964, symSize: 0x3C }
  - { offsetInCU: 0x91164, offset: 0x91164, size: 0x8, addend: 0x0, symName: __ZNSt3__117__compressed_pairIPPNS_16__hash_node_baseIPNS_11__hash_nodeINS_17__hash_value_typeINS_12basic_stringIcNS_11char_traitsIcEENS_9allocatorIcEEEEN5Eigen6MatrixIfLin1ELi1ELi0ELin1ELi1EEEEEPvEEEENS_25__bucket_list_deallocatorINS7_ISI_EEEEEC1B8ue170006INS_16__value_init_tagESP_EEOT_OT0_, symObjAddr: 0x71B8, symBinAddr: 0x1000099A0, symSize: 0x3C }
  - { offsetInCU: 0x911BC, offset: 0x911BC, size: 0x8, addend: 0x0, symName: __ZNSt3__117__compressed_pairIPPNS_16__hash_node_baseIPNS_11__hash_nodeINS_17__hash_value_typeINS_12basic_stringIcNS_11char_traitsIcEENS_9allocatorIcEEEEN5Eigen6MatrixIfLin1ELi1ELi0ELin1ELi1EEEEEPvEEEENS_25__bucket_list_deallocatorINS7_ISI_EEEEEC2B8ue170006INS_16__value_init_tagESP_EEOT_OT0_, symObjAddr: 0x71F4, symBinAddr: 0x1000099DC, symSize: 0x40 }
  - { offsetInCU: 0x91214, offset: 0x91214, size: 0x8, addend: 0x0, symName: __ZNSt3__122__compressed_pair_elemIPPNS_16__hash_node_baseIPNS_11__hash_nodeINS_17__hash_value_typeINS_12basic_stringIcNS_11char_traitsIcEENS_9allocatorIcEEEEN5Eigen6MatrixIfLin1ELi1ELi0ELin1ELi1EEEEEPvEEEELi0ELb0EEC2B8ue170006ENS_16__value_init_tagE, symObjAddr: 0x7234, symBinAddr: 0x100009A1C, symSize: 0x18 }
  - { offsetInCU: 0x91249, offset: 0x91249, size: 0x8, addend: 0x0, symName: __ZNSt3__122__compressed_pair_elemINS_25__bucket_list_deallocatorINS_9allocatorIPNS_16__hash_node_baseIPNS_11__hash_nodeINS_17__hash_value_typeINS_12basic_stringIcNS_11char_traitsIcEENS2_IcEEEEN5Eigen6MatrixIfLin1ELi1ELi0ELin1ELi1EEEEEPvEEEEEEEELi1ELb0EEC2B8ue170006ENS_16__value_init_tagE, symObjAddr: 0x724C, symBinAddr: 0x100009A34, symSize: 0x2C }
  - { offsetInCU: 0x9127E, offset: 0x9127E, size: 0x8, addend: 0x0, symName: __ZNSt3__125__bucket_list_deallocatorINS_9allocatorIPNS_16__hash_node_baseIPNS_11__hash_nodeINS_17__hash_value_typeINS_12basic_stringIcNS_11char_traitsIcEENS1_IcEEEEN5Eigen6MatrixIfLin1ELi1ELi0ELin1ELi1EEEEEPvEEEEEEEC1B8ue170006Ev, symObjAddr: 0x7278, symBinAddr: 0x100009A60, symSize: 0x2C }
  - { offsetInCU: 0x912A8, offset: 0x912A8, size: 0x8, addend: 0x0, symName: __ZNSt3__125__bucket_list_deallocatorINS_9allocatorIPNS_16__hash_node_baseIPNS_11__hash_nodeINS_17__hash_value_typeINS_12basic_stringIcNS_11char_traitsIcEENS1_IcEEEEN5Eigen6MatrixIfLin1ELi1ELi0ELin1ELi1EEEEEPvEEEEEEEC2B8ue170006Ev, symObjAddr: 0x72A4, symBinAddr: 0x100009A8C, symSize: 0x40 }
  - { offsetInCU: 0x912D2, offset: 0x912D2, size: 0x8, addend: 0x0, symName: __ZNSt3__117__compressed_pairImNS_9allocatorIPNS_16__hash_node_baseIPNS_11__hash_nodeINS_17__hash_value_typeINS_12basic_stringIcNS_11char_traitsIcEENS1_IcEEEEN5Eigen6MatrixIfLin1ELi1ELi0ELin1ELi1EEEEEPvEEEEEEEC1B8ue170006IiNS_18__default_init_tagEEEOT_OT0_, symObjAddr: 0x72E4, symBinAddr: 0x100009ACC, symSize: 0x3C }
  - { offsetInCU: 0x9132A, offset: 0x9132A, size: 0x8, addend: 0x0, symName: __ZNSt3__117__compressed_pairImNS_9allocatorIPNS_16__hash_node_baseIPNS_11__hash_nodeINS_17__hash_value_typeINS_12basic_stringIcNS_11char_traitsIcEENS1_IcEEEEN5Eigen6MatrixIfLin1ELi1ELi0ELin1ELi1EEEEEPvEEEEEEEC2B8ue170006IiNS_18__default_init_tagEEEOT_OT0_, symObjAddr: 0x7320, symBinAddr: 0x100009B08, symSize: 0x40 }
  - { offsetInCU: 0x91382, offset: 0x91382, size: 0x8, addend: 0x0, symName: __ZNSt3__122__compressed_pair_elemImLi0ELb0EEC2B8ue170006IivEEOT_, symObjAddr: 0x7360, symBinAddr: 0x100009B48, symSize: 0x24 }
  - { offsetInCU: 0x913C4, offset: 0x913C4, size: 0x8, addend: 0x0, symName: __ZNSt3__122__compressed_pair_elemINS_9allocatorIPNS_16__hash_node_baseIPNS_11__hash_nodeINS_17__hash_value_typeINS_12basic_stringIcNS_11char_traitsIcEENS1_IcEEEEN5Eigen6MatrixIfLin1ELi1ELi0ELin1ELi1EEEEEPvEEEEEELi1ELb1EEC2B8ue170006ENS_18__default_init_tagE, symObjAddr: 0x7384, symBinAddr: 0x100009B6C, symSize: 0x2C }
  - { offsetInCU: 0x913F9, offset: 0x913F9, size: 0x8, addend: 0x0, symName: __ZNSt3__19allocatorIPNS_16__hash_node_baseIPNS_11__hash_nodeINS_17__hash_value_typeINS_12basic_stringIcNS_11char_traitsIcEENS0_IcEEEEN5Eigen6MatrixIfLin1ELi1ELi0ELin1ELi1EEEEEPvEEEEEC2B8ue170006Ev, symObjAddr: 0x73B0, symBinAddr: 0x100009B98, symSize: 0x2C }
  - { offsetInCU: 0x91423, offset: 0x91423, size: 0x8, addend: 0x0, symName: __ZNSt3__116__non_trivial_ifILb1ENS_9allocatorIPNS_16__hash_node_baseIPNS_11__hash_nodeINS_17__hash_value_typeINS_12basic_stringIcNS_11char_traitsIcEENS1_IcEEEEN5Eigen6MatrixIfLin1ELi1ELi0ELin1ELi1EEEEEPvEEEEEEEC2B8ue170006Ev, symObjAddr: 0x73DC, symBinAddr: 0x100009BC4, symSize: 0x14 }
  - { offsetInCU: 0x9144D, offset: 0x9144D, size: 0x8, addend: 0x0, symName: __ZNSt3__117__compressed_pairINS_16__hash_node_baseIPNS_11__hash_nodeINS_17__hash_value_typeINS_12basic_stringIcNS_11char_traitsIcEENS_9allocatorIcEEEEN5Eigen6MatrixIfLin1ELi1ELi0ELin1ELi1EEEEEPvEEEENS7_ISF_EEEC2B8ue170006ILb1EvEEv, symObjAddr: 0x73F0, symBinAddr: 0x100009BD8, symSize: 0x34 }
  - { offsetInCU: 0x91482, offset: 0x91482, size: 0x8, addend: 0x0, symName: __ZNSt3__122__compressed_pair_elemINS_16__hash_node_baseIPNS_11__hash_nodeINS_17__hash_value_typeINS_12basic_stringIcNS_11char_traitsIcEENS_9allocatorIcEEEEN5Eigen6MatrixIfLin1ELi1ELi0ELin1ELi1EEEEEPvEEEELi0ELb0EEC2B8ue170006ENS_16__value_init_tagE, symObjAddr: 0x7424, symBinAddr: 0x100009C0C, symSize: 0x2C }
  - { offsetInCU: 0x914B7, offset: 0x914B7, size: 0x8, addend: 0x0, symName: __ZNSt3__122__compressed_pair_elemINS_9allocatorINS_11__hash_nodeINS_17__hash_value_typeINS_12basic_stringIcNS_11char_traitsIcEENS1_IcEEEEN5Eigen6MatrixIfLin1ELi1ELi0ELin1ELi1EEEEEPvEEEELi1ELb1EEC2B8ue170006ENS_16__value_init_tagE, symObjAddr: 0x7450, symBinAddr: 0x100009C38, symSize: 0x2C }
  - { offsetInCU: 0x914EC, offset: 0x914EC, size: 0x8, addend: 0x0, symName: __ZNSt3__116__hash_node_baseIPNS_11__hash_nodeINS_17__hash_value_typeINS_12basic_stringIcNS_11char_traitsIcEENS_9allocatorIcEEEEN5Eigen6MatrixIfLin1ELi1ELi0ELin1ELi1EEEEEPvEEEC1B8ue170006Ev, symObjAddr: 0x747C, symBinAddr: 0x100009C64, symSize: 0x2C }
  - { offsetInCU: 0x91516, offset: 0x91516, size: 0x8, addend: 0x0, symName: __ZNSt3__116__hash_node_baseIPNS_11__hash_nodeINS_17__hash_value_typeINS_12basic_stringIcNS_11char_traitsIcEENS_9allocatorIcEEEEN5Eigen6MatrixIfLin1ELi1ELi0ELin1ELi1EEEEEPvEEEC2B8ue170006Ev, symObjAddr: 0x74A8, symBinAddr: 0x100009C90, symSize: 0x18 }
  - { offsetInCU: 0x91540, offset: 0x91540, size: 0x8, addend: 0x0, symName: __ZNSt3__19allocatorINS_11__hash_nodeINS_17__hash_value_typeINS_12basic_stringIcNS_11char_traitsIcEENS0_IcEEEEN5Eigen6MatrixIfLin1ELi1ELi0ELin1ELi1EEEEEPvEEEC2B8ue170006Ev, symObjAddr: 0x74C0, symBinAddr: 0x100009CA8, symSize: 0x2C }
  - { offsetInCU: 0x9156A, offset: 0x9156A, size: 0x8, addend: 0x0, symName: __ZNSt3__116__non_trivial_ifILb1ENS_9allocatorINS_11__hash_nodeINS_17__hash_value_typeINS_12basic_stringIcNS_11char_traitsIcEENS1_IcEEEEN5Eigen6MatrixIfLin1ELi1ELi0ELin1ELi1EEEEEPvEEEEEC2B8ue170006Ev, symObjAddr: 0x74EC, symBinAddr: 0x100009CD4, symSize: 0x14 }
  - { offsetInCU: 0x91594, offset: 0x91594, size: 0x8, addend: 0x0, symName: __ZNSt3__117__compressed_pairImNS_22__unordered_map_hasherINS_12basic_stringIcNS_11char_traitsIcEENS_9allocatorIcEEEENS_17__hash_value_typeIS7_N5Eigen6MatrixIfLin1ELi1ELi0ELin1ELi1EEEEENS_4hashIS7_EENS_8equal_toIS7_EELb1EEEEC2B8ue170006IiNS_18__default_init_tagEEEOT_OT0_, symObjAddr: 0x7500, symBinAddr: 0x100009CE8, symSize: 0x40 }
  - { offsetInCU: 0x915EC, offset: 0x915EC, size: 0x8, addend: 0x0, symName: __ZNSt3__122__compressed_pair_elemINS_22__unordered_map_hasherINS_12basic_stringIcNS_11char_traitsIcEENS_9allocatorIcEEEENS_17__hash_value_typeIS7_N5Eigen6MatrixIfLin1ELi1ELi0ELin1ELi1EEEEENS_4hashIS7_EENS_8equal_toIS7_EELb1EEELi1ELb1EEC2B8ue170006ENS_18__default_init_tagE, symObjAddr: 0x7540, symBinAddr: 0x100009D28, symSize: 0x2C }
  - { offsetInCU: 0x91621, offset: 0x91621, size: 0x8, addend: 0x0, symName: __ZNSt3__122__unordered_map_hasherINS_12basic_stringIcNS_11char_traitsIcEENS_9allocatorIcEEEENS_17__hash_value_typeIS6_N5Eigen6MatrixIfLin1ELi1ELi0ELin1ELi1EEEEENS_4hashIS6_EENS_8equal_toIS6_EELb1EEC2B8ue170006Ev, symObjAddr: 0x756C, symBinAddr: 0x100009D54, symSize: 0x14 }
  - { offsetInCU: 0x9164B, offset: 0x9164B, size: 0x8, addend: 0x0, symName: __ZNSt3__117__compressed_pairIfNS_21__unordered_map_equalINS_12basic_stringIcNS_11char_traitsIcEENS_9allocatorIcEEEENS_17__hash_value_typeIS7_N5Eigen6MatrixIfLin1ELi1ELi0ELin1ELi1EEEEENS_8equal_toIS7_EENS_4hashIS7_EELb1EEEEC2B8ue170006IfNS_18__default_init_tagEEEOT_OT0_, symObjAddr: 0x7580, symBinAddr: 0x100009D68, symSize: 0x40 }
  - { offsetInCU: 0x916A3, offset: 0x916A3, size: 0x8, addend: 0x0, symName: __ZNSt3__122__compressed_pair_elemIfLi0ELb0EEC2B8ue170006IfvEEOT_, symObjAddr: 0x75C0, symBinAddr: 0x100009DA8, symSize: 0x24 }
  - { offsetInCU: 0x916E5, offset: 0x916E5, size: 0x8, addend: 0x0, symName: __ZNSt3__122__compressed_pair_elemINS_21__unordered_map_equalINS_12basic_stringIcNS_11char_traitsIcEENS_9allocatorIcEEEENS_17__hash_value_typeIS7_N5Eigen6MatrixIfLin1ELi1ELi0ELin1ELi1EEEEENS_8equal_toIS7_EENS_4hashIS7_EELb1EEELi1ELb1EEC2B8ue170006ENS_18__default_init_tagE, symObjAddr: 0x75E4, symBinAddr: 0x100009DCC, symSize: 0x2C }
  - { offsetInCU: 0x9171A, offset: 0x9171A, size: 0x8, addend: 0x0, symName: __ZNSt3__121__unordered_map_equalINS_12basic_stringIcNS_11char_traitsIcEENS_9allocatorIcEEEENS_17__hash_value_typeIS6_N5Eigen6MatrixIfLin1ELi1ELi0ELin1ELi1EEEEENS_8equal_toIS6_EENS_4hashIS6_EELb1EEC2B8ue170006Ev, symObjAddr: 0x7610, symBinAddr: 0x100009DF8, symSize: 0x14 }
  - { offsetInCU: 0x91744, offset: 0x91744, size: 0x8, addend: 0x0, symName: __ZNSt3__16vectorIN5Eigen6MatrixIfLin1ELi1ELi0ELin1ELi1EEENS_9allocatorIS3_EEEC2B8ue170006Ev, symObjAddr: 0x7624, symBinAddr: 0x100009E0C, symSize: 0x4C }
  - { offsetInCU: 0x91774, offset: 0x91774, size: 0x8, addend: 0x0, symName: __ZNSt3__117__compressed_pairIPN5Eigen6MatrixIfLin1ELi1ELi0ELin1ELi1EEENS_9allocatorIS3_EEEC1B8ue170006IDnNS_18__default_init_tagEEEOT_OT0_, symObjAddr: 0x7670, symBinAddr: 0x100009E58, symSize: 0x3C }
  - { offsetInCU: 0x917CC, offset: 0x917CC, size: 0x8, addend: 0x0, symName: __ZNSt3__117__compressed_pairIPN5Eigen6MatrixIfLin1ELi1ELi0ELin1ELi1EEENS_9allocatorIS3_EEEC2B8ue170006IDnNS_18__default_init_tagEEEOT_OT0_, symObjAddr: 0x76AC, symBinAddr: 0x100009E94, symSize: 0x40 }
  - { offsetInCU: 0x91824, offset: 0x91824, size: 0x8, addend: 0x0, symName: __ZNSt3__122__compressed_pair_elemIPN5Eigen6MatrixIfLin1ELi1ELi0ELin1ELi1EEELi0ELb0EEC2B8ue170006IDnvEEOT_, symObjAddr: 0x76EC, symBinAddr: 0x100009ED4, symSize: 0x1C }
  - { offsetInCU: 0x91866, offset: 0x91866, size: 0x8, addend: 0x0, symName: __ZNSt3__122__compressed_pair_elemINS_9allocatorIN5Eigen6MatrixIfLin1ELi1ELi0ELin1ELi1EEEEELi1ELb1EEC2B8ue170006ENS_18__default_init_tagE, symObjAddr: 0x7708, symBinAddr: 0x100009EF0, symSize: 0x2C }
  - { offsetInCU: 0x9189B, offset: 0x9189B, size: 0x8, addend: 0x0, symName: __ZNSt3__19allocatorIN5Eigen6MatrixIfLin1ELi1ELi0ELin1ELi1EEEEC2B8ue170006Ev, symObjAddr: 0x7734, symBinAddr: 0x100009F1C, symSize: 0x2C }
  - { offsetInCU: 0x918C5, offset: 0x918C5, size: 0x8, addend: 0x0, symName: __ZNSt3__116__non_trivial_ifILb1ENS_9allocatorIN5Eigen6MatrixIfLin1ELi1ELi0ELin1ELi1EEEEEEC2B8ue170006Ev, symObjAddr: 0x7760, symBinAddr: 0x100009F48, symSize: 0x14 }
  - { offsetInCU: 0x918EF, offset: 0x918EF, size: 0x8, addend: 0x0, symName: __ZN4DataD2Ev, symObjAddr: 0x7774, symBinAddr: 0x100009F5C, symSize: 0x50 }
  - { offsetInCU: 0x9191B, offset: 0x9191B, size: 0x8, addend: 0x0, symName: __ZNSt3__16vectorIN5Eigen6MatrixIfLin1ELi1ELi0ELin1ELi1EEENS_9allocatorIS3_EEED1B8ue170006Ev, symObjAddr: 0x77C4, symBinAddr: 0x100009FAC, symSize: 0x2C }
  - { offsetInCU: 0x91945, offset: 0x91945, size: 0x8, addend: 0x0, symName: __ZNSt3__113unordered_mapINS_12basic_stringIcNS_11char_traitsIcEENS_9allocatorIcEEEEN5Eigen6MatrixIfLin1ELi1ELi0ELin1ELi1EEENS_4hashIS6_EENS_8equal_toIS6_EENS4_INS_4pairIKS6_S9_EEEEED1B8ue170006Ev, symObjAddr: 0x77F0, symBinAddr: 0x100009FD8, symSize: 0x2C }
  - { offsetInCU: 0x9196F, offset: 0x9196F, size: 0x8, addend: 0x0, symName: __ZNSt3__16vectorIN5Eigen6MatrixIfLin1ELi1ELi0ELin1ELi1EEENS_9allocatorIS3_EEED2B8ue170006Ev, symObjAddr: 0x781C, symBinAddr: 0x10000A004, symSize: 0x44 }
  - { offsetInCU: 0x91999, offset: 0x91999, size: 0x8, addend: 0x0, symName: __ZNSt3__16vectorIN5Eigen6MatrixIfLin1ELi1ELi0ELin1ELi1EEENS_9allocatorIS3_EEE16__destroy_vectorC1B8ue170006ERS6_, symObjAddr: 0x7860, symBinAddr: 0x10000A048, symSize: 0x34 }
  - { offsetInCU: 0x919D2, offset: 0x919D2, size: 0x8, addend: 0x0, symName: __ZNSt3__16vectorIN5Eigen6MatrixIfLin1ELi1ELi0ELin1ELi1EEENS_9allocatorIS3_EEE16__destroy_vectorclB8ue170006Ev, symObjAddr: 0x7894, symBinAddr: 0x10000A07C, symSize: 0x90 }
  - { offsetInCU: 0x919F8, offset: 0x919F8, size: 0x8, addend: 0x0, symName: __ZNSt3__16vectorIN5Eigen6MatrixIfLin1ELi1ELi0ELin1ELi1EEENS_9allocatorIS3_EEE16__destroy_vectorC2B8ue170006ERS6_, symObjAddr: 0x7924, symBinAddr: 0x10000A10C, symSize: 0x20 }
  - { offsetInCU: 0x91A31, offset: 0x91A31, size: 0x8, addend: 0x0, symName: __ZNSt3__16vectorIN5Eigen6MatrixIfLin1ELi1ELi0ELin1ELi1EEENS_9allocatorIS3_EEE7__clearB8ue170006Ev, symObjAddr: 0x7944, symBinAddr: 0x10000A12C, symSize: 0x28 }
  - { offsetInCU: 0x91A57, offset: 0x91A57, size: 0x8, addend: 0x0, symName: __ZNKSt3__16vectorIN5Eigen6MatrixIfLin1ELi1ELi0ELin1ELi1EEENS_9allocatorIS3_EEE17__annotate_deleteB8ue170006Ev, symObjAddr: 0x796C, symBinAddr: 0x10000A154, symSize: 0xB8 }
  - { offsetInCU: 0x91A7D, offset: 0x91A7D, size: 0x8, addend: 0x0, symName: __ZNSt3__116allocator_traitsINS_9allocatorIN5Eigen6MatrixIfLin1ELi1ELi0ELin1ELi1EEEEEE10deallocateB8ue170006ERS5_PS4_m, symObjAddr: 0x7A24, symBinAddr: 0x10000A20C, symSize: 0x34 }
  - { offsetInCU: 0x91ABF, offset: 0x91ABF, size: 0x8, addend: 0x0, symName: __ZNSt3__16vectorIN5Eigen6MatrixIfLin1ELi1ELi0ELin1ELi1EEENS_9allocatorIS3_EEE7__allocB8ue170006Ev, symObjAddr: 0x7A58, symBinAddr: 0x10000A240, symSize: 0x28 }
  - { offsetInCU: 0x91AE5, offset: 0x91AE5, size: 0x8, addend: 0x0, symName: __ZNKSt3__16vectorIN5Eigen6MatrixIfLin1ELi1ELi0ELin1ELi1EEENS_9allocatorIS3_EEE8capacityB8ue170006Ev, symObjAddr: 0x7A80, symBinAddr: 0x10000A268, symSize: 0x40 }
  - { offsetInCU: 0x91B0B, offset: 0x91B0B, size: 0x8, addend: 0x0, symName: __ZNSt3__16vectorIN5Eigen6MatrixIfLin1ELi1ELi0ELin1ELi1EEENS_9allocatorIS3_EEE22__base_destruct_at_endB8ue170006EPS3_, symObjAddr: 0x7AC0, symBinAddr: 0x10000A2A8, symSize: 0x8C }
  - { offsetInCU: 0x91B4F, offset: 0x91B4F, size: 0x8, addend: 0x0, symName: __ZNSt3__116allocator_traitsINS_9allocatorIN5Eigen6MatrixIfLin1ELi1ELi0ELin1ELi1EEEEEE7destroyB8ue170006IS4_vvEEvRS5_PT_, symObjAddr: 0x7B4C, symBinAddr: 0x10000A334, symSize: 0x28 }
  - { offsetInCU: 0x91B89, offset: 0x91B89, size: 0x8, addend: 0x0, symName: __ZNKSt3__16vectorIN5Eigen6MatrixIfLin1ELi1ELi0ELin1ELi1EEENS_9allocatorIS3_EEE31__annotate_contiguous_containerB8ue170006EPKvS8_S8_S8_, symObjAddr: 0x7BD0, symBinAddr: 0x10000A3B8, symSize: 0x20 }
  - { offsetInCU: 0x91BDB, offset: 0x91BDB, size: 0x8, addend: 0x0, symName: __ZNKSt3__16vectorIN5Eigen6MatrixIfLin1ELi1ELi0ELin1ELi1EEENS_9allocatorIS3_EEE4dataB8ue170006Ev, symObjAddr: 0x7BF0, symBinAddr: 0x10000A3D8, symSize: 0x28 }
  - { offsetInCU: 0x91C01, offset: 0x91C01, size: 0x8, addend: 0x0, symName: __ZNKSt3__16vectorIN5Eigen6MatrixIfLin1ELi1ELi0ELin1ELi1EEENS_9allocatorIS3_EEE4sizeB8ue170006Ev, symObjAddr: 0x7C18, symBinAddr: 0x10000A400, symSize: 0x28 }
  - { offsetInCU: 0x91C27, offset: 0x91C27, size: 0x8, addend: 0x0, symName: __ZNSt3__19allocatorIN5Eigen6MatrixIfLin1ELi1ELi0ELin1ELi1EEEE10deallocateB8ue170006EPS3_m, symObjAddr: 0x7C40, symBinAddr: 0x10000A428, symSize: 0x40 }
  - { offsetInCU: 0x91C69, offset: 0x91C69, size: 0x8, addend: 0x0, symName: __ZNSt3__117__compressed_pairIPN5Eigen6MatrixIfLin1ELi1ELi0ELin1ELi1EEENS_9allocatorIS3_EEE6secondB8ue170006Ev, symObjAddr: 0x7C80, symBinAddr: 0x10000A468, symSize: 0x24 }
  - { offsetInCU: 0x91C8F, offset: 0x91C8F, size: 0x8, addend: 0x0, symName: __ZNSt3__122__compressed_pair_elemINS_9allocatorIN5Eigen6MatrixIfLin1ELi1ELi0ELin1ELi1EEEEELi1ELb1EE5__getB8ue170006Ev, symObjAddr: 0x7CA4, symBinAddr: 0x10000A48C, symSize: 0x14 }
  - { offsetInCU: 0x91CB5, offset: 0x91CB5, size: 0x8, addend: 0x0, symName: __ZNKSt3__16vectorIN5Eigen6MatrixIfLin1ELi1ELi0ELin1ELi1EEENS_9allocatorIS3_EEE9__end_capB8ue170006Ev, symObjAddr: 0x7CB8, symBinAddr: 0x10000A4A0, symSize: 0x28 }
  - { offsetInCU: 0x91CDB, offset: 0x91CDB, size: 0x8, addend: 0x0, symName: __ZNKSt3__117__compressed_pairIPN5Eigen6MatrixIfLin1ELi1ELi0ELin1ELi1EEENS_9allocatorIS3_EEE5firstB8ue170006Ev, symObjAddr: 0x7CE0, symBinAddr: 0x10000A4C8, symSize: 0x24 }
  - { offsetInCU: 0x91D01, offset: 0x91D01, size: 0x8, addend: 0x0, symName: __ZNKSt3__122__compressed_pair_elemIPN5Eigen6MatrixIfLin1ELi1ELi0ELin1ELi1EEELi0ELb0EE5__getB8ue170006Ev, symObjAddr: 0x7D04, symBinAddr: 0x10000A4EC, symSize: 0x14 }
  - { offsetInCU: 0x91D27, offset: 0x91D27, size: 0x8, addend: 0x0, symName: __ZNSt3__113unordered_mapINS_12basic_stringIcNS_11char_traitsIcEENS_9allocatorIcEEEEN5Eigen6MatrixIfLin1ELi1ELi0ELin1ELi1EEENS_4hashIS6_EENS_8equal_toIS6_EENS4_INS_4pairIKS6_S9_EEEEED2B8ue170006Ev, symObjAddr: 0x7D18, symBinAddr: 0x10000A500, symSize: 0x2C }
  - { offsetInCU: 0x91D51, offset: 0x91D51, size: 0x8, addend: 0x0, symName: __ZNSt3__112__hash_tableINS_17__hash_value_typeINS_12basic_stringIcNS_11char_traitsIcEENS_9allocatorIcEEEEN5Eigen6MatrixIfLin1ELi1ELi0ELin1ELi1EEEEENS_22__unordered_map_hasherIS7_SB_NS_4hashIS7_EENS_8equal_toIS7_EELb1EEENS_21__unordered_map_equalIS7_SB_SG_SE_Lb1EEENS5_ISB_EEED1Ev, symObjAddr: 0x7D44, symBinAddr: 0x10000A52C, symSize: 0x2C }
  - { offsetInCU: 0x91D7D, offset: 0x91D7D, size: 0x8, addend: 0x0, symName: __ZNSt3__112__hash_tableINS_17__hash_value_typeINS_12basic_stringIcNS_11char_traitsIcEENS_9allocatorIcEEEEN5Eigen6MatrixIfLin1ELi1ELi0ELin1ELi1EEEEENS_22__unordered_map_hasherIS7_SB_NS_4hashIS7_EENS_8equal_toIS7_EELb1EEENS_21__unordered_map_equalIS7_SB_SG_SE_Lb1EEENS5_ISB_EEED2Ev, symObjAddr: 0x7D70, symBinAddr: 0x10000A558, symSize: 0x48 }
  - { offsetInCU: 0x91DA9, offset: 0x91DA9, size: 0x8, addend: 0x0, symName: __ZNSt3__112__hash_tableINS_17__hash_value_typeINS_12basic_stringIcNS_11char_traitsIcEENS_9allocatorIcEEEEN5Eigen6MatrixIfLin1ELi1ELi0ELin1ELi1EEEEENS_22__unordered_map_hasherIS7_SB_NS_4hashIS7_EENS_8equal_toIS7_EELb1EEENS_21__unordered_map_equalIS7_SB_SG_SE_Lb1EEENS5_ISB_EEE17__deallocate_nodeEPNS_16__hash_node_baseIPNS_11__hash_nodeISB_PvEEEE, symObjAddr: 0x7DB8, symBinAddr: 0x10000A5A0, symSize: 0xA8 }
  - { offsetInCU: 0x91E14, offset: 0x91E14, size: 0x8, addend: 0x0, symName: __ZNSt3__117__compressed_pairINS_16__hash_node_baseIPNS_11__hash_nodeINS_17__hash_value_typeINS_12basic_stringIcNS_11char_traitsIcEENS_9allocatorIcEEEEN5Eigen6MatrixIfLin1ELi1ELi0ELin1ELi1EEEEEPvEEEENS7_ISF_EEE5firstB8ue170006Ev, symObjAddr: 0x7E60, symBinAddr: 0x10000A648, symSize: 0x24 }
  - { offsetInCU: 0x91E3A, offset: 0x91E3A, size: 0x8, addend: 0x0, symName: __ZNSt3__110unique_ptrIA_PNS_16__hash_node_baseIPNS_11__hash_nodeINS_17__hash_value_typeINS_12basic_stringIcNS_11char_traitsIcEENS_9allocatorIcEEEEN5Eigen6MatrixIfLin1ELi1ELi0ELin1ELi1EEEEEPvEEEENS_25__bucket_list_deallocatorINS7_ISI_EEEEED1B8ue170006Ev, symObjAddr: 0x7E84, symBinAddr: 0x10000A66C, symSize: 0x2C }
  - { offsetInCU: 0x91E64, offset: 0x91E64, size: 0x8, addend: 0x0, symName: __ZNSt3__112__hash_tableINS_17__hash_value_typeINS_12basic_stringIcNS_11char_traitsIcEENS_9allocatorIcEEEEN5Eigen6MatrixIfLin1ELi1ELi0ELin1ELi1EEEEENS_22__unordered_map_hasherIS7_SB_NS_4hashIS7_EENS_8equal_toIS7_EELb1EEENS_21__unordered_map_equalIS7_SB_SG_SE_Lb1EEENS5_ISB_EEE12__node_allocB8ue170006Ev, symObjAddr: 0x7EB0, symBinAddr: 0x10000A698, symSize: 0x28 }
  - { offsetInCU: 0x91E8A, offset: 0x91E8A, size: 0x8, addend: 0x0, symName: __ZNSt3__116__hash_node_baseIPNS_11__hash_nodeINS_17__hash_value_typeINS_12basic_stringIcNS_11char_traitsIcEENS_9allocatorIcEEEEN5Eigen6MatrixIfLin1ELi1ELi0ELin1ELi1EEEEEPvEEE8__upcastB8ue170006Ev, symObjAddr: 0x7ED8, symBinAddr: 0x10000A6C0, symSize: 0x24 }
  - { offsetInCU: 0x91EB0, offset: 0x91EB0, size: 0x8, addend: 0x0, symName: __ZNSt3__116allocator_traitsINS_9allocatorINS_11__hash_nodeINS_17__hash_value_typeINS_12basic_stringIcNS_11char_traitsIcEENS1_IcEEEEN5Eigen6MatrixIfLin1ELi1ELi0ELin1ELi1EEEEEPvEEEEE7destroyB8ue170006INS_4pairIKS8_SB_EEvvEEvRSF_PT_, symObjAddr: 0x7EFC, symBinAddr: 0x10000A6E4, symSize: 0x28 }
  - { offsetInCU: 0x91EEA, offset: 0x91EEA, size: 0x8, addend: 0x0, symName: __ZNSt3__122__hash_key_value_typesINS_17__hash_value_typeINS_12basic_stringIcNS_11char_traitsIcEENS_9allocatorIcEEEEN5Eigen6MatrixIfLin1ELi1ELi0ELin1ELi1EEEEEE9__get_ptrB8ue170006ERSB_, symObjAddr: 0x7F24, symBinAddr: 0x10000A70C, symSize: 0x24 }
  - { offsetInCU: 0x91F0D, offset: 0x91F0D, size: 0x8, addend: 0x0, symName: __ZNSt3__116allocator_traitsINS_9allocatorINS_11__hash_nodeINS_17__hash_value_typeINS_12basic_stringIcNS_11char_traitsIcEENS1_IcEEEEN5Eigen6MatrixIfLin1ELi1ELi0ELin1ELi1EEEEEPvEEEEE10deallocateB8ue170006ERSF_PSE_m, symObjAddr: 0x7F48, symBinAddr: 0x10000A730, symSize: 0x34 }
  - { offsetInCU: 0x91F4F, offset: 0x91F4F, size: 0x8, addend: 0x0, symName: __ZNSt3__117__compressed_pairINS_16__hash_node_baseIPNS_11__hash_nodeINS_17__hash_value_typeINS_12basic_stringIcNS_11char_traitsIcEENS_9allocatorIcEEEEN5Eigen6MatrixIfLin1ELi1ELi0ELin1ELi1EEEEEPvEEEENS7_ISF_EEE6secondB8ue170006Ev, symObjAddr: 0x7F7C, symBinAddr: 0x10000A764, symSize: 0x24 }
  - { offsetInCU: 0x91F75, offset: 0x91F75, size: 0x8, addend: 0x0, symName: __ZNSt3__122__compressed_pair_elemINS_9allocatorINS_11__hash_nodeINS_17__hash_value_typeINS_12basic_stringIcNS_11char_traitsIcEENS1_IcEEEEN5Eigen6MatrixIfLin1ELi1ELi0ELin1ELi1EEEEEPvEEEELi1ELb1EE5__getB8ue170006Ev, symObjAddr: 0x7FA0, symBinAddr: 0x10000A788, symSize: 0x14 }
  - { offsetInCU: 0x91F9B, offset: 0x91F9B, size: 0x8, addend: 0x0, symName: __ZNSt3__114pointer_traitsIPNS_16__hash_node_baseIPNS_11__hash_nodeINS_17__hash_value_typeINS_12basic_stringIcNS_11char_traitsIcEENS_9allocatorIcEEEEN5Eigen6MatrixIfLin1ELi1ELi0ELin1ELi1EEEEEPvEEEEE10pointer_toB8ue170006ERSH_, symObjAddr: 0x7FB4, symBinAddr: 0x10000A79C, symSize: 0x14 }
  - { offsetInCU: 0x91FBE, offset: 0x91FBE, size: 0x8, addend: 0x0, symName: __ZNSt3__14pairIKNS_12basic_stringIcNS_11char_traitsIcEENS_9allocatorIcEEEEN5Eigen6MatrixIfLin1ELi1ELi0ELin1ELi1EEEED1Ev, symObjAddr: 0x8010, symBinAddr: 0x10000A7F8, symSize: 0x2C }
  - { offsetInCU: 0x91FEA, offset: 0x91FEA, size: 0x8, addend: 0x0, symName: __ZNSt3__14pairIKNS_12basic_stringIcNS_11char_traitsIcEENS_9allocatorIcEEEEN5Eigen6MatrixIfLin1ELi1ELi0ELin1ELi1EEEED2Ev, symObjAddr: 0x803C, symBinAddr: 0x10000A824, symSize: 0x38 }
  - { offsetInCU: 0x92016, offset: 0x92016, size: 0x8, addend: 0x0, symName: __ZNSt3__117__hash_value_typeINS_12basic_stringIcNS_11char_traitsIcEENS_9allocatorIcEEEEN5Eigen6MatrixIfLin1ELi1ELi0ELin1ELi1EEEE11__get_valueB8ue170006Ev, symObjAddr: 0x8074, symBinAddr: 0x10000A85C, symSize: 0x24 }
  - { offsetInCU: 0x9203C, offset: 0x9203C, size: 0x8, addend: 0x0, symName: __ZNSt3__19allocatorINS_11__hash_nodeINS_17__hash_value_typeINS_12basic_stringIcNS_11char_traitsIcEENS0_IcEEEEN5Eigen6MatrixIfLin1ELi1ELi0ELin1ELi1EEEEEPvEEE10deallocateB8ue170006EPSD_m, symObjAddr: 0x80D0, symBinAddr: 0x10000A8B8, symSize: 0x44 }
  - { offsetInCU: 0x9207E, offset: 0x9207E, size: 0x8, addend: 0x0, symName: __ZNSt3__122__compressed_pair_elemINS_16__hash_node_baseIPNS_11__hash_nodeINS_17__hash_value_typeINS_12basic_stringIcNS_11char_traitsIcEENS_9allocatorIcEEEEN5Eigen6MatrixIfLin1ELi1ELi0ELin1ELi1EEEEEPvEEEELi0ELb0EE5__getB8ue170006Ev, symObjAddr: 0x8114, symBinAddr: 0x10000A8FC, symSize: 0x14 }
  - { offsetInCU: 0x920A4, offset: 0x920A4, size: 0x8, addend: 0x0, symName: __ZNSt3__110unique_ptrIA_PNS_16__hash_node_baseIPNS_11__hash_nodeINS_17__hash_value_typeINS_12basic_stringIcNS_11char_traitsIcEENS_9allocatorIcEEEEN5Eigen6MatrixIfLin1ELi1ELi0ELin1ELi1EEEEEPvEEEENS_25__bucket_list_deallocatorINS7_ISI_EEEEED2B8ue170006Ev, symObjAddr: 0x8128, symBinAddr: 0x10000A910, symSize: 0x30 }
  - { offsetInCU: 0x920CE, offset: 0x920CE, size: 0x8, addend: 0x0, symName: __ZNSt3__110unique_ptrIA_PNS_16__hash_node_baseIPNS_11__hash_nodeINS_17__hash_value_typeINS_12basic_stringIcNS_11char_traitsIcEENS_9allocatorIcEEEEN5Eigen6MatrixIfLin1ELi1ELi0ELin1ELi1EEEEEPvEEEENS_25__bucket_list_deallocatorINS7_ISI_EEEEE5resetB8ue170006EDn, symObjAddr: 0x8158, symBinAddr: 0x10000A940, symSize: 0x6C }
  - { offsetInCU: 0x9210E, offset: 0x9210E, size: 0x8, addend: 0x0, symName: __ZNSt3__117__compressed_pairIPPNS_16__hash_node_baseIPNS_11__hash_nodeINS_17__hash_value_typeINS_12basic_stringIcNS_11char_traitsIcEENS_9allocatorIcEEEEN5Eigen6MatrixIfLin1ELi1ELi0ELin1ELi1EEEEEPvEEEENS_25__bucket_list_deallocatorINS7_ISI_EEEEE5firstB8ue170006Ev, symObjAddr: 0x81C4, symBinAddr: 0x10000A9AC, symSize: 0x24 }
  - { offsetInCU: 0x92134, offset: 0x92134, size: 0x8, addend: 0x0, symName: __ZNSt3__117__compressed_pairIPPNS_16__hash_node_baseIPNS_11__hash_nodeINS_17__hash_value_typeINS_12basic_stringIcNS_11char_traitsIcEENS_9allocatorIcEEEEN5Eigen6MatrixIfLin1ELi1ELi0ELin1ELi1EEEEEPvEEEENS_25__bucket_list_deallocatorINS7_ISI_EEEEE6secondB8ue170006Ev, symObjAddr: 0x81E8, symBinAddr: 0x10000A9D0, symSize: 0x28 }
  - { offsetInCU: 0x9215A, offset: 0x9215A, size: 0x8, addend: 0x0, symName: __ZNSt3__125__bucket_list_deallocatorINS_9allocatorIPNS_16__hash_node_baseIPNS_11__hash_nodeINS_17__hash_value_typeINS_12basic_stringIcNS_11char_traitsIcEENS1_IcEEEEN5Eigen6MatrixIfLin1ELi1ELi0ELin1ELi1EEEEEPvEEEEEEEclB8ue170006EPSI_, symObjAddr: 0x8210, symBinAddr: 0x10000A9F8, symSize: 0x58 }
  - { offsetInCU: 0x9218F, offset: 0x9218F, size: 0x8, addend: 0x0, symName: __ZNSt3__122__compressed_pair_elemIPPNS_16__hash_node_baseIPNS_11__hash_nodeINS_17__hash_value_typeINS_12basic_stringIcNS_11char_traitsIcEENS_9allocatorIcEEEEN5Eigen6MatrixIfLin1ELi1ELi0ELin1ELi1EEEEEPvEEEELi0ELb0EE5__getB8ue170006Ev, symObjAddr: 0x8268, symBinAddr: 0x10000AA50, symSize: 0x14 }
  - { offsetInCU: 0x921B5, offset: 0x921B5, size: 0x8, addend: 0x0, symName: __ZNSt3__122__compressed_pair_elemINS_25__bucket_list_deallocatorINS_9allocatorIPNS_16__hash_node_baseIPNS_11__hash_nodeINS_17__hash_value_typeINS_12basic_stringIcNS_11char_traitsIcEENS2_IcEEEEN5Eigen6MatrixIfLin1ELi1ELi0ELin1ELi1EEEEEPvEEEEEEEELi1ELb0EE5__getB8ue170006Ev, symObjAddr: 0x827C, symBinAddr: 0x10000AA64, symSize: 0x14 }
  - { offsetInCU: 0x921DB, offset: 0x921DB, size: 0x8, addend: 0x0, symName: __ZNSt3__116allocator_traitsINS_9allocatorIPNS_16__hash_node_baseIPNS_11__hash_nodeINS_17__hash_value_typeINS_12basic_stringIcNS_11char_traitsIcEENS1_IcEEEEN5Eigen6MatrixIfLin1ELi1ELi0ELin1ELi1EEEEEPvEEEEEEE10deallocateB8ue170006ERSJ_PSI_m, symObjAddr: 0x8290, symBinAddr: 0x10000AA78, symSize: 0x34 }
  - { offsetInCU: 0x9221D, offset: 0x9221D, size: 0x8, addend: 0x0, symName: __ZNSt3__125__bucket_list_deallocatorINS_9allocatorIPNS_16__hash_node_baseIPNS_11__hash_nodeINS_17__hash_value_typeINS_12basic_stringIcNS_11char_traitsIcEENS1_IcEEEEN5Eigen6MatrixIfLin1ELi1ELi0ELin1ELi1EEEEEPvEEEEEEE7__allocB8ue170006Ev, symObjAddr: 0x82C4, symBinAddr: 0x10000AAAC, symSize: 0x24 }
  - { offsetInCU: 0x92243, offset: 0x92243, size: 0x8, addend: 0x0, symName: __ZNSt3__125__bucket_list_deallocatorINS_9allocatorIPNS_16__hash_node_baseIPNS_11__hash_nodeINS_17__hash_value_typeINS_12basic_stringIcNS_11char_traitsIcEENS1_IcEEEEN5Eigen6MatrixIfLin1ELi1ELi0ELin1ELi1EEEEEPvEEEEEEE4sizeB8ue170006Ev, symObjAddr: 0x82E8, symBinAddr: 0x10000AAD0, symSize: 0x24 }
  - { offsetInCU: 0x92269, offset: 0x92269, size: 0x8, addend: 0x0, symName: __ZNSt3__19allocatorIPNS_16__hash_node_baseIPNS_11__hash_nodeINS_17__hash_value_typeINS_12basic_stringIcNS_11char_traitsIcEENS0_IcEEEEN5Eigen6MatrixIfLin1ELi1ELi0ELin1ELi1EEEEEPvEEEEE10deallocateB8ue170006EPSH_m, symObjAddr: 0x830C, symBinAddr: 0x10000AAF4, symSize: 0x40 }
  - { offsetInCU: 0x922AB, offset: 0x922AB, size: 0x8, addend: 0x0, symName: __ZNSt3__117__compressed_pairImNS_9allocatorIPNS_16__hash_node_baseIPNS_11__hash_nodeINS_17__hash_value_typeINS_12basic_stringIcNS_11char_traitsIcEENS1_IcEEEEN5Eigen6MatrixIfLin1ELi1ELi0ELin1ELi1EEEEEPvEEEEEEE6secondB8ue170006Ev, symObjAddr: 0x834C, symBinAddr: 0x10000AB34, symSize: 0x24 }
  - { offsetInCU: 0x922D1, offset: 0x922D1, size: 0x8, addend: 0x0, symName: __ZNSt3__122__compressed_pair_elemINS_9allocatorIPNS_16__hash_node_baseIPNS_11__hash_nodeINS_17__hash_value_typeINS_12basic_stringIcNS_11char_traitsIcEENS1_IcEEEEN5Eigen6MatrixIfLin1ELi1ELi0ELin1ELi1EEEEEPvEEEEEELi1ELb1EE5__getB8ue170006Ev, symObjAddr: 0x8370, symBinAddr: 0x10000AB58, symSize: 0x14 }
  - { offsetInCU: 0x922F7, offset: 0x922F7, size: 0x8, addend: 0x0, symName: __ZNSt3__117__compressed_pairImNS_9allocatorIPNS_16__hash_node_baseIPNS_11__hash_nodeINS_17__hash_value_typeINS_12basic_stringIcNS_11char_traitsIcEENS1_IcEEEEN5Eigen6MatrixIfLin1ELi1ELi0ELin1ELi1EEEEEPvEEEEEEE5firstB8ue170006Ev, symObjAddr: 0x8384, symBinAddr: 0x10000AB6C, symSize: 0x24 }
  - { offsetInCU: 0x9231D, offset: 0x9231D, size: 0x8, addend: 0x0, symName: __ZNSt3__122__compressed_pair_elemImLi0ELb0EE5__getB8ue170006Ev, symObjAddr: 0x83A8, symBinAddr: 0x10000AB90, symSize: 0x14 }
  - { offsetInCU: 0x92343, offset: 0x92343, size: 0x8, addend: 0x0, symName: __ZNSt3__16vectorINS_6threadENS_9allocatorIS1_EEEC2Em, symObjAddr: 0x83BC, symBinAddr: 0x10000ABA4, symSize: 0xD4 }
  - { offsetInCU: 0x92394, offset: 0x92394, size: 0x8, addend: 0x0, symName: __ZNSt3__117__compressed_pairIPNS_6threadENS_9allocatorIS1_EEEC1B8ue170006IDnNS_18__default_init_tagEEEOT_OT0_, symObjAddr: 0x8490, symBinAddr: 0x10000AC78, symSize: 0x3C }
  - { offsetInCU: 0x923EC, offset: 0x923EC, size: 0x8, addend: 0x0, symName: __ZNSt3__16vectorINS_6threadENS_9allocatorIS1_EEE16__destroy_vectorC1B8ue170006ERS4_, symObjAddr: 0x850C, symBinAddr: 0x10000ACF4, symSize: 0x34 }
  - { offsetInCU: 0x92425, offset: 0x92425, size: 0x8, addend: 0x0, symName: __ZNSt3__16vectorINS_6threadENS_9allocatorIS1_EEE11__vallocateB8ue170006Em, symObjAddr: 0x8540, symBinAddr: 0x10000AD28, symSize: 0xAC }
  - { offsetInCU: 0x92469, offset: 0x92469, size: 0x8, addend: 0x0, symName: __ZNSt3__16vectorINS_6threadENS_9allocatorIS1_EEE18__construct_at_endEm, symObjAddr: 0x85EC, symBinAddr: 0x10000ADD4, symSize: 0xC8 }
  - { offsetInCU: 0x924DB, offset: 0x924DB, size: 0x8, addend: 0x0, symName: __ZNSt3__128__exception_guard_exceptionsINS_6vectorINS_6threadENS_9allocatorIS2_EEE16__destroy_vectorEE10__completeB8ue170006Ev, symObjAddr: 0x86B4, symBinAddr: 0x10000AE9C, symSize: 0x1C }
  - { offsetInCU: 0x92501, offset: 0x92501, size: 0x8, addend: 0x0, symName: __ZNSt3__128__exception_guard_exceptionsINS_6vectorINS_6threadENS_9allocatorIS2_EEE16__destroy_vectorEED1B8ue170006Ev, symObjAddr: 0x86D0, symBinAddr: 0x10000AEB8, symSize: 0x2C }
  - { offsetInCU: 0x9252B, offset: 0x9252B, size: 0x8, addend: 0x0, symName: __ZNSt3__117__compressed_pairIPNS_6threadENS_9allocatorIS1_EEEC2B8ue170006IDnNS_18__default_init_tagEEEOT_OT0_, symObjAddr: 0x86FC, symBinAddr: 0x10000AEE4, symSize: 0x40 }
  - { offsetInCU: 0x92583, offset: 0x92583, size: 0x8, addend: 0x0, symName: __ZNSt3__122__compressed_pair_elemIPNS_6threadELi0ELb0EEC2B8ue170006IDnvEEOT_, symObjAddr: 0x873C, symBinAddr: 0x10000AF24, symSize: 0x1C }
  - { offsetInCU: 0x925C5, offset: 0x925C5, size: 0x8, addend: 0x0, symName: __ZNSt3__122__compressed_pair_elemINS_9allocatorINS_6threadEEELi1ELb1EEC2B8ue170006ENS_18__default_init_tagE, symObjAddr: 0x8758, symBinAddr: 0x10000AF40, symSize: 0x2C }
  - { offsetInCU: 0x925FA, offset: 0x925FA, size: 0x8, addend: 0x0, symName: __ZNSt3__19allocatorINS_6threadEEC2B8ue170006Ev, symObjAddr: 0x8784, symBinAddr: 0x10000AF6C, symSize: 0x2C }
  - { offsetInCU: 0x92624, offset: 0x92624, size: 0x8, addend: 0x0, symName: __ZNSt3__116__non_trivial_ifILb1ENS_9allocatorINS_6threadEEEEC2B8ue170006Ev, symObjAddr: 0x87B0, symBinAddr: 0x10000AF98, symSize: 0x14 }
  - { offsetInCU: 0x9264E, offset: 0x9264E, size: 0x8, addend: 0x0, symName: __ZNSt3__128__exception_guard_exceptionsINS_6vectorINS_6threadENS_9allocatorIS2_EEE16__destroy_vectorEEC1B8ue170006ES6_, symObjAddr: 0x87C4, symBinAddr: 0x10000AFAC, symSize: 0x34 }
  - { offsetInCU: 0x92686, offset: 0x92686, size: 0x8, addend: 0x0, symName: __ZNSt3__128__exception_guard_exceptionsINS_6vectorINS_6threadENS_9allocatorIS2_EEE16__destroy_vectorEEC2B8ue170006ES6_, symObjAddr: 0x87F8, symBinAddr: 0x10000AFE0, symSize: 0x24 }
  - { offsetInCU: 0x926BE, offset: 0x926BE, size: 0x8, addend: 0x0, symName: __ZNSt3__16vectorINS_6threadENS_9allocatorIS1_EEE16__destroy_vectorC2B8ue170006ERS4_, symObjAddr: 0x881C, symBinAddr: 0x10000B004, symSize: 0x20 }
  - { offsetInCU: 0x926F7, offset: 0x926F7, size: 0x8, addend: 0x0, symName: __ZNKSt3__16vectorINS_6threadENS_9allocatorIS1_EEE8max_sizeEv, symObjAddr: 0x883C, symBinAddr: 0x10000B024, symSize: 0x60 }
  - { offsetInCU: 0x9271F, offset: 0x9271F, size: 0x8, addend: 0x0, symName: __ZNKSt3__16vectorINS_6threadENS_9allocatorIS1_EEE20__throw_length_errorB8ue170006Ev, symObjAddr: 0x889C, symBinAddr: 0x10000B084, symSize: 0x1C }
  - { offsetInCU: 0x92745, offset: 0x92745, size: 0x8, addend: 0x0, symName: __ZNSt3__16vectorINS_6threadENS_9allocatorIS1_EEE7__allocB8ue170006Ev, symObjAddr: 0x88F8, symBinAddr: 0x10000B0E0, symSize: 0x28 }
  - { offsetInCU: 0x9276B, offset: 0x9276B, size: 0x8, addend: 0x0, symName: __ZNSt3__16vectorINS_6threadENS_9allocatorIS1_EEE9__end_capB8ue170006Ev, symObjAddr: 0x8920, symBinAddr: 0x10000B108, symSize: 0x28 }
  - { offsetInCU: 0x92791, offset: 0x92791, size: 0x8, addend: 0x0, symName: __ZNKSt3__16vectorINS_6threadENS_9allocatorIS1_EEE14__annotate_newB8ue170006Em, symObjAddr: 0x8948, symBinAddr: 0x10000B130, symSize: 0xAC }
  - { offsetInCU: 0x927D0, offset: 0x927D0, size: 0x8, addend: 0x0, symName: __ZNSt3__116allocator_traitsINS_9allocatorINS_6threadEEEE8max_sizeB8ue170006IS3_vvEEmRKS3_, symObjAddr: 0x8A20, symBinAddr: 0x10000B208, symSize: 0x28 }
  - { offsetInCU: 0x927FB, offset: 0x927FB, size: 0x8, addend: 0x0, symName: __ZNKSt3__16vectorINS_6threadENS_9allocatorIS1_EEE7__allocB8ue170006Ev, symObjAddr: 0x8A48, symBinAddr: 0x10000B230, symSize: 0x28 }
  - { offsetInCU: 0x92821, offset: 0x92821, size: 0x8, addend: 0x0, symName: __ZNSt3__114numeric_limitsIlE3maxB8ue170006Ev, symObjAddr: 0x8A70, symBinAddr: 0x10000B258, symSize: 0x14 }
  - { offsetInCU: 0x9283F, offset: 0x9283F, size: 0x8, addend: 0x0, symName: __ZNKSt3__16__lessIvvEclB8ue170006ImmEEbRKT_RKT0_, symObjAddr: 0x8AD8, symBinAddr: 0x10000B2C0, symSize: 0x34 }
  - { offsetInCU: 0x92893, offset: 0x92893, size: 0x8, addend: 0x0, symName: __ZNSt3__114numeric_limitsImE3maxB8ue170006Ev, symObjAddr: 0x8B0C, symBinAddr: 0x10000B2F4, symSize: 0x14 }
  - { offsetInCU: 0x928A7, offset: 0x928A7, size: 0x8, addend: 0x0, symName: __ZNSt3__123__libcpp_numeric_limitsImLb1EE3maxB8ue170006Ev, symObjAddr: 0x8B20, symBinAddr: 0x10000B308, symSize: 0x8 }
  - { offsetInCU: 0x928BB, offset: 0x928BB, size: 0x8, addend: 0x0, symName: __ZNKSt3__117__compressed_pairIPNS_6threadENS_9allocatorIS1_EEE6secondB8ue170006Ev, symObjAddr: 0x8B28, symBinAddr: 0x10000B310, symSize: 0x24 }
  - { offsetInCU: 0x928E1, offset: 0x928E1, size: 0x8, addend: 0x0, symName: __ZNKSt3__122__compressed_pair_elemINS_9allocatorINS_6threadEEELi1ELb1EE5__getB8ue170006Ev, symObjAddr: 0x8B4C, symBinAddr: 0x10000B334, symSize: 0x14 }
  - { offsetInCU: 0x92907, offset: 0x92907, size: 0x8, addend: 0x0, symName: __ZNSt3__123__libcpp_numeric_limitsIlLb1EE3maxB8ue170006Ev, symObjAddr: 0x8B60, symBinAddr: 0x10000B348, symSize: 0x8 }
  - { offsetInCU: 0x9291B, offset: 0x9291B, size: 0x8, addend: 0x0, symName: __ZNSt12length_errorC1B8ue170006EPKc, symObjAddr: 0x8BCC, symBinAddr: 0x10000B3B4, symSize: 0x34 }
  - { offsetInCU: 0x92953, offset: 0x92953, size: 0x8, addend: 0x0, symName: __ZNSt12length_errorC2B8ue170006EPKc, symObjAddr: 0x8C00, symBinAddr: 0x10000B3E8, symSize: 0x4C }
  - { offsetInCU: 0x9298B, offset: 0x9298B, size: 0x8, addend: 0x0, symName: __ZNSt3__19allocatorINS_6threadEE8allocateB8ue170006Em, symObjAddr: 0x8C4C, symBinAddr: 0x10000B434, symSize: 0x58 }
  - { offsetInCU: 0x929BF, offset: 0x929BF, size: 0x8, addend: 0x0, symName: __ZNSt3__117__compressed_pairIPNS_6threadENS_9allocatorIS1_EEE6secondB8ue170006Ev, symObjAddr: 0x8D88, symBinAddr: 0x10000B570, symSize: 0x24 }
  - { offsetInCU: 0x929E5, offset: 0x929E5, size: 0x8, addend: 0x0, symName: __ZNSt3__122__compressed_pair_elemINS_9allocatorINS_6threadEEELi1ELb1EE5__getB8ue170006Ev, symObjAddr: 0x8DAC, symBinAddr: 0x10000B594, symSize: 0x14 }
  - { offsetInCU: 0x92A0B, offset: 0x92A0B, size: 0x8, addend: 0x0, symName: __ZNSt3__117__compressed_pairIPNS_6threadENS_9allocatorIS1_EEE5firstB8ue170006Ev, symObjAddr: 0x8DC0, symBinAddr: 0x10000B5A8, symSize: 0x24 }
  - { offsetInCU: 0x92A31, offset: 0x92A31, size: 0x8, addend: 0x0, symName: __ZNSt3__122__compressed_pair_elemIPNS_6threadELi0ELb0EE5__getB8ue170006Ev, symObjAddr: 0x8DE4, symBinAddr: 0x10000B5CC, symSize: 0x14 }
  - { offsetInCU: 0x92A57, offset: 0x92A57, size: 0x8, addend: 0x0, symName: __ZNKSt3__16vectorINS_6threadENS_9allocatorIS1_EEE31__annotate_contiguous_containerB8ue170006EPKvS6_S6_S6_, symObjAddr: 0x8DF8, symBinAddr: 0x10000B5E0, symSize: 0x20 }
  - { offsetInCU: 0x92AA9, offset: 0x92AA9, size: 0x8, addend: 0x0, symName: __ZNKSt3__16vectorINS_6threadENS_9allocatorIS1_EEE4dataB8ue170006Ev, symObjAddr: 0x8E18, symBinAddr: 0x10000B600, symSize: 0x28 }
  - { offsetInCU: 0x92ACF, offset: 0x92ACF, size: 0x8, addend: 0x0, symName: __ZNKSt3__16vectorINS_6threadENS_9allocatorIS1_EEE8capacityB8ue170006Ev, symObjAddr: 0x8E40, symBinAddr: 0x10000B628, symSize: 0x40 }
  - { offsetInCU: 0x92AF5, offset: 0x92AF5, size: 0x8, addend: 0x0, symName: __ZNKSt3__16vectorINS_6threadENS_9allocatorIS1_EEE9__end_capB8ue170006Ev, symObjAddr: 0x8E94, symBinAddr: 0x10000B67C, symSize: 0x28 }
  - { offsetInCU: 0x92B1B, offset: 0x92B1B, size: 0x8, addend: 0x0, symName: __ZNKSt3__117__compressed_pairIPNS_6threadENS_9allocatorIS1_EEE5firstB8ue170006Ev, symObjAddr: 0x8EBC, symBinAddr: 0x10000B6A4, symSize: 0x24 }
  - { offsetInCU: 0x92B41, offset: 0x92B41, size: 0x8, addend: 0x0, symName: __ZNKSt3__122__compressed_pair_elemIPNS_6threadELi0ELb0EE5__getB8ue170006Ev, symObjAddr: 0x8EE0, symBinAddr: 0x10000B6C8, symSize: 0x14 }
  - { offsetInCU: 0x92B80, offset: 0x92B80, size: 0x8, addend: 0x0, symName: __ZNSt3__16vectorINS_6threadENS_9allocatorIS1_EEE21_ConstructTransactionC1B8ue170006ERS4_m, symObjAddr: 0x8EF4, symBinAddr: 0x10000B6DC, symSize: 0x3C }
  - { offsetInCU: 0x92BC8, offset: 0x92BC8, size: 0x8, addend: 0x0, symName: __ZNSt3__116allocator_traitsINS_9allocatorINS_6threadEEEE9constructB8ue170006IS2_JEvvEEvRS3_PT_DpOT0_, symObjAddr: 0x8F30, symBinAddr: 0x10000B718, symSize: 0x28 }
  - { offsetInCU: 0x92C07, offset: 0x92C07, size: 0x8, addend: 0x0, symName: __ZNSt3__16vectorINS_6threadENS_9allocatorIS1_EEE21_ConstructTransactionD1B8ue170006Ev, symObjAddr: 0x8F58, symBinAddr: 0x10000B740, symSize: 0x2C }
  - { offsetInCU: 0x92C31, offset: 0x92C31, size: 0x8, addend: 0x0, symName: __ZNSt3__16vectorINS_6threadENS_9allocatorIS1_EEE21_ConstructTransactionC2B8ue170006ERS4_m, symObjAddr: 0x8F84, symBinAddr: 0x10000B76C, symSize: 0x44 }
  - { offsetInCU: 0x92C79, offset: 0x92C79, size: 0x8, addend: 0x0, symName: __ZNSt3__16threadC1B8ue170006Ev, symObjAddr: 0x8FFC, symBinAddr: 0x10000B7E4, symSize: 0x2C }
  - { offsetInCU: 0x92CA3, offset: 0x92CA3, size: 0x8, addend: 0x0, symName: __ZNSt3__16threadC2B8ue170006Ev, symObjAddr: 0x9028, symBinAddr: 0x10000B810, symSize: 0x18 }
  - { offsetInCU: 0x92CCD, offset: 0x92CCD, size: 0x8, addend: 0x0, symName: __ZNSt3__16vectorINS_6threadENS_9allocatorIS1_EEE21_ConstructTransactionD2B8ue170006Ev, symObjAddr: 0x9040, symBinAddr: 0x10000B828, symSize: 0x20 }
  - { offsetInCU: 0x92CF7, offset: 0x92CF7, size: 0x8, addend: 0x0, symName: __ZNSt3__128__exception_guard_exceptionsINS_6vectorINS_6threadENS_9allocatorIS2_EEE16__destroy_vectorEED2B8ue170006Ev, symObjAddr: 0x9060, symBinAddr: 0x10000B848, symSize: 0x50 }
  - { offsetInCU: 0x92D21, offset: 0x92D21, size: 0x8, addend: 0x0, symName: __ZNSt3__16vectorINS_6threadENS_9allocatorIS1_EEE16__destroy_vectorclB8ue170006Ev, symObjAddr: 0x90B0, symBinAddr: 0x10000B898, symSize: 0x90 }
  - { offsetInCU: 0x92D47, offset: 0x92D47, size: 0x8, addend: 0x0, symName: __ZNSt3__16vectorINS_6threadENS_9allocatorIS1_EEE7__clearB8ue170006Ev, symObjAddr: 0x9140, symBinAddr: 0x10000B928, symSize: 0x28 }
  - { offsetInCU: 0x92D6D, offset: 0x92D6D, size: 0x8, addend: 0x0, symName: __ZNKSt3__16vectorINS_6threadENS_9allocatorIS1_EEE17__annotate_deleteB8ue170006Ev, symObjAddr: 0x9168, symBinAddr: 0x10000B950, symSize: 0xB8 }
  - { offsetInCU: 0x92D93, offset: 0x92D93, size: 0x8, addend: 0x0, symName: __ZNSt3__116allocator_traitsINS_9allocatorINS_6threadEEEE10deallocateB8ue170006ERS3_PS2_m, symObjAddr: 0x9220, symBinAddr: 0x10000BA08, symSize: 0x34 }
  - { offsetInCU: 0x92DD5, offset: 0x92DD5, size: 0x8, addend: 0x0, symName: __ZNSt3__16vectorINS_6threadENS_9allocatorIS1_EEE22__base_destruct_at_endB8ue170006EPS1_, symObjAddr: 0x9254, symBinAddr: 0x10000BA3C, symSize: 0x8C }
  - { offsetInCU: 0x92E19, offset: 0x92E19, size: 0x8, addend: 0x0, symName: __ZNSt3__116allocator_traitsINS_9allocatorINS_6threadEEEE7destroyB8ue170006IS2_vvEEvRS3_PT_, symObjAddr: 0x92E0, symBinAddr: 0x10000BAC8, symSize: 0x28 }
  - { offsetInCU: 0x92E53, offset: 0x92E53, size: 0x8, addend: 0x0, symName: __ZNKSt3__16vectorINS_6threadENS_9allocatorIS1_EEE4sizeB8ue170006Ev, symObjAddr: 0x9350, symBinAddr: 0x10000BB38, symSize: 0x28 }
  - { offsetInCU: 0x92E79, offset: 0x92E79, size: 0x8, addend: 0x0, symName: __ZNSt3__19allocatorINS_6threadEE10deallocateB8ue170006EPS1_m, symObjAddr: 0x9378, symBinAddr: 0x10000BB60, symSize: 0x40 }
  - { offsetInCU: 0x92EBB, offset: 0x92EBB, size: 0x8, addend: 0x0, symName: __ZNSt3__15latchC2B8ue170006El, symObjAddr: 0x93B8, symBinAddr: 0x10000BBA0, symSize: 0x34 }
  - { offsetInCU: 0x92EF3, offset: 0x92EF3, size: 0x8, addend: 0x0, symName: __ZNSt3__113__atomic_baseIlLb1EEC1B8ue170006El, symObjAddr: 0x93EC, symBinAddr: 0x10000BBD4, symSize: 0x34 }
  - { offsetInCU: 0x92F2B, offset: 0x92F2B, size: 0x8, addend: 0x0, symName: __ZNSt3__113__atomic_baseIlLb1EEC2B8ue170006El, symObjAddr: 0x9420, symBinAddr: 0x10000BC08, symSize: 0x34 }
  - { offsetInCU: 0x92F63, offset: 0x92F63, size: 0x8, addend: 0x0, symName: __ZNSt3__113__atomic_baseIlLb0EEC2B8ue170006El, symObjAddr: 0x9454, symBinAddr: 0x10000BC3C, symSize: 0x34 }
  - { offsetInCU: 0x92F9B, offset: 0x92F9B, size: 0x8, addend: 0x0, symName: __ZNSt3__117__cxx_atomic_implIlNS_22__cxx_atomic_base_implIlEEEC1B8ue170006El, symObjAddr: 0x9488, symBinAddr: 0x10000BC70, symSize: 0x34 }
  - { offsetInCU: 0x92FD4, offset: 0x92FD4, size: 0x8, addend: 0x0, symName: __ZNSt3__117__cxx_atomic_implIlNS_22__cxx_atomic_base_implIlEEEC2B8ue170006El, symObjAddr: 0x94BC, symBinAddr: 0x10000BCA4, symSize: 0x34 }
  - { offsetInCU: 0x9300D, offset: 0x9300D, size: 0x8, addend: 0x0, symName: __ZNSt3__122__cxx_atomic_base_implIlEC2El, symObjAddr: 0x94F0, symBinAddr: 0x10000BCD8, symSize: 0x20 }
  - { offsetInCU: 0x93046, offset: 0x93046, size: 0x8, addend: 0x0, symName: __ZNSt3__16atomicIfEC2B8ue170006Ef, symObjAddr: 0x9510, symBinAddr: 0x10000BCF8, symSize: 0x34 }
  - { offsetInCU: 0x9307E, offset: 0x9307E, size: 0x8, addend: 0x0, symName: __ZNSt3__113__atomic_baseIfLb0EEC2B8ue170006Ef, symObjAddr: 0x9544, symBinAddr: 0x10000BD2C, symSize: 0x34 }
  - { offsetInCU: 0x930B6, offset: 0x930B6, size: 0x8, addend: 0x0, symName: __ZNSt3__117__cxx_atomic_implIfNS_22__cxx_atomic_base_implIfEEEC1B8ue170006Ef, symObjAddr: 0x9578, symBinAddr: 0x10000BD60, symSize: 0x34 }
  - { offsetInCU: 0x930EF, offset: 0x930EF, size: 0x8, addend: 0x0, symName: __ZNSt3__117__cxx_atomic_implIfNS_22__cxx_atomic_base_implIfEEEC2B8ue170006Ef, symObjAddr: 0x95AC, symBinAddr: 0x10000BD94, symSize: 0x34 }
  - { offsetInCU: 0x93128, offset: 0x93128, size: 0x8, addend: 0x0, symName: __ZNSt3__122__cxx_atomic_base_implIfEC2Ef, symObjAddr: 0x95E0, symBinAddr: 0x10000BDC8, symSize: 0x20 }
  - { offsetInCU: 0x93161, offset: 0x93161, size: 0x8, addend: 0x0, symName: __ZNSt3__16vectorINS_4pairIifEENS_9allocatorIS2_EEEC2B8ue170006Ev, symObjAddr: 0x9600, symBinAddr: 0x10000BDE8, symSize: 0x4C }
  - { offsetInCU: 0x9318B, offset: 0x9318B, size: 0x8, addend: 0x0, symName: __ZNSt3__117__compressed_pairIPNS_4pairIifEENS_9allocatorIS2_EEEC1B8ue170006IDnNS_18__default_init_tagEEEOT_OT0_, symObjAddr: 0x964C, symBinAddr: 0x10000BE34, symSize: 0x3C }
  - { offsetInCU: 0x931E3, offset: 0x931E3, size: 0x8, addend: 0x0, symName: __ZNSt3__117__compressed_pairIPNS_4pairIifEENS_9allocatorIS2_EEEC2B8ue170006IDnNS_18__default_init_tagEEEOT_OT0_, symObjAddr: 0x9688, symBinAddr: 0x10000BE70, symSize: 0x40 }
  - { offsetInCU: 0x9323B, offset: 0x9323B, size: 0x8, addend: 0x0, symName: __ZNSt3__122__compressed_pair_elemIPNS_4pairIifEELi0ELb0EEC2B8ue170006IDnvEEOT_, symObjAddr: 0x96C8, symBinAddr: 0x10000BEB0, symSize: 0x1C }
  - { offsetInCU: 0x9327D, offset: 0x9327D, size: 0x8, addend: 0x0, symName: __ZNSt3__122__compressed_pair_elemINS_9allocatorINS_4pairIifEEEELi1ELb1EEC2B8ue170006ENS_18__default_init_tagE, symObjAddr: 0x96E4, symBinAddr: 0x10000BECC, symSize: 0x2C }
  - { offsetInCU: 0x932B2, offset: 0x932B2, size: 0x8, addend: 0x0, symName: __ZNSt3__19allocatorINS_4pairIifEEEC2B8ue170006Ev, symObjAddr: 0x9710, symBinAddr: 0x10000BEF8, symSize: 0x2C }
  - { offsetInCU: 0x932DC, offset: 0x932DC, size: 0x8, addend: 0x0, symName: __ZNSt3__116__non_trivial_ifILb1ENS_9allocatorINS_4pairIifEEEEEC2B8ue170006Ev, symObjAddr: 0x973C, symBinAddr: 0x10000BF24, symSize: 0x14 }
  - { offsetInCU: 0x93306, offset: 0x93306, size: 0x8, addend: 0x0, symName: __ZNSt3__112basic_stringIcNS_11char_traitsIcEENS_9allocatorIcEEEC2B8ue170006Ev, symObjAddr: 0x9750, symBinAddr: 0x10000BF38, symSize: 0x48 }
  - { offsetInCU: 0x93330, offset: 0x93330, size: 0x8, addend: 0x0, symName: __ZNSt3__117__compressed_pairINS_12basic_stringIcNS_11char_traitsIcEENS_9allocatorIcEEE5__repES5_EC1B8ue170006INS_18__default_init_tagESA_EEOT_OT0_, symObjAddr: 0x9798, symBinAddr: 0x10000BF80, symSize: 0x3C }
  - { offsetInCU: 0x93388, offset: 0x93388, size: 0x8, addend: 0x0, symName: __ZNSt3__112basic_stringIcNS_11char_traitsIcEENS_9allocatorIcEEE14__default_initB8ue170006Ev, symObjAddr: 0x97D4, symBinAddr: 0x10000BFBC, symSize: 0x40 }
  - { offsetInCU: 0x933AE, offset: 0x933AE, size: 0x8, addend: 0x0, symName: __ZNSt3__117__compressed_pairINS_12basic_stringIcNS_11char_traitsIcEENS_9allocatorIcEEE5__repES5_EC2B8ue170006INS_18__default_init_tagESA_EEOT_OT0_, symObjAddr: 0x9814, symBinAddr: 0x10000BFFC, symSize: 0x3C }
  - { offsetInCU: 0x93406, offset: 0x93406, size: 0x8, addend: 0x0, symName: __ZNSt3__122__compressed_pair_elemINS_12basic_stringIcNS_11char_traitsIcEENS_9allocatorIcEEE5__repELi0ELb0EEC2B8ue170006ENS_18__default_init_tagE, symObjAddr: 0x9850, symBinAddr: 0x10000C038, symSize: 0x14 }
  - { offsetInCU: 0x9343B, offset: 0x9343B, size: 0x8, addend: 0x0, symName: __ZNSt3__122__compressed_pair_elemINS_9allocatorIcEELi1ELb1EEC2B8ue170006ENS_18__default_init_tagE, symObjAddr: 0x9864, symBinAddr: 0x10000C04C, symSize: 0x2C }
  - { offsetInCU: 0x93470, offset: 0x93470, size: 0x8, addend: 0x0, symName: __ZNSt3__19allocatorIcEC2B8ue170006Ev, symObjAddr: 0x9890, symBinAddr: 0x10000C078, symSize: 0x2C }
  - { offsetInCU: 0x9349A, offset: 0x9349A, size: 0x8, addend: 0x0, symName: __ZNSt3__116__non_trivial_ifILb1ENS_9allocatorIcEEEC2B8ue170006Ev, symObjAddr: 0x98BC, symBinAddr: 0x10000C0A4, symSize: 0x14 }
  - { offsetInCU: 0x934C4, offset: 0x934C4, size: 0x8, addend: 0x0, symName: __ZNSt3__117__compressed_pairINS_12basic_stringIcNS_11char_traitsIcEENS_9allocatorIcEEE5__repES5_E5firstB8ue170006Ev, symObjAddr: 0x98D0, symBinAddr: 0x10000C0B8, symSize: 0x24 }
  - { offsetInCU: 0x934EA, offset: 0x934EA, size: 0x8, addend: 0x0, symName: __ZNSt3__122__compressed_pair_elemINS_12basic_stringIcNS_11char_traitsIcEENS_9allocatorIcEEE5__repELi0ELb0EE5__getB8ue170006Ev, symObjAddr: 0x98F4, symBinAddr: 0x10000C0DC, symSize: 0x14 }
  - { offsetInCU: 0x93510, offset: 0x93510, size: 0x8, addend: 0x0, symName: __ZNSt3__16vectorINS_4pairIifEENS_9allocatorIS2_EEE11__make_iterB8ue170006EPS2_, symObjAddr: 0x9950, symBinAddr: 0x10000C138, symSize: 0x30 }
  - { offsetInCU: 0x93545, offset: 0x93545, size: 0x8, addend: 0x0, symName: __ZNSt3__111__wrap_iterIPNS_4pairIifEEEC1B8ue170006ES3_, symObjAddr: 0x9980, symBinAddr: 0x10000C168, symSize: 0x34 }
  - { offsetInCU: 0x9357D, offset: 0x9357D, size: 0x8, addend: 0x0, symName: __ZNSt3__111__wrap_iterIPNS_4pairIifEEEC2B8ue170006ES3_, symObjAddr: 0x99B4, symBinAddr: 0x10000C19C, symSize: 0x20 }
  - { offsetInCU: 0x935B5, offset: 0x935B5, size: 0x8, addend: 0x0, symName: __ZNKSt3__111__wrap_iterIPNS_4pairIifEEE4baseB8ue170006Ev, symObjAddr: 0x9A1C, symBinAddr: 0x10000C204, symSize: 0x18 }
  - { offsetInCU: 0x935DB, offset: 0x935DB, size: 0x8, addend: 0x0, symName: __ZNSt3__16vectorIfNS_9allocatorIfEEE9__end_capB8ue170006Ev, symObjAddr: 0x9A34, symBinAddr: 0x10000C21C, symSize: 0x28 }
  - { offsetInCU: 0x93601, offset: 0x93601, size: 0x8, addend: 0x0, symName: __ZNSt3__16vectorIfNS_9allocatorIfEEE22__construct_one_at_endB8ue170006IJRKfEEEvDpOT_, symObjAddr: 0x9A5C, symBinAddr: 0x10000C244, symSize: 0x90 }
  - { offsetInCU: 0x93650, offset: 0x93650, size: 0x8, addend: 0x0, symName: __ZNSt3__16vectorIfNS_9allocatorIfEEE21__push_back_slow_pathIRKfEEvOT_, symObjAddr: 0x9AEC, symBinAddr: 0x10000C2D4, symSize: 0xD8 }
  - { offsetInCU: 0x936AE, offset: 0x936AE, size: 0x8, addend: 0x0, symName: __ZNSt3__117__compressed_pairIPfNS_9allocatorIfEEE5firstB8ue170006Ev, symObjAddr: 0x9BC4, symBinAddr: 0x10000C3AC, symSize: 0x24 }
  - { offsetInCU: 0x936D4, offset: 0x936D4, size: 0x8, addend: 0x0, symName: __ZNSt3__122__compressed_pair_elemIPfLi0ELb0EE5__getB8ue170006Ev, symObjAddr: 0x9BE8, symBinAddr: 0x10000C3D0, symSize: 0x14 }
  - { offsetInCU: 0x93713, offset: 0x93713, size: 0x8, addend: 0x0, symName: __ZNSt3__16vectorIfNS_9allocatorIfEEE21_ConstructTransactionC1B8ue170006ERS3_m, symObjAddr: 0x9BFC, symBinAddr: 0x10000C3E4, symSize: 0x3C }
  - { offsetInCU: 0x9375B, offset: 0x9375B, size: 0x8, addend: 0x0, symName: __ZNSt3__116allocator_traitsINS_9allocatorIfEEE9constructB8ue170006IfJRKfEvvEEvRS2_PT_DpOT0_, symObjAddr: 0x9C38, symBinAddr: 0x10000C420, symSize: 0x30 }
  - { offsetInCU: 0x937AF, offset: 0x937AF, size: 0x8, addend: 0x0, symName: __ZNSt3__16vectorIfNS_9allocatorIfEEE21_ConstructTransactionD1B8ue170006Ev, symObjAddr: 0x9C68, symBinAddr: 0x10000C450, symSize: 0x2C }
  - { offsetInCU: 0x937D9, offset: 0x937D9, size: 0x8, addend: 0x0, symName: __ZNSt3__16vectorIfNS_9allocatorIfEEE21_ConstructTransactionC2B8ue170006ERS3_m, symObjAddr: 0x9C94, symBinAddr: 0x10000C47C, symSize: 0x44 }
  - { offsetInCU: 0x93821, offset: 0x93821, size: 0x8, addend: 0x0, symName: __ZNSt3__16vectorIfNS_9allocatorIfEEE21_ConstructTransactionD2B8ue170006Ev, symObjAddr: 0x9D04, symBinAddr: 0x10000C4EC, symSize: 0x20 }
  - { offsetInCU: 0x9384B, offset: 0x9384B, size: 0x8, addend: 0x0, symName: __ZNKSt3__16vectorIfNS_9allocatorIfEEE11__recommendB8ue170006Em, symObjAddr: 0x9D24, symBinAddr: 0x10000C50C, symSize: 0xB4 }
  - { offsetInCU: 0x938A0, offset: 0x938A0, size: 0x8, addend: 0x0, symName: __ZNSt3__114__split_bufferIfRNS_9allocatorIfEEEC1EmmS3_, symObjAddr: 0x9DD8, symBinAddr: 0x10000C5C0, symSize: 0x44 }
  - { offsetInCU: 0x938F6, offset: 0x938F6, size: 0x8, addend: 0x0, symName: __ZNSt3__114__split_bufferIfRNS_9allocatorIfEEED1Ev, symObjAddr: 0x9F2C, symBinAddr: 0x10000C714, symSize: 0x2C }
  - { offsetInCU: 0x93922, offset: 0x93922, size: 0x8, addend: 0x0, symName: __ZNKSt3__16vectorIfNS_9allocatorIfEEE8max_sizeEv, symObjAddr: 0x9F58, symBinAddr: 0x10000C740, symSize: 0x60 }
  - { offsetInCU: 0x9394A, offset: 0x9394A, size: 0x8, addend: 0x0, symName: __ZNKSt3__16vectorIfNS_9allocatorIfEEE20__throw_length_errorB8ue170006Ev, symObjAddr: 0x9FB8, symBinAddr: 0x10000C7A0, symSize: 0x1C }
  - { offsetInCU: 0x9397A, offset: 0x9397A, size: 0x8, addend: 0x0, symName: __ZNSt3__116allocator_traitsINS_9allocatorIfEEE8max_sizeB8ue170006IS2_vvEEmRKS2_, symObjAddr: 0xA000, symBinAddr: 0x10000C7E8, symSize: 0x28 }
  - { offsetInCU: 0x939A5, offset: 0x939A5, size: 0x8, addend: 0x0, symName: __ZNKSt3__16vectorIfNS_9allocatorIfEEE7__allocB8ue170006Ev, symObjAddr: 0xA028, symBinAddr: 0x10000C810, symSize: 0x28 }
  - { offsetInCU: 0x939CB, offset: 0x939CB, size: 0x8, addend: 0x0, symName: __ZNKSt3__117__compressed_pairIPfNS_9allocatorIfEEE6secondB8ue170006Ev, symObjAddr: 0xA050, symBinAddr: 0x10000C838, symSize: 0x24 }
  - { offsetInCU: 0x939F1, offset: 0x939F1, size: 0x8, addend: 0x0, symName: __ZNKSt3__122__compressed_pair_elemINS_9allocatorIfEELi1ELb1EE5__getB8ue170006Ev, symObjAddr: 0xA074, symBinAddr: 0x10000C85C, symSize: 0x14 }
  - { offsetInCU: 0x93A17, offset: 0x93A17, size: 0x8, addend: 0x0, symName: __ZNSt3__114__split_bufferIfRNS_9allocatorIfEEEC2EmmS3_, symObjAddr: 0xA0DC, symBinAddr: 0x10000C8C4, symSize: 0xD4 }
  - { offsetInCU: 0x93A8A, offset: 0x93A8A, size: 0x8, addend: 0x0, symName: __ZNSt3__117__compressed_pairIPfRNS_9allocatorIfEEEC1B8ue170006IDnS4_EEOT_OT0_, symObjAddr: 0xA1B0, symBinAddr: 0x10000C998, symSize: 0x3C }
  - { offsetInCU: 0x93AE2, offset: 0x93AE2, size: 0x8, addend: 0x0, symName: __ZNSt3__114__split_bufferIfRNS_9allocatorIfEEE7__allocB8ue170006Ev, symObjAddr: 0xA22C, symBinAddr: 0x10000CA14, symSize: 0x28 }
  - { offsetInCU: 0x93B08, offset: 0x93B08, size: 0x8, addend: 0x0, symName: __ZNSt3__114__split_bufferIfRNS_9allocatorIfEEE9__end_capB8ue170006Ev, symObjAddr: 0xA254, symBinAddr: 0x10000CA3C, symSize: 0x28 }
  - { offsetInCU: 0x93B2E, offset: 0x93B2E, size: 0x8, addend: 0x0, symName: __ZNSt3__117__compressed_pairIPfRNS_9allocatorIfEEEC2B8ue170006IDnS4_EEOT_OT0_, symObjAddr: 0xA27C, symBinAddr: 0x10000CA64, symSize: 0x48 }
  - { offsetInCU: 0x93B86, offset: 0x93B86, size: 0x8, addend: 0x0, symName: __ZNSt3__122__compressed_pair_elemIPfLi0ELb0EEC2B8ue170006IDnvEEOT_, symObjAddr: 0xA2C4, symBinAddr: 0x10000CAAC, symSize: 0x1C }
  - { offsetInCU: 0x93BC8, offset: 0x93BC8, size: 0x8, addend: 0x0, symName: __ZNSt3__122__compressed_pair_elemIRNS_9allocatorIfEELi1ELb0EEC2B8ue170006IS3_vEEOT_, symObjAddr: 0xA2E0, symBinAddr: 0x10000CAC8, symSize: 0x20 }
  - { offsetInCU: 0x93C0A, offset: 0x93C0A, size: 0x8, addend: 0x0, symName: __ZNSt3__19allocatorIfE8allocateB8ue170006Em, symObjAddr: 0xA300, symBinAddr: 0x10000CAE8, symSize: 0x58 }
  - { offsetInCU: 0x93C3E, offset: 0x93C3E, size: 0x8, addend: 0x0, symName: __ZNSt3__117__compressed_pairIPfRNS_9allocatorIfEEE6secondB8ue170006Ev, symObjAddr: 0xA358, symBinAddr: 0x10000CB40, symSize: 0x28 }
  - { offsetInCU: 0x93C64, offset: 0x93C64, size: 0x8, addend: 0x0, symName: __ZNSt3__122__compressed_pair_elemIRNS_9allocatorIfEELi1ELb0EE5__getB8ue170006Ev, symObjAddr: 0xA380, symBinAddr: 0x10000CB68, symSize: 0x18 }
  - { offsetInCU: 0x93C8A, offset: 0x93C8A, size: 0x8, addend: 0x0, symName: __ZNSt3__117__compressed_pairIPfRNS_9allocatorIfEEE5firstB8ue170006Ev, symObjAddr: 0xA398, symBinAddr: 0x10000CB80, symSize: 0x24 }
  - { offsetInCU: 0x93CB0, offset: 0x93CB0, size: 0x8, addend: 0x0, symName: __ZNSt3__116reverse_iteratorIPfEC1B8ue170006ES1_, symObjAddr: 0xA434, symBinAddr: 0x10000CC1C, symSize: 0x34 }
  - { offsetInCU: 0x93CE8, offset: 0x93CE8, size: 0x8, addend: 0x0, symName: __ZNKSt3__116reverse_iteratorIPfE4baseB8ue170006Ev, symObjAddr: 0xA468, symBinAddr: 0x10000CC50, symSize: 0x18 }
  - { offsetInCU: 0x93D0E, offset: 0x93D0E, size: 0x8, addend: 0x0, symName: __ZNKSt3__16vectorIfNS_9allocatorIfEEE14__annotate_newB8ue170006Em, symObjAddr: 0xA4BC, symBinAddr: 0x10000CCA4, symSize: 0xAC }
  - { offsetInCU: 0x93D67, offset: 0x93D67, size: 0x8, addend: 0x0, symName: __ZNKSt3__111__move_loopINS_17_ClassicAlgPolicyEEclB8ue170006INS_16reverse_iteratorIPfEES6_S6_EENS_4pairIT_T1_EES8_T0_S9_, symObjAddr: 0xA820, symBinAddr: 0x10000D008, symSize: 0xA0 }
  - { offsetInCU: 0x93DD2, offset: 0x93DD2, size: 0x8, addend: 0x0, symName: __ZNSt3__119__unwrap_range_implINS_16reverse_iteratorIPfEES3_E8__unwrapB8ue170006ES3_S3_, symObjAddr: 0xAA0C, symBinAddr: 0x10000D1F4, symSize: 0x84 }
  - { offsetInCU: 0x93E09, offset: 0x93E09, size: 0x8, addend: 0x0, symName: __ZNSt3__14pairINS_16reverse_iteratorIPfEES3_EC1B8ue170006IS3_S3_LPv0EEEOT_OT0_, symObjAddr: 0xAA90, symBinAddr: 0x10000D278, symSize: 0x3C }
  - { offsetInCU: 0x93E67, offset: 0x93E67, size: 0x8, addend: 0x0, symName: __ZNSt3__14pairINS_16reverse_iteratorIPfEES3_EC2B8ue170006IS3_S3_LPv0EEEOT_OT0_, symObjAddr: 0xAACC, symBinAddr: 0x10000D2B4, symSize: 0x34 }
  - { offsetInCU: 0x93EC5, offset: 0x93EC5, size: 0x8, addend: 0x0, symName: __ZNSt3__18_IterOpsINS_17_ClassicAlgPolicyEE11__iter_moveB8ue170006IRNS_16reverse_iteratorIPfEEEENS_9enable_ifIXsr12is_referenceIDTdeclsr3stdE7declvalIRT_EEEEE5valueEDTclsr3stdE4movedeclsr3stdE7declvalISA_EEEEE4typeEOS9_, symObjAddr: 0xAB48, symBinAddr: 0x10000D330, symSize: 0x28 }
  - { offsetInCU: 0x93EF1, offset: 0x93EF1, size: 0x8, addend: 0x0, symName: __ZNKSt3__116reverse_iteratorIPfEdeB8ue170006Ev, symObjAddr: 0xAB70, symBinAddr: 0x10000D358, symSize: 0x28 }
  - { offsetInCU: 0x93F25, offset: 0x93F25, size: 0x8, addend: 0x0, symName: __ZNSt3__116reverse_iteratorIPfEppB8ue170006Ev, symObjAddr: 0xAB98, symBinAddr: 0x10000D380, symSize: 0x20 }
  - { offsetInCU: 0x93F4B, offset: 0x93F4B, size: 0x8, addend: 0x0, symName: __ZNSt3__18_IterOpsINS_17_ClassicAlgPolicyEE25__validate_iter_referenceB8ue170006IRNS_16reverse_iteratorIPfEEEEvv, symObjAddr: 0xABB8, symBinAddr: 0x10000D3A0, symSize: 0x4 }
  - { offsetInCU: 0x93F69, offset: 0x93F69, size: 0x8, addend: 0x0, symName: __ZNSt3__118__unwrap_iter_implINS_16reverse_iteratorIPfEELb0EE8__unwrapB8ue170006ES3_, symObjAddr: 0xABBC, symBinAddr: 0x10000D3A4, symSize: 0x24 }
  - { offsetInCU: 0x93F8C, offset: 0x93F8C, size: 0x8, addend: 0x0, symName: __ZNSt3__119__unwrap_range_implINS_16reverse_iteratorIPfEES3_E8__rewrapB8ue170006ES3_S3_, symObjAddr: 0xABE0, symBinAddr: 0x10000D3C8, symSize: 0x5C }
  - { offsetInCU: 0x93FBD, offset: 0x93FBD, size: 0x8, addend: 0x0, symName: __ZNSt3__118__unwrap_iter_implINS_16reverse_iteratorIPfEELb0EE8__rewrapB8ue170006ES3_S3_, symObjAddr: 0xAC3C, symBinAddr: 0x10000D424, symSize: 0x2C }
  - { offsetInCU: 0x93FEB, offset: 0x93FEB, size: 0x8, addend: 0x0, symName: __ZNSt3__116reverse_iteratorIPfEC2B8ue170006ES1_, symObjAddr: 0xAC68, symBinAddr: 0x10000D450, symSize: 0x28 }
  - { offsetInCU: 0x94023, offset: 0x94023, size: 0x8, addend: 0x0, symName: __ZNSt3__114__split_bufferIfRNS_9allocatorIfEEED2Ev, symObjAddr: 0xAC90, symBinAddr: 0x10000D478, symSize: 0x8C }
  - { offsetInCU: 0x9404F, offset: 0x9404F, size: 0x8, addend: 0x0, symName: __ZNSt3__114__split_bufferIfRNS_9allocatorIfEEE5clearB8ue170006Ev, symObjAddr: 0xAD1C, symBinAddr: 0x10000D504, symSize: 0x28 }
  - { offsetInCU: 0x94075, offset: 0x94075, size: 0x8, addend: 0x0, symName: __ZNKSt3__114__split_bufferIfRNS_9allocatorIfEEE8capacityB8ue170006Ev, symObjAddr: 0xAD44, symBinAddr: 0x10000D52C, symSize: 0x40 }
  - { offsetInCU: 0x9409B, offset: 0x9409B, size: 0x8, addend: 0x0, symName: __ZNSt3__114__split_bufferIfRNS_9allocatorIfEEE17__destruct_at_endB8ue170006EPf, symObjAddr: 0xAD84, symBinAddr: 0x10000D56C, symSize: 0x2C }
  - { offsetInCU: 0x940CF, offset: 0x940CF, size: 0x8, addend: 0x0, symName: __ZNSt3__114__split_bufferIfRNS_9allocatorIfEEE17__destruct_at_endB8ue170006EPfNS_17integral_constantIbLb0EEE, symObjAddr: 0xADB0, symBinAddr: 0x10000D598, symSize: 0x80 }
  - { offsetInCU: 0x94110, offset: 0x94110, size: 0x8, addend: 0x0, symName: __ZNKSt3__114__split_bufferIfRNS_9allocatorIfEEE9__end_capB8ue170006Ev, symObjAddr: 0xAE30, symBinAddr: 0x10000D618, symSize: 0x28 }
  - { offsetInCU: 0x94136, offset: 0x94136, size: 0x8, addend: 0x0, symName: __ZNKSt3__117__compressed_pairIPfRNS_9allocatorIfEEE5firstB8ue170006Ev, symObjAddr: 0xAE58, symBinAddr: 0x10000D640, symSize: 0x24 }
  - { offsetInCU: 0x9415C, offset: 0x9415C, size: 0x8, addend: 0x0, symName: __ZNSt3__16vectorINS_4pairIifEENS_9allocatorIS2_EEED2B8ue170006Ev, symObjAddr: 0xAE7C, symBinAddr: 0x10000D664, symSize: 0x44 }
  - { offsetInCU: 0x94186, offset: 0x94186, size: 0x8, addend: 0x0, symName: __ZNSt3__16vectorINS_4pairIifEENS_9allocatorIS2_EEE16__destroy_vectorC1B8ue170006ERS5_, symObjAddr: 0xAEC0, symBinAddr: 0x10000D6A8, symSize: 0x34 }
  - { offsetInCU: 0x941BF, offset: 0x941BF, size: 0x8, addend: 0x0, symName: __ZNSt3__16vectorINS_4pairIifEENS_9allocatorIS2_EEE16__destroy_vectorclB8ue170006Ev, symObjAddr: 0xAEF4, symBinAddr: 0x10000D6DC, symSize: 0x90 }
  - { offsetInCU: 0x941E5, offset: 0x941E5, size: 0x8, addend: 0x0, symName: __ZNSt3__16vectorINS_4pairIifEENS_9allocatorIS2_EEE16__destroy_vectorC2B8ue170006ERS5_, symObjAddr: 0xAF84, symBinAddr: 0x10000D76C, symSize: 0x20 }
  - { offsetInCU: 0x9421E, offset: 0x9421E, size: 0x8, addend: 0x0, symName: __ZNSt3__16vectorINS_4pairIifEENS_9allocatorIS2_EEE7__clearB8ue170006Ev, symObjAddr: 0xAFA4, symBinAddr: 0x10000D78C, symSize: 0x28 }
  - { offsetInCU: 0x94244, offset: 0x94244, size: 0x8, addend: 0x0, symName: __ZNKSt3__16vectorINS_4pairIifEENS_9allocatorIS2_EEE17__annotate_deleteB8ue170006Ev, symObjAddr: 0xAFCC, symBinAddr: 0x10000D7B4, symSize: 0xB8 }
  - { offsetInCU: 0x9426A, offset: 0x9426A, size: 0x8, addend: 0x0, symName: __ZNSt3__116allocator_traitsINS_9allocatorINS_4pairIifEEEEE10deallocateB8ue170006ERS4_PS3_m, symObjAddr: 0xB084, symBinAddr: 0x10000D86C, symSize: 0x34 }
  - { offsetInCU: 0x942AC, offset: 0x942AC, size: 0x8, addend: 0x0, symName: __ZNSt3__16vectorINS_4pairIifEENS_9allocatorIS2_EEE7__allocB8ue170006Ev, symObjAddr: 0xB0B8, symBinAddr: 0x10000D8A0, symSize: 0x28 }
  - { offsetInCU: 0x942D2, offset: 0x942D2, size: 0x8, addend: 0x0, symName: __ZNKSt3__16vectorINS_4pairIifEENS_9allocatorIS2_EEE8capacityB8ue170006Ev, symObjAddr: 0xB0E0, symBinAddr: 0x10000D8C8, symSize: 0x40 }
  - { offsetInCU: 0x942F8, offset: 0x942F8, size: 0x8, addend: 0x0, symName: __ZNSt3__16vectorINS_4pairIifEENS_9allocatorIS2_EEE22__base_destruct_at_endB8ue170006EPS2_, symObjAddr: 0xB120, symBinAddr: 0x10000D908, symSize: 0x8C }
  - { offsetInCU: 0x9433C, offset: 0x9433C, size: 0x8, addend: 0x0, symName: __ZNSt3__116allocator_traitsINS_9allocatorINS_4pairIifEEEEE7destroyB8ue170006IS3_vvEEvRS4_PT_, symObjAddr: 0xB1AC, symBinAddr: 0x10000D994, symSize: 0x28 }
  - { offsetInCU: 0x94376, offset: 0x94376, size: 0x8, addend: 0x0, symName: __ZNKSt3__16vectorINS_4pairIifEENS_9allocatorIS2_EEE31__annotate_contiguous_containerB8ue170006EPKvS7_S7_S7_, symObjAddr: 0xB21C, symBinAddr: 0x10000DA04, symSize: 0x20 }
  - { offsetInCU: 0x943C8, offset: 0x943C8, size: 0x8, addend: 0x0, symName: __ZNKSt3__16vectorINS_4pairIifEENS_9allocatorIS2_EEE4dataB8ue170006Ev, symObjAddr: 0xB23C, symBinAddr: 0x10000DA24, symSize: 0x28 }
  - { offsetInCU: 0x943EE, offset: 0x943EE, size: 0x8, addend: 0x0, symName: __ZNKSt3__16vectorINS_4pairIifEENS_9allocatorIS2_EEE4sizeB8ue170006Ev, symObjAddr: 0xB264, symBinAddr: 0x10000DA4C, symSize: 0x28 }
  - { offsetInCU: 0x94414, offset: 0x94414, size: 0x8, addend: 0x0, symName: __ZNSt3__19allocatorINS_4pairIifEEE10deallocateB8ue170006EPS2_m, symObjAddr: 0xB28C, symBinAddr: 0x10000DA74, symSize: 0x40 }
  - { offsetInCU: 0x94456, offset: 0x94456, size: 0x8, addend: 0x0, symName: __ZNSt3__117__compressed_pairIPNS_4pairIifEENS_9allocatorIS2_EEE6secondB8ue170006Ev, symObjAddr: 0xB2CC, symBinAddr: 0x10000DAB4, symSize: 0x24 }
  - { offsetInCU: 0x9447C, offset: 0x9447C, size: 0x8, addend: 0x0, symName: __ZNSt3__122__compressed_pair_elemINS_9allocatorINS_4pairIifEEEELi1ELb1EE5__getB8ue170006Ev, symObjAddr: 0xB2F0, symBinAddr: 0x10000DAD8, symSize: 0x14 }
  - { offsetInCU: 0x944A2, offset: 0x944A2, size: 0x8, addend: 0x0, symName: __ZNKSt3__16vectorINS_4pairIifEENS_9allocatorIS2_EEE9__end_capB8ue170006Ev, symObjAddr: 0xB304, symBinAddr: 0x10000DAEC, symSize: 0x28 }
  - { offsetInCU: 0x944C8, offset: 0x944C8, size: 0x8, addend: 0x0, symName: __ZNKSt3__117__compressed_pairIPNS_4pairIifEENS_9allocatorIS2_EEE5firstB8ue170006Ev, symObjAddr: 0xB32C, symBinAddr: 0x10000DB14, symSize: 0x24 }
  - { offsetInCU: 0x944EE, offset: 0x944EE, size: 0x8, addend: 0x0, symName: __ZNKSt3__122__compressed_pair_elemIPNS_4pairIifEELi0ELb0EE5__getB8ue170006Ev, symObjAddr: 0xB350, symBinAddr: 0x10000DB38, symSize: 0x14 }
  - { offsetInCU: 0x94514, offset: 0x94514, size: 0x8, addend: 0x0, symName: __ZNSt3__16vectorIfNS_9allocatorIfEEE11__make_iterB8ue170006EPf, symObjAddr: 0xB364, symBinAddr: 0x10000DB4C, symSize: 0x30 }
  - { offsetInCU: 0x94549, offset: 0x94549, size: 0x8, addend: 0x0, symName: __ZNSt3__111__wrap_iterIPfEC1B8ue170006ES1_, symObjAddr: 0xB394, symBinAddr: 0x10000DB7C, symSize: 0x34 }
  - { offsetInCU: 0x94581, offset: 0x94581, size: 0x8, addend: 0x0, symName: __ZNSt3__111__wrap_iterIPfEC2B8ue170006ES1_, symObjAddr: 0xB3C8, symBinAddr: 0x10000DBB0, symSize: 0x20 }
  - { offsetInCU: 0x945B9, offset: 0x945B9, size: 0x8, addend: 0x0, symName: __ZNKSt3__111__wrap_iterIPfE4baseB8ue170006Ev, symObjAddr: 0xB430, symBinAddr: 0x10000DC18, symSize: 0x18 }
  - { offsetInCU: 0x945DF, offset: 0x945DF, size: 0x8, addend: 0x0, symName: __ZNSt3__114basic_ofstreamIcNS_11char_traitsIcEEED2Ev, symObjAddr: 0xB448, symBinAddr: 0x10000DC30, symSize: 0x64 }
  - { offsetInCU: 0x94619, offset: 0x94619, size: 0x8, addend: 0x0, symName: __ZTv0_n24_NSt3__114basic_ofstreamIcNS_11char_traitsIcEEED1Ev, symObjAddr: 0xB4AC, symBinAddr: 0x10000DC94, symSize: 0x28 }
  - { offsetInCU: 0x94630, offset: 0x94630, size: 0x8, addend: 0x0, symName: __ZNSt3__16vectorINS_6threadENS_9allocatorIS1_EEED2B8ue170006Ev, symObjAddr: 0xB4D4, symBinAddr: 0x10000DCBC, symSize: 0x40 }
  - { offsetInCU: 0x9465A, offset: 0x9465A, size: 0x8, addend: 0x0, symName: __ZNSt3__16vectorINS_4pairImfEENS_9allocatorIS2_EEEC2B8ue170006Ev, symObjAddr: 0xB514, symBinAddr: 0x10000DCFC, symSize: 0x4C }
  - { offsetInCU: 0x94684, offset: 0x94684, size: 0x8, addend: 0x0, symName: __ZNSt3__117__compressed_pairIPNS_4pairImfEENS_9allocatorIS2_EEEC1B8ue170006IDnNS_18__default_init_tagEEEOT_OT0_, symObjAddr: 0xB560, symBinAddr: 0x10000DD48, symSize: 0x3C }
  - { offsetInCU: 0x946DC, offset: 0x946DC, size: 0x8, addend: 0x0, symName: __ZNSt3__117__compressed_pairIPNS_4pairImfEENS_9allocatorIS2_EEEC2B8ue170006IDnNS_18__default_init_tagEEEOT_OT0_, symObjAddr: 0xB59C, symBinAddr: 0x10000DD84, symSize: 0x40 }
  - { offsetInCU: 0x94734, offset: 0x94734, size: 0x8, addend: 0x0, symName: __ZNSt3__122__compressed_pair_elemIPNS_4pairImfEELi0ELb0EEC2B8ue170006IDnvEEOT_, symObjAddr: 0xB5DC, symBinAddr: 0x10000DDC4, symSize: 0x1C }
  - { offsetInCU: 0x94776, offset: 0x94776, size: 0x8, addend: 0x0, symName: __ZNSt3__122__compressed_pair_elemINS_9allocatorINS_4pairImfEEEELi1ELb1EEC2B8ue170006ENS_18__default_init_tagE, symObjAddr: 0xB5F8, symBinAddr: 0x10000DDE0, symSize: 0x2C }
  - { offsetInCU: 0x947AB, offset: 0x947AB, size: 0x8, addend: 0x0, symName: __ZNSt3__19allocatorINS_4pairImfEEEC2B8ue170006Ev, symObjAddr: 0xB624, symBinAddr: 0x10000DE0C, symSize: 0x2C }
  - { offsetInCU: 0x947D5, offset: 0x947D5, size: 0x8, addend: 0x0, symName: __ZNSt3__116__non_trivial_ifILb1ENS_9allocatorINS_4pairImfEEEEEC2B8ue170006Ev, symObjAddr: 0xB650, symBinAddr: 0x10000DE38, symSize: 0x14 }
  - { offsetInCU: 0x947FF, offset: 0x947FF, size: 0x8, addend: 0x0, symName: __ZNSt3__16vectorINS_4pairImfEENS_9allocatorIS2_EEE11__make_iterB8ue170006EPS2_, symObjAddr: 0xB664, symBinAddr: 0x10000DE4C, symSize: 0x30 }
  - { offsetInCU: 0x94834, offset: 0x94834, size: 0x8, addend: 0x0, symName: __ZNSt3__111__wrap_iterIPNS_4pairImfEEEC1B8ue170006ES3_, symObjAddr: 0xB694, symBinAddr: 0x10000DE7C, symSize: 0x34 }
  - { offsetInCU: 0x9486C, offset: 0x9486C, size: 0x8, addend: 0x0, symName: __ZNSt3__111__wrap_iterIPNS_4pairImfEEEC2B8ue170006ES3_, symObjAddr: 0xB6C8, symBinAddr: 0x10000DEB0, symSize: 0x20 }
  - { offsetInCU: 0x948A4, offset: 0x948A4, size: 0x8, addend: 0x0, symName: __ZNKSt3__111__wrap_iterIPNS_4pairImfEEE4baseB8ue170006Ev, symObjAddr: 0xB730, symBinAddr: 0x10000DF18, symSize: 0x18 }
  - { offsetInCU: 0x948CA, offset: 0x948CA, size: 0x8, addend: 0x0, symName: __ZNSt3__16vectorINS_4pairImfEENS_9allocatorIS2_EEED2B8ue170006Ev, symObjAddr: 0xB748, symBinAddr: 0x10000DF30, symSize: 0x44 }
  - { offsetInCU: 0x948F4, offset: 0x948F4, size: 0x8, addend: 0x0, symName: __ZNSt3__16vectorINS_4pairImfEENS_9allocatorIS2_EEE16__destroy_vectorC1B8ue170006ERS5_, symObjAddr: 0xB78C, symBinAddr: 0x10000DF74, symSize: 0x34 }
  - { offsetInCU: 0x9492D, offset: 0x9492D, size: 0x8, addend: 0x0, symName: __ZNSt3__16vectorINS_4pairImfEENS_9allocatorIS2_EEE16__destroy_vectorclB8ue170006Ev, symObjAddr: 0xB7C0, symBinAddr: 0x10000DFA8, symSize: 0x90 }
  - { offsetInCU: 0x94953, offset: 0x94953, size: 0x8, addend: 0x0, symName: __ZNSt3__16vectorINS_4pairImfEENS_9allocatorIS2_EEE16__destroy_vectorC2B8ue170006ERS5_, symObjAddr: 0xB850, symBinAddr: 0x10000E038, symSize: 0x20 }
  - { offsetInCU: 0x9498C, offset: 0x9498C, size: 0x8, addend: 0x0, symName: __ZNSt3__16vectorINS_4pairImfEENS_9allocatorIS2_EEE7__clearB8ue170006Ev, symObjAddr: 0xB870, symBinAddr: 0x10000E058, symSize: 0x28 }
  - { offsetInCU: 0x949B2, offset: 0x949B2, size: 0x8, addend: 0x0, symName: __ZNKSt3__16vectorINS_4pairImfEENS_9allocatorIS2_EEE17__annotate_deleteB8ue170006Ev, symObjAddr: 0xB898, symBinAddr: 0x10000E080, symSize: 0xB8 }
  - { offsetInCU: 0x949D8, offset: 0x949D8, size: 0x8, addend: 0x0, symName: __ZNSt3__116allocator_traitsINS_9allocatorINS_4pairImfEEEEE10deallocateB8ue170006ERS4_PS3_m, symObjAddr: 0xB950, symBinAddr: 0x10000E138, symSize: 0x34 }
  - { offsetInCU: 0x94A1A, offset: 0x94A1A, size: 0x8, addend: 0x0, symName: __ZNSt3__16vectorINS_4pairImfEENS_9allocatorIS2_EEE7__allocB8ue170006Ev, symObjAddr: 0xB984, symBinAddr: 0x10000E16C, symSize: 0x28 }
  - { offsetInCU: 0x94A40, offset: 0x94A40, size: 0x8, addend: 0x0, symName: __ZNKSt3__16vectorINS_4pairImfEENS_9allocatorIS2_EEE8capacityB8ue170006Ev, symObjAddr: 0xB9AC, symBinAddr: 0x10000E194, symSize: 0x40 }
  - { offsetInCU: 0x94A66, offset: 0x94A66, size: 0x8, addend: 0x0, symName: __ZNSt3__16vectorINS_4pairImfEENS_9allocatorIS2_EEE22__base_destruct_at_endB8ue170006EPS2_, symObjAddr: 0xB9EC, symBinAddr: 0x10000E1D4, symSize: 0x8C }
  - { offsetInCU: 0x94AAA, offset: 0x94AAA, size: 0x8, addend: 0x0, symName: __ZNSt3__116allocator_traitsINS_9allocatorINS_4pairImfEEEEE7destroyB8ue170006IS3_vvEEvRS4_PT_, symObjAddr: 0xBA78, symBinAddr: 0x10000E260, symSize: 0x28 }
  - { offsetInCU: 0x94AE4, offset: 0x94AE4, size: 0x8, addend: 0x0, symName: __ZNKSt3__16vectorINS_4pairImfEENS_9allocatorIS2_EEE31__annotate_contiguous_containerB8ue170006EPKvS7_S7_S7_, symObjAddr: 0xBAE8, symBinAddr: 0x10000E2D0, symSize: 0x20 }
  - { offsetInCU: 0x94B36, offset: 0x94B36, size: 0x8, addend: 0x0, symName: __ZNKSt3__16vectorINS_4pairImfEENS_9allocatorIS2_EEE4dataB8ue170006Ev, symObjAddr: 0xBB08, symBinAddr: 0x10000E2F0, symSize: 0x28 }
  - { offsetInCU: 0x94B5C, offset: 0x94B5C, size: 0x8, addend: 0x0, symName: __ZNKSt3__16vectorINS_4pairImfEENS_9allocatorIS2_EEE4sizeB8ue170006Ev, symObjAddr: 0xBB30, symBinAddr: 0x10000E318, symSize: 0x28 }
  - { offsetInCU: 0x94B82, offset: 0x94B82, size: 0x8, addend: 0x0, symName: __ZNSt3__19allocatorINS_4pairImfEEE10deallocateB8ue170006EPS2_m, symObjAddr: 0xBB58, symBinAddr: 0x10000E340, symSize: 0x40 }
  - { offsetInCU: 0x94BC4, offset: 0x94BC4, size: 0x8, addend: 0x0, symName: __ZNSt3__117__compressed_pairIPNS_4pairImfEENS_9allocatorIS2_EEE6secondB8ue170006Ev, symObjAddr: 0xBB98, symBinAddr: 0x10000E380, symSize: 0x24 }
  - { offsetInCU: 0x94BEA, offset: 0x94BEA, size: 0x8, addend: 0x0, symName: __ZNSt3__122__compressed_pair_elemINS_9allocatorINS_4pairImfEEEELi1ELb1EE5__getB8ue170006Ev, symObjAddr: 0xBBBC, symBinAddr: 0x10000E3A4, symSize: 0x14 }
  - { offsetInCU: 0x94C10, offset: 0x94C10, size: 0x8, addend: 0x0, symName: __ZNKSt3__16vectorINS_4pairImfEENS_9allocatorIS2_EEE9__end_capB8ue170006Ev, symObjAddr: 0xBBD0, symBinAddr: 0x10000E3B8, symSize: 0x28 }
  - { offsetInCU: 0x94C36, offset: 0x94C36, size: 0x8, addend: 0x0, symName: __ZNKSt3__117__compressed_pairIPNS_4pairImfEENS_9allocatorIS2_EEE5firstB8ue170006Ev, symObjAddr: 0xBBF8, symBinAddr: 0x10000E3E0, symSize: 0x24 }
  - { offsetInCU: 0x94C5C, offset: 0x94C5C, size: 0x8, addend: 0x0, symName: __ZNKSt3__122__compressed_pair_elemIPNS_4pairImfEELi0ELb0EE5__getB8ue170006Ev, symObjAddr: 0xBC1C, symBinAddr: 0x10000E404, symSize: 0x14 }
  - { offsetInCU: 0x94C82, offset: 0x94C82, size: 0x8, addend: 0x0, symName: __ZNSt3__112basic_stringIcNS_11char_traitsIcEENS_9allocatorIcEEEC2B8ue170006ILi0EEEPKc, symObjAddr: 0xBC30, symBinAddr: 0x10000E418, symSize: 0x58 }
  - { offsetInCU: 0x94CC1, offset: 0x94CC1, size: 0x8, addend: 0x0, symName: __ZNSt3__111char_traitsIcE6lengthB8ue170006EPKc, symObjAddr: 0xBC88, symBinAddr: 0x10000E470, symSize: 0x34 }
  - { offsetInCU: 0x94CE4, offset: 0x94CE4, size: 0x8, addend: 0x0, symName: __ZNSt3__16vectorIiNS_9allocatorIiEEEC2B8ue170006ESt16initializer_listIiE, symObjAddr: 0xBCE0, symBinAddr: 0x10000E4C8, symSize: 0x120 }
  - { offsetInCU: 0x94D35, offset: 0x94D35, size: 0x8, addend: 0x0, symName: __ZNSt3__117__compressed_pairIPiNS_9allocatorIiEEEC1B8ue170006IDnNS_18__default_init_tagEEEOT_OT0_, symObjAddr: 0xBE00, symBinAddr: 0x10000E5E8, symSize: 0x3C }
  - { offsetInCU: 0x94D8D, offset: 0x94D8D, size: 0x8, addend: 0x0, symName: __ZNSt3__16vectorIiNS_9allocatorIiEEE16__destroy_vectorC1B8ue170006ERS3_, symObjAddr: 0xBE7C, symBinAddr: 0x10000E664, symSize: 0x34 }
  - { offsetInCU: 0x94DC6, offset: 0x94DC6, size: 0x8, addend: 0x0, symName: __ZNKSt16initializer_listIiE4sizeB8ue170006Ev, symObjAddr: 0xBEB0, symBinAddr: 0x10000E698, symSize: 0x18 }
  - { offsetInCU: 0x94DEC, offset: 0x94DEC, size: 0x8, addend: 0x0, symName: __ZNSt3__16vectorIiNS_9allocatorIiEEE11__vallocateB8ue170006Em, symObjAddr: 0xBEC8, symBinAddr: 0x10000E6B0, symSize: 0xAC }
  - { offsetInCU: 0x94E30, offset: 0x94E30, size: 0x8, addend: 0x0, symName: __ZNSt3__16vectorIiNS_9allocatorIiEEE18__construct_at_endIPKiS6_EEvT_T0_m, symObjAddr: 0xBF74, symBinAddr: 0x10000E75C, symSize: 0x8C }
  - { offsetInCU: 0x94EA6, offset: 0x94EA6, size: 0x8, addend: 0x0, symName: __ZNKSt16initializer_listIiE5beginB8ue170006Ev, symObjAddr: 0xC000, symBinAddr: 0x10000E7E8, symSize: 0x18 }
  - { offsetInCU: 0x94ECC, offset: 0x94ECC, size: 0x8, addend: 0x0, symName: __ZNKSt16initializer_listIiE3endB8ue170006Ev, symObjAddr: 0xC018, symBinAddr: 0x10000E800, symSize: 0x20 }
  - { offsetInCU: 0x94EF2, offset: 0x94EF2, size: 0x8, addend: 0x0, symName: __ZNSt3__128__exception_guard_exceptionsINS_6vectorIiNS_9allocatorIiEEE16__destroy_vectorEE10__completeB8ue170006Ev, symObjAddr: 0xC038, symBinAddr: 0x10000E820, symSize: 0x1C }
  - { offsetInCU: 0x94F18, offset: 0x94F18, size: 0x8, addend: 0x0, symName: __ZNSt3__128__exception_guard_exceptionsINS_6vectorIiNS_9allocatorIiEEE16__destroy_vectorEED1B8ue170006Ev, symObjAddr: 0xC054, symBinAddr: 0x10000E83C, symSize: 0x2C }
  - { offsetInCU: 0x94F42, offset: 0x94F42, size: 0x8, addend: 0x0, symName: __ZNSt3__117__compressed_pairIPiNS_9allocatorIiEEEC2B8ue170006IDnNS_18__default_init_tagEEEOT_OT0_, symObjAddr: 0xC080, symBinAddr: 0x10000E868, symSize: 0x40 }
  - { offsetInCU: 0x94F9A, offset: 0x94F9A, size: 0x8, addend: 0x0, symName: __ZNSt3__122__compressed_pair_elemIPiLi0ELb0EEC2B8ue170006IDnvEEOT_, symObjAddr: 0xC0C0, symBinAddr: 0x10000E8A8, symSize: 0x1C }
  - { offsetInCU: 0x94FDC, offset: 0x94FDC, size: 0x8, addend: 0x0, symName: __ZNSt3__122__compressed_pair_elemINS_9allocatorIiEELi1ELb1EEC2B8ue170006ENS_18__default_init_tagE, symObjAddr: 0xC0DC, symBinAddr: 0x10000E8C4, symSize: 0x2C }
  - { offsetInCU: 0x95011, offset: 0x95011, size: 0x8, addend: 0x0, symName: __ZNSt3__19allocatorIiEC2B8ue170006Ev, symObjAddr: 0xC108, symBinAddr: 0x10000E8F0, symSize: 0x2C }
  - { offsetInCU: 0x9503B, offset: 0x9503B, size: 0x8, addend: 0x0, symName: __ZNSt3__116__non_trivial_ifILb1ENS_9allocatorIiEEEC2B8ue170006Ev, symObjAddr: 0xC134, symBinAddr: 0x10000E91C, symSize: 0x14 }
  - { offsetInCU: 0x95065, offset: 0x95065, size: 0x8, addend: 0x0, symName: __ZNSt3__128__exception_guard_exceptionsINS_6vectorIiNS_9allocatorIiEEE16__destroy_vectorEEC1B8ue170006ES5_, symObjAddr: 0xC148, symBinAddr: 0x10000E930, symSize: 0x34 }
  - { offsetInCU: 0x9509D, offset: 0x9509D, size: 0x8, addend: 0x0, symName: __ZNSt3__128__exception_guard_exceptionsINS_6vectorIiNS_9allocatorIiEEE16__destroy_vectorEEC2B8ue170006ES5_, symObjAddr: 0xC17C, symBinAddr: 0x10000E964, symSize: 0x24 }
  - { offsetInCU: 0x950D5, offset: 0x950D5, size: 0x8, addend: 0x0, symName: __ZNSt3__16vectorIiNS_9allocatorIiEEE16__destroy_vectorC2B8ue170006ERS3_, symObjAddr: 0xC1A0, symBinAddr: 0x10000E988, symSize: 0x20 }
  - { offsetInCU: 0x9510E, offset: 0x9510E, size: 0x8, addend: 0x0, symName: __ZNKSt3__16vectorIiNS_9allocatorIiEEE8max_sizeEv, symObjAddr: 0xC1C0, symBinAddr: 0x10000E9A8, symSize: 0x60 }
  - { offsetInCU: 0x95136, offset: 0x95136, size: 0x8, addend: 0x0, symName: __ZNKSt3__16vectorIiNS_9allocatorIiEEE20__throw_length_errorB8ue170006Ev, symObjAddr: 0xC220, symBinAddr: 0x10000EA08, symSize: 0x1C }
  - { offsetInCU: 0x9515C, offset: 0x9515C, size: 0x8, addend: 0x0, symName: __ZNSt3__16vectorIiNS_9allocatorIiEEE7__allocB8ue170006Ev, symObjAddr: 0xC27C, symBinAddr: 0x10000EA64, symSize: 0x28 }
  - { offsetInCU: 0x95182, offset: 0x95182, size: 0x8, addend: 0x0, symName: __ZNSt3__16vectorIiNS_9allocatorIiEEE9__end_capB8ue170006Ev, symObjAddr: 0xC2A4, symBinAddr: 0x10000EA8C, symSize: 0x28 }
  - { offsetInCU: 0x951A8, offset: 0x951A8, size: 0x8, addend: 0x0, symName: __ZNKSt3__16vectorIiNS_9allocatorIiEEE14__annotate_newB8ue170006Em, symObjAddr: 0xC2CC, symBinAddr: 0x10000EAB4, symSize: 0xAC }
  - { offsetInCU: 0x951E7, offset: 0x951E7, size: 0x8, addend: 0x0, symName: __ZNSt3__116allocator_traitsINS_9allocatorIiEEE8max_sizeB8ue170006IS2_vvEEmRKS2_, symObjAddr: 0xC378, symBinAddr: 0x10000EB60, symSize: 0x28 }
  - { offsetInCU: 0x95212, offset: 0x95212, size: 0x8, addend: 0x0, symName: __ZNKSt3__16vectorIiNS_9allocatorIiEEE7__allocB8ue170006Ev, symObjAddr: 0xC3A0, symBinAddr: 0x10000EB88, symSize: 0x28 }
  - { offsetInCU: 0x95238, offset: 0x95238, size: 0x8, addend: 0x0, symName: __ZNKSt3__117__compressed_pairIPiNS_9allocatorIiEEE6secondB8ue170006Ev, symObjAddr: 0xC3C8, symBinAddr: 0x10000EBB0, symSize: 0x24 }
  - { offsetInCU: 0x9525E, offset: 0x9525E, size: 0x8, addend: 0x0, symName: __ZNKSt3__122__compressed_pair_elemINS_9allocatorIiEELi1ELb1EE5__getB8ue170006Ev, symObjAddr: 0xC3EC, symBinAddr: 0x10000EBD4, symSize: 0x14 }
  - { offsetInCU: 0x95284, offset: 0x95284, size: 0x8, addend: 0x0, symName: __ZNSt3__19allocatorIiE8allocateB8ue170006Em, symObjAddr: 0xC400, symBinAddr: 0x10000EBE8, symSize: 0x58 }
  - { offsetInCU: 0x952B8, offset: 0x952B8, size: 0x8, addend: 0x0, symName: __ZNSt3__117__compressed_pairIPiNS_9allocatorIiEEE6secondB8ue170006Ev, symObjAddr: 0xC458, symBinAddr: 0x10000EC40, symSize: 0x24 }
  - { offsetInCU: 0x952DE, offset: 0x952DE, size: 0x8, addend: 0x0, symName: __ZNSt3__122__compressed_pair_elemINS_9allocatorIiEELi1ELb1EE5__getB8ue170006Ev, symObjAddr: 0xC47C, symBinAddr: 0x10000EC64, symSize: 0x14 }
  - { offsetInCU: 0x95304, offset: 0x95304, size: 0x8, addend: 0x0, symName: __ZNSt3__117__compressed_pairIPiNS_9allocatorIiEEE5firstB8ue170006Ev, symObjAddr: 0xC490, symBinAddr: 0x10000EC78, symSize: 0x24 }
  - { offsetInCU: 0x9532A, offset: 0x9532A, size: 0x8, addend: 0x0, symName: __ZNSt3__122__compressed_pair_elemIPiLi0ELb0EE5__getB8ue170006Ev, symObjAddr: 0xC4B4, symBinAddr: 0x10000EC9C, symSize: 0x14 }
  - { offsetInCU: 0x95350, offset: 0x95350, size: 0x8, addend: 0x0, symName: __ZNKSt3__16vectorIiNS_9allocatorIiEEE31__annotate_contiguous_containerB8ue170006EPKvS5_S5_S5_, symObjAddr: 0xC4C8, symBinAddr: 0x10000ECB0, symSize: 0x20 }
  - { offsetInCU: 0x953A2, offset: 0x953A2, size: 0x8, addend: 0x0, symName: __ZNKSt3__16vectorIiNS_9allocatorIiEEE4dataB8ue170006Ev, symObjAddr: 0xC4E8, symBinAddr: 0x10000ECD0, symSize: 0x28 }
  - { offsetInCU: 0x953C8, offset: 0x953C8, size: 0x8, addend: 0x0, symName: __ZNKSt3__16vectorIiNS_9allocatorIiEEE8capacityB8ue170006Ev, symObjAddr: 0xC510, symBinAddr: 0x10000ECF8, symSize: 0x40 }
  - { offsetInCU: 0x953EE, offset: 0x953EE, size: 0x8, addend: 0x0, symName: __ZNKSt3__16vectorIiNS_9allocatorIiEEE9__end_capB8ue170006Ev, symObjAddr: 0xC564, symBinAddr: 0x10000ED4C, symSize: 0x28 }
  - { offsetInCU: 0x95414, offset: 0x95414, size: 0x8, addend: 0x0, symName: __ZNKSt3__117__compressed_pairIPiNS_9allocatorIiEEE5firstB8ue170006Ev, symObjAddr: 0xC58C, symBinAddr: 0x10000ED74, symSize: 0x24 }
  - { offsetInCU: 0x9543A, offset: 0x9543A, size: 0x8, addend: 0x0, symName: __ZNKSt3__122__compressed_pair_elemIPiLi0ELb0EE5__getB8ue170006Ev, symObjAddr: 0xC5B0, symBinAddr: 0x10000ED98, symSize: 0x14 }
  - { offsetInCU: 0x95479, offset: 0x95479, size: 0x8, addend: 0x0, symName: __ZNSt3__16vectorIiNS_9allocatorIiEEE21_ConstructTransactionC1B8ue170006ERS3_m, symObjAddr: 0xC5C4, symBinAddr: 0x10000EDAC, symSize: 0x3C }
  - { offsetInCU: 0x954C1, offset: 0x954C1, size: 0x8, addend: 0x0, symName: __ZNSt3__16vectorIiNS_9allocatorIiEEE21_ConstructTransactionD1B8ue170006Ev, symObjAddr: 0xC680, symBinAddr: 0x10000EE68, symSize: 0x2C }
  - { offsetInCU: 0x954EB, offset: 0x954EB, size: 0x8, addend: 0x0, symName: __ZNSt3__16vectorIiNS_9allocatorIiEEE21_ConstructTransactionC2B8ue170006ERS3_m, symObjAddr: 0xC6AC, symBinAddr: 0x10000EE94, symSize: 0x44 }
  - { offsetInCU: 0x9554D, offset: 0x9554D, size: 0x8, addend: 0x0, symName: __ZNSt3__119__unwrap_range_implIPKiS2_E8__unwrapB8ue170006ES2_S2_, symObjAddr: 0xC7C4, symBinAddr: 0x10000EFAC, symSize: 0x58 }
  - { offsetInCU: 0x95584, offset: 0x95584, size: 0x8, addend: 0x0, symName: __ZNSt3__14pairIPKiS2_EC1B8ue170006IS2_S2_LPv0EEEOT_OT0_, symObjAddr: 0xC840, symBinAddr: 0x10000F028, symSize: 0x3C }
  - { offsetInCU: 0x955E2, offset: 0x955E2, size: 0x8, addend: 0x0, symName: __ZNSt3__118__unwrap_iter_implIPKiLb1EE8__unwrapB8ue170006ES2_, symObjAddr: 0xC87C, symBinAddr: 0x10000F064, symSize: 0x24 }
  - { offsetInCU: 0x95605, offset: 0x95605, size: 0x8, addend: 0x0, symName: __ZNSt3__14pairIPKiS2_EC2B8ue170006IS2_S2_LPv0EEEOT_OT0_, symObjAddr: 0xC8B4, symBinAddr: 0x10000F09C, symSize: 0x34 }
  - { offsetInCU: 0x95687, offset: 0x95687, size: 0x8, addend: 0x0, symName: __ZNKSt3__114__copy_trivialclB8ue170006IKiiLi0EEENS_4pairIPT_PT0_EES5_S5_S7_, symObjAddr: 0xCA64, symBinAddr: 0x10000F24C, symSize: 0x48 }
  - { offsetInCU: 0x956FA, offset: 0x956FA, size: 0x8, addend: 0x0, symName: __ZNSt3__14pairIPKiPiEC1B8ue170006IRS2_S3_LPv0EEEOT_OT0_, symObjAddr: 0xCC2C, symBinAddr: 0x10000F414, symSize: 0x3C }
  - { offsetInCU: 0x95758, offset: 0x95758, size: 0x8, addend: 0x0, symName: __ZNSt3__14pairIPKiPiEC2B8ue170006IRS2_S3_LPv0EEEOT_OT0_, symObjAddr: 0xCC68, symBinAddr: 0x10000F450, symSize: 0x34 }
  - { offsetInCU: 0x957B6, offset: 0x957B6, size: 0x8, addend: 0x0, symName: __ZNSt3__14pairIPKiPiEC1B8ue170006IS2_S3_LPv0EEEOT_OT0_, symObjAddr: 0xCC9C, symBinAddr: 0x10000F484, symSize: 0x3C }
  - { offsetInCU: 0x95814, offset: 0x95814, size: 0x8, addend: 0x0, symName: __ZNSt3__14pairIPKiPiEC2B8ue170006IS2_S3_LPv0EEEOT_OT0_, symObjAddr: 0xCCD8, symBinAddr: 0x10000F4C0, symSize: 0x34 }
  - { offsetInCU: 0x95872, offset: 0x95872, size: 0x8, addend: 0x0, symName: __ZNSt3__119__unwrap_range_implIPKiS2_E8__rewrapB8ue170006ES2_S2_, symObjAddr: 0xCD0C, symBinAddr: 0x10000F4F4, symSize: 0x2C }
  - { offsetInCU: 0x958A3, offset: 0x958A3, size: 0x8, addend: 0x0, symName: __ZNSt3__118__unwrap_iter_implIPKiLb1EE8__rewrapB8ue170006ES2_S2_, symObjAddr: 0xCD74, symBinAddr: 0x10000F55C, symSize: 0x50 }
  - { offsetInCU: 0x958D4, offset: 0x958D4, size: 0x8, addend: 0x0, symName: __ZNSt3__118__unwrap_iter_implIPiLb1EE8__unwrapB8ue170006ES1_, symObjAddr: 0xCDC4, symBinAddr: 0x10000F5AC, symSize: 0x24 }
  - { offsetInCU: 0x958F7, offset: 0x958F7, size: 0x8, addend: 0x0, symName: __ZNSt3__118__unwrap_iter_implIPiLb1EE8__rewrapB8ue170006ES1_S1_, symObjAddr: 0xCDE8, symBinAddr: 0x10000F5D0, symSize: 0x50 }
  - { offsetInCU: 0x95928, offset: 0x95928, size: 0x8, addend: 0x0, symName: __ZNSt3__16vectorIiNS_9allocatorIiEEE21_ConstructTransactionD2B8ue170006Ev, symObjAddr: 0xCE38, symBinAddr: 0x10000F620, symSize: 0x20 }
  - { offsetInCU: 0x95952, offset: 0x95952, size: 0x8, addend: 0x0, symName: __ZNSt3__128__exception_guard_exceptionsINS_6vectorIiNS_9allocatorIiEEE16__destroy_vectorEED2B8ue170006Ev, symObjAddr: 0xCE58, symBinAddr: 0x10000F640, symSize: 0x50 }
  - { offsetInCU: 0x9597C, offset: 0x9597C, size: 0x8, addend: 0x0, symName: __ZNSt3__16vectorIiNS_9allocatorIiEEE16__destroy_vectorclB8ue170006Ev, symObjAddr: 0xCEA8, symBinAddr: 0x10000F690, symSize: 0x90 }
  - { offsetInCU: 0x959A2, offset: 0x959A2, size: 0x8, addend: 0x0, symName: __ZNSt3__16vectorIiNS_9allocatorIiEEE7__clearB8ue170006Ev, symObjAddr: 0xCF38, symBinAddr: 0x10000F720, symSize: 0x28 }
  - { offsetInCU: 0x959C8, offset: 0x959C8, size: 0x8, addend: 0x0, symName: __ZNKSt3__16vectorIiNS_9allocatorIiEEE17__annotate_deleteB8ue170006Ev, symObjAddr: 0xCF60, symBinAddr: 0x10000F748, symSize: 0xB8 }
  - { offsetInCU: 0x959EE, offset: 0x959EE, size: 0x8, addend: 0x0, symName: __ZNSt3__116allocator_traitsINS_9allocatorIiEEE10deallocateB8ue170006ERS2_Pim, symObjAddr: 0xD018, symBinAddr: 0x10000F800, symSize: 0x34 }
  - { offsetInCU: 0x95A30, offset: 0x95A30, size: 0x8, addend: 0x0, symName: __ZNSt3__16vectorIiNS_9allocatorIiEEE22__base_destruct_at_endB8ue170006EPi, symObjAddr: 0xD04C, symBinAddr: 0x10000F834, symSize: 0x8C }
  - { offsetInCU: 0x95A74, offset: 0x95A74, size: 0x8, addend: 0x0, symName: __ZNSt3__116allocator_traitsINS_9allocatorIiEEE7destroyB8ue170006IivvEEvRS2_PT_, symObjAddr: 0xD0D8, symBinAddr: 0x10000F8C0, symSize: 0x28 }
  - { offsetInCU: 0x95AAE, offset: 0x95AAE, size: 0x8, addend: 0x0, symName: __ZNKSt3__16vectorIiNS_9allocatorIiEEE4sizeB8ue170006Ev, symObjAddr: 0xD134, symBinAddr: 0x10000F91C, symSize: 0x28 }
  - { offsetInCU: 0x95AD4, offset: 0x95AD4, size: 0x8, addend: 0x0, symName: __ZNSt3__19allocatorIiE10deallocateB8ue170006EPim, symObjAddr: 0xD15C, symBinAddr: 0x10000F944, symSize: 0x40 }
  - { offsetInCU: 0x95B16, offset: 0x95B16, size: 0x8, addend: 0x0, symName: __ZNSt3__16vectorIiNS_9allocatorIiEEED2B8ue170006Ev, symObjAddr: 0xD19C, symBinAddr: 0x10000F984, symSize: 0x40 }
  - { offsetInCU: 0x95B40, offset: 0x95B40, size: 0x8, addend: 0x0, symName: __ZN5Eigen8symbolic10SymbolExprINS_8internal17symbolic_last_tagEEC2Ev, symObjAddr: 0xD1DC, symBinAddr: 0x10000F9C4, symSize: 0x14 }
  - { offsetInCU: 0x95B6A, offset: 0x95B6A, size: 0x8, addend: 0x0, symName: __ZN5Eigen8internal8FixedIntILi1EEC2Ev, symObjAddr: 0xD1F0, symBinAddr: 0x10000F9D8, symSize: 0x14 }
  - { offsetInCU: 0x95B94, offset: 0x95B94, size: 0x8, addend: 0x0, symName: __ZNK5Eigen8symbolic8BaseExprINS0_10SymbolExprINS_8internal17symbolic_last_tagEEEE7derivedEv, symObjAddr: 0xD204, symBinAddr: 0x10000F9EC, symSize: 0x14 }
  - { offsetInCU: 0x95BBA, offset: 0x95BBA, size: 0x8, addend: 0x0, symName: __ZN5Eigen8symbolic9ValueExprINS_8internal8FixedIntILi1EEEEC1Ev, symObjAddr: 0xD218, symBinAddr: 0x10000FA00, symSize: 0x2C }
  - { offsetInCU: 0x95BE4, offset: 0x95BE4, size: 0x8, addend: 0x0, symName: __ZN5Eigen8symbolic7AddExprINS0_10SymbolExprINS_8internal17symbolic_last_tagEEENS0_9ValueExprINS3_8FixedIntILi1EEEEEEC1ERKS5_RKS9_, symObjAddr: 0xD244, symBinAddr: 0x10000FA2C, symSize: 0x3C }
  - { offsetInCU: 0x95C2A, offset: 0x95C2A, size: 0x8, addend: 0x0, symName: __ZN5Eigen8symbolic9ValueExprINS_8internal8FixedIntILi1EEEEC2Ev, symObjAddr: 0xD280, symBinAddr: 0x10000FA68, symSize: 0x14 }
  - { offsetInCU: 0x95C54, offset: 0x95C54, size: 0x8, addend: 0x0, symName: __ZN5Eigen8symbolic7AddExprINS0_10SymbolExprINS_8internal17symbolic_last_tagEEENS0_9ValueExprINS3_8FixedIntILi1EEEEEEC2ERKS5_RKS9_, symObjAddr: 0xD294, symBinAddr: 0x10000FA7C, symSize: 0x1C }
  - { offsetInCU: 0x95C9A, offset: 0x95C9A, size: 0x8, addend: 0x0, symName: __ZNSt3__113unordered_mapIfNS_12basic_stringIcNS_11char_traitsIcEENS_9allocatorIcEEEENS_4hashIfEENS_8equal_toIfEENS4_INS_4pairIKfS6_EEEEEC2B8ue170006Ev, symObjAddr: 0xD2B0, symBinAddr: 0x10000FA98, symSize: 0x2C }
  - { offsetInCU: 0x95CC4, offset: 0x95CC4, size: 0x8, addend: 0x0, symName: __ZNSt3__112__hash_tableINS_17__hash_value_typeIfNS_12basic_stringIcNS_11char_traitsIcEENS_9allocatorIcEEEEEENS_22__unordered_map_hasherIfS8_NS_4hashIfEENS_8equal_toIfEELb1EEENS_21__unordered_map_equalIfS8_SD_SB_Lb1EEENS5_IS8_EEEC1Ev, symObjAddr: 0xD2DC, symBinAddr: 0x10000FAC4, symSize: 0x2C }
  - { offsetInCU: 0x95CF0, offset: 0x95CF0, size: 0x8, addend: 0x0, symName: __ZNSt3__112__hash_tableINS_17__hash_value_typeIfNS_12basic_stringIcNS_11char_traitsIcEENS_9allocatorIcEEEEEENS_22__unordered_map_hasherIfS8_NS_4hashIfEENS_8equal_toIfEELb1EEENS_21__unordered_map_equalIfS8_SD_SB_Lb1EEENS5_IS8_EEEC2Ev, symObjAddr: 0xD308, symBinAddr: 0x10000FAF0, symSize: 0x7C }
  - { offsetInCU: 0x95D1C, offset: 0x95D1C, size: 0x8, addend: 0x0, symName: __ZNSt3__110unique_ptrIA_PNS_16__hash_node_baseIPNS_11__hash_nodeINS_17__hash_value_typeIfNS_12basic_stringIcNS_11char_traitsIcEENS_9allocatorIcEEEEEEPvEEEENS_25__bucket_list_deallocatorINS7_ISF_EEEEEC1B8ue170006ILb1EvEEv, symObjAddr: 0xD384, symBinAddr: 0x10000FB6C, symSize: 0x2C }
  - { offsetInCU: 0x95D51, offset: 0x95D51, size: 0x8, addend: 0x0, symName: __ZNSt3__117__compressed_pairINS_16__hash_node_baseIPNS_11__hash_nodeINS_17__hash_value_typeIfNS_12basic_stringIcNS_11char_traitsIcEENS_9allocatorIcEEEEEEPvEEEENS7_ISC_EEEC1B8ue170006ILb1EvEEv, symObjAddr: 0xD3B0, symBinAddr: 0x10000FB98, symSize: 0x2C }
  - { offsetInCU: 0x95D86, offset: 0x95D86, size: 0x8, addend: 0x0, symName: __ZNSt3__117__compressed_pairImNS_22__unordered_map_hasherIfNS_17__hash_value_typeIfNS_12basic_stringIcNS_11char_traitsIcEENS_9allocatorIcEEEEEENS_4hashIfEENS_8equal_toIfEELb1EEEEC1B8ue170006IiNS_18__default_init_tagEEEOT_OT0_, symObjAddr: 0xD3DC, symBinAddr: 0x10000FBC4, symSize: 0x3C }
  - { offsetInCU: 0x95DDE, offset: 0x95DDE, size: 0x8, addend: 0x0, symName: __ZNSt3__117__compressed_pairIfNS_21__unordered_map_equalIfNS_17__hash_value_typeIfNS_12basic_stringIcNS_11char_traitsIcEENS_9allocatorIcEEEEEENS_8equal_toIfEENS_4hashIfEELb1EEEEC1B8ue170006IfNS_18__default_init_tagEEEOT_OT0_, symObjAddr: 0xD418, symBinAddr: 0x10000FC00, symSize: 0x3C }
  - { offsetInCU: 0x95E36, offset: 0x95E36, size: 0x8, addend: 0x0, symName: __ZNSt3__110unique_ptrIA_PNS_16__hash_node_baseIPNS_11__hash_nodeINS_17__hash_value_typeIfNS_12basic_stringIcNS_11char_traitsIcEENS_9allocatorIcEEEEEEPvEEEENS_25__bucket_list_deallocatorINS7_ISF_EEEEEC2B8ue170006ILb1EvEEv, symObjAddr: 0xD454, symBinAddr: 0x10000FC3C, symSize: 0x3C }
  - { offsetInCU: 0x95E6B, offset: 0x95E6B, size: 0x8, addend: 0x0, symName: __ZNSt3__117__compressed_pairIPPNS_16__hash_node_baseIPNS_11__hash_nodeINS_17__hash_value_typeIfNS_12basic_stringIcNS_11char_traitsIcEENS_9allocatorIcEEEEEEPvEEEENS_25__bucket_list_deallocatorINS7_ISF_EEEEEC1B8ue170006INS_16__value_init_tagESM_EEOT_OT0_, symObjAddr: 0xD490, symBinAddr: 0x10000FC78, symSize: 0x3C }
  - { offsetInCU: 0x95EC3, offset: 0x95EC3, size: 0x8, addend: 0x0, symName: __ZNSt3__117__compressed_pairIPPNS_16__hash_node_baseIPNS_11__hash_nodeINS_17__hash_value_typeIfNS_12basic_stringIcNS_11char_traitsIcEENS_9allocatorIcEEEEEEPvEEEENS_25__bucket_list_deallocatorINS7_ISF_EEEEEC2B8ue170006INS_16__value_init_tagESM_EEOT_OT0_, symObjAddr: 0xD4CC, symBinAddr: 0x10000FCB4, symSize: 0x40 }
  - { offsetInCU: 0x95F1B, offset: 0x95F1B, size: 0x8, addend: 0x0, symName: __ZNSt3__122__compressed_pair_elemIPPNS_16__hash_node_baseIPNS_11__hash_nodeINS_17__hash_value_typeIfNS_12basic_stringIcNS_11char_traitsIcEENS_9allocatorIcEEEEEEPvEEEELi0ELb0EEC2B8ue170006ENS_16__value_init_tagE, symObjAddr: 0xD50C, symBinAddr: 0x10000FCF4, symSize: 0x18 }
  - { offsetInCU: 0x95F50, offset: 0x95F50, size: 0x8, addend: 0x0, symName: __ZNSt3__122__compressed_pair_elemINS_25__bucket_list_deallocatorINS_9allocatorIPNS_16__hash_node_baseIPNS_11__hash_nodeINS_17__hash_value_typeIfNS_12basic_stringIcNS_11char_traitsIcEENS2_IcEEEEEEPvEEEEEEEELi1ELb0EEC2B8ue170006ENS_16__value_init_tagE, symObjAddr: 0xD524, symBinAddr: 0x10000FD0C, symSize: 0x2C }
  - { offsetInCU: 0x95F85, offset: 0x95F85, size: 0x8, addend: 0x0, symName: __ZNSt3__125__bucket_list_deallocatorINS_9allocatorIPNS_16__hash_node_baseIPNS_11__hash_nodeINS_17__hash_value_typeIfNS_12basic_stringIcNS_11char_traitsIcEENS1_IcEEEEEEPvEEEEEEEC1B8ue170006Ev, symObjAddr: 0xD550, symBinAddr: 0x10000FD38, symSize: 0x2C }
  - { offsetInCU: 0x95FAF, offset: 0x95FAF, size: 0x8, addend: 0x0, symName: __ZNSt3__125__bucket_list_deallocatorINS_9allocatorIPNS_16__hash_node_baseIPNS_11__hash_nodeINS_17__hash_value_typeIfNS_12basic_stringIcNS_11char_traitsIcEENS1_IcEEEEEEPvEEEEEEEC2B8ue170006Ev, symObjAddr: 0xD57C, symBinAddr: 0x10000FD64, symSize: 0x40 }
  - { offsetInCU: 0x95FD9, offset: 0x95FD9, size: 0x8, addend: 0x0, symName: __ZNSt3__117__compressed_pairImNS_9allocatorIPNS_16__hash_node_baseIPNS_11__hash_nodeINS_17__hash_value_typeIfNS_12basic_stringIcNS_11char_traitsIcEENS1_IcEEEEEEPvEEEEEEEC1B8ue170006IiNS_18__default_init_tagEEEOT_OT0_, symObjAddr: 0xD5BC, symBinAddr: 0x10000FDA4, symSize: 0x3C }
  - { offsetInCU: 0x96031, offset: 0x96031, size: 0x8, addend: 0x0, symName: __ZNSt3__117__compressed_pairImNS_9allocatorIPNS_16__hash_node_baseIPNS_11__hash_nodeINS_17__hash_value_typeIfNS_12basic_stringIcNS_11char_traitsIcEENS1_IcEEEEEEPvEEEEEEEC2B8ue170006IiNS_18__default_init_tagEEEOT_OT0_, symObjAddr: 0xD5F8, symBinAddr: 0x10000FDE0, symSize: 0x40 }
  - { offsetInCU: 0x96089, offset: 0x96089, size: 0x8, addend: 0x0, symName: __ZNSt3__122__compressed_pair_elemINS_9allocatorIPNS_16__hash_node_baseIPNS_11__hash_nodeINS_17__hash_value_typeIfNS_12basic_stringIcNS_11char_traitsIcEENS1_IcEEEEEEPvEEEEEELi1ELb1EEC2B8ue170006ENS_18__default_init_tagE, symObjAddr: 0xD638, symBinAddr: 0x10000FE20, symSize: 0x2C }
  - { offsetInCU: 0x960BE, offset: 0x960BE, size: 0x8, addend: 0x0, symName: __ZNSt3__19allocatorIPNS_16__hash_node_baseIPNS_11__hash_nodeINS_17__hash_value_typeIfNS_12basic_stringIcNS_11char_traitsIcEENS0_IcEEEEEEPvEEEEEC2B8ue170006Ev, symObjAddr: 0xD664, symBinAddr: 0x10000FE4C, symSize: 0x2C }
  - { offsetInCU: 0x960E8, offset: 0x960E8, size: 0x8, addend: 0x0, symName: __ZNSt3__116__non_trivial_ifILb1ENS_9allocatorIPNS_16__hash_node_baseIPNS_11__hash_nodeINS_17__hash_value_typeIfNS_12basic_stringIcNS_11char_traitsIcEENS1_IcEEEEEEPvEEEEEEEC2B8ue170006Ev, symObjAddr: 0xD690, symBinAddr: 0x10000FE78, symSize: 0x14 }
  - { offsetInCU: 0x96112, offset: 0x96112, size: 0x8, addend: 0x0, symName: __ZNSt3__117__compressed_pairINS_16__hash_node_baseIPNS_11__hash_nodeINS_17__hash_value_typeIfNS_12basic_stringIcNS_11char_traitsIcEENS_9allocatorIcEEEEEEPvEEEENS7_ISC_EEEC2B8ue170006ILb1EvEEv, symObjAddr: 0xD6A4, symBinAddr: 0x10000FE8C, symSize: 0x34 }
  - { offsetInCU: 0x96147, offset: 0x96147, size: 0x8, addend: 0x0, symName: __ZNSt3__122__compressed_pair_elemINS_16__hash_node_baseIPNS_11__hash_nodeINS_17__hash_value_typeIfNS_12basic_stringIcNS_11char_traitsIcEENS_9allocatorIcEEEEEEPvEEEELi0ELb0EEC2B8ue170006ENS_16__value_init_tagE, symObjAddr: 0xD6D8, symBinAddr: 0x10000FEC0, symSize: 0x2C }
  - { offsetInCU: 0x9617C, offset: 0x9617C, size: 0x8, addend: 0x0, symName: __ZNSt3__122__compressed_pair_elemINS_9allocatorINS_11__hash_nodeINS_17__hash_value_typeIfNS_12basic_stringIcNS_11char_traitsIcEENS1_IcEEEEEEPvEEEELi1ELb1EEC2B8ue170006ENS_16__value_init_tagE, symObjAddr: 0xD704, symBinAddr: 0x10000FEEC, symSize: 0x2C }
  - { offsetInCU: 0x961B1, offset: 0x961B1, size: 0x8, addend: 0x0, symName: __ZNSt3__116__hash_node_baseIPNS_11__hash_nodeINS_17__hash_value_typeIfNS_12basic_stringIcNS_11char_traitsIcEENS_9allocatorIcEEEEEEPvEEEC1B8ue170006Ev, symObjAddr: 0xD730, symBinAddr: 0x10000FF18, symSize: 0x2C }
  - { offsetInCU: 0x961DB, offset: 0x961DB, size: 0x8, addend: 0x0, symName: __ZNSt3__116__hash_node_baseIPNS_11__hash_nodeINS_17__hash_value_typeIfNS_12basic_stringIcNS_11char_traitsIcEENS_9allocatorIcEEEEEEPvEEEC2B8ue170006Ev, symObjAddr: 0xD75C, symBinAddr: 0x10000FF44, symSize: 0x18 }
  - { offsetInCU: 0x96205, offset: 0x96205, size: 0x8, addend: 0x0, symName: __ZNSt3__19allocatorINS_11__hash_nodeINS_17__hash_value_typeIfNS_12basic_stringIcNS_11char_traitsIcEENS0_IcEEEEEEPvEEEC2B8ue170006Ev, symObjAddr: 0xD774, symBinAddr: 0x10000FF5C, symSize: 0x2C }
  - { offsetInCU: 0x9622F, offset: 0x9622F, size: 0x8, addend: 0x0, symName: __ZNSt3__116__non_trivial_ifILb1ENS_9allocatorINS_11__hash_nodeINS_17__hash_value_typeIfNS_12basic_stringIcNS_11char_traitsIcEENS1_IcEEEEEEPvEEEEEC2B8ue170006Ev, symObjAddr: 0xD7A0, symBinAddr: 0x10000FF88, symSize: 0x14 }
  - { offsetInCU: 0x96259, offset: 0x96259, size: 0x8, addend: 0x0, symName: __ZNSt3__117__compressed_pairImNS_22__unordered_map_hasherIfNS_17__hash_value_typeIfNS_12basic_stringIcNS_11char_traitsIcEENS_9allocatorIcEEEEEENS_4hashIfEENS_8equal_toIfEELb1EEEEC2B8ue170006IiNS_18__default_init_tagEEEOT_OT0_, symObjAddr: 0xD7B4, symBinAddr: 0x10000FF9C, symSize: 0x40 }
  - { offsetInCU: 0x962B1, offset: 0x962B1, size: 0x8, addend: 0x0, symName: __ZNSt3__122__compressed_pair_elemINS_22__unordered_map_hasherIfNS_17__hash_value_typeIfNS_12basic_stringIcNS_11char_traitsIcEENS_9allocatorIcEEEEEENS_4hashIfEENS_8equal_toIfEELb1EEELi1ELb1EEC2B8ue170006ENS_18__default_init_tagE, symObjAddr: 0xD7F4, symBinAddr: 0x10000FFDC, symSize: 0x2C }
  - { offsetInCU: 0x962E6, offset: 0x962E6, size: 0x8, addend: 0x0, symName: __ZNSt3__122__unordered_map_hasherIfNS_17__hash_value_typeIfNS_12basic_stringIcNS_11char_traitsIcEENS_9allocatorIcEEEEEENS_4hashIfEENS_8equal_toIfEELb1EEC2B8ue170006Ev, symObjAddr: 0xD820, symBinAddr: 0x100010008, symSize: 0x14 }
  - { offsetInCU: 0x96310, offset: 0x96310, size: 0x8, addend: 0x0, symName: __ZNSt3__117__compressed_pairIfNS_21__unordered_map_equalIfNS_17__hash_value_typeIfNS_12basic_stringIcNS_11char_traitsIcEENS_9allocatorIcEEEEEENS_8equal_toIfEENS_4hashIfEELb1EEEEC2B8ue170006IfNS_18__default_init_tagEEEOT_OT0_, symObjAddr: 0xD834, symBinAddr: 0x10001001C, symSize: 0x40 }
  - { offsetInCU: 0x96368, offset: 0x96368, size: 0x8, addend: 0x0, symName: __ZNSt3__122__compressed_pair_elemINS_21__unordered_map_equalIfNS_17__hash_value_typeIfNS_12basic_stringIcNS_11char_traitsIcEENS_9allocatorIcEEEEEENS_8equal_toIfEENS_4hashIfEELb1EEELi1ELb1EEC2B8ue170006ENS_18__default_init_tagE, symObjAddr: 0xD874, symBinAddr: 0x10001005C, symSize: 0x2C }
  - { offsetInCU: 0x9639D, offset: 0x9639D, size: 0x8, addend: 0x0, symName: __ZNSt3__121__unordered_map_equalIfNS_17__hash_value_typeIfNS_12basic_stringIcNS_11char_traitsIcEENS_9allocatorIcEEEEEENS_8equal_toIfEENS_4hashIfEELb1EEC2B8ue170006Ev, symObjAddr: 0xD8A0, symBinAddr: 0x100010088, symSize: 0x14 }
  - { offsetInCU: 0x963C7, offset: 0x963C7, size: 0x8, addend: 0x0, symName: __ZNSt3__113unordered_mapIfNS_12basic_stringIcNS_11char_traitsIcEENS_9allocatorIcEEEENS_4hashIfEENS_8equal_toIfEENS4_INS_4pairIKfS6_EEEEED2B8ue170006Ev, symObjAddr: 0xD8B4, symBinAddr: 0x10001009C, symSize: 0x2C }
  - { offsetInCU: 0x963F1, offset: 0x963F1, size: 0x8, addend: 0x0, symName: __ZNSt3__112__hash_tableINS_17__hash_value_typeIfNS_12basic_stringIcNS_11char_traitsIcEENS_9allocatorIcEEEEEENS_22__unordered_map_hasherIfS8_NS_4hashIfEENS_8equal_toIfEELb1EEENS_21__unordered_map_equalIfS8_SD_SB_Lb1EEENS5_IS8_EEED1Ev, symObjAddr: 0xD8E0, symBinAddr: 0x1000100C8, symSize: 0x2C }
  - { offsetInCU: 0x9641D, offset: 0x9641D, size: 0x8, addend: 0x0, symName: __ZNSt3__112__hash_tableINS_17__hash_value_typeIfNS_12basic_stringIcNS_11char_traitsIcEENS_9allocatorIcEEEEEENS_22__unordered_map_hasherIfS8_NS_4hashIfEENS_8equal_toIfEELb1EEENS_21__unordered_map_equalIfS8_SD_SB_Lb1EEENS5_IS8_EEED2Ev, symObjAddr: 0xD90C, symBinAddr: 0x1000100F4, symSize: 0x48 }
  - { offsetInCU: 0x96449, offset: 0x96449, size: 0x8, addend: 0x0, symName: __ZNSt3__112__hash_tableINS_17__hash_value_typeIfNS_12basic_stringIcNS_11char_traitsIcEENS_9allocatorIcEEEEEENS_22__unordered_map_hasherIfS8_NS_4hashIfEENS_8equal_toIfEELb1EEENS_21__unordered_map_equalIfS8_SD_SB_Lb1EEENS5_IS8_EEE17__deallocate_nodeEPNS_16__hash_node_baseIPNS_11__hash_nodeIS8_PvEEEE, symObjAddr: 0xD954, symBinAddr: 0x10001013C, symSize: 0xA8 }
  - { offsetInCU: 0x964B4, offset: 0x964B4, size: 0x8, addend: 0x0, symName: __ZNSt3__117__compressed_pairINS_16__hash_node_baseIPNS_11__hash_nodeINS_17__hash_value_typeIfNS_12basic_stringIcNS_11char_traitsIcEENS_9allocatorIcEEEEEEPvEEEENS7_ISC_EEE5firstB8ue170006Ev, symObjAddr: 0xD9FC, symBinAddr: 0x1000101E4, symSize: 0x24 }
  - { offsetInCU: 0x964DA, offset: 0x964DA, size: 0x8, addend: 0x0, symName: __ZNSt3__110unique_ptrIA_PNS_16__hash_node_baseIPNS_11__hash_nodeINS_17__hash_value_typeIfNS_12basic_stringIcNS_11char_traitsIcEENS_9allocatorIcEEEEEEPvEEEENS_25__bucket_list_deallocatorINS7_ISF_EEEEED1B8ue170006Ev, symObjAddr: 0xDA20, symBinAddr: 0x100010208, symSize: 0x2C }
  - { offsetInCU: 0x96504, offset: 0x96504, size: 0x8, addend: 0x0, symName: __ZNSt3__112__hash_tableINS_17__hash_value_typeIfNS_12basic_stringIcNS_11char_traitsIcEENS_9allocatorIcEEEEEENS_22__unordered_map_hasherIfS8_NS_4hashIfEENS_8equal_toIfEELb1EEENS_21__unordered_map_equalIfS8_SD_SB_Lb1EEENS5_IS8_EEE12__node_allocB8ue170006Ev, symObjAddr: 0xDA4C, symBinAddr: 0x100010234, symSize: 0x28 }
  - { offsetInCU: 0x9652A, offset: 0x9652A, size: 0x8, addend: 0x0, symName: __ZNSt3__116__hash_node_baseIPNS_11__hash_nodeINS_17__hash_value_typeIfNS_12basic_stringIcNS_11char_traitsIcEENS_9allocatorIcEEEEEEPvEEE8__upcastB8ue170006Ev, symObjAddr: 0xDA74, symBinAddr: 0x10001025C, symSize: 0x24 }
  - { offsetInCU: 0x96550, offset: 0x96550, size: 0x8, addend: 0x0, symName: __ZNSt3__116allocator_traitsINS_9allocatorINS_11__hash_nodeINS_17__hash_value_typeIfNS_12basic_stringIcNS_11char_traitsIcEENS1_IcEEEEEEPvEEEEE7destroyB8ue170006INS_4pairIKfS8_EEvvEEvRSC_PT_, symObjAddr: 0xDA98, symBinAddr: 0x100010280, symSize: 0x28 }
  - { offsetInCU: 0x9658A, offset: 0x9658A, size: 0x8, addend: 0x0, symName: __ZNSt3__122__hash_key_value_typesINS_17__hash_value_typeIfNS_12basic_stringIcNS_11char_traitsIcEENS_9allocatorIcEEEEEEE9__get_ptrB8ue170006ERS8_, symObjAddr: 0xDAC0, symBinAddr: 0x1000102A8, symSize: 0x24 }
  - { offsetInCU: 0x965AD, offset: 0x965AD, size: 0x8, addend: 0x0, symName: __ZNSt3__116allocator_traitsINS_9allocatorINS_11__hash_nodeINS_17__hash_value_typeIfNS_12basic_stringIcNS_11char_traitsIcEENS1_IcEEEEEEPvEEEEE10deallocateB8ue170006ERSC_PSB_m, symObjAddr: 0xDAE4, symBinAddr: 0x1000102CC, symSize: 0x34 }
  - { offsetInCU: 0x965EF, offset: 0x965EF, size: 0x8, addend: 0x0, symName: __ZNSt3__117__compressed_pairINS_16__hash_node_baseIPNS_11__hash_nodeINS_17__hash_value_typeIfNS_12basic_stringIcNS_11char_traitsIcEENS_9allocatorIcEEEEEEPvEEEENS7_ISC_EEE6secondB8ue170006Ev, symObjAddr: 0xDB18, symBinAddr: 0x100010300, symSize: 0x24 }
  - { offsetInCU: 0x96615, offset: 0x96615, size: 0x8, addend: 0x0, symName: __ZNSt3__122__compressed_pair_elemINS_9allocatorINS_11__hash_nodeINS_17__hash_value_typeIfNS_12basic_stringIcNS_11char_traitsIcEENS1_IcEEEEEEPvEEEELi1ELb1EE5__getB8ue170006Ev, symObjAddr: 0xDB3C, symBinAddr: 0x100010324, symSize: 0x14 }
  - { offsetInCU: 0x9663B, offset: 0x9663B, size: 0x8, addend: 0x0, symName: __ZNSt3__114pointer_traitsIPNS_16__hash_node_baseIPNS_11__hash_nodeINS_17__hash_value_typeIfNS_12basic_stringIcNS_11char_traitsIcEENS_9allocatorIcEEEEEEPvEEEEE10pointer_toB8ue170006ERSE_, symObjAddr: 0xDB50, symBinAddr: 0x100010338, symSize: 0x14 }
  - { offsetInCU: 0x9665E, offset: 0x9665E, size: 0x8, addend: 0x0, symName: __ZNSt3__14pairIKfNS_12basic_stringIcNS_11char_traitsIcEENS_9allocatorIcEEEEED1Ev, symObjAddr: 0xDBAC, symBinAddr: 0x100010394, symSize: 0x2C }
  - { offsetInCU: 0x9668A, offset: 0x9668A, size: 0x8, addend: 0x0, symName: __ZNSt3__14pairIKfNS_12basic_stringIcNS_11char_traitsIcEENS_9allocatorIcEEEEED2Ev, symObjAddr: 0xDBD8, symBinAddr: 0x1000103C0, symSize: 0x30 }
  - { offsetInCU: 0x966B6, offset: 0x966B6, size: 0x8, addend: 0x0, symName: __ZNSt3__117__hash_value_typeIfNS_12basic_stringIcNS_11char_traitsIcEENS_9allocatorIcEEEEE11__get_valueB8ue170006Ev, symObjAddr: 0xDC08, symBinAddr: 0x1000103F0, symSize: 0x24 }
  - { offsetInCU: 0x966DC, offset: 0x966DC, size: 0x8, addend: 0x0, symName: __ZNSt3__19allocatorINS_11__hash_nodeINS_17__hash_value_typeIfNS_12basic_stringIcNS_11char_traitsIcEENS0_IcEEEEEEPvEEE10deallocateB8ue170006EPSA_m, symObjAddr: 0xDC64, symBinAddr: 0x10001044C, symSize: 0x44 }
  - { offsetInCU: 0x9671E, offset: 0x9671E, size: 0x8, addend: 0x0, symName: __ZNSt3__122__compressed_pair_elemINS_16__hash_node_baseIPNS_11__hash_nodeINS_17__hash_value_typeIfNS_12basic_stringIcNS_11char_traitsIcEENS_9allocatorIcEEEEEEPvEEEELi0ELb0EE5__getB8ue170006Ev, symObjAddr: 0xDCA8, symBinAddr: 0x100010490, symSize: 0x14 }
  - { offsetInCU: 0x96744, offset: 0x96744, size: 0x8, addend: 0x0, symName: __ZNSt3__110unique_ptrIA_PNS_16__hash_node_baseIPNS_11__hash_nodeINS_17__hash_value_typeIfNS_12basic_stringIcNS_11char_traitsIcEENS_9allocatorIcEEEEEEPvEEEENS_25__bucket_list_deallocatorINS7_ISF_EEEEED2B8ue170006Ev, symObjAddr: 0xDCBC, symBinAddr: 0x1000104A4, symSize: 0x30 }
  - { offsetInCU: 0x9676E, offset: 0x9676E, size: 0x8, addend: 0x0, symName: __ZNSt3__110unique_ptrIA_PNS_16__hash_node_baseIPNS_11__hash_nodeINS_17__hash_value_typeIfNS_12basic_stringIcNS_11char_traitsIcEENS_9allocatorIcEEEEEEPvEEEENS_25__bucket_list_deallocatorINS7_ISF_EEEEE5resetB8ue170006EDn, symObjAddr: 0xDCEC, symBinAddr: 0x1000104D4, symSize: 0x6C }
  - { offsetInCU: 0x967AE, offset: 0x967AE, size: 0x8, addend: 0x0, symName: __ZNSt3__117__compressed_pairIPPNS_16__hash_node_baseIPNS_11__hash_nodeINS_17__hash_value_typeIfNS_12basic_stringIcNS_11char_traitsIcEENS_9allocatorIcEEEEEEPvEEEENS_25__bucket_list_deallocatorINS7_ISF_EEEEE5firstB8ue170006Ev, symObjAddr: 0xDD58, symBinAddr: 0x100010540, symSize: 0x24 }
  - { offsetInCU: 0x967D4, offset: 0x967D4, size: 0x8, addend: 0x0, symName: __ZNSt3__117__compressed_pairIPPNS_16__hash_node_baseIPNS_11__hash_nodeINS_17__hash_value_typeIfNS_12basic_stringIcNS_11char_traitsIcEENS_9allocatorIcEEEEEEPvEEEENS_25__bucket_list_deallocatorINS7_ISF_EEEEE6secondB8ue170006Ev, symObjAddr: 0xDD7C, symBinAddr: 0x100010564, symSize: 0x28 }
  - { offsetInCU: 0x967FA, offset: 0x967FA, size: 0x8, addend: 0x0, symName: __ZNSt3__125__bucket_list_deallocatorINS_9allocatorIPNS_16__hash_node_baseIPNS_11__hash_nodeINS_17__hash_value_typeIfNS_12basic_stringIcNS_11char_traitsIcEENS1_IcEEEEEEPvEEEEEEEclB8ue170006EPSF_, symObjAddr: 0xDDA4, symBinAddr: 0x10001058C, symSize: 0x58 }
  - { offsetInCU: 0x9682F, offset: 0x9682F, size: 0x8, addend: 0x0, symName: __ZNSt3__122__compressed_pair_elemIPPNS_16__hash_node_baseIPNS_11__hash_nodeINS_17__hash_value_typeIfNS_12basic_stringIcNS_11char_traitsIcEENS_9allocatorIcEEEEEEPvEEEELi0ELb0EE5__getB8ue170006Ev, symObjAddr: 0xDDFC, symBinAddr: 0x1000105E4, symSize: 0x14 }
  - { offsetInCU: 0x96855, offset: 0x96855, size: 0x8, addend: 0x0, symName: __ZNSt3__122__compressed_pair_elemINS_25__bucket_list_deallocatorINS_9allocatorIPNS_16__hash_node_baseIPNS_11__hash_nodeINS_17__hash_value_typeIfNS_12basic_stringIcNS_11char_traitsIcEENS2_IcEEEEEEPvEEEEEEEELi1ELb0EE5__getB8ue170006Ev, symObjAddr: 0xDE10, symBinAddr: 0x1000105F8, symSize: 0x14 }
  - { offsetInCU: 0x9687B, offset: 0x9687B, size: 0x8, addend: 0x0, symName: __ZNSt3__116allocator_traitsINS_9allocatorIPNS_16__hash_node_baseIPNS_11__hash_nodeINS_17__hash_value_typeIfNS_12basic_stringIcNS_11char_traitsIcEENS1_IcEEEEEEPvEEEEEEE10deallocateB8ue170006ERSG_PSF_m, symObjAddr: 0xDE24, symBinAddr: 0x10001060C, symSize: 0x34 }
  - { offsetInCU: 0x968BD, offset: 0x968BD, size: 0x8, addend: 0x0, symName: __ZNSt3__125__bucket_list_deallocatorINS_9allocatorIPNS_16__hash_node_baseIPNS_11__hash_nodeINS_17__hash_value_typeIfNS_12basic_stringIcNS_11char_traitsIcEENS1_IcEEEEEEPvEEEEEEE7__allocB8ue170006Ev, symObjAddr: 0xDE58, symBinAddr: 0x100010640, symSize: 0x24 }
  - { offsetInCU: 0x968E3, offset: 0x968E3, size: 0x8, addend: 0x0, symName: __ZNSt3__125__bucket_list_deallocatorINS_9allocatorIPNS_16__hash_node_baseIPNS_11__hash_nodeINS_17__hash_value_typeIfNS_12basic_stringIcNS_11char_traitsIcEENS1_IcEEEEEEPvEEEEEEE4sizeB8ue170006Ev, symObjAddr: 0xDE7C, symBinAddr: 0x100010664, symSize: 0x24 }
  - { offsetInCU: 0x96909, offset: 0x96909, size: 0x8, addend: 0x0, symName: __ZNSt3__19allocatorIPNS_16__hash_node_baseIPNS_11__hash_nodeINS_17__hash_value_typeIfNS_12basic_stringIcNS_11char_traitsIcEENS0_IcEEEEEEPvEEEEE10deallocateB8ue170006EPSE_m, symObjAddr: 0xDEA0, symBinAddr: 0x100010688, symSize: 0x40 }
  - { offsetInCU: 0x9694B, offset: 0x9694B, size: 0x8, addend: 0x0, symName: __ZNSt3__117__compressed_pairImNS_9allocatorIPNS_16__hash_node_baseIPNS_11__hash_nodeINS_17__hash_value_typeIfNS_12basic_stringIcNS_11char_traitsIcEENS1_IcEEEEEEPvEEEEEEE6secondB8ue170006Ev, symObjAddr: 0xDEE0, symBinAddr: 0x1000106C8, symSize: 0x24 }
  - { offsetInCU: 0x96971, offset: 0x96971, size: 0x8, addend: 0x0, symName: __ZNSt3__122__compressed_pair_elemINS_9allocatorIPNS_16__hash_node_baseIPNS_11__hash_nodeINS_17__hash_value_typeIfNS_12basic_stringIcNS_11char_traitsIcEENS1_IcEEEEEEPvEEEEEELi1ELb1EE5__getB8ue170006Ev, symObjAddr: 0xDF04, symBinAddr: 0x1000106EC, symSize: 0x14 }
  - { offsetInCU: 0x96997, offset: 0x96997, size: 0x8, addend: 0x0, symName: __ZNSt3__117__compressed_pairImNS_9allocatorIPNS_16__hash_node_baseIPNS_11__hash_nodeINS_17__hash_value_typeIfNS_12basic_stringIcNS_11char_traitsIcEENS1_IcEEEEEEPvEEEEEEE5firstB8ue170006Ev, symObjAddr: 0xDF18, symBinAddr: 0x100010700, symSize: 0x24 }
  - { offsetInCU: 0x969BD, offset: 0x969BD, size: 0x8, addend: 0x0, symName: __ZNSt3__123mersenne_twister_engineIjLm32ELm624ELm397ELm31ELj2567483615ELm11ELj4294967295ELm7ELj2636928640ELm15ELj4022730752ELm18ELj1812433253EEC2B8ue170006Ej, symObjAddr: 0xDF3C, symBinAddr: 0x100010724, symSize: 0x34 }
  - { offsetInCU: 0x969F5, offset: 0x969F5, size: 0x8, addend: 0x0, symName: __ZNSt3__123mersenne_twister_engineIjLm32ELm624ELm397ELm31ELj2567483615ELm11ELj4294967295ELm7ELj2636928640ELm15ELj4022730752ELm18ELj1812433253EE4seedEj, symObjAddr: 0xDF70, symBinAddr: 0x100010758, symSize: 0xC4 }
  - { offsetInCU: 0x96A48, offset: 0x96A48, size: 0x8, addend: 0x0, symName: __ZNSt3__123mersenne_twister_engineIjLm32ELm624ELm397ELm31ELj2567483615ELm11ELj4294967295ELm7ELj2636928640ELm15ELj4022730752ELm18ELj1812433253EE8__rshiftB8ue170006ILm30EEENS_9enable_ifIXltT_L_ZNS1_3_DtEEEjE4typeEj, symObjAddr: 0xE034, symBinAddr: 0x10001081C, symSize: 0x18 }
  - { offsetInCU: 0x96A75, offset: 0x96A75, size: 0x8, addend: 0x0, symName: __ZNSt3__125uniform_real_distributionIfEC2B8ue170006Eff, symObjAddr: 0xE04C, symBinAddr: 0x100010834, symSize: 0x3C }
  - { offsetInCU: 0x96ABB, offset: 0x96ABB, size: 0x8, addend: 0x0, symName: __ZNSt3__125uniform_real_distributionIfE10param_typeC1B8ue170006Eff, symObjAddr: 0xE088, symBinAddr: 0x100010870, symSize: 0x3C }
  - { offsetInCU: 0x96B01, offset: 0x96B01, size: 0x8, addend: 0x0, symName: __ZNSt3__125uniform_real_distributionIfE10param_typeC2B8ue170006Eff, symObjAddr: 0xE0C4, symBinAddr: 0x1000108AC, symSize: 0x2C }
  - { offsetInCU: 0x96B47, offset: 0x96B47, size: 0x8, addend: 0x0, symName: __ZN5Eigen6MatrixIfLin1ELin1ELi0ELin1ELin1EEC2IiiEERKT_RKT0_, symObjAddr: 0xE0F0, symBinAddr: 0x1000108D8, symSize: 0x7C }
  - { offsetInCU: 0x96BA6, offset: 0x96BA6, size: 0x8, addend: 0x0, symName: __ZN5Eigen15PlainObjectBaseINS_6MatrixIfLin1ELin1ELi0ELin1ELin1EEEE6_init2IiiEEvllPNS_8internal9enable_ifILb1ET_E4typeE, symObjAddr: 0xE16C, symBinAddr: 0x100010954, symSize: 0x44 }
  - { offsetInCU: 0x96C66, offset: 0x96C66, size: 0x8, addend: 0x0, symName: __ZN5Eigen15PlainObjectBaseINS_6MatrixIfLin1ELin1ELi0ELin1ELin1EEEE6resizeEll, symObjAddr: 0xE1B0, symBinAddr: 0x100010998, symSize: 0x14C }
  - { offsetInCU: 0x96CE2, offset: 0x96CE2, size: 0x8, addend: 0x0, symName: __ZN5Eigen12DenseStorageIfLin1ELin1ELin1ELi0EE6resizeElll, symObjAddr: 0xE2FC, symBinAddr: 0x100010AE4, symSize: 0xB4 }
  - { offsetInCU: 0x96D35, offset: 0x96D35, size: 0x8, addend: 0x0, symName: __ZNK5Eigen9EigenBaseINS_6MatrixIfLin1ELin1ELi0ELin1ELin1EEEE4rowsEv, symObjAddr: 0xE56C, symBinAddr: 0x100010D54, symSize: 0x38 }
  - { offsetInCU: 0x96D5B, offset: 0x96D5B, size: 0x8, addend: 0x0, symName: __ZNK5Eigen9EigenBaseINS_6MatrixIfLin1ELin1ELi0ELin1ELin1EEEE4colsEv, symObjAddr: 0xE5A4, symBinAddr: 0x100010D8C, symSize: 0x28 }
  - { offsetInCU: 0x96D81, offset: 0x96D81, size: 0x8, addend: 0x0, symName: __ZN5Eigen15DenseCoeffsBaseINS_6MatrixIfLin1ELin1ELi0ELin1ELin1EEELi1EE8coeffRefEll, symObjAddr: 0xE5CC, symBinAddr: 0x100010DB4, symSize: 0x80 }
  - { offsetInCU: 0x96DC5, offset: 0x96DC5, size: 0x8, addend: 0x0, symName: __ZNK5Eigen9EigenBaseINS_6MatrixIfLin1ELin1ELi0ELin1ELin1EEEE7derivedEv, symObjAddr: 0xE64C, symBinAddr: 0x100010E34, symSize: 0x14 }
  - { offsetInCU: 0x96DEB, offset: 0x96DEB, size: 0x8, addend: 0x0, symName: __ZNK5Eigen15PlainObjectBaseINS_6MatrixIfLin1ELin1ELi0ELin1ELin1EEEE4rowsEv, symObjAddr: 0xE660, symBinAddr: 0x100010E48, symSize: 0x24 }
  - { offsetInCU: 0x96E11, offset: 0x96E11, size: 0x8, addend: 0x0, symName: __ZNK5Eigen12DenseStorageIfLin1ELin1ELin1ELi0EE4rowsEv, symObjAddr: 0xE684, symBinAddr: 0x100010E6C, symSize: 0x18 }
  - { offsetInCU: 0x96E37, offset: 0x96E37, size: 0x8, addend: 0x0, symName: __ZNK5Eigen15PlainObjectBaseINS_6MatrixIfLin1ELin1ELi0ELin1ELin1EEEE4colsEv, symObjAddr: 0xE69C, symBinAddr: 0x100010E84, symSize: 0x24 }
  - { offsetInCU: 0x96E5D, offset: 0x96E5D, size: 0x8, addend: 0x0, symName: __ZNK5Eigen12DenseStorageIfLin1ELin1ELin1ELi0EE4colsEv, symObjAddr: 0xE6C0, symBinAddr: 0x100010EA8, symSize: 0x18 }
  - { offsetInCU: 0x96E83, offset: 0x96E83, size: 0x8, addend: 0x0, symName: __ZN5Eigen9EigenBaseINS_6MatrixIfLin1ELin1ELi0ELin1ELin1EEEE7derivedEv, symObjAddr: 0xE6D8, symBinAddr: 0x100010EC0, symSize: 0x14 }
  - { offsetInCU: 0x96EA9, offset: 0x96EA9, size: 0x8, addend: 0x0, symName: __ZN5Eigen8internal9evaluatorINS_6MatrixIfLin1ELin1ELi0ELin1ELin1EEEEC1ERKS3_, symObjAddr: 0xE6EC, symBinAddr: 0x100010ED4, symSize: 0x34 }
  - { offsetInCU: 0x96EE2, offset: 0x96EE2, size: 0x8, addend: 0x0, symName: __ZN5Eigen8internal9evaluatorINS_15PlainObjectBaseINS_6MatrixIfLin1ELin1ELi0ELin1ELin1EEEEEE8coeffRefEll, symObjAddr: 0xE720, symBinAddr: 0x100010F08, symSize: 0x5C }
  - { offsetInCU: 0x96F24, offset: 0x96F24, size: 0x8, addend: 0x0, symName: __ZN5Eigen8internal9evaluatorINS_6MatrixIfLin1ELin1ELi0ELin1ELin1EEEED1Ev, symObjAddr: 0xE77C, symBinAddr: 0x100010F64, symSize: 0x2C }
  - { offsetInCU: 0x96F51, offset: 0x96F51, size: 0x8, addend: 0x0, symName: __ZN5Eigen8internal9evaluatorINS_6MatrixIfLin1ELin1ELi0ELin1ELin1EEEEC2ERKS3_, symObjAddr: 0xE7A8, symBinAddr: 0x100010F90, symSize: 0x34 }
  - { offsetInCU: 0x96F8A, offset: 0x96F8A, size: 0x8, addend: 0x0, symName: __ZN5Eigen8internal9evaluatorINS_15PlainObjectBaseINS_6MatrixIfLin1ELin1ELi0ELin1ELin1EEEEEEC2ERKS5_, symObjAddr: 0xE7DC, symBinAddr: 0x100010FC4, symSize: 0x80 }
  - { offsetInCU: 0x96FC2, offset: 0x96FC2, size: 0x8, addend: 0x0, symName: __ZN5Eigen8internal14evaluator_baseINS_6MatrixIfLin1ELin1ELi0ELin1ELin1EEEEC2Ev, symObjAddr: 0xE85C, symBinAddr: 0x100011044, symSize: 0x14 }
  - { offsetInCU: 0x96FEC, offset: 0x96FEC, size: 0x8, addend: 0x0, symName: __ZNK5Eigen15PlainObjectBaseINS_6MatrixIfLin1ELin1ELi0ELin1ELin1EEEE4dataEv, symObjAddr: 0xE870, symBinAddr: 0x100011058, symSize: 0x24 }
  - { offsetInCU: 0x97012, offset: 0x97012, size: 0x8, addend: 0x0, symName: __ZNK5Eigen15DenseCoeffsBaseINS_6MatrixIfLin1ELin1ELi0ELin1ELin1EEELi3EE11outerStrideEv, symObjAddr: 0xE894, symBinAddr: 0x10001107C, symSize: 0x28 }
  - { offsetInCU: 0x97038, offset: 0x97038, size: 0x8, addend: 0x0, symName: __ZN5Eigen8internal30plainobjectbase_evaluator_dataIfLin1EEC1EPKfl, symObjAddr: 0xE8BC, symBinAddr: 0x1000110A4, symSize: 0x3C }
  - { offsetInCU: 0x9707E, offset: 0x9707E, size: 0x8, addend: 0x0, symName: __ZN5Eigen8internal14evaluator_baseINS_6MatrixIfLin1ELin1ELi0ELin1ELin1EEEED2Ev, symObjAddr: 0xE8F8, symBinAddr: 0x1000110E0, symSize: 0x14 }
  - { offsetInCU: 0x970A8, offset: 0x970A8, size: 0x8, addend: 0x0, symName: __ZNK5Eigen12DenseStorageIfLin1ELin1ELin1ELi0EE4dataEv, symObjAddr: 0xE90C, symBinAddr: 0x1000110F4, symSize: 0x18 }
  - { offsetInCU: 0x970CE, offset: 0x970CE, size: 0x8, addend: 0x0, symName: __ZNK5Eigen6MatrixIfLin1ELin1ELi0ELin1ELin1EE11outerStrideEv, symObjAddr: 0xE924, symBinAddr: 0x10001110C, symSize: 0x34 }
  - { offsetInCU: 0x970F4, offset: 0x970F4, size: 0x8, addend: 0x0, symName: __ZNK5Eigen9DenseBaseINS_6MatrixIfLin1ELin1ELi0ELin1ELin1EEEE9innerSizeEv, symObjAddr: 0xE958, symBinAddr: 0x100011140, symSize: 0x24 }
  - { offsetInCU: 0x9711A, offset: 0x9711A, size: 0x8, addend: 0x0, symName: __ZN5Eigen8internal30plainobjectbase_evaluator_dataIfLin1EEC2EPKfl, symObjAddr: 0xE97C, symBinAddr: 0x100011164, symSize: 0x2C }
  - { offsetInCU: 0x97160, offset: 0x97160, size: 0x8, addend: 0x0, symName: __ZNK5Eigen8internal30plainobjectbase_evaluator_dataIfLin1EE11outerStrideEv, symObjAddr: 0xE9A8, symBinAddr: 0x100011190, symSize: 0x18 }
  - { offsetInCU: 0x97186, offset: 0x97186, size: 0x8, addend: 0x0, symName: __ZN5Eigen8internal9evaluatorINS_6MatrixIfLin1ELin1ELi0ELin1ELin1EEEED2Ev, symObjAddr: 0xE9C0, symBinAddr: 0x1000111A8, symSize: 0x2C }
  - { offsetInCU: 0x971B3, offset: 0x971B3, size: 0x8, addend: 0x0, symName: __ZN5Eigen8internal9evaluatorINS_15PlainObjectBaseINS_6MatrixIfLin1ELin1ELi0ELin1ELin1EEEEEED2Ev, symObjAddr: 0xE9EC, symBinAddr: 0x1000111D4, symSize: 0x2C }
  - { offsetInCU: 0x971DF, offset: 0x971DF, size: 0x8, addend: 0x0, symName: __ZNSt3__125uniform_real_distributionIfEclINS_23mersenne_twister_engineIjLm32ELm624ELm397ELm31ELj2567483615ELm11ELj4294967295ELm7ELj2636928640ELm15ELj4022730752ELm18ELj1812433253EEEEEfRT_RKNS1_10param_typeE, symObjAddr: 0xEA18, symBinAddr: 0x100011200, symSize: 0x74 }
  - { offsetInCU: 0x9722B, offset: 0x9722B, size: 0x8, addend: 0x0, symName: __ZNKSt3__125uniform_real_distributionIfE10param_type1bB8ue170006Ev, symObjAddr: 0xEA8C, symBinAddr: 0x100011274, symSize: 0x18 }
  - { offsetInCU: 0x97251, offset: 0x97251, size: 0x8, addend: 0x0, symName: __ZNKSt3__125uniform_real_distributionIfE10param_type1aB8ue170006Ev, symObjAddr: 0xEAA4, symBinAddr: 0x10001128C, symSize: 0x18 }
  - { offsetInCU: 0x97277, offset: 0x97277, size: 0x8, addend: 0x0, symName: __ZNSt3__123mersenne_twister_engineIjLm32ELm624ELm397ELm31ELj2567483615ELm11ELj4294967295ELm7ELj2636928640ELm15ELj4022730752ELm18ELj1812433253EE3maxB8ue170006Ev, symObjAddr: 0xEBD8, symBinAddr: 0x1000113C0, symSize: 0x8 }
  - { offsetInCU: 0x9728B, offset: 0x9728B, size: 0x8, addend: 0x0, symName: __ZNSt3__123mersenne_twister_engineIjLm32ELm624ELm397ELm31ELj2567483615ELm11ELj4294967295ELm7ELj2636928640ELm15ELj4022730752ELm18ELj1812433253EE3minB8ue170006Ev, symObjAddr: 0xEBE0, symBinAddr: 0x1000113C8, symSize: 0x8 }
  - { offsetInCU: 0x9729F, offset: 0x9729F, size: 0x8, addend: 0x0, symName: __ZNSt3__123mersenne_twister_engineIjLm32ELm624ELm397ELm31ELj2567483615ELm11ELj4294967295ELm7ELj2636928640ELm15ELj4022730752ELm18ELj1812433253EEclEv, symObjAddr: 0xEBE8, symBinAddr: 0x1000113D0, symSize: 0x14C }
  - { offsetInCU: 0x97312, offset: 0x97312, size: 0x8, addend: 0x0, symName: __ZNSt3__123mersenne_twister_engineIjLm32ELm624ELm397ELm31ELj2567483615ELm11ELj4294967295ELm7ELj2636928640ELm15ELj4022730752ELm18ELj1812433253EE8__rshiftB8ue170006ILm1EEENS_9enable_ifIXltT_L_ZNS1_3_DtEEEjE4typeEj, symObjAddr: 0xED34, symBinAddr: 0x10001151C, symSize: 0x18 }
  - { offsetInCU: 0x9733F, offset: 0x9733F, size: 0x8, addend: 0x0, symName: __ZNSt3__123mersenne_twister_engineIjLm32ELm624ELm397ELm31ELj2567483615ELm11ELj4294967295ELm7ELj2636928640ELm15ELj4022730752ELm18ELj1812433253EE8__rshiftB8ue170006ILm11EEENS_9enable_ifIXltT_L_ZNS1_3_DtEEEjE4typeEj, symObjAddr: 0xED4C, symBinAddr: 0x100011534, symSize: 0x18 }
  - { offsetInCU: 0x9736C, offset: 0x9736C, size: 0x8, addend: 0x0, symName: __ZNSt3__123mersenne_twister_engineIjLm32ELm624ELm397ELm31ELj2567483615ELm11ELj4294967295ELm7ELj2636928640ELm15ELj4022730752ELm18ELj1812433253EE8__lshiftB8ue170006ILm7EEENS_9enable_ifIXltT_Lm32EEjE4typeEj, symObjAddr: 0xED64, symBinAddr: 0x10001154C, symSize: 0x1C }
  - { offsetInCU: 0x97399, offset: 0x97399, size: 0x8, addend: 0x0, symName: __ZNSt3__123mersenne_twister_engineIjLm32ELm624ELm397ELm31ELj2567483615ELm11ELj4294967295ELm7ELj2636928640ELm15ELj4022730752ELm18ELj1812433253EE8__lshiftB8ue170006ILm15EEENS_9enable_ifIXltT_Lm32EEjE4typeEj, symObjAddr: 0xED80, symBinAddr: 0x100011568, symSize: 0x1C }
  - { offsetInCU: 0x973C6, offset: 0x973C6, size: 0x8, addend: 0x0, symName: __ZNSt3__123mersenne_twister_engineIjLm32ELm624ELm397ELm31ELj2567483615ELm11ELj4294967295ELm7ELj2636928640ELm15ELj4022730752ELm18ELj1812433253EE8__rshiftB8ue170006ILm18EEENS_9enable_ifIXltT_L_ZNS1_3_DtEEEjE4typeEj, symObjAddr: 0xED9C, symBinAddr: 0x100011584, symSize: 0x18 }
  - { offsetInCU: 0x973F3, offset: 0x973F3, size: 0x8, addend: 0x0, symName: __ZN5Eigen6MatrixIfLin1ELi1ELi0ELin1ELi1EEC2IiEERKT_, symObjAddr: 0xEDB4, symBinAddr: 0x10001159C, symSize: 0x74 }
  - { offsetInCU: 0x97435, offset: 0x97435, size: 0x8, addend: 0x0, symName: __ZN5Eigen15PlainObjectBaseINS_6MatrixIfLin1ELi1ELi0ELin1ELi1EEEEC2Ev, symObjAddr: 0xEE28, symBinAddr: 0x100011610, symSize: 0x34 }
  - { offsetInCU: 0x9745F, offset: 0x9745F, size: 0x8, addend: 0x0, symName: __ZN5Eigen15PlainObjectBaseINS_6MatrixIfLin1ELi1ELi0ELin1ELi1EEEE22_check_template_paramsEv, symObjAddr: 0xEE5C, symBinAddr: 0x100011644, symSize: 0x4 }
  - { offsetInCU: 0x97473, offset: 0x97473, size: 0x8, addend: 0x0, symName: __ZN5Eigen15PlainObjectBaseINS_6MatrixIfLin1ELi1ELi0ELin1ELi1EEEE6_init1IiEEvlPNS_8internal9enable_ifIXaaooneLNS_9DenseBaseIS2_EUt_En1ELi1Entsr8internal14is_convertibleIT_fEE5valueoontLNS5_7is_sameINS_9MatrixXprENS_8ArrayXprEEUt_E0EeqLS9_n1EL_ZNS_L7DynamicEEESA_E4typeE, symObjAddr: 0xEE60, symBinAddr: 0x100011648, symSize: 0x48 }
  - { offsetInCU: 0x974CB, offset: 0x974CB, size: 0x8, addend: 0x0, symName: __ZN5Eigen10MatrixBaseINS_6MatrixIfLin1ELi1ELi0ELin1ELi1EEEEC2Ev, symObjAddr: 0xEEA8, symBinAddr: 0x100011690, symSize: 0x2C }
  - { offsetInCU: 0x974F5, offset: 0x974F5, size: 0x8, addend: 0x0, symName: __ZN5Eigen12DenseStorageIfLin1ELin1ELi1ELi0EEC1Ev, symObjAddr: 0xEED4, symBinAddr: 0x1000116BC, symSize: 0x2C }
  - { offsetInCU: 0x9751F, offset: 0x9751F, size: 0x8, addend: 0x0, symName: __ZN5Eigen9DenseBaseINS_6MatrixIfLin1ELi1ELi0ELin1ELi1EEEEC2Ev, symObjAddr: 0xEF00, symBinAddr: 0x1000116E8, symSize: 0x14 }
  - { offsetInCU: 0x97549, offset: 0x97549, size: 0x8, addend: 0x0, symName: __ZN5Eigen12DenseStorageIfLin1ELin1ELi1ELi0EEC2Ev, symObjAddr: 0xEF14, symBinAddr: 0x1000116FC, symSize: 0x1C }
  - { offsetInCU: 0x97573, offset: 0x97573, size: 0x8, addend: 0x0, symName: __ZN5Eigen15PlainObjectBaseINS_6MatrixIfLin1ELi1ELi0ELin1ELi1EEEE6resizeEl, symObjAddr: 0xEF40, symBinAddr: 0x100011728, symSize: 0x74 }
  - { offsetInCU: 0x975A8, offset: 0x975A8, size: 0x8, addend: 0x0, symName: __ZN5Eigen12DenseStorageIfLin1ELin1ELi1ELi0EE6resizeElll, symObjAddr: 0xEFB4, symBinAddr: 0x10001179C, symSize: 0xA4 }
  - { offsetInCU: 0x975F7, offset: 0x975F7, size: 0x8, addend: 0x0, symName: __ZN5Eigen15DenseCoeffsBaseINS_6MatrixIfLin1ELi1ELi0ELin1ELi1EEELi1EE8coeffRefEl, symObjAddr: 0xF058, symBinAddr: 0x100011840, symSize: 0x78 }
  - { offsetInCU: 0x9762C, offset: 0x9762C, size: 0x8, addend: 0x0, symName: __ZN5Eigen9EigenBaseINS_6MatrixIfLin1ELi1ELi0ELin1ELi1EEEE7derivedEv, symObjAddr: 0xF0D0, symBinAddr: 0x1000118B8, symSize: 0x14 }
  - { offsetInCU: 0x97652, offset: 0x97652, size: 0x8, addend: 0x0, symName: __ZN5Eigen8internal9evaluatorINS_6MatrixIfLin1ELi1ELi0ELin1ELi1EEEEC1ERKS3_, symObjAddr: 0xF0E4, symBinAddr: 0x1000118CC, symSize: 0x34 }
  - { offsetInCU: 0x9768B, offset: 0x9768B, size: 0x8, addend: 0x0, symName: __ZN5Eigen8internal9evaluatorINS_15PlainObjectBaseINS_6MatrixIfLin1ELi1ELi0ELin1ELi1EEEEEE8coeffRefEl, symObjAddr: 0xF118, symBinAddr: 0x100011900, symSize: 0x24 }
  - { offsetInCU: 0x976BF, offset: 0x976BF, size: 0x8, addend: 0x0, symName: __ZN5Eigen8internal9evaluatorINS_6MatrixIfLin1ELi1ELi0ELin1ELi1EEEED1Ev, symObjAddr: 0xF13C, symBinAddr: 0x100011924, symSize: 0x2C }
  - { offsetInCU: 0x976EC, offset: 0x976EC, size: 0x8, addend: 0x0, symName: __ZN5Eigen8internal9evaluatorINS_6MatrixIfLin1ELi1ELi0ELin1ELi1EEEEC2ERKS3_, symObjAddr: 0xF168, symBinAddr: 0x100011950, symSize: 0x34 }
  - { offsetInCU: 0x97725, offset: 0x97725, size: 0x8, addend: 0x0, symName: __ZN5Eigen8internal9evaluatorINS_15PlainObjectBaseINS_6MatrixIfLin1ELi1ELi0ELin1ELi1EEEEEEC2ERKS5_, symObjAddr: 0xF19C, symBinAddr: 0x100011984, symSize: 0x78 }
  - { offsetInCU: 0x9775D, offset: 0x9775D, size: 0x8, addend: 0x0, symName: __ZN5Eigen8internal14evaluator_baseINS_6MatrixIfLin1ELi1ELi0ELin1ELi1EEEEC2Ev, symObjAddr: 0xF214, symBinAddr: 0x1000119FC, symSize: 0x14 }
  - { offsetInCU: 0x97787, offset: 0x97787, size: 0x8, addend: 0x0, symName: __ZNK5Eigen15PlainObjectBaseINS_6MatrixIfLin1ELi1ELi0ELin1ELi1EEEE4dataEv, symObjAddr: 0xF228, symBinAddr: 0x100011A10, symSize: 0x24 }
  - { offsetInCU: 0x977AD, offset: 0x977AD, size: 0x8, addend: 0x0, symName: __ZN5Eigen8internal30plainobjectbase_evaluator_dataIfLi0EEC1EPKfl, symObjAddr: 0xF24C, symBinAddr: 0x100011A34, symSize: 0x3C }
  - { offsetInCU: 0x977F3, offset: 0x977F3, size: 0x8, addend: 0x0, symName: __ZN5Eigen8internal14evaluator_baseINS_6MatrixIfLin1ELi1ELi0ELin1ELi1EEEED2Ev, symObjAddr: 0xF288, symBinAddr: 0x100011A70, symSize: 0x14 }
  - { offsetInCU: 0x9781D, offset: 0x9781D, size: 0x8, addend: 0x0, symName: __ZNK5Eigen12DenseStorageIfLin1ELin1ELi1ELi0EE4dataEv, symObjAddr: 0xF29C, symBinAddr: 0x100011A84, symSize: 0x18 }
  - { offsetInCU: 0x97843, offset: 0x97843, size: 0x8, addend: 0x0, symName: __ZN5Eigen8internal30plainobjectbase_evaluator_dataIfLi0EEC2EPKfl, symObjAddr: 0xF2B4, symBinAddr: 0x100011A9C, symSize: 0x40 }
  - { offsetInCU: 0x97889, offset: 0x97889, size: 0x8, addend: 0x0, symName: __ZN5Eigen8internal9evaluatorINS_6MatrixIfLin1ELi1ELi0ELin1ELi1EEEED2Ev, symObjAddr: 0xF304, symBinAddr: 0x100011AEC, symSize: 0x2C }
  - { offsetInCU: 0x978B6, offset: 0x978B6, size: 0x8, addend: 0x0, symName: __ZN5Eigen8internal9evaluatorINS_15PlainObjectBaseINS_6MatrixIfLin1ELi1ELi0ELin1ELi1EEEEEED2Ev, symObjAddr: 0xF330, symBinAddr: 0x100011B18, symSize: 0x2C }
  - { offsetInCU: 0x978E2, offset: 0x978E2, size: 0x8, addend: 0x0, symName: __ZN5Eigen8internal20scalar_difference_opIffEC1Ev, symObjAddr: 0xF35C, symBinAddr: 0x100011B44, symSize: 0x2C }
  - { offsetInCU: 0x9790C, offset: 0x9790C, size: 0x8, addend: 0x0, symName: __ZN5Eigen13CwiseBinaryOpINS_8internal20scalar_difference_opIffEEKNS_6MatrixIfLin1ELi1ELi0ELin1ELi1EEES6_EC1ERS6_S8_RKS3_, symObjAddr: 0xF388, symBinAddr: 0x100011B70, symSize: 0x44 }
  - { offsetInCU: 0x97960, offset: 0x97960, size: 0x8, addend: 0x0, symName: __ZN5Eigen8internal20scalar_difference_opIffEC2Ev, symObjAddr: 0xF3CC, symBinAddr: 0x100011BB4, symSize: 0x14 }
  - { offsetInCU: 0x9798A, offset: 0x9798A, size: 0x8, addend: 0x0, symName: __ZN5Eigen13CwiseBinaryOpINS_8internal20scalar_difference_opIffEEKNS_6MatrixIfLin1ELi1ELi0ELin1ELi1EEES6_EC2ERS6_S8_RKS3_, symObjAddr: 0xF3E0, symBinAddr: 0x100011BC8, symSize: 0xF0 }
  - { offsetInCU: 0x979E3, offset: 0x979E3, size: 0x8, addend: 0x0, symName: __ZN5Eigen17CwiseBinaryOpImplINS_8internal20scalar_difference_opIffEEKNS_6MatrixIfLin1ELi1ELi0ELin1ELi1EEES6_NS_5DenseEEC2Ev, symObjAddr: 0xF4D0, symBinAddr: 0x100011CB8, symSize: 0x2C }
  - { offsetInCU: 0x97A0F, offset: 0x97A0F, size: 0x8, addend: 0x0, symName: __ZN5Eigen8internal20scalar_difference_opIffEC1ERKS2_, symObjAddr: 0xF4FC, symBinAddr: 0x100011CE4, symSize: 0x34 }
  - { offsetInCU: 0x97A44, offset: 0x97A44, size: 0x8, addend: 0x0, symName: __ZN5Eigen10MatrixBaseINS_13CwiseBinaryOpINS_8internal20scalar_difference_opIffEEKNS_6MatrixIfLin1ELi1ELi0ELin1ELi1EEES7_EEEC2Ev, symObjAddr: 0xF530, symBinAddr: 0x100011D18, symSize: 0x2C }
  - { offsetInCU: 0x97A6E, offset: 0x97A6E, size: 0x8, addend: 0x0, symName: __ZN5Eigen9DenseBaseINS_13CwiseBinaryOpINS_8internal20scalar_difference_opIffEEKNS_6MatrixIfLin1ELi1ELi0ELin1ELi1EEES7_EEEC2Ev, symObjAddr: 0xF55C, symBinAddr: 0x100011D44, symSize: 0x14 }
  - { offsetInCU: 0x97A98, offset: 0x97A98, size: 0x8, addend: 0x0, symName: __ZN5Eigen8internal20scalar_difference_opIffEC2ERKS2_, symObjAddr: 0xF570, symBinAddr: 0x100011D58, symSize: 0x18 }
  - { offsetInCU: 0x97ACD, offset: 0x97ACD, size: 0x8, addend: 0x0, symName: __ZNK5Eigen10MatrixBaseINS_13CwiseBinaryOpINS_8internal20scalar_difference_opIffEEKNS_6MatrixIfLin1ELi1ELi0ELin1ELi1EEES7_EEE9cwiseAbs2Ev, symObjAddr: 0xF5AC, symBinAddr: 0x100011D94, symSize: 0x4C }
  - { offsetInCU: 0x97AF3, offset: 0x97AF3, size: 0x8, addend: 0x0, symName: __ZNK5Eigen9DenseBaseINS_12CwiseUnaryOpINS_8internal14scalar_abs2_opIfEEKNS_13CwiseBinaryOpINS2_20scalar_difference_opIffEEKNS_6MatrixIfLin1ELi1ELi0ELin1ELi1EEESA_EEEEE3sumEv, symObjAddr: 0xF5F8, symBinAddr: 0x100011DE0, symSize: 0x74 }
  - { offsetInCU: 0x97B1C, offset: 0x97B1C, size: 0x8, addend: 0x0, symName: __ZN5Eigen8internal17real_default_implIfLb0EE3runERKf, symObjAddr: 0xF66C, symBinAddr: 0x100011E54, symSize: 0x18 }
  - { offsetInCU: 0x97B3F, offset: 0x97B3F, size: 0x8, addend: 0x0, symName: __ZNK5Eigen9EigenBaseINS_13CwiseBinaryOpINS_8internal20scalar_difference_opIffEEKNS_6MatrixIfLin1ELi1ELi0ELin1ELi1EEES7_EEE7derivedEv, symObjAddr: 0xF684, symBinAddr: 0x100011E6C, symSize: 0x14 }
  - { offsetInCU: 0x97B65, offset: 0x97B65, size: 0x8, addend: 0x0, symName: __ZN5Eigen8internal14scalar_abs2_opIfEC1Ev, symObjAddr: 0xF698, symBinAddr: 0x100011E80, symSize: 0x2C }
  - { offsetInCU: 0x97B8F, offset: 0x97B8F, size: 0x8, addend: 0x0, symName: __ZN5Eigen12CwiseUnaryOpINS_8internal14scalar_abs2_opIfEEKNS_13CwiseBinaryOpINS1_20scalar_difference_opIffEEKNS_6MatrixIfLin1ELi1ELi0ELin1ELi1EEES9_EEEC1ERSB_RKS3_, symObjAddr: 0xF6C4, symBinAddr: 0x100011EAC, symSize: 0x3C }
  - { offsetInCU: 0x97BD5, offset: 0x97BD5, size: 0x8, addend: 0x0, symName: __ZN5Eigen8internal14scalar_abs2_opIfEC2Ev, symObjAddr: 0xF700, symBinAddr: 0x100011EE8, symSize: 0x14 }
  - { offsetInCU: 0x97BFF, offset: 0x97BFF, size: 0x8, addend: 0x0, symName: __ZN5Eigen12CwiseUnaryOpINS_8internal14scalar_abs2_opIfEEKNS_13CwiseBinaryOpINS1_20scalar_difference_opIffEEKNS_6MatrixIfLin1ELi1ELi0ELin1ELi1EEES9_EEEC2ERSB_RKS3_, symObjAddr: 0xF714, symBinAddr: 0x100011EFC, symSize: 0x54 }
  - { offsetInCU: 0x97C4A, offset: 0x97C4A, size: 0x8, addend: 0x0, symName: __ZN5Eigen16CwiseUnaryOpImplINS_8internal14scalar_abs2_opIfEEKNS_13CwiseBinaryOpINS1_20scalar_difference_opIffEEKNS_6MatrixIfLin1ELi1ELi0ELin1ELi1EEES9_EENS_5DenseEEC2Ev, symObjAddr: 0xF768, symBinAddr: 0x100011F50, symSize: 0x2C }
  - { offsetInCU: 0x97C76, offset: 0x97C76, size: 0x8, addend: 0x0, symName: __ZN5Eigen13CwiseBinaryOpINS_8internal20scalar_difference_opIffEEKNS_6MatrixIfLin1ELi1ELi0ELin1ELi1EEES6_EC1ERKS7_, symObjAddr: 0xF794, symBinAddr: 0x100011F7C, symSize: 0x34 }
  - { offsetInCU: 0x97CAB, offset: 0x97CAB, size: 0x8, addend: 0x0, symName: __ZN5Eigen8internal14scalar_abs2_opIfEC1ERKS2_, symObjAddr: 0xF7C8, symBinAddr: 0x100011FB0, symSize: 0x34 }
  - { offsetInCU: 0x97CE0, offset: 0x97CE0, size: 0x8, addend: 0x0, symName: __ZN5Eigen10MatrixBaseINS_12CwiseUnaryOpINS_8internal14scalar_abs2_opIfEEKNS_13CwiseBinaryOpINS2_20scalar_difference_opIffEEKNS_6MatrixIfLin1ELi1ELi0ELin1ELi1EEESA_EEEEEC2Ev, symObjAddr: 0xF7FC, symBinAddr: 0x100011FE4, symSize: 0x2C }
  - { offsetInCU: 0x97D0A, offset: 0x97D0A, size: 0x8, addend: 0x0, symName: __ZN5Eigen9DenseBaseINS_12CwiseUnaryOpINS_8internal14scalar_abs2_opIfEEKNS_13CwiseBinaryOpINS2_20scalar_difference_opIffEEKNS_6MatrixIfLin1ELi1ELi0ELin1ELi1EEESA_EEEEEC2Ev, symObjAddr: 0xF828, symBinAddr: 0x100012010, symSize: 0x14 }
  - { offsetInCU: 0x97D34, offset: 0x97D34, size: 0x8, addend: 0x0, symName: __ZN5Eigen13CwiseBinaryOpINS_8internal20scalar_difference_opIffEEKNS_6MatrixIfLin1ELi1ELi0ELin1ELi1EEES6_EC2ERKS7_, symObjAddr: 0xF83C, symBinAddr: 0x100012024, symSize: 0x48 }
  - { offsetInCU: 0x97D69, offset: 0x97D69, size: 0x8, addend: 0x0, symName: __ZN5Eigen8internal14scalar_abs2_opIfEC2ERKS2_, symObjAddr: 0xF884, symBinAddr: 0x10001206C, symSize: 0x18 }
  - { offsetInCU: 0x97D9E, offset: 0x97D9E, size: 0x8, addend: 0x0, symName: __ZNK5Eigen9EigenBaseINS_12CwiseUnaryOpINS_8internal14scalar_abs2_opIfEEKNS_13CwiseBinaryOpINS2_20scalar_difference_opIffEEKNS_6MatrixIfLin1ELi1ELi0ELin1ELi1EEESA_EEEEE4sizeEv, symObjAddr: 0xF89C, symBinAddr: 0x100012084, symSize: 0x44 }
  - { offsetInCU: 0x97DC4, offset: 0x97DC4, size: 0x8, addend: 0x0, symName: __ZNK5Eigen9EigenBaseINS_12CwiseUnaryOpINS_8internal14scalar_abs2_opIfEEKNS_13CwiseBinaryOpINS2_20scalar_difference_opIffEEKNS_6MatrixIfLin1ELi1ELi0ELin1ELi1EEESA_EEEEE7derivedEv, symObjAddr: 0xF8E0, symBinAddr: 0x1000120C8, symSize: 0x14 }
  - { offsetInCU: 0x97DFE, offset: 0x97DFE, size: 0x8, addend: 0x0, symName: __ZNK5Eigen9DenseBaseINS_12CwiseUnaryOpINS_8internal14scalar_abs2_opIfEEKNS_13CwiseBinaryOpINS2_20scalar_difference_opIffEEKNS_6MatrixIfLin1ELi1ELi0ELin1ELi1EEESA_EEEEE5reduxINS2_13scalar_sum_opIffEEEEfRKT_, symObjAddr: 0xF8F4, symBinAddr: 0x1000120DC, symSize: 0x10C }
  - { offsetInCU: 0x97E5A, offset: 0x97E5A, size: 0x8, addend: 0x0, symName: __ZN5Eigen8internal13scalar_sum_opIffEC1Ev, symObjAddr: 0xFA00, symBinAddr: 0x1000121E8, symSize: 0x2C }
  - { offsetInCU: 0x97E84, offset: 0x97E84, size: 0x8, addend: 0x0, symName: __ZNK5Eigen9EigenBaseINS_12CwiseUnaryOpINS_8internal14scalar_abs2_opIfEEKNS_13CwiseBinaryOpINS2_20scalar_difference_opIffEEKNS_6MatrixIfLin1ELi1ELi0ELin1ELi1EEESA_EEEEE4rowsEv, symObjAddr: 0xFA2C, symBinAddr: 0x100012214, symSize: 0x38 }
  - { offsetInCU: 0x97EAA, offset: 0x97EAA, size: 0x8, addend: 0x0, symName: __ZNK5Eigen9EigenBaseINS_12CwiseUnaryOpINS_8internal14scalar_abs2_opIfEEKNS_13CwiseBinaryOpINS2_20scalar_difference_opIffEEKNS_6MatrixIfLin1ELi1ELi0ELin1ELi1EEESA_EEEEE4colsEv, symObjAddr: 0xFA64, symBinAddr: 0x10001224C, symSize: 0x38 }
  - { offsetInCU: 0x97ED0, offset: 0x97ED0, size: 0x8, addend: 0x0, symName: __ZNK5Eigen12CwiseUnaryOpINS_8internal14scalar_abs2_opIfEEKNS_13CwiseBinaryOpINS1_20scalar_difference_opIffEEKNS_6MatrixIfLin1ELi1ELi0ELin1ELi1EEES9_EEE4rowsEv, symObjAddr: 0xFA9C, symBinAddr: 0x100012284, symSize: 0x28 }
  - { offsetInCU: 0x97EF6, offset: 0x97EF6, size: 0x8, addend: 0x0, symName: __ZNK5Eigen13CwiseBinaryOpINS_8internal20scalar_difference_opIffEEKNS_6MatrixIfLin1ELi1ELi0ELin1ELi1EEES6_E4rowsEv, symObjAddr: 0xFAC4, symBinAddr: 0x1000122AC, symSize: 0x28 }
  - { offsetInCU: 0x97F1C, offset: 0x97F1C, size: 0x8, addend: 0x0, symName: __ZNK5Eigen12CwiseUnaryOpINS_8internal14scalar_abs2_opIfEEKNS_13CwiseBinaryOpINS1_20scalar_difference_opIffEEKNS_6MatrixIfLin1ELi1ELi0ELin1ELi1EEES9_EEE4colsEv, symObjAddr: 0xFAEC, symBinAddr: 0x1000122D4, symSize: 0x28 }
  - { offsetInCU: 0x97F42, offset: 0x97F42, size: 0x8, addend: 0x0, symName: __ZNK5Eigen13CwiseBinaryOpINS_8internal20scalar_difference_opIffEEKNS_6MatrixIfLin1ELi1ELi0ELin1ELi1EEES6_E4colsEv, symObjAddr: 0xFB14, symBinAddr: 0x1000122FC, symSize: 0x28 }
  - { offsetInCU: 0x9800D, offset: 0x9800D, size: 0x8, addend: 0x0, symName: __ZN5Eigen8internal15redux_evaluatorINS_12CwiseUnaryOpINS0_14scalar_abs2_opIfEEKNS_13CwiseBinaryOpINS0_20scalar_difference_opIffEEKNS_6MatrixIfLin1ELi1ELi0ELin1ELi1EEESA_EEEEEC1ERKSD_, symObjAddr: 0xFB3C, symBinAddr: 0x100012324, symSize: 0x34 }
  - { offsetInCU: 0x9804B, offset: 0x9804B, size: 0x8, addend: 0x0, symName: __ZN5Eigen8internal10redux_implINS0_13scalar_sum_opIffEENS0_15redux_evaluatorINS_12CwiseUnaryOpINS0_14scalar_abs2_opIfEEKNS_13CwiseBinaryOpINS0_20scalar_difference_opIffEEKNS_6MatrixIfLin1ELi1ELi0ELin1ELi1EEESD_EEEEEELi3ELi0EE3runISG_EEfRKSH_RKS3_RKT_, symObjAddr: 0xFB70, symBinAddr: 0x100012358, symSize: 0x3A4 }
  - { offsetInCU: 0x981C8, offset: 0x981C8, size: 0x8, addend: 0x0, symName: __ZN5Eigen8internal15redux_evaluatorINS_12CwiseUnaryOpINS0_14scalar_abs2_opIfEEKNS_13CwiseBinaryOpINS0_20scalar_difference_opIffEEKNS_6MatrixIfLin1ELi1ELi0ELin1ELi1EEESA_EEEEED1Ev, symObjAddr: 0xFF14, symBinAddr: 0x1000126FC, symSize: 0x2C }
  - { offsetInCU: 0x981F5, offset: 0x981F5, size: 0x8, addend: 0x0, symName: __ZN5Eigen8internal15redux_evaluatorINS_12CwiseUnaryOpINS0_14scalar_abs2_opIfEEKNS_13CwiseBinaryOpINS0_20scalar_difference_opIffEEKNS_6MatrixIfLin1ELi1ELi0ELin1ELi1EEESA_EEEEEC2ERKSD_, symObjAddr: 0xFF40, symBinAddr: 0x100012728, symSize: 0x34 }
  - { offsetInCU: 0x9822E, offset: 0x9822E, size: 0x8, addend: 0x0, symName: __ZN5Eigen8internal9evaluatorINS_12CwiseUnaryOpINS0_14scalar_abs2_opIfEEKNS_13CwiseBinaryOpINS0_20scalar_difference_opIffEEKNS_6MatrixIfLin1ELi1ELi0ELin1ELi1EEESA_EEEEEC2ERKSD_, symObjAddr: 0xFF74, symBinAddr: 0x10001275C, symSize: 0x34 }
  - { offsetInCU: 0x98266, offset: 0x98266, size: 0x8, addend: 0x0, symName: __ZN5Eigen8internal15unary_evaluatorINS_12CwiseUnaryOpINS0_14scalar_abs2_opIfEEKNS_13CwiseBinaryOpINS0_20scalar_difference_opIffEEKNS_6MatrixIfLin1ELi1ELi0ELin1ELi1EEESA_EEEENS0_10IndexBasedEfEC2ERKSD_, symObjAddr: 0xFFA8, symBinAddr: 0x100012790, symSize: 0x64 }
  - { offsetInCU: 0x9829F, offset: 0x9829F, size: 0x8, addend: 0x0, symName: __ZN5Eigen8internal14evaluator_baseINS_12CwiseUnaryOpINS0_14scalar_abs2_opIfEEKNS_13CwiseBinaryOpINS0_20scalar_difference_opIffEEKNS_6MatrixIfLin1ELi1ELi0ELin1ELi1EEESA_EEEEEC2Ev, symObjAddr: 0x1000C, symBinAddr: 0x1000127F4, symSize: 0x14 }
  - { offsetInCU: 0x982C9, offset: 0x982C9, size: 0x8, addend: 0x0, symName: __ZN5Eigen8internal15unary_evaluatorINS_12CwiseUnaryOpINS0_14scalar_abs2_opIfEEKNS_13CwiseBinaryOpINS0_20scalar_difference_opIffEEKNS_6MatrixIfLin1ELi1ELi0ELin1ELi1EEESA_EEEENS0_10IndexBasedEfE4DataC1ERKSD_, symObjAddr: 0x10020, symBinAddr: 0x100012808, symSize: 0x34 }
  - { offsetInCU: 0x98302, offset: 0x98302, size: 0x8, addend: 0x0, symName: __ZN5Eigen8internal14evaluator_baseINS_12CwiseUnaryOpINS0_14scalar_abs2_opIfEEKNS_13CwiseBinaryOpINS0_20scalar_difference_opIffEEKNS_6MatrixIfLin1ELi1ELi0ELin1ELi1EEESA_EEEEED2Ev, symObjAddr: 0x10054, symBinAddr: 0x10001283C, symSize: 0x14 }
  - { offsetInCU: 0x9832C, offset: 0x9832C, size: 0x8, addend: 0x0, symName: __ZN5Eigen8internal15unary_evaluatorINS_12CwiseUnaryOpINS0_14scalar_abs2_opIfEEKNS_13CwiseBinaryOpINS0_20scalar_difference_opIffEEKNS_6MatrixIfLin1ELi1ELi0ELin1ELi1EEESA_EEEENS0_10IndexBasedEfE4DataC2ERKSD_, symObjAddr: 0x10068, symBinAddr: 0x100012850, symSize: 0x58 }
  - { offsetInCU: 0x98365, offset: 0x98365, size: 0x8, addend: 0x0, symName: __ZNK5Eigen12CwiseUnaryOpINS_8internal14scalar_abs2_opIfEEKNS_13CwiseBinaryOpINS1_20scalar_difference_opIffEEKNS_6MatrixIfLin1ELi1ELi0ELin1ELi1EEES9_EEE7functorEv, symObjAddr: 0x100C0, symBinAddr: 0x1000128A8, symSize: 0x18 }
  - { offsetInCU: 0x9838B, offset: 0x9838B, size: 0x8, addend: 0x0, symName: __ZNK5Eigen12CwiseUnaryOpINS_8internal14scalar_abs2_opIfEEKNS_13CwiseBinaryOpINS1_20scalar_difference_opIffEEKNS_6MatrixIfLin1ELi1ELi0ELin1ELi1EEES9_EEE16nestedExpressionEv, symObjAddr: 0x100D8, symBinAddr: 0x1000128C0, symSize: 0x18 }
  - { offsetInCU: 0x983B1, offset: 0x983B1, size: 0x8, addend: 0x0, symName: __ZN5Eigen8internal9evaluatorIKNS_13CwiseBinaryOpINS0_20scalar_difference_opIffEEKNS_6MatrixIfLin1ELi1ELi0ELin1ELi1EEES7_EEEC1ERS9_, symObjAddr: 0x100F0, symBinAddr: 0x1000128D8, symSize: 0x34 }
  - { offsetInCU: 0x983E9, offset: 0x983E9, size: 0x8, addend: 0x0, symName: __ZN5Eigen8internal9evaluatorIKNS_13CwiseBinaryOpINS0_20scalar_difference_opIffEEKNS_6MatrixIfLin1ELi1ELi0ELin1ELi1EEES7_EEEC2ERS9_, symObjAddr: 0x10124, symBinAddr: 0x10001290C, symSize: 0x34 }
  - { offsetInCU: 0x98421, offset: 0x98421, size: 0x8, addend: 0x0, symName: __ZN5Eigen8internal9evaluatorINS_13CwiseBinaryOpINS0_20scalar_difference_opIffEEKNS_6MatrixIfLin1ELi1ELi0ELin1ELi1EEES7_EEEC2ERKS8_, symObjAddr: 0x10158, symBinAddr: 0x100012940, symSize: 0x34 }
  - { offsetInCU: 0x9845A, offset: 0x9845A, size: 0x8, addend: 0x0, symName: __ZN5Eigen8internal16binary_evaluatorINS_13CwiseBinaryOpINS0_20scalar_difference_opIffEEKNS_6MatrixIfLin1ELi1ELi0ELin1ELi1EEES7_EENS0_10IndexBasedES9_ffEC2ERKS8_, symObjAddr: 0x1018C, symBinAddr: 0x100012974, symSize: 0x64 }
  - { offsetInCU: 0x98493, offset: 0x98493, size: 0x8, addend: 0x0, symName: __ZN5Eigen8internal14evaluator_baseINS_13CwiseBinaryOpINS0_20scalar_difference_opIffEEKNS_6MatrixIfLin1ELi1ELi0ELin1ELi1EEES7_EEEC2Ev, symObjAddr: 0x101F0, symBinAddr: 0x1000129D8, symSize: 0x14 }
  - { offsetInCU: 0x984BD, offset: 0x984BD, size: 0x8, addend: 0x0, symName: __ZN5Eigen8internal16binary_evaluatorINS_13CwiseBinaryOpINS0_20scalar_difference_opIffEEKNS_6MatrixIfLin1ELi1ELi0ELin1ELi1EEES7_EENS0_10IndexBasedES9_ffE4DataC1ERKS8_, symObjAddr: 0x10204, symBinAddr: 0x1000129EC, symSize: 0x34 }
  - { offsetInCU: 0x984F6, offset: 0x984F6, size: 0x8, addend: 0x0, symName: __ZN5Eigen8internal14evaluator_baseINS_13CwiseBinaryOpINS0_20scalar_difference_opIffEEKNS_6MatrixIfLin1ELi1ELi0ELin1ELi1EEES7_EEED2Ev, symObjAddr: 0x10238, symBinAddr: 0x100012A20, symSize: 0x14 }
  - { offsetInCU: 0x98520, offset: 0x98520, size: 0x8, addend: 0x0, symName: __ZN5Eigen8internal16binary_evaluatorINS_13CwiseBinaryOpINS0_20scalar_difference_opIffEEKNS_6MatrixIfLin1ELi1ELi0ELin1ELi1EEES7_EENS0_10IndexBasedES9_ffE4DataC2ERKS8_, symObjAddr: 0x1024C, symBinAddr: 0x100012A34, symSize: 0xA8 }
  - { offsetInCU: 0x98559, offset: 0x98559, size: 0x8, addend: 0x0, symName: __ZNK5Eigen13CwiseBinaryOpINS_8internal20scalar_difference_opIffEEKNS_6MatrixIfLin1ELi1ELi0ELin1ELi1EEES6_E7functorEv, symObjAddr: 0x102F4, symBinAddr: 0x100012ADC, symSize: 0x18 }
  - { offsetInCU: 0x9857F, offset: 0x9857F, size: 0x8, addend: 0x0, symName: __ZNK5Eigen13CwiseBinaryOpINS_8internal20scalar_difference_opIffEEKNS_6MatrixIfLin1ELi1ELi0ELin1ELi1EEES6_E3lhsEv, symObjAddr: 0x1030C, symBinAddr: 0x100012AF4, symSize: 0x18 }
  - { offsetInCU: 0x985A5, offset: 0x985A5, size: 0x8, addend: 0x0, symName: __ZN5Eigen8internal9evaluatorIKNS_6MatrixIfLin1ELi1ELi0ELin1ELi1EEEEC1ERS4_, symObjAddr: 0x10324, symBinAddr: 0x100012B0C, symSize: 0x34 }
  - { offsetInCU: 0x985DD, offset: 0x985DD, size: 0x8, addend: 0x0, symName: __ZNK5Eigen13CwiseBinaryOpINS_8internal20scalar_difference_opIffEEKNS_6MatrixIfLin1ELi1ELi0ELin1ELi1EEES6_E3rhsEv, symObjAddr: 0x10358, symBinAddr: 0x100012B40, symSize: 0x18 }
  - { offsetInCU: 0x98603, offset: 0x98603, size: 0x8, addend: 0x0, symName: __ZN5Eigen8internal9evaluatorIKNS_6MatrixIfLin1ELi1ELi0ELin1ELi1EEEED1Ev, symObjAddr: 0x10370, symBinAddr: 0x100012B58, symSize: 0x2C }
  - { offsetInCU: 0x9862F, offset: 0x9862F, size: 0x8, addend: 0x0, symName: __ZN5Eigen8internal9evaluatorIKNS_6MatrixIfLin1ELi1ELi0ELin1ELi1EEEEC2ERS4_, symObjAddr: 0x1039C, symBinAddr: 0x100012B84, symSize: 0x34 }
  - { offsetInCU: 0x98667, offset: 0x98667, size: 0x8, addend: 0x0, symName: __ZN5Eigen8internal9evaluatorIKNS_6MatrixIfLin1ELi1ELi0ELin1ELi1EEEED2Ev, symObjAddr: 0x103D0, symBinAddr: 0x100012BB8, symSize: 0x2C }
  - { offsetInCU: 0x986A1, offset: 0x986A1, size: 0x8, addend: 0x0, symName: __ZNK5Eigen8internal15unary_evaluatorINS_12CwiseUnaryOpINS0_14scalar_abs2_opIfEEKNS_13CwiseBinaryOpINS0_20scalar_difference_opIffEEKNS_6MatrixIfLin1ELi1ELi0ELin1ELi1EEESA_EEEENS0_10IndexBasedEfE6packetILi16E19__simd128_float32_tEET0_l, symObjAddr: 0x10420, symBinAddr: 0x100012C08, symSize: 0x50 }
  - { offsetInCU: 0x986F3, offset: 0x986F3, size: 0x8, addend: 0x0, symName: __ZNK5Eigen8internal13scalar_sum_opIffE8packetOpI19__simd128_float32_tEET_RKS5_S7_, symObjAddr: 0x10470, symBinAddr: 0x100012C58, symSize: 0x30 }
  - { offsetInCU: 0x9873E, offset: 0x9873E, size: 0x8, addend: 0x0, symName: __ZNK5Eigen8internal13scalar_sum_opIffE6preduxI19__simd128_float32_tEEfRKT_, symObjAddr: 0x104A0, symBinAddr: 0x100012C88, symSize: 0x28 }
  - { offsetInCU: 0x9877B, offset: 0x9877B, size: 0x8, addend: 0x0, symName: __ZNK5Eigen8internal13scalar_sum_opIffEclERKfS4_, symObjAddr: 0x104C8, symBinAddr: 0x100012CB0, symSize: 0x2C }
  - { offsetInCU: 0x987BD, offset: 0x987BD, size: 0x8, addend: 0x0, symName: __ZNK5Eigen8internal15unary_evaluatorINS_12CwiseUnaryOpINS0_14scalar_abs2_opIfEEKNS_13CwiseBinaryOpINS0_20scalar_difference_opIffEEKNS_6MatrixIfLin1ELi1ELi0ELin1ELi1EEESA_EEEENS0_10IndexBasedEfE5coeffEl, symObjAddr: 0x104F4, symBinAddr: 0x100012CDC, symSize: 0x50 }
  - { offsetInCU: 0x987F2, offset: 0x987F2, size: 0x8, addend: 0x0, symName: __ZN5Eigen8internal18first_aligned_implILi16ENS_12CwiseUnaryOpINS0_14scalar_abs2_opIfEEKNS_13CwiseBinaryOpINS0_20scalar_difference_opIffEEKNS_6MatrixIfLin1ELi1ELi0ELin1ELi1EEESA_EEEELb1EE3runERKSD_, symObjAddr: 0x1056C, symBinAddr: 0x100012D54, symSize: 0x14 }
  - { offsetInCU: 0x98812, offset: 0x98812, size: 0x8, addend: 0x0, symName: __ZNK5Eigen8internal15unary_evaluatorINS_12CwiseUnaryOpINS0_14scalar_abs2_opIfEEKNS_13CwiseBinaryOpINS0_20scalar_difference_opIffEEKNS_6MatrixIfLin1ELi1ELi0ELin1ELi1EEESA_EEEENS0_10IndexBasedEfE4Data4funcEv, symObjAddr: 0x10580, symBinAddr: 0x100012D68, symSize: 0x14 }
  - { offsetInCU: 0x98838, offset: 0x98838, size: 0x8, addend: 0x0, symName: __ZNK5Eigen8internal14scalar_abs2_opIfE8packetOpI19__simd128_float32_tEEKT_RS6_, symObjAddr: 0x10594, symBinAddr: 0x100012D7C, symSize: 0x2C }
  - { offsetInCU: 0x98875, offset: 0x98875, size: 0x8, addend: 0x0, symName: __ZNK5Eigen8internal16binary_evaluatorINS_13CwiseBinaryOpINS0_20scalar_difference_opIffEEKNS_6MatrixIfLin1ELi1ELi0ELin1ELi1EEES7_EENS0_10IndexBasedES9_ffE6packetILi16E19__simd128_float32_tEET0_l, symObjAddr: 0x105C0, symBinAddr: 0x100012DA8, symSize: 0x70 }
  - { offsetInCU: 0x988BD, offset: 0x988BD, size: 0x8, addend: 0x0, symName: __ZNK5Eigen8internal16binary_evaluatorINS_13CwiseBinaryOpINS0_20scalar_difference_opIffEEKNS_6MatrixIfLin1ELi1ELi0ELin1ELi1EEES7_EENS0_10IndexBasedES9_ffE4Data4funcEv, symObjAddr: 0x10670, symBinAddr: 0x100012E58, symSize: 0x14 }
  - { offsetInCU: 0x988E3, offset: 0x988E3, size: 0x8, addend: 0x0, symName: __ZNK5Eigen8internal20scalar_difference_opIffE8packetOpI19__simd128_float32_tEEKT_RS6_S7_, symObjAddr: 0x10684, symBinAddr: 0x100012E6C, symSize: 0x30 }
  - { offsetInCU: 0x9893A, offset: 0x9893A, size: 0x8, addend: 0x0, symName: __ZNK5Eigen8internal9evaluatorINS_15PlainObjectBaseINS_6MatrixIfLin1ELi1ELi0ELin1ELi1EEEEEE6packetILi16E19__simd128_float32_tEET0_l, symObjAddr: 0x106B4, symBinAddr: 0x100012E9C, symSize: 0x3C }
  - { offsetInCU: 0x9899F, offset: 0x9899F, size: 0x8, addend: 0x0, symName: __ZNK5Eigen8internal14scalar_abs2_opIfEclERKf, symObjAddr: 0x10844, symBinAddr: 0x10001302C, symSize: 0x28 }
  - { offsetInCU: 0x989D3, offset: 0x989D3, size: 0x8, addend: 0x0, symName: __ZNK5Eigen8internal16binary_evaluatorINS_13CwiseBinaryOpINS0_20scalar_difference_opIffEEKNS_6MatrixIfLin1ELi1ELi0ELin1ELi1EEES7_EENS0_10IndexBasedES9_ffE5coeffEl, symObjAddr: 0x1086C, symBinAddr: 0x100013054, symSize: 0x64 }
  - { offsetInCU: 0x98A08, offset: 0x98A08, size: 0x8, addend: 0x0, symName: __ZN5Eigen8internal9abs2_implIfE3runERKf, symObjAddr: 0x108F4, symBinAddr: 0x1000130DC, symSize: 0x24 }
  - { offsetInCU: 0x98A2C, offset: 0x98A2C, size: 0x8, addend: 0x0, symName: __ZN5Eigen8internal17abs2_impl_defaultIfLb0EE3runERKf, symObjAddr: 0x10918, symBinAddr: 0x100013100, symSize: 0x24 }
  - { offsetInCU: 0x98A50, offset: 0x98A50, size: 0x8, addend: 0x0, symName: __ZNK5Eigen8internal20scalar_difference_opIffEclERKfS4_, symObjAddr: 0x1093C, symBinAddr: 0x100013124, symSize: 0x2C }
  - { offsetInCU: 0x98A94, offset: 0x98A94, size: 0x8, addend: 0x0, symName: __ZNK5Eigen8internal9evaluatorINS_15PlainObjectBaseINS_6MatrixIfLin1ELi1ELi0ELin1ELi1EEEEEE5coeffEl, symObjAddr: 0x10968, symBinAddr: 0x100013150, symSize: 0x24 }
  - { offsetInCU: 0x98AC8, offset: 0x98AC8, size: 0x8, addend: 0x0, symName: __ZN5Eigen8internal15redux_evaluatorINS_12CwiseUnaryOpINS0_14scalar_abs2_opIfEEKNS_13CwiseBinaryOpINS0_20scalar_difference_opIffEEKNS_6MatrixIfLin1ELi1ELi0ELin1ELi1EEESA_EEEEED2Ev, symObjAddr: 0x1098C, symBinAddr: 0x100013174, symSize: 0x2C }
  - { offsetInCU: 0x98AF5, offset: 0x98AF5, size: 0x8, addend: 0x0, symName: __ZN5Eigen8internal9evaluatorINS_12CwiseUnaryOpINS0_14scalar_abs2_opIfEEKNS_13CwiseBinaryOpINS0_20scalar_difference_opIffEEKNS_6MatrixIfLin1ELi1ELi0ELin1ELi1EEESA_EEEEED2Ev, symObjAddr: 0x109B8, symBinAddr: 0x1000131A0, symSize: 0x2C }
  - { offsetInCU: 0x98B21, offset: 0x98B21, size: 0x8, addend: 0x0, symName: __ZN5Eigen8internal15unary_evaluatorINS_12CwiseUnaryOpINS0_14scalar_abs2_opIfEEKNS_13CwiseBinaryOpINS0_20scalar_difference_opIffEEKNS_6MatrixIfLin1ELi1ELi0ELin1ELi1EEESA_EEEENS0_10IndexBasedEfED2Ev, symObjAddr: 0x109E4, symBinAddr: 0x1000131CC, symSize: 0x34 }
  - { offsetInCU: 0x98B4D, offset: 0x98B4D, size: 0x8, addend: 0x0, symName: __ZN5Eigen8internal15unary_evaluatorINS_12CwiseUnaryOpINS0_14scalar_abs2_opIfEEKNS_13CwiseBinaryOpINS0_20scalar_difference_opIffEEKNS_6MatrixIfLin1ELi1ELi0ELin1ELi1EEESA_EEEENS0_10IndexBasedEfE4DataD1Ev, symObjAddr: 0x10A18, symBinAddr: 0x100013200, symSize: 0x2C }
  - { offsetInCU: 0x98B7A, offset: 0x98B7A, size: 0x8, addend: 0x0, symName: __ZN5Eigen8internal15unary_evaluatorINS_12CwiseUnaryOpINS0_14scalar_abs2_opIfEEKNS_13CwiseBinaryOpINS0_20scalar_difference_opIffEEKNS_6MatrixIfLin1ELi1ELi0ELin1ELi1EEESA_EEEENS0_10IndexBasedEfE4DataD2Ev, symObjAddr: 0x10A44, symBinAddr: 0x10001322C, symSize: 0x30 }
  - { offsetInCU: 0x98BA7, offset: 0x98BA7, size: 0x8, addend: 0x0, symName: __ZN5Eigen8internal9evaluatorIKNS_13CwiseBinaryOpINS0_20scalar_difference_opIffEEKNS_6MatrixIfLin1ELi1ELi0ELin1ELi1EEES7_EEED1Ev, symObjAddr: 0x10A74, symBinAddr: 0x10001325C, symSize: 0x2C }
  - { offsetInCU: 0x98BD3, offset: 0x98BD3, size: 0x8, addend: 0x0, symName: __ZN5Eigen8internal9evaluatorIKNS_13CwiseBinaryOpINS0_20scalar_difference_opIffEEKNS_6MatrixIfLin1ELi1ELi0ELin1ELi1EEES7_EEED2Ev, symObjAddr: 0x10AA0, symBinAddr: 0x100013288, symSize: 0x2C }
  - { offsetInCU: 0x98BFF, offset: 0x98BFF, size: 0x8, addend: 0x0, symName: __ZN5Eigen8internal9evaluatorINS_13CwiseBinaryOpINS0_20scalar_difference_opIffEEKNS_6MatrixIfLin1ELi1ELi0ELin1ELi1EEES7_EEED2Ev, symObjAddr: 0x10ACC, symBinAddr: 0x1000132B4, symSize: 0x2C }
  - { offsetInCU: 0x98C2C, offset: 0x98C2C, size: 0x8, addend: 0x0, symName: __ZN5Eigen8internal16binary_evaluatorINS_13CwiseBinaryOpINS0_20scalar_difference_opIffEEKNS_6MatrixIfLin1ELi1ELi0ELin1ELi1EEES7_EENS0_10IndexBasedES9_ffED2Ev, symObjAddr: 0x10AF8, symBinAddr: 0x1000132E0, symSize: 0x34 }
  - { offsetInCU: 0x98C58, offset: 0x98C58, size: 0x8, addend: 0x0, symName: __ZN5Eigen8internal16binary_evaluatorINS_13CwiseBinaryOpINS0_20scalar_difference_opIffEEKNS_6MatrixIfLin1ELi1ELi0ELin1ELi1EEES7_EENS0_10IndexBasedES9_ffE4DataD1Ev, symObjAddr: 0x10B2C, symBinAddr: 0x100013314, symSize: 0x2C }
  - { offsetInCU: 0x98C85, offset: 0x98C85, size: 0x8, addend: 0x0, symName: __ZN5Eigen8internal16binary_evaluatorINS_13CwiseBinaryOpINS0_20scalar_difference_opIffEEKNS_6MatrixIfLin1ELi1ELi0ELin1ELi1EEES7_EENS0_10IndexBasedES9_ffE4DataD2Ev, symObjAddr: 0x10B58, symBinAddr: 0x100013340, symSize: 0x3C }
  - { offsetInCU: 0x98CB2, offset: 0x98CB2, size: 0x8, addend: 0x0, symName: __ZN5Eigen8internal13scalar_sum_opIffEC2Ev, symObjAddr: 0x10B94, symBinAddr: 0x10001337C, symSize: 0x14 }
  - { offsetInCU: 0x98CDC, offset: 0x98CDC, size: 0x8, addend: 0x0, symName: __ZNSt3__19allocatorINS_12basic_stringIcNS_11char_traitsIcEENS0_IcEEEEEC1B8ue170006Ev, symObjAddr: 0x10BA8, symBinAddr: 0x100013390, symSize: 0x2C }
  - { offsetInCU: 0x98D06, offset: 0x98D06, size: 0x8, addend: 0x0, symName: __ZN5boost9unordered19concurrent_flat_setINSt3__112basic_stringIcNS2_11char_traitsIcEENS2_9allocatorIcEEEENS_4hashIS8_EENS2_8equal_toIS8_EENS6_IS8_EEEC1EmRKSA_RKSC_RKSD_, symObjAddr: 0x10BD4, symBinAddr: 0x1000133BC, symSize: 0x4C }
  - { offsetInCU: 0x98D68, offset: 0x98D68, size: 0x8, addend: 0x0, symName: __ZNSt3__19allocatorINS_12basic_stringIcNS_11char_traitsIcEENS0_IcEEEEEC2B8ue170006Ev, symObjAddr: 0x10C20, symBinAddr: 0x100013408, symSize: 0x2C }
  - { offsetInCU: 0x98D92, offset: 0x98D92, size: 0x8, addend: 0x0, symName: __ZN5boost9unordered19concurrent_flat_setINSt3__112basic_stringIcNS2_11char_traitsIcEENS2_9allocatorIcEEEENS_4hashIS8_EENS2_8equal_toIS8_EENS6_IS8_EEEC2EmRKSA_RKSC_RKSD_, symObjAddr: 0x10C4C, symBinAddr: 0x100013434, symSize: 0x4C }
  - { offsetInCU: 0x98DF4, offset: 0x98DF4, size: 0x8, addend: 0x0, symName: __ZN5boost9unordered6detail3foa16concurrent_tableINS2_14flat_set_typesINSt3__112basic_stringIcNS5_11char_traitsIcEENS5_9allocatorIcEEEEEENS_4hashISB_EENS5_8equal_toISB_EENS9_ISB_EEEC1EmRKSE_RKSG_RKSH_, symObjAddr: 0x10C98, symBinAddr: 0x100013480, symSize: 0x4C }
  - { offsetInCU: 0x98E5A, offset: 0x98E5A, size: 0x8, addend: 0x0, symName: __ZN5boost9unordered6detail3foa16concurrent_tableINS2_14flat_set_typesINSt3__112basic_stringIcNS5_11char_traitsIcEENS5_9allocatorIcEEEEEENS_4hashISB_EENS5_8equal_toISB_EENS9_ISB_EEEC2EmRKSE_RKSG_RKSH_, symObjAddr: 0x10CE4, symBinAddr: 0x1000134CC, symSize: 0x80 }
  - { offsetInCU: 0x98EC0, offset: 0x98EC0, size: 0x8, addend: 0x0, symName: __ZN5boost9unordered6detail3foa10table_coreINS2_14flat_set_typesINSt3__112basic_stringIcNS5_11char_traitsIcEENS5_9allocatorIcEEEEEENS2_7group15INS2_15atomic_integralEEENS2_23concurrent_table_arraysENS2_19atomic_size_controlENS_4hashISB_EENS5_8equal_toISB_EENS9_ISB_EEEC2EmRKSJ_RKSL_RKSM_, symObjAddr: 0x10D64, symBinAddr: 0x10001354C, symSize: 0x84 }
  - { offsetInCU: 0x98F26, offset: 0x98F26, size: 0x8, addend: 0x0, symName: __ZN5boost9unordered6detail3foa10multimutexINS2_11rw_spinlockELm128EEC1Ev, symObjAddr: 0x10DE8, symBinAddr: 0x1000135D0, symSize: 0x2C }
  - { offsetInCU: 0x98F52, offset: 0x98F52, size: 0x8, addend: 0x0, symName: __ZN5boost6empty_11empty_valueINS_4hashINSt3__112basic_stringIcNS3_11char_traitsIcEENS3_9allocatorIcEEEEEELj0ELb1EEC2IRKSA_JEEENS_12empty_init_tEOT_DpOT0_, symObjAddr: 0x10E14, symBinAddr: 0x1000135FC, symSize: 0x18 }
  - { offsetInCU: 0x98FA3, offset: 0x98FA3, size: 0x8, addend: 0x0, symName: __ZN5boost6empty_11empty_valueINSt3__18equal_toINS2_12basic_stringIcNS2_11char_traitsIcEENS2_9allocatorIcEEEEEELj1ELb1EEC2IRKSA_JEEENS_12empty_init_tEOT_DpOT0_, symObjAddr: 0x10E2C, symBinAddr: 0x100013614, symSize: 0x18 }
  - { offsetInCU: 0x98FF4, offset: 0x98FF4, size: 0x8, addend: 0x0, symName: __ZN5boost6empty_11empty_valueINSt3__19allocatorINS2_12basic_stringIcNS2_11char_traitsIcEENS3_IcEEEEEELj2ELb1EEC2IRKS9_JEEENS_12empty_init_tEOT_DpOT0_, symObjAddr: 0x10E44, symBinAddr: 0x10001362C, symSize: 0x18 }
  - { offsetInCU: 0x99045, offset: 0x99045, size: 0x8, addend: 0x0, symName: __ZNK5boost9unordered6detail3foa10table_coreINS2_14flat_set_typesINSt3__112basic_stringIcNS5_11char_traitsIcEENS5_9allocatorIcEEEEEENS2_7group15INS2_15atomic_integralEEENS2_23concurrent_table_arraysENS2_19atomic_size_controlENS_4hashISB_EENS5_8equal_toISB_EENS9_ISB_EEE10new_arraysEm, symObjAddr: 0x10E5C, symBinAddr: 0x100013644, symSize: 0x44 }
  - { offsetInCU: 0x9907A, offset: 0x9907A, size: 0x8, addend: 0x0, symName: __ZN5boost9unordered6detail3foa19atomic_size_controlC1Emm, symObjAddr: 0x10F0C, symBinAddr: 0x1000136F4, symSize: 0x3C }
  - { offsetInCU: 0x990C2, offset: 0x990C2, size: 0x8, addend: 0x0, symName: __ZN5boost9unordered6detail3foa23concurrent_table_arraysINSt3__112basic_stringIcNS4_11char_traitsIcEENS4_9allocatorIcEEEENS2_7group15INS2_15atomic_integralEEENS2_16pow2_size_policyENS8_ISA_EEE4new_ENS8_INS2_12group_accessEEEm, symObjAddr: 0x10F48, symBinAddr: 0x100013730, symSize: 0xAC }
  - { offsetInCU: 0x99104, offset: 0x99104, size: 0x8, addend: 0x0, symName: __ZNK5boost9unordered6detail3foa10table_coreINS2_14flat_set_typesINSt3__112basic_stringIcNS5_11char_traitsIcEENS5_9allocatorIcEEEEEENS2_7group15INS2_15atomic_integralEEENS2_23concurrent_table_arraysENS2_19atomic_size_controlENS_4hashISB_EENS5_8equal_toISB_EENS9_ISB_EEE2alEv, symObjAddr: 0x10FF4, symBinAddr: 0x1000137DC, symSize: 0x24 }
  - { offsetInCU: 0x9912A, offset: 0x9912A, size: 0x8, addend: 0x0, symName: __ZN5boost9unordered6detail3foa12table_arraysINSt3__112basic_stringIcNS4_11char_traitsIcEENS4_9allocatorIcEEEENS2_7group15INS2_15atomic_integralEEENS2_16pow2_size_policyENS8_ISA_EEE4new_ESF_m, symObjAddr: 0x11018, symBinAddr: 0x100013800, symSize: 0x64 }
  - { offsetInCU: 0x9918C, offset: 0x9918C, size: 0x8, addend: 0x0, symName: __ZN5boost9unordered6detail3foa23concurrent_table_arraysINSt3__112basic_stringIcNS4_11char_traitsIcEENS4_9allocatorIcEEEENS2_7group15INS2_15atomic_integralEEENS2_16pow2_size_policyENS8_ISA_EEE16new_group_accessENS8_INS2_12group_accessEEERKNS2_12table_arraysISA_SD_SE_SF_EE, symObjAddr: 0x1107C, symBinAddr: 0x100013864, symSize: 0x3C }
  - { offsetInCU: 0x991D0, offset: 0x991D0, size: 0x8, addend: 0x0, symName: __ZN5boost9unordered6detail3foa16pow2_size_policy4sizeEm, symObjAddr: 0x110E8, symBinAddr: 0x1000138D0, symSize: 0x24 }
  - { offsetInCU: 0x991F4, offset: 0x991F4, size: 0x8, addend: 0x0, symName: __ZN5boost9unordered6detail3foa12table_arraysINSt3__112basic_stringIcNS4_11char_traitsIcEENS4_9allocatorIcEEEENS2_7group15INS2_15atomic_integralEEENS2_16pow2_size_policyENS8_ISA_EEEC1EmmPSD_PSA_, symObjAddr: 0x1110C, symBinAddr: 0x1000138F4, symSize: 0x4C }
  - { offsetInCU: 0x9925A, offset: 0x9925A, size: 0x8, addend: 0x0, symName: __ZN5boost9unordered6detail3foa12table_arraysINSt3__112basic_stringIcNS4_11char_traitsIcEENS4_9allocatorIcEEEENS2_7group15INS2_15atomic_integralEEENS2_16pow2_size_policyENS8_ISA_EEE10set_arraysERSG_SF_m, symObjAddr: 0x11158, symBinAddr: 0x100013940, symSize: 0x2C }
  - { offsetInCU: 0x9929C, offset: 0x9929C, size: 0x8, addend: 0x0, symName: __ZN5boost9unordered6detail3foa16pow2_size_policy10size_indexEm, symObjAddr: 0x11184, symBinAddr: 0x10001396C, symSize: 0x64 }
  - { offsetInCU: 0x992C0, offset: 0x992C0, size: 0x8, addend: 0x0, symName: __ZN5boost9unordered6detail3foa12table_arraysINSt3__112basic_stringIcNS4_11char_traitsIcEENS4_9allocatorIcEEEENS2_7group15INS2_15atomic_integralEEENS2_16pow2_size_policyENS8_ISA_EEEC2EmmPSD_PSA_, symObjAddr: 0x1127C, symBinAddr: 0x100013A64, symSize: 0x44 }
  - { offsetInCU: 0x99326, offset: 0x99326, size: 0x8, addend: 0x0, symName: __ZN5boost9unordered6detail3foa12table_arraysINSt3__112basic_stringIcNS4_11char_traitsIcEENS4_9allocatorIcEEEENS2_7group15INS2_15atomic_integralEEENS2_16pow2_size_policyENS8_ISA_EEE10set_arraysERSG_SF_mNS4_17integral_constantIbLb1EEE, symObjAddr: 0x112C0, symBinAddr: 0x100013AA8, symSize: 0x54 }
  - { offsetInCU: 0x99373, offset: 0x99373, size: 0x8, addend: 0x0, symName: __ZN5boost9unordered6detail3foa12table_arraysINSt3__112basic_stringIcNS4_11char_traitsIcEENS4_9allocatorIcEEEENS2_7group15INS2_15atomic_integralEEENS2_16pow2_size_policyENS8_ISA_EEE10set_arraysERSG_SF_mNS4_17integral_constantIbLb0EEE, symObjAddr: 0x11320, symBinAddr: 0x100013B08, symSize: 0xE0 }
  - { offsetInCU: 0x993F8, offset: 0x993F8, size: 0x8, addend: 0x0, symName: __ZN5boost16allocator_traitsINSt3__19allocatorINS1_12basic_stringIcNS1_11char_traitsIcEENS2_IcEEEEEEE8allocateERS8_m, symObjAddr: 0x11400, symBinAddr: 0x100013BE8, symSize: 0x2C }
  - { offsetInCU: 0x9942E, offset: 0x9942E, size: 0x8, addend: 0x0, symName: __ZN5boost6detail6ptr_toIPNS_9unordered6detail3foa7group15INS4_15atomic_integralEEES7_Lb1EE10pointer_toERS7_, symObjAddr: 0x1142C, symBinAddr: 0x100013C14, symSize: 0x24 }
  - { offsetInCU: 0x99451, offset: 0x99451, size: 0x8, addend: 0x0, symName: __ZN5boost9unordered6detail3foa12table_arraysINSt3__112basic_stringIcNS4_11char_traitsIcEENS4_9allocatorIcEEEENS2_7group15INS2_15atomic_integralEEENS2_16pow2_size_policyENS8_ISA_EEE17initialize_groupsEPSD_mNS4_17integral_constantIbLb0EEE, symObjAddr: 0x11450, symBinAddr: 0x100013C38, symSize: 0x5C }
  - { offsetInCU: 0x9948F, offset: 0x9948F, size: 0x8, addend: 0x0, symName: __ZN5boost9unordered6detail3foa7group15INS2_15atomic_integralEE12set_sentinelEv, symObjAddr: 0x114AC, symBinAddr: 0x100013C94, symSize: 0x30 }
  - { offsetInCU: 0x994B5, offset: 0x994B5, size: 0x8, addend: 0x0, symName: __ZNSt3__19allocatorINS_12basic_stringIcNS_11char_traitsIcEENS0_IcEEEEE8allocateB8ue170006Em, symObjAddr: 0x11508, symBinAddr: 0x100013CF0, symSize: 0x5C }
  - { offsetInCU: 0x994F3, offset: 0x994F3, size: 0x8, addend: 0x0, symName: __ZNSt3__116allocator_traitsINS_9allocatorINS_12basic_stringIcNS_11char_traitsIcEENS1_IcEEEEEEE8max_sizeB8ue170006IS7_vvEEmRKS7_, symObjAddr: 0x11564, symBinAddr: 0x100013D4C, symSize: 0x28 }
  - { offsetInCU: 0x9951E, offset: 0x9951E, size: 0x8, addend: 0x0, symName: __ZN5boost9unordered6detail3foa7group15INS2_15atomic_integralEEC1Ev, symObjAddr: 0x115A0, symBinAddr: 0x100013D88, symSize: 0x2C }
  - { offsetInCU: 0x9954B, offset: 0x9954B, size: 0x8, addend: 0x0, symName: __ZN5boost9unordered6detail3foa7group15INS2_15atomic_integralEEC2Ev, symObjAddr: 0x115CC, symBinAddr: 0x100013DB4, symSize: 0x68 }
  - { offsetInCU: 0x99578, offset: 0x99578, size: 0x8, addend: 0x0, symName: __ZN5boost9unordered6detail3foa15atomic_integralIhEC1Ev, symObjAddr: 0x11634, symBinAddr: 0x100013E1C, symSize: 0x2C }
  - { offsetInCU: 0x995A4, offset: 0x995A4, size: 0x8, addend: 0x0, symName: __ZN5boost9unordered6detail3foa15atomic_integralIhEC2Ev, symObjAddr: 0x11660, symBinAddr: 0x100013E48, symSize: 0x2C }
  - { offsetInCU: 0x995D0, offset: 0x995D0, size: 0x8, addend: 0x0, symName: __ZNSt3__16atomicIhEC1B8ue170006Ev, symObjAddr: 0x1168C, symBinAddr: 0x100013E74, symSize: 0x2C }
  - { offsetInCU: 0x995FA, offset: 0x995FA, size: 0x8, addend: 0x0, symName: __ZNSt3__16atomicIhEC2B8ue170006Ev, symObjAddr: 0x116B8, symBinAddr: 0x100013EA0, symSize: 0x2C }
  - { offsetInCU: 0x99624, offset: 0x99624, size: 0x8, addend: 0x0, symName: __ZNSt3__113__atomic_baseIhLb1EEC2B8ue170006Ev, symObjAddr: 0x116E4, symBinAddr: 0x100013ECC, symSize: 0x2C }
  - { offsetInCU: 0x9964E, offset: 0x9964E, size: 0x8, addend: 0x0, symName: __ZNSt3__113__atomic_baseIhLb0EEC2B8ue170006Ev, symObjAddr: 0x11710, symBinAddr: 0x100013EF8, symSize: 0x30 }
  - { offsetInCU: 0x99678, offset: 0x99678, size: 0x8, addend: 0x0, symName: __ZNSt3__117__cxx_atomic_implIhNS_22__cxx_atomic_base_implIhEEEC1B8ue170006Eh, symObjAddr: 0x11740, symBinAddr: 0x100013F28, symSize: 0x34 }
  - { offsetInCU: 0x996B1, offset: 0x996B1, size: 0x8, addend: 0x0, symName: __ZNSt3__117__cxx_atomic_implIhNS_22__cxx_atomic_base_implIhEEEC2B8ue170006Eh, symObjAddr: 0x11774, symBinAddr: 0x100013F5C, symSize: 0x34 }
  - { offsetInCU: 0x996EA, offset: 0x996EA, size: 0x8, addend: 0x0, symName: __ZNSt3__122__cxx_atomic_base_implIhEC2Eh, symObjAddr: 0x117A8, symBinAddr: 0x100013F90, symSize: 0x20 }
  - { offsetInCU: 0x99723, offset: 0x99723, size: 0x8, addend: 0x0, symName: __ZN5boost9unordered6detail3foa7group15INS2_15atomic_integralEE2atEm, symObjAddr: 0x117C8, symBinAddr: 0x100013FB0, symSize: 0x20 }
  - { offsetInCU: 0x99758, offset: 0x99758, size: 0x8, addend: 0x0, symName: __ZN5boost9unordered6detail3foa15atomic_integralIhEaSEh, symObjAddr: 0x117E8, symBinAddr: 0x100013FD0, symSize: 0x30 }
  - { offsetInCU: 0x9978C, offset: 0x9978C, size: 0x8, addend: 0x0, symName: __ZNSt3__113__atomic_baseIhLb0EE5storeB8ue170006EhNS_12memory_orderE, symObjAddr: 0x11818, symBinAddr: 0x100014000, symSize: 0x34 }
  - { offsetInCU: 0x997CE, offset: 0x997CE, size: 0x8, addend: 0x0, symName: __ZN5boost9unordered6detail3foa23concurrent_table_arraysINSt3__112basic_stringIcNS4_11char_traitsIcEENS4_9allocatorIcEEEENS2_7group15INS2_15atomic_integralEEENS2_16pow2_size_policyENS8_ISA_EEEC1ERKNS2_12table_arraysISA_SD_SE_SF_EEPNS2_12group_accessE, symObjAddr: 0x118D0, symBinAddr: 0x1000140B8, symSize: 0x3C }
  - { offsetInCU: 0x99816, offset: 0x99816, size: 0x8, addend: 0x0, symName: __ZN5boost9unordered6detail3foa23concurrent_table_arraysINSt3__112basic_stringIcNS4_11char_traitsIcEENS4_9allocatorIcEEEENS2_7group15INS2_15atomic_integralEEENS2_16pow2_size_policyENS8_ISA_EEE16set_group_accessENS8_INS2_12group_accessEEERSG_, symObjAddr: 0x1190C, symBinAddr: 0x1000140F4, symSize: 0x24 }
  - { offsetInCU: 0x99849, offset: 0x99849, size: 0x8, addend: 0x0, symName: __ZN5boost9unordered6detail3foa23concurrent_table_arraysINSt3__112basic_stringIcNS4_11char_traitsIcEENS4_9allocatorIcEEEENS2_7group15INS2_15atomic_integralEEENS2_16pow2_size_policyENS8_ISA_EEEC2ERKNS2_12table_arraysISA_SD_SE_SF_EEPNS2_12group_accessE, symObjAddr: 0x11930, symBinAddr: 0x100014118, symSize: 0x38 }
  - { offsetInCU: 0x99891, offset: 0x99891, size: 0x8, addend: 0x0, symName: __ZN5boost9unordered6detail3foa23concurrent_table_arraysINSt3__112basic_stringIcNS4_11char_traitsIcEENS4_9allocatorIcEEEENS2_7group15INS2_15atomic_integralEEENS2_16pow2_size_policyENS8_ISA_EEE16set_group_accessENS8_INS2_12group_accessEEERSG_NS4_17integral_constantIbLb1EEE, symObjAddr: 0x11968, symBinAddr: 0x100014150, symSize: 0x50 }
  - { offsetInCU: 0x998CF, offset: 0x998CF, size: 0x8, addend: 0x0, symName: __ZN5boost9unordered6detail3foa23concurrent_table_arraysINSt3__112basic_stringIcNS4_11char_traitsIcEENS4_9allocatorIcEEEENS2_7group15INS2_15atomic_integralEEENS2_16pow2_size_policyENS8_ISA_EEE16set_group_accessENS8_INS2_12group_accessEEERSG_NS4_17integral_constantIbLb0EEE, symObjAddr: 0x119C4, symBinAddr: 0x1000141AC, symSize: 0x8C }
  - { offsetInCU: 0x9992A, offset: 0x9992A, size: 0x8, addend: 0x0, symName: __ZNK5boost9unordered6detail3foa23concurrent_table_arraysINSt3__112basic_stringIcNS4_11char_traitsIcEENS4_9allocatorIcEEEENS2_7group15INS2_15atomic_integralEEENS2_16pow2_size_policyENS8_ISA_EEE14group_accessesEv, symObjAddr: 0x11A7C, symBinAddr: 0x100014264, symSize: 0x28 }
  - { offsetInCU: 0x99950, offset: 0x99950, size: 0x8, addend: 0x0, symName: __ZN5boost9unordered6detail3foa12group_accessC1Ev, symObjAddr: 0x11AA4, symBinAddr: 0x10001428C, symSize: 0x2C }
  - { offsetInCU: 0x9997C, offset: 0x9997C, size: 0x8, addend: 0x0, symName: __ZNSt3__19allocatorIN5boost9unordered6detail3foa12group_accessEE8allocateB8ue170006Em, symObjAddr: 0x11AD0, symBinAddr: 0x1000142B8, symSize: 0x58 }
  - { offsetInCU: 0x999BF, offset: 0x999BF, size: 0x8, addend: 0x0, symName: __ZNSt3__116allocator_traitsINS_9allocatorIN5boost9unordered6detail3foa12group_accessEEEE8max_sizeB8ue170006IS7_vvEEmRKS7_, symObjAddr: 0x11B28, symBinAddr: 0x100014310, symSize: 0x28 }
  - { offsetInCU: 0x999EA, offset: 0x999EA, size: 0x8, addend: 0x0, symName: __ZN5boost9unordered6detail3foa12group_accessC2Ev, symObjAddr: 0x11B64, symBinAddr: 0x10001434C, symSize: 0x3C }
  - { offsetInCU: 0x99A16, offset: 0x99A16, size: 0x8, addend: 0x0, symName: __ZN5boost9unordered6detail3foa11rw_spinlockC1Ev, symObjAddr: 0x11BA0, symBinAddr: 0x100014388, symSize: 0x2C }
  - { offsetInCU: 0x99A42, offset: 0x99A42, size: 0x8, addend: 0x0, symName: __ZNSt3__16atomicIjEC1B8ue170006Ej, symObjAddr: 0x11BCC, symBinAddr: 0x1000143B4, symSize: 0x34 }
  - { offsetInCU: 0x99A7A, offset: 0x99A7A, size: 0x8, addend: 0x0, symName: __ZN5boost9unordered6detail3foa11rw_spinlockC2Ev, symObjAddr: 0x11C00, symBinAddr: 0x1000143E8, symSize: 0x30 }
  - { offsetInCU: 0x99AA6, offset: 0x99AA6, size: 0x8, addend: 0x0, symName: __ZNSt3__16atomicIjEC1B8ue170006Ev, symObjAddr: 0x11C30, symBinAddr: 0x100014418, symSize: 0x2C }
  - { offsetInCU: 0x99AD0, offset: 0x99AD0, size: 0x8, addend: 0x0, symName: __ZNSt3__16atomicIjEC2B8ue170006Ev, symObjAddr: 0x11C5C, symBinAddr: 0x100014444, symSize: 0x2C }
  - { offsetInCU: 0x99AFA, offset: 0x99AFA, size: 0x8, addend: 0x0, symName: __ZNSt3__113__atomic_baseIjLb1EEC2B8ue170006Ev, symObjAddr: 0x11C88, symBinAddr: 0x100014470, symSize: 0x2C }
  - { offsetInCU: 0x99B24, offset: 0x99B24, size: 0x8, addend: 0x0, symName: __ZNSt3__113__atomic_baseIjLb0EEC2B8ue170006Ev, symObjAddr: 0x11CB4, symBinAddr: 0x10001449C, symSize: 0x30 }
  - { offsetInCU: 0x99B4E, offset: 0x99B4E, size: 0x8, addend: 0x0, symName: __ZNSt3__117__cxx_atomic_implIjNS_22__cxx_atomic_base_implIjEEEC1B8ue170006Ej, symObjAddr: 0x11CE4, symBinAddr: 0x1000144CC, symSize: 0x34 }
  - { offsetInCU: 0x99B87, offset: 0x99B87, size: 0x8, addend: 0x0, symName: __ZNSt3__117__cxx_atomic_implIjNS_22__cxx_atomic_base_implIjEEEC2B8ue170006Ej, symObjAddr: 0x11D18, symBinAddr: 0x100014500, symSize: 0x34 }
  - { offsetInCU: 0x99BC0, offset: 0x99BC0, size: 0x8, addend: 0x0, symName: __ZNSt3__122__cxx_atomic_base_implIjEC2Ej, symObjAddr: 0x11D4C, symBinAddr: 0x100014534, symSize: 0x20 }
  - { offsetInCU: 0x99BF9, offset: 0x99BF9, size: 0x8, addend: 0x0, symName: __ZNSt3__16atomicIjEC2B8ue170006Ej, symObjAddr: 0x11D6C, symBinAddr: 0x100014554, symSize: 0x34 }
  - { offsetInCU: 0x99C31, offset: 0x99C31, size: 0x8, addend: 0x0, symName: __ZNSt3__113__atomic_baseIjLb1EEC2B8ue170006Ej, symObjAddr: 0x11DA0, symBinAddr: 0x100014588, symSize: 0x34 }
  - { offsetInCU: 0x99C69, offset: 0x99C69, size: 0x8, addend: 0x0, symName: __ZNSt3__113__atomic_baseIjLb0EEC2B8ue170006Ej, symObjAddr: 0x11DD4, symBinAddr: 0x1000145BC, symSize: 0x34 }
  - { offsetInCU: 0x99CA1, offset: 0x99CA1, size: 0x8, addend: 0x0, symName: __ZNK5boost6empty_11empty_valueINSt3__19allocatorINS2_12basic_stringIcNS2_11char_traitsIcEENS3_IcEEEEEELj2ELb1EE3getEv, symObjAddr: 0x11E08, symBinAddr: 0x1000145F0, symSize: 0x14 }
  - { offsetInCU: 0x99CC7, offset: 0x99CC7, size: 0x8, addend: 0x0, symName: __ZNK5boost9unordered6detail3foa10table_coreINS2_14flat_set_typesINSt3__112basic_stringIcNS5_11char_traitsIcEENS5_9allocatorIcEEEEEENS2_7group15INS2_15atomic_integralEEENS2_23concurrent_table_arraysENS2_19atomic_size_controlENS_4hashISB_EENS5_8equal_toISB_EENS9_ISB_EEE8capacityEv, symObjAddr: 0x11E1C, symBinAddr: 0x100014604, symSize: 0x68 }
  - { offsetInCU: 0x99CED, offset: 0x99CED, size: 0x8, addend: 0x0, symName: __ZN5boost9unordered6detail3foa19atomic_size_controlC2Emm, symObjAddr: 0x11E84, symBinAddr: 0x10001466C, symSize: 0x78 }
  - { offsetInCU: 0x99D35, offset: 0x99D35, size: 0x8, addend: 0x0, symName: __ZNSt3__16atomicImEC1B8ue170006Em, symObjAddr: 0x11EFC, symBinAddr: 0x1000146E4, symSize: 0x34 }
  - { offsetInCU: 0x99D6D, offset: 0x99D6D, size: 0x8, addend: 0x0, symName: __ZNSt3__16atomicImEC2B8ue170006Em, symObjAddr: 0x11F30, symBinAddr: 0x100014718, symSize: 0x34 }
  - { offsetInCU: 0x99DA5, offset: 0x99DA5, size: 0x8, addend: 0x0, symName: __ZNSt3__113__atomic_baseImLb1EEC2B8ue170006Em, symObjAddr: 0x11F64, symBinAddr: 0x10001474C, symSize: 0x34 }
  - { offsetInCU: 0x99DDD, offset: 0x99DDD, size: 0x8, addend: 0x0, symName: __ZNSt3__113__atomic_baseImLb0EEC2B8ue170006Em, symObjAddr: 0x11F98, symBinAddr: 0x100014780, symSize: 0x34 }
  - { offsetInCU: 0x99E15, offset: 0x99E15, size: 0x8, addend: 0x0, symName: __ZNSt3__117__cxx_atomic_implImNS_22__cxx_atomic_base_implImEEEC1B8ue170006Em, symObjAddr: 0x11FCC, symBinAddr: 0x1000147B4, symSize: 0x34 }
  - { offsetInCU: 0x99E4E, offset: 0x99E4E, size: 0x8, addend: 0x0, symName: __ZNSt3__117__cxx_atomic_implImNS_22__cxx_atomic_base_implImEEEC2B8ue170006Em, symObjAddr: 0x12000, symBinAddr: 0x1000147E8, symSize: 0x34 }
  - { offsetInCU: 0x99E87, offset: 0x99E87, size: 0x8, addend: 0x0, symName: __ZNSt3__122__cxx_atomic_base_implImEC2Em, symObjAddr: 0x12034, symBinAddr: 0x10001481C, symSize: 0x20 }
  - { offsetInCU: 0x99EC0, offset: 0x99EC0, size: 0x8, addend: 0x0, symName: __ZN5boost9unordered6detail3foa10multimutexINS2_11rw_spinlockELm128EEC2Ev, symObjAddr: 0x12054, symBinAddr: 0x10001483C, symSize: 0x2C }
  - { offsetInCU: 0x99EEC, offset: 0x99EEC, size: 0x8, addend: 0x0, symName: __ZN5boost9unordered6detail3foa19cache_aligned_arrayINS2_11rw_spinlockELm128EEC1Ev, symObjAddr: 0x12080, symBinAddr: 0x100014868, symSize: 0x2C }
  - { offsetInCU: 0x99F16, offset: 0x99F16, size: 0x8, addend: 0x0, symName: __ZN5boost9unordered6detail3foa19cache_aligned_arrayINS2_11rw_spinlockELm128EEC2Ev, symObjAddr: 0x120AC, symBinAddr: 0x100014894, symSize: 0x68 }
  - { offsetInCU: 0x99F5C, offset: 0x99F5C, size: 0x8, addend: 0x0, symName: __ZNSt3__113unordered_mapINS_12basic_stringIcNS_11char_traitsIcEENS_9allocatorIcEEEEfNS_4hashIS6_EENS_8equal_toIS6_EENS4_INS_4pairIKS6_fEEEEEC2B8ue170006Ev, symObjAddr: 0x12114, symBinAddr: 0x1000148FC, symSize: 0x2C }
  - { offsetInCU: 0x99F86, offset: 0x99F86, size: 0x8, addend: 0x0, symName: __ZNSt3__112__hash_tableINS_17__hash_value_typeINS_12basic_stringIcNS_11char_traitsIcEENS_9allocatorIcEEEEfEENS_22__unordered_map_hasherIS7_S8_NS_4hashIS7_EENS_8equal_toIS7_EELb1EEENS_21__unordered_map_equalIS7_S8_SD_SB_Lb1EEENS5_IS8_EEEC1Ev, symObjAddr: 0x12140, symBinAddr: 0x100014928, symSize: 0x2C }
  - { offsetInCU: 0x99FB2, offset: 0x99FB2, size: 0x8, addend: 0x0, symName: __ZNSt3__112__hash_tableINS_17__hash_value_typeINS_12basic_stringIcNS_11char_traitsIcEENS_9allocatorIcEEEEfEENS_22__unordered_map_hasherIS7_S8_NS_4hashIS7_EENS_8equal_toIS7_EELb1EEENS_21__unordered_map_equalIS7_S8_SD_SB_Lb1EEENS5_IS8_EEEC2Ev, symObjAddr: 0x1216C, symBinAddr: 0x100014954, symSize: 0x7C }
  - { offsetInCU: 0x99FDE, offset: 0x99FDE, size: 0x8, addend: 0x0, symName: __ZNSt3__110unique_ptrIA_PNS_16__hash_node_baseIPNS_11__hash_nodeINS_17__hash_value_typeINS_12basic_stringIcNS_11char_traitsIcEENS_9allocatorIcEEEEfEEPvEEEENS_25__bucket_list_deallocatorINS7_ISF_EEEEEC1B8ue170006ILb1EvEEv, symObjAddr: 0x121E8, symBinAddr: 0x1000149D0, symSize: 0x2C }
  - { offsetInCU: 0x9A013, offset: 0x9A013, size: 0x8, addend: 0x0, symName: __ZNSt3__117__compressed_pairINS_16__hash_node_baseIPNS_11__hash_nodeINS_17__hash_value_typeINS_12basic_stringIcNS_11char_traitsIcEENS_9allocatorIcEEEEfEEPvEEEENS7_ISC_EEEC1B8ue170006ILb1EvEEv, symObjAddr: 0x12214, symBinAddr: 0x1000149FC, symSize: 0x2C }
  - { offsetInCU: 0x9A048, offset: 0x9A048, size: 0x8, addend: 0x0, symName: __ZNSt3__117__compressed_pairImNS_22__unordered_map_hasherINS_12basic_stringIcNS_11char_traitsIcEENS_9allocatorIcEEEENS_17__hash_value_typeIS7_fEENS_4hashIS7_EENS_8equal_toIS7_EELb1EEEEC1B8ue170006IiNS_18__default_init_tagEEEOT_OT0_, symObjAddr: 0x12240, symBinAddr: 0x100014A28, symSize: 0x3C }
  - { offsetInCU: 0x9A0A0, offset: 0x9A0A0, size: 0x8, addend: 0x0, symName: __ZNSt3__117__compressed_pairIfNS_21__unordered_map_equalINS_12basic_stringIcNS_11char_traitsIcEENS_9allocatorIcEEEENS_17__hash_value_typeIS7_fEENS_8equal_toIS7_EENS_4hashIS7_EELb1EEEEC1B8ue170006IfNS_18__default_init_tagEEEOT_OT0_, symObjAddr: 0x1227C, symBinAddr: 0x100014A64, symSize: 0x3C }
  - { offsetInCU: 0x9A0F8, offset: 0x9A0F8, size: 0x8, addend: 0x0, symName: __ZNSt3__110unique_ptrIA_PNS_16__hash_node_baseIPNS_11__hash_nodeINS_17__hash_value_typeINS_12basic_stringIcNS_11char_traitsIcEENS_9allocatorIcEEEEfEEPvEEEENS_25__bucket_list_deallocatorINS7_ISF_EEEEEC2B8ue170006ILb1EvEEv, symObjAddr: 0x122B8, symBinAddr: 0x100014AA0, symSize: 0x3C }
  - { offsetInCU: 0x9A12D, offset: 0x9A12D, size: 0x8, addend: 0x0, symName: __ZNSt3__117__compressed_pairIPPNS_16__hash_node_baseIPNS_11__hash_nodeINS_17__hash_value_typeINS_12basic_stringIcNS_11char_traitsIcEENS_9allocatorIcEEEEfEEPvEEEENS_25__bucket_list_deallocatorINS7_ISF_EEEEEC1B8ue170006INS_16__value_init_tagESM_EEOT_OT0_, symObjAddr: 0x122F4, symBinAddr: 0x100014ADC, symSize: 0x3C }
  - { offsetInCU: 0x9A185, offset: 0x9A185, size: 0x8, addend: 0x0, symName: __ZNSt3__117__compressed_pairIPPNS_16__hash_node_baseIPNS_11__hash_nodeINS_17__hash_value_typeINS_12basic_stringIcNS_11char_traitsIcEENS_9allocatorIcEEEEfEEPvEEEENS_25__bucket_list_deallocatorINS7_ISF_EEEEEC2B8ue170006INS_16__value_init_tagESM_EEOT_OT0_, symObjAddr: 0x12330, symBinAddr: 0x100014B18, symSize: 0x40 }
  - { offsetInCU: 0x9A1DD, offset: 0x9A1DD, size: 0x8, addend: 0x0, symName: __ZNSt3__122__compressed_pair_elemIPPNS_16__hash_node_baseIPNS_11__hash_nodeINS_17__hash_value_typeINS_12basic_stringIcNS_11char_traitsIcEENS_9allocatorIcEEEEfEEPvEEEELi0ELb0EEC2B8ue170006ENS_16__value_init_tagE, symObjAddr: 0x12370, symBinAddr: 0x100014B58, symSize: 0x18 }
  - { offsetInCU: 0x9A212, offset: 0x9A212, size: 0x8, addend: 0x0, symName: __ZNSt3__122__compressed_pair_elemINS_25__bucket_list_deallocatorINS_9allocatorIPNS_16__hash_node_baseIPNS_11__hash_nodeINS_17__hash_value_typeINS_12basic_stringIcNS_11char_traitsIcEENS2_IcEEEEfEEPvEEEEEEEELi1ELb0EEC2B8ue170006ENS_16__value_init_tagE, symObjAddr: 0x12388, symBinAddr: 0x100014B70, symSize: 0x2C }
  - { offsetInCU: 0x9A247, offset: 0x9A247, size: 0x8, addend: 0x0, symName: __ZNSt3__125__bucket_list_deallocatorINS_9allocatorIPNS_16__hash_node_baseIPNS_11__hash_nodeINS_17__hash_value_typeINS_12basic_stringIcNS_11char_traitsIcEENS1_IcEEEEfEEPvEEEEEEEC1B8ue170006Ev, symObjAddr: 0x123B4, symBinAddr: 0x100014B9C, symSize: 0x2C }
  - { offsetInCU: 0x9A271, offset: 0x9A271, size: 0x8, addend: 0x0, symName: __ZNSt3__125__bucket_list_deallocatorINS_9allocatorIPNS_16__hash_node_baseIPNS_11__hash_nodeINS_17__hash_value_typeINS_12basic_stringIcNS_11char_traitsIcEENS1_IcEEEEfEEPvEEEEEEEC2B8ue170006Ev, symObjAddr: 0x123E0, symBinAddr: 0x100014BC8, symSize: 0x40 }
  - { offsetInCU: 0x9A29B, offset: 0x9A29B, size: 0x8, addend: 0x0, symName: __ZNSt3__117__compressed_pairImNS_9allocatorIPNS_16__hash_node_baseIPNS_11__hash_nodeINS_17__hash_value_typeINS_12basic_stringIcNS_11char_traitsIcEENS1_IcEEEEfEEPvEEEEEEEC1B8ue170006IiNS_18__default_init_tagEEEOT_OT0_, symObjAddr: 0x12420, symBinAddr: 0x100014C08, symSize: 0x3C }
  - { offsetInCU: 0x9A2F3, offset: 0x9A2F3, size: 0x8, addend: 0x0, symName: __ZNSt3__117__compressed_pairImNS_9allocatorIPNS_16__hash_node_baseIPNS_11__hash_nodeINS_17__hash_value_typeINS_12basic_stringIcNS_11char_traitsIcEENS1_IcEEEEfEEPvEEEEEEEC2B8ue170006IiNS_18__default_init_tagEEEOT_OT0_, symObjAddr: 0x1245C, symBinAddr: 0x100014C44, symSize: 0x40 }
  - { offsetInCU: 0x9A34B, offset: 0x9A34B, size: 0x8, addend: 0x0, symName: __ZNSt3__122__compressed_pair_elemINS_9allocatorIPNS_16__hash_node_baseIPNS_11__hash_nodeINS_17__hash_value_typeINS_12basic_stringIcNS_11char_traitsIcEENS1_IcEEEEfEEPvEEEEEELi1ELb1EEC2B8ue170006ENS_18__default_init_tagE, symObjAddr: 0x1249C, symBinAddr: 0x100014C84, symSize: 0x2C }
  - { offsetInCU: 0x9A380, offset: 0x9A380, size: 0x8, addend: 0x0, symName: __ZNSt3__19allocatorIPNS_16__hash_node_baseIPNS_11__hash_nodeINS_17__hash_value_typeINS_12basic_stringIcNS_11char_traitsIcEENS0_IcEEEEfEEPvEEEEEC2B8ue170006Ev, symObjAddr: 0x124C8, symBinAddr: 0x100014CB0, symSize: 0x2C }
  - { offsetInCU: 0x9A3AA, offset: 0x9A3AA, size: 0x8, addend: 0x0, symName: __ZNSt3__116__non_trivial_ifILb1ENS_9allocatorIPNS_16__hash_node_baseIPNS_11__hash_nodeINS_17__hash_value_typeINS_12basic_stringIcNS_11char_traitsIcEENS1_IcEEEEfEEPvEEEEEEEC2B8ue170006Ev, symObjAddr: 0x124F4, symBinAddr: 0x100014CDC, symSize: 0x14 }
  - { offsetInCU: 0x9A3D4, offset: 0x9A3D4, size: 0x8, addend: 0x0, symName: __ZNSt3__117__compressed_pairINS_16__hash_node_baseIPNS_11__hash_nodeINS_17__hash_value_typeINS_12basic_stringIcNS_11char_traitsIcEENS_9allocatorIcEEEEfEEPvEEEENS7_ISC_EEEC2B8ue170006ILb1EvEEv, symObjAddr: 0x12508, symBinAddr: 0x100014CF0, symSize: 0x34 }
  - { offsetInCU: 0x9A409, offset: 0x9A409, size: 0x8, addend: 0x0, symName: __ZNSt3__122__compressed_pair_elemINS_16__hash_node_baseIPNS_11__hash_nodeINS_17__hash_value_typeINS_12basic_stringIcNS_11char_traitsIcEENS_9allocatorIcEEEEfEEPvEEEELi0ELb0EEC2B8ue170006ENS_16__value_init_tagE, symObjAddr: 0x1253C, symBinAddr: 0x100014D24, symSize: 0x2C }
  - { offsetInCU: 0x9A43E, offset: 0x9A43E, size: 0x8, addend: 0x0, symName: __ZNSt3__122__compressed_pair_elemINS_9allocatorINS_11__hash_nodeINS_17__hash_value_typeINS_12basic_stringIcNS_11char_traitsIcEENS1_IcEEEEfEEPvEEEELi1ELb1EEC2B8ue170006ENS_16__value_init_tagE, symObjAddr: 0x12568, symBinAddr: 0x100014D50, symSize: 0x2C }
  - { offsetInCU: 0x9A473, offset: 0x9A473, size: 0x8, addend: 0x0, symName: __ZNSt3__116__hash_node_baseIPNS_11__hash_nodeINS_17__hash_value_typeINS_12basic_stringIcNS_11char_traitsIcEENS_9allocatorIcEEEEfEEPvEEEC1B8ue170006Ev, symObjAddr: 0x12594, symBinAddr: 0x100014D7C, symSize: 0x2C }
  - { offsetInCU: 0x9A49D, offset: 0x9A49D, size: 0x8, addend: 0x0, symName: __ZNSt3__116__hash_node_baseIPNS_11__hash_nodeINS_17__hash_value_typeINS_12basic_stringIcNS_11char_traitsIcEENS_9allocatorIcEEEEfEEPvEEEC2B8ue170006Ev, symObjAddr: 0x125C0, symBinAddr: 0x100014DA8, symSize: 0x18 }
  - { offsetInCU: 0x9A4C7, offset: 0x9A4C7, size: 0x8, addend: 0x0, symName: __ZNSt3__19allocatorINS_11__hash_nodeINS_17__hash_value_typeINS_12basic_stringIcNS_11char_traitsIcEENS0_IcEEEEfEEPvEEEC2B8ue170006Ev, symObjAddr: 0x125D8, symBinAddr: 0x100014DC0, symSize: 0x2C }
  - { offsetInCU: 0x9A4F1, offset: 0x9A4F1, size: 0x8, addend: 0x0, symName: __ZNSt3__116__non_trivial_ifILb1ENS_9allocatorINS_11__hash_nodeINS_17__hash_value_typeINS_12basic_stringIcNS_11char_traitsIcEENS1_IcEEEEfEEPvEEEEEC2B8ue170006Ev, symObjAddr: 0x12604, symBinAddr: 0x100014DEC, symSize: 0x14 }
  - { offsetInCU: 0x9A51B, offset: 0x9A51B, size: 0x8, addend: 0x0, symName: __ZNSt3__117__compressed_pairImNS_22__unordered_map_hasherINS_12basic_stringIcNS_11char_traitsIcEENS_9allocatorIcEEEENS_17__hash_value_typeIS7_fEENS_4hashIS7_EENS_8equal_toIS7_EELb1EEEEC2B8ue170006IiNS_18__default_init_tagEEEOT_OT0_, symObjAddr: 0x12618, symBinAddr: 0x100014E00, symSize: 0x40 }
  - { offsetInCU: 0x9A573, offset: 0x9A573, size: 0x8, addend: 0x0, symName: __ZNSt3__122__compressed_pair_elemINS_22__unordered_map_hasherINS_12basic_stringIcNS_11char_traitsIcEENS_9allocatorIcEEEENS_17__hash_value_typeIS7_fEENS_4hashIS7_EENS_8equal_toIS7_EELb1EEELi1ELb1EEC2B8ue170006ENS_18__default_init_tagE, symObjAddr: 0x12658, symBinAddr: 0x100014E40, symSize: 0x2C }
  - { offsetInCU: 0x9A5A8, offset: 0x9A5A8, size: 0x8, addend: 0x0, symName: __ZNSt3__122__unordered_map_hasherINS_12basic_stringIcNS_11char_traitsIcEENS_9allocatorIcEEEENS_17__hash_value_typeIS6_fEENS_4hashIS6_EENS_8equal_toIS6_EELb1EEC2B8ue170006Ev, symObjAddr: 0x12684, symBinAddr: 0x100014E6C, symSize: 0x14 }
  - { offsetInCU: 0x9A5D2, offset: 0x9A5D2, size: 0x8, addend: 0x0, symName: __ZNSt3__117__compressed_pairIfNS_21__unordered_map_equalINS_12basic_stringIcNS_11char_traitsIcEENS_9allocatorIcEEEENS_17__hash_value_typeIS7_fEENS_8equal_toIS7_EENS_4hashIS7_EELb1EEEEC2B8ue170006IfNS_18__default_init_tagEEEOT_OT0_, symObjAddr: 0x12698, symBinAddr: 0x100014E80, symSize: 0x40 }
  - { offsetInCU: 0x9A62A, offset: 0x9A62A, size: 0x8, addend: 0x0, symName: __ZNSt3__122__compressed_pair_elemINS_21__unordered_map_equalINS_12basic_stringIcNS_11char_traitsIcEENS_9allocatorIcEEEENS_17__hash_value_typeIS7_fEENS_8equal_toIS7_EENS_4hashIS7_EELb1EEELi1ELb1EEC2B8ue170006ENS_18__default_init_tagE, symObjAddr: 0x126D8, symBinAddr: 0x100014EC0, symSize: 0x2C }
  - { offsetInCU: 0x9A65F, offset: 0x9A65F, size: 0x8, addend: 0x0, symName: __ZNSt3__121__unordered_map_equalINS_12basic_stringIcNS_11char_traitsIcEENS_9allocatorIcEEEENS_17__hash_value_typeIS6_fEENS_8equal_toIS6_EENS_4hashIS6_EELb1EEC2B8ue170006Ev, symObjAddr: 0x12704, symBinAddr: 0x100014EEC, symSize: 0x14 }
  - { offsetInCU: 0x9A689, offset: 0x9A689, size: 0x8, addend: 0x0, symName: __ZNSt3__113unordered_mapINS_12basic_stringIcNS_11char_traitsIcEENS_9allocatorIcEEEEfNS_4hashIS6_EENS_8equal_toIS6_EENS4_INS_4pairIKS6_fEEEEED2B8ue170006Ev, symObjAddr: 0x12718, symBinAddr: 0x100014F00, symSize: 0x2C }
  - { offsetInCU: 0x9A6B3, offset: 0x9A6B3, size: 0x8, addend: 0x0, symName: __ZNSt3__112__hash_tableINS_17__hash_value_typeINS_12basic_stringIcNS_11char_traitsIcEENS_9allocatorIcEEEEfEENS_22__unordered_map_hasherIS7_S8_NS_4hashIS7_EENS_8equal_toIS7_EELb1EEENS_21__unordered_map_equalIS7_S8_SD_SB_Lb1EEENS5_IS8_EEED1Ev, symObjAddr: 0x12744, symBinAddr: 0x100014F2C, symSize: 0x2C }
  - { offsetInCU: 0x9A6DF, offset: 0x9A6DF, size: 0x8, addend: 0x0, symName: __ZNSt3__112__hash_tableINS_17__hash_value_typeINS_12basic_stringIcNS_11char_traitsIcEENS_9allocatorIcEEEEfEENS_22__unordered_map_hasherIS7_S8_NS_4hashIS7_EENS_8equal_toIS7_EELb1EEENS_21__unordered_map_equalIS7_S8_SD_SB_Lb1EEENS5_IS8_EEED2Ev, symObjAddr: 0x12770, symBinAddr: 0x100014F58, symSize: 0x48 }
  - { offsetInCU: 0x9A70B, offset: 0x9A70B, size: 0x8, addend: 0x0, symName: __ZNSt3__112__hash_tableINS_17__hash_value_typeINS_12basic_stringIcNS_11char_traitsIcEENS_9allocatorIcEEEEfEENS_22__unordered_map_hasherIS7_S8_NS_4hashIS7_EENS_8equal_toIS7_EELb1EEENS_21__unordered_map_equalIS7_S8_SD_SB_Lb1EEENS5_IS8_EEE17__deallocate_nodeEPNS_16__hash_node_baseIPNS_11__hash_nodeIS8_PvEEEE, symObjAddr: 0x127B8, symBinAddr: 0x100014FA0, symSize: 0xA8 }
  - { offsetInCU: 0x9A776, offset: 0x9A776, size: 0x8, addend: 0x0, symName: __ZNSt3__117__compressed_pairINS_16__hash_node_baseIPNS_11__hash_nodeINS_17__hash_value_typeINS_12basic_stringIcNS_11char_traitsIcEENS_9allocatorIcEEEEfEEPvEEEENS7_ISC_EEE5firstB8ue170006Ev, symObjAddr: 0x12860, symBinAddr: 0x100015048, symSize: 0x24 }
  - { offsetInCU: 0x9A79C, offset: 0x9A79C, size: 0x8, addend: 0x0, symName: __ZNSt3__110unique_ptrIA_PNS_16__hash_node_baseIPNS_11__hash_nodeINS_17__hash_value_typeINS_12basic_stringIcNS_11char_traitsIcEENS_9allocatorIcEEEEfEEPvEEEENS_25__bucket_list_deallocatorINS7_ISF_EEEEED1B8ue170006Ev, symObjAddr: 0x12884, symBinAddr: 0x10001506C, symSize: 0x2C }
  - { offsetInCU: 0x9A7C6, offset: 0x9A7C6, size: 0x8, addend: 0x0, symName: __ZNSt3__112__hash_tableINS_17__hash_value_typeINS_12basic_stringIcNS_11char_traitsIcEENS_9allocatorIcEEEEfEENS_22__unordered_map_hasherIS7_S8_NS_4hashIS7_EENS_8equal_toIS7_EELb1EEENS_21__unordered_map_equalIS7_S8_SD_SB_Lb1EEENS5_IS8_EEE12__node_allocB8ue170006Ev, symObjAddr: 0x128B0, symBinAddr: 0x100015098, symSize: 0x28 }
  - { offsetInCU: 0x9A7EC, offset: 0x9A7EC, size: 0x8, addend: 0x0, symName: __ZNSt3__116__hash_node_baseIPNS_11__hash_nodeINS_17__hash_value_typeINS_12basic_stringIcNS_11char_traitsIcEENS_9allocatorIcEEEEfEEPvEEE8__upcastB8ue170006Ev, symObjAddr: 0x128D8, symBinAddr: 0x1000150C0, symSize: 0x24 }
  - { offsetInCU: 0x9A812, offset: 0x9A812, size: 0x8, addend: 0x0, symName: __ZNSt3__116allocator_traitsINS_9allocatorINS_11__hash_nodeINS_17__hash_value_typeINS_12basic_stringIcNS_11char_traitsIcEENS1_IcEEEEfEEPvEEEEE7destroyB8ue170006INS_4pairIKS8_fEEvvEEvRSC_PT_, symObjAddr: 0x128FC, symBinAddr: 0x1000150E4, symSize: 0x28 }
  - { offsetInCU: 0x9A84C, offset: 0x9A84C, size: 0x8, addend: 0x0, symName: __ZNSt3__122__hash_key_value_typesINS_17__hash_value_typeINS_12basic_stringIcNS_11char_traitsIcEENS_9allocatorIcEEEEfEEE9__get_ptrB8ue170006ERS8_, symObjAddr: 0x12924, symBinAddr: 0x10001510C, symSize: 0x24 }
  - { offsetInCU: 0x9A86F, offset: 0x9A86F, size: 0x8, addend: 0x0, symName: __ZNSt3__116allocator_traitsINS_9allocatorINS_11__hash_nodeINS_17__hash_value_typeINS_12basic_stringIcNS_11char_traitsIcEENS1_IcEEEEfEEPvEEEEE10deallocateB8ue170006ERSC_PSB_m, symObjAddr: 0x12948, symBinAddr: 0x100015130, symSize: 0x34 }
  - { offsetInCU: 0x9A8B1, offset: 0x9A8B1, size: 0x8, addend: 0x0, symName: __ZNSt3__117__compressed_pairINS_16__hash_node_baseIPNS_11__hash_nodeINS_17__hash_value_typeINS_12basic_stringIcNS_11char_traitsIcEENS_9allocatorIcEEEEfEEPvEEEENS7_ISC_EEE6secondB8ue170006Ev, symObjAddr: 0x1297C, symBinAddr: 0x100015164, symSize: 0x24 }
  - { offsetInCU: 0x9A8D7, offset: 0x9A8D7, size: 0x8, addend: 0x0, symName: __ZNSt3__122__compressed_pair_elemINS_9allocatorINS_11__hash_nodeINS_17__hash_value_typeINS_12basic_stringIcNS_11char_traitsIcEENS1_IcEEEEfEEPvEEEELi1ELb1EE5__getB8ue170006Ev, symObjAddr: 0x129A0, symBinAddr: 0x100015188, symSize: 0x14 }
  - { offsetInCU: 0x9A8FD, offset: 0x9A8FD, size: 0x8, addend: 0x0, symName: __ZNSt3__114pointer_traitsIPNS_16__hash_node_baseIPNS_11__hash_nodeINS_17__hash_value_typeINS_12basic_stringIcNS_11char_traitsIcEENS_9allocatorIcEEEEfEEPvEEEEE10pointer_toB8ue170006ERSE_, symObjAddr: 0x129B4, symBinAddr: 0x10001519C, symSize: 0x14 }
  - { offsetInCU: 0x9A920, offset: 0x9A920, size: 0x8, addend: 0x0, symName: __ZNSt3__14pairIKNS_12basic_stringIcNS_11char_traitsIcEENS_9allocatorIcEEEEfED1Ev, symObjAddr: 0x12A10, symBinAddr: 0x1000151F8, symSize: 0x2C }
  - { offsetInCU: 0x9A94C, offset: 0x9A94C, size: 0x8, addend: 0x0, symName: __ZNSt3__14pairIKNS_12basic_stringIcNS_11char_traitsIcEENS_9allocatorIcEEEEfED2Ev, symObjAddr: 0x12A3C, symBinAddr: 0x100015224, symSize: 0x2C }
  - { offsetInCU: 0x9A978, offset: 0x9A978, size: 0x8, addend: 0x0, symName: __ZNSt3__117__hash_value_typeINS_12basic_stringIcNS_11char_traitsIcEENS_9allocatorIcEEEEfE11__get_valueB8ue170006Ev, symObjAddr: 0x12A68, symBinAddr: 0x100015250, symSize: 0x24 }
  - { offsetInCU: 0x9A99E, offset: 0x9A99E, size: 0x8, addend: 0x0, symName: __ZNSt3__19allocatorINS_11__hash_nodeINS_17__hash_value_typeINS_12basic_stringIcNS_11char_traitsIcEENS0_IcEEEEfEEPvEEE10deallocateB8ue170006EPSA_m, symObjAddr: 0x12AC4, symBinAddr: 0x1000152AC, symSize: 0x44 }
  - { offsetInCU: 0x9A9E0, offset: 0x9A9E0, size: 0x8, addend: 0x0, symName: __ZNSt3__122__compressed_pair_elemINS_16__hash_node_baseIPNS_11__hash_nodeINS_17__hash_value_typeINS_12basic_stringIcNS_11char_traitsIcEENS_9allocatorIcEEEEfEEPvEEEELi0ELb0EE5__getB8ue170006Ev, symObjAddr: 0x12B08, symBinAddr: 0x1000152F0, symSize: 0x14 }
  - { offsetInCU: 0x9AA06, offset: 0x9AA06, size: 0x8, addend: 0x0, symName: __ZNSt3__110unique_ptrIA_PNS_16__hash_node_baseIPNS_11__hash_nodeINS_17__hash_value_typeINS_12basic_stringIcNS_11char_traitsIcEENS_9allocatorIcEEEEfEEPvEEEENS_25__bucket_list_deallocatorINS7_ISF_EEEEED2B8ue170006Ev, symObjAddr: 0x12B1C, symBinAddr: 0x100015304, symSize: 0x30 }
  - { offsetInCU: 0x9AA30, offset: 0x9AA30, size: 0x8, addend: 0x0, symName: __ZNSt3__110unique_ptrIA_PNS_16__hash_node_baseIPNS_11__hash_nodeINS_17__hash_value_typeINS_12basic_stringIcNS_11char_traitsIcEENS_9allocatorIcEEEEfEEPvEEEENS_25__bucket_list_deallocatorINS7_ISF_EEEEE5resetB8ue170006EDn, symObjAddr: 0x12B4C, symBinAddr: 0x100015334, symSize: 0x6C }
  - { offsetInCU: 0x9AA70, offset: 0x9AA70, size: 0x8, addend: 0x0, symName: __ZNSt3__117__compressed_pairIPPNS_16__hash_node_baseIPNS_11__hash_nodeINS_17__hash_value_typeINS_12basic_stringIcNS_11char_traitsIcEENS_9allocatorIcEEEEfEEPvEEEENS_25__bucket_list_deallocatorINS7_ISF_EEEEE5firstB8ue170006Ev, symObjAddr: 0x12BB8, symBinAddr: 0x1000153A0, symSize: 0x24 }
  - { offsetInCU: 0x9AA96, offset: 0x9AA96, size: 0x8, addend: 0x0, symName: __ZNSt3__117__compressed_pairIPPNS_16__hash_node_baseIPNS_11__hash_nodeINS_17__hash_value_typeINS_12basic_stringIcNS_11char_traitsIcEENS_9allocatorIcEEEEfEEPvEEEENS_25__bucket_list_deallocatorINS7_ISF_EEEEE6secondB8ue170006Ev, symObjAddr: 0x12BDC, symBinAddr: 0x1000153C4, symSize: 0x28 }
  - { offsetInCU: 0x9AABC, offset: 0x9AABC, size: 0x8, addend: 0x0, symName: __ZNSt3__125__bucket_list_deallocatorINS_9allocatorIPNS_16__hash_node_baseIPNS_11__hash_nodeINS_17__hash_value_typeINS_12basic_stringIcNS_11char_traitsIcEENS1_IcEEEEfEEPvEEEEEEEclB8ue170006EPSF_, symObjAddr: 0x12C04, symBinAddr: 0x1000153EC, symSize: 0x58 }
  - { offsetInCU: 0x9AAF1, offset: 0x9AAF1, size: 0x8, addend: 0x0, symName: __ZNSt3__122__compressed_pair_elemIPPNS_16__hash_node_baseIPNS_11__hash_nodeINS_17__hash_value_typeINS_12basic_stringIcNS_11char_traitsIcEENS_9allocatorIcEEEEfEEPvEEEELi0ELb0EE5__getB8ue170006Ev, symObjAddr: 0x12C5C, symBinAddr: 0x100015444, symSize: 0x14 }
  - { offsetInCU: 0x9AB17, offset: 0x9AB17, size: 0x8, addend: 0x0, symName: __ZNSt3__122__compressed_pair_elemINS_25__bucket_list_deallocatorINS_9allocatorIPNS_16__hash_node_baseIPNS_11__hash_nodeINS_17__hash_value_typeINS_12basic_stringIcNS_11char_traitsIcEENS2_IcEEEEfEEPvEEEEEEEELi1ELb0EE5__getB8ue170006Ev, symObjAddr: 0x12C70, symBinAddr: 0x100015458, symSize: 0x14 }
  - { offsetInCU: 0x9AB3D, offset: 0x9AB3D, size: 0x8, addend: 0x0, symName: __ZNSt3__116allocator_traitsINS_9allocatorIPNS_16__hash_node_baseIPNS_11__hash_nodeINS_17__hash_value_typeINS_12basic_stringIcNS_11char_traitsIcEENS1_IcEEEEfEEPvEEEEEEE10deallocateB8ue170006ERSG_PSF_m, symObjAddr: 0x12C84, symBinAddr: 0x10001546C, symSize: 0x34 }
  - { offsetInCU: 0x9AB7F, offset: 0x9AB7F, size: 0x8, addend: 0x0, symName: __ZNSt3__125__bucket_list_deallocatorINS_9allocatorIPNS_16__hash_node_baseIPNS_11__hash_nodeINS_17__hash_value_typeINS_12basic_stringIcNS_11char_traitsIcEENS1_IcEEEEfEEPvEEEEEEE7__allocB8ue170006Ev, symObjAddr: 0x12CB8, symBinAddr: 0x1000154A0, symSize: 0x24 }
  - { offsetInCU: 0x9ABA5, offset: 0x9ABA5, size: 0x8, addend: 0x0, symName: __ZNSt3__125__bucket_list_deallocatorINS_9allocatorIPNS_16__hash_node_baseIPNS_11__hash_nodeINS_17__hash_value_typeINS_12basic_stringIcNS_11char_traitsIcEENS1_IcEEEEfEEPvEEEEEEE4sizeB8ue170006Ev, symObjAddr: 0x12CDC, symBinAddr: 0x1000154C4, symSize: 0x24 }
  - { offsetInCU: 0x9ABCB, offset: 0x9ABCB, size: 0x8, addend: 0x0, symName: __ZNSt3__19allocatorIPNS_16__hash_node_baseIPNS_11__hash_nodeINS_17__hash_value_typeINS_12basic_stringIcNS_11char_traitsIcEENS0_IcEEEEfEEPvEEEEE10deallocateB8ue170006EPSE_m, symObjAddr: 0x12D00, symBinAddr: 0x1000154E8, symSize: 0x40 }
  - { offsetInCU: 0x9AC0D, offset: 0x9AC0D, size: 0x8, addend: 0x0, symName: __ZNSt3__117__compressed_pairImNS_9allocatorIPNS_16__hash_node_baseIPNS_11__hash_nodeINS_17__hash_value_typeINS_12basic_stringIcNS_11char_traitsIcEENS1_IcEEEEfEEPvEEEEEEE6secondB8ue170006Ev, symObjAddr: 0x12D40, symBinAddr: 0x100015528, symSize: 0x24 }
  - { offsetInCU: 0x9AC33, offset: 0x9AC33, size: 0x8, addend: 0x0, symName: __ZNSt3__122__compressed_pair_elemINS_9allocatorIPNS_16__hash_node_baseIPNS_11__hash_nodeINS_17__hash_value_typeINS_12basic_stringIcNS_11char_traitsIcEENS1_IcEEEEfEEPvEEEEEELi1ELb1EE5__getB8ue170006Ev, symObjAddr: 0x12D64, symBinAddr: 0x10001554C, symSize: 0x14 }
  - { offsetInCU: 0x9AC59, offset: 0x9AC59, size: 0x8, addend: 0x0, symName: __ZNSt3__117__compressed_pairImNS_9allocatorIPNS_16__hash_node_baseIPNS_11__hash_nodeINS_17__hash_value_typeINS_12basic_stringIcNS_11char_traitsIcEENS1_IcEEEEfEEPvEEEEEEE5firstB8ue170006Ev, symObjAddr: 0x12D78, symBinAddr: 0x100015560, symSize: 0x24 }
  - { offsetInCU: 0x9AC7F, offset: 0x9AC7F, size: 0x8, addend: 0x0, symName: __ZNSt3__113unordered_mapIbNS0_IbNS0_IbNS_6vectorIfNS_9allocatorIfEEEENS_4hashIbEENS_8equal_toIbEENS2_INS_4pairIKbS4_EEEEEES6_S8_NS2_INS9_ISA_SD_EEEEEES6_S8_NS2_INS9_ISA_SG_EEEEEC2B8ue170006Ev, symObjAddr: 0x12D9C, symBinAddr: 0x100015584, symSize: 0x2C }
  - { offsetInCU: 0x9ACA9, offset: 0x9ACA9, size: 0x8, addend: 0x0, symName: __ZNSt3__112__hash_tableINS_17__hash_value_typeIbNS_13unordered_mapIbNS2_IbNS_6vectorIfNS_9allocatorIfEEEENS_4hashIbEENS_8equal_toIbEENS4_INS_4pairIKbS6_EEEEEES8_SA_NS4_INSB_ISC_SF_EEEEEEEENS_22__unordered_map_hasherIbSJ_S8_SA_Lb1EEENS_21__unordered_map_equalIbSJ_SA_S8_Lb1EEENS4_ISJ_EEEC1Ev, symObjAddr: 0x12DC8, symBinAddr: 0x1000155B0, symSize: 0x2C }
  - { offsetInCU: 0x9ACD5, offset: 0x9ACD5, size: 0x8, addend: 0x0, symName: __ZNSt3__112__hash_tableINS_17__hash_value_typeIbNS_13unordered_mapIbNS2_IbNS_6vectorIfNS_9allocatorIfEEEENS_4hashIbEENS_8equal_toIbEENS4_INS_4pairIKbS6_EEEEEES8_SA_NS4_INSB_ISC_SF_EEEEEEEENS_22__unordered_map_hasherIbSJ_S8_SA_Lb1EEENS_21__unordered_map_equalIbSJ_SA_S8_Lb1EEENS4_ISJ_EEEC2Ev, symObjAddr: 0x12DF4, symBinAddr: 0x1000155DC, symSize: 0x7C }
  - { offsetInCU: 0x9AD01, offset: 0x9AD01, size: 0x8, addend: 0x0, symName: __ZNSt3__110unique_ptrIA_PNS_16__hash_node_baseIPNS_11__hash_nodeINS_17__hash_value_typeIbNS_13unordered_mapIbNS4_IbNS_6vectorIfNS_9allocatorIfEEEENS_4hashIbEENS_8equal_toIbEENS6_INS_4pairIKbS8_EEEEEESA_SC_NS6_INSD_ISE_SH_EEEEEEEEPvEEEENS_25__bucket_list_deallocatorINS6_ISQ_EEEEEC1B8ue170006ILb1EvEEv, symObjAddr: 0x12E70, symBinAddr: 0x100015658, symSize: 0x2C }
  - { offsetInCU: 0x9AD36, offset: 0x9AD36, size: 0x8, addend: 0x0, symName: __ZNSt3__117__compressed_pairINS_16__hash_node_baseIPNS_11__hash_nodeINS_17__hash_value_typeIbNS_13unordered_mapIbNS4_IbNS_6vectorIfNS_9allocatorIfEEEENS_4hashIbEENS_8equal_toIbEENS6_INS_4pairIKbS8_EEEEEESA_SC_NS6_INSD_ISE_SH_EEEEEEEEPvEEEENS6_ISN_EEEC1B8ue170006ILb1EvEEv, symObjAddr: 0x12E9C, symBinAddr: 0x100015684, symSize: 0x2C }
  - { offsetInCU: 0x9AD6B, offset: 0x9AD6B, size: 0x8, addend: 0x0, symName: __ZNSt3__117__compressed_pairImNS_22__unordered_map_hasherIbNS_17__hash_value_typeIbNS_13unordered_mapIbNS3_IbNS_6vectorIfNS_9allocatorIfEEEENS_4hashIbEENS_8equal_toIbEENS5_INS_4pairIKbS7_EEEEEES9_SB_NS5_INSC_ISD_SG_EEEEEEEES9_SB_Lb1EEEEC1B8ue170006IiNS_18__default_init_tagEEEOT_OT0_, symObjAddr: 0x12EC8, symBinAddr: 0x1000156B0, symSize: 0x3C }
  - { offsetInCU: 0x9ADC3, offset: 0x9ADC3, size: 0x8, addend: 0x0, symName: __ZNSt3__117__compressed_pairIfNS_21__unordered_map_equalIbNS_17__hash_value_typeIbNS_13unordered_mapIbNS3_IbNS_6vectorIfNS_9allocatorIfEEEENS_4hashIbEENS_8equal_toIbEENS5_INS_4pairIKbS7_EEEEEES9_SB_NS5_INSC_ISD_SG_EEEEEEEESB_S9_Lb1EEEEC1B8ue170006IfNS_18__default_init_tagEEEOT_OT0_, symObjAddr: 0x12F04, symBinAddr: 0x1000156EC, symSize: 0x3C }
  - { offsetInCU: 0x9AE1B, offset: 0x9AE1B, size: 0x8, addend: 0x0, symName: __ZNSt3__110unique_ptrIA_PNS_16__hash_node_baseIPNS_11__hash_nodeINS_17__hash_value_typeIbNS_13unordered_mapIbNS4_IbNS_6vectorIfNS_9allocatorIfEEEENS_4hashIbEENS_8equal_toIbEENS6_INS_4pairIKbS8_EEEEEESA_SC_NS6_INSD_ISE_SH_EEEEEEEEPvEEEENS_25__bucket_list_deallocatorINS6_ISQ_EEEEEC2B8ue170006ILb1EvEEv, symObjAddr: 0x12F40, symBinAddr: 0x100015728, symSize: 0x3C }
  - { offsetInCU: 0x9AE50, offset: 0x9AE50, size: 0x8, addend: 0x0, symName: __ZNSt3__117__compressed_pairIPPNS_16__hash_node_baseIPNS_11__hash_nodeINS_17__hash_value_typeIbNS_13unordered_mapIbNS4_IbNS_6vectorIfNS_9allocatorIfEEEENS_4hashIbEENS_8equal_toIbEENS6_INS_4pairIKbS8_EEEEEESA_SC_NS6_INSD_ISE_SH_EEEEEEEEPvEEEENS_25__bucket_list_deallocatorINS6_ISQ_EEEEEC1B8ue170006INS_16__value_init_tagESX_EEOT_OT0_, symObjAddr: 0x12F7C, symBinAddr: 0x100015764, symSize: 0x3C }
  - { offsetInCU: 0x9AEA8, offset: 0x9AEA8, size: 0x8, addend: 0x0, symName: __ZNSt3__117__compressed_pairIPPNS_16__hash_node_baseIPNS_11__hash_nodeINS_17__hash_value_typeIbNS_13unordered_mapIbNS4_IbNS_6vectorIfNS_9allocatorIfEEEENS_4hashIbEENS_8equal_toIbEENS6_INS_4pairIKbS8_EEEEEESA_SC_NS6_INSD_ISE_SH_EEEEEEEEPvEEEENS_25__bucket_list_deallocatorINS6_ISQ_EEEEEC2B8ue170006INS_16__value_init_tagESX_EEOT_OT0_, symObjAddr: 0x12FB8, symBinAddr: 0x1000157A0, symSize: 0x40 }
  - { offsetInCU: 0x9AF00, offset: 0x9AF00, size: 0x8, addend: 0x0, symName: __ZNSt3__122__compressed_pair_elemIPPNS_16__hash_node_baseIPNS_11__hash_nodeINS_17__hash_value_typeIbNS_13unordered_mapIbNS4_IbNS_6vectorIfNS_9allocatorIfEEEENS_4hashIbEENS_8equal_toIbEENS6_INS_4pairIKbS8_EEEEEESA_SC_NS6_INSD_ISE_SH_EEEEEEEEPvEEEELi0ELb0EEC2B8ue170006ENS_16__value_init_tagE, symObjAddr: 0x12FF8, symBinAddr: 0x1000157E0, symSize: 0x18 }
  - { offsetInCU: 0x9AF35, offset: 0x9AF35, size: 0x8, addend: 0x0, symName: __ZNSt3__122__compressed_pair_elemINS_25__bucket_list_deallocatorINS_9allocatorIPNS_16__hash_node_baseIPNS_11__hash_nodeINS_17__hash_value_typeIbNS_13unordered_mapIbNS6_IbNS_6vectorIfNS2_IfEEEENS_4hashIbEENS_8equal_toIbEENS2_INS_4pairIKbS9_EEEEEESB_SD_NS2_INSE_ISF_SI_EEEEEEEEPvEEEEEEEELi1ELb0EEC2B8ue170006ENS_16__value_init_tagE, symObjAddr: 0x13010, symBinAddr: 0x1000157F8, symSize: 0x2C }
  - { offsetInCU: 0x9AF6A, offset: 0x9AF6A, size: 0x8, addend: 0x0, symName: __ZNSt3__125__bucket_list_deallocatorINS_9allocatorIPNS_16__hash_node_baseIPNS_11__hash_nodeINS_17__hash_value_typeIbNS_13unordered_mapIbNS5_IbNS_6vectorIfNS1_IfEEEENS_4hashIbEENS_8equal_toIbEENS1_INS_4pairIKbS8_EEEEEESA_SC_NS1_INSD_ISE_SH_EEEEEEEEPvEEEEEEEC1B8ue170006Ev, symObjAddr: 0x1303C, symBinAddr: 0x100015824, symSize: 0x2C }
  - { offsetInCU: 0x9AF94, offset: 0x9AF94, size: 0x8, addend: 0x0, symName: __ZNSt3__125__bucket_list_deallocatorINS_9allocatorIPNS_16__hash_node_baseIPNS_11__hash_nodeINS_17__hash_value_typeIbNS_13unordered_mapIbNS5_IbNS_6vectorIfNS1_IfEEEENS_4hashIbEENS_8equal_toIbEENS1_INS_4pairIKbS8_EEEEEESA_SC_NS1_INSD_ISE_SH_EEEEEEEEPvEEEEEEEC2B8ue170006Ev, symObjAddr: 0x13068, symBinAddr: 0x100015850, symSize: 0x40 }
  - { offsetInCU: 0x9AFBE, offset: 0x9AFBE, size: 0x8, addend: 0x0, symName: __ZNSt3__117__compressed_pairImNS_9allocatorIPNS_16__hash_node_baseIPNS_11__hash_nodeINS_17__hash_value_typeIbNS_13unordered_mapIbNS5_IbNS_6vectorIfNS1_IfEEEENS_4hashIbEENS_8equal_toIbEENS1_INS_4pairIKbS8_EEEEEESA_SC_NS1_INSD_ISE_SH_EEEEEEEEPvEEEEEEEC1B8ue170006IiNS_18__default_init_tagEEEOT_OT0_, symObjAddr: 0x130A8, symBinAddr: 0x100015890, symSize: 0x3C }
  - { offsetInCU: 0x9B016, offset: 0x9B016, size: 0x8, addend: 0x0, symName: __ZNSt3__117__compressed_pairImNS_9allocatorIPNS_16__hash_node_baseIPNS_11__hash_nodeINS_17__hash_value_typeIbNS_13unordered_mapIbNS5_IbNS_6vectorIfNS1_IfEEEENS_4hashIbEENS_8equal_toIbEENS1_INS_4pairIKbS8_EEEEEESA_SC_NS1_INSD_ISE_SH_EEEEEEEEPvEEEEEEEC2B8ue170006IiNS_18__default_init_tagEEEOT_OT0_, symObjAddr: 0x130E4, symBinAddr: 0x1000158CC, symSize: 0x40 }
  - { offsetInCU: 0x9B06E, offset: 0x9B06E, size: 0x8, addend: 0x0, symName: __ZNSt3__122__compressed_pair_elemINS_9allocatorIPNS_16__hash_node_baseIPNS_11__hash_nodeINS_17__hash_value_typeIbNS_13unordered_mapIbNS5_IbNS_6vectorIfNS1_IfEEEENS_4hashIbEENS_8equal_toIbEENS1_INS_4pairIKbS8_EEEEEESA_SC_NS1_INSD_ISE_SH_EEEEEEEEPvEEEEEELi1ELb1EEC2B8ue170006ENS_18__default_init_tagE, symObjAddr: 0x13124, symBinAddr: 0x10001590C, symSize: 0x2C }
  - { offsetInCU: 0x9B0A3, offset: 0x9B0A3, size: 0x8, addend: 0x0, symName: __ZNSt3__19allocatorIPNS_16__hash_node_baseIPNS_11__hash_nodeINS_17__hash_value_typeIbNS_13unordered_mapIbNS4_IbNS_6vectorIfNS0_IfEEEENS_4hashIbEENS_8equal_toIbEENS0_INS_4pairIKbS7_EEEEEES9_SB_NS0_INSC_ISD_SG_EEEEEEEEPvEEEEEC2B8ue170006Ev, symObjAddr: 0x13150, symBinAddr: 0x100015938, symSize: 0x2C }
  - { offsetInCU: 0x9B0CD, offset: 0x9B0CD, size: 0x8, addend: 0x0, symName: __ZNSt3__116__non_trivial_ifILb1ENS_9allocatorIPNS_16__hash_node_baseIPNS_11__hash_nodeINS_17__hash_value_typeIbNS_13unordered_mapIbNS5_IbNS_6vectorIfNS1_IfEEEENS_4hashIbEENS_8equal_toIbEENS1_INS_4pairIKbS8_EEEEEESA_SC_NS1_INSD_ISE_SH_EEEEEEEEPvEEEEEEEC2B8ue170006Ev, symObjAddr: 0x1317C, symBinAddr: 0x100015964, symSize: 0x14 }
  - { offsetInCU: 0x9B0F7, offset: 0x9B0F7, size: 0x8, addend: 0x0, symName: __ZNSt3__117__compressed_pairINS_16__hash_node_baseIPNS_11__hash_nodeINS_17__hash_value_typeIbNS_13unordered_mapIbNS4_IbNS_6vectorIfNS_9allocatorIfEEEENS_4hashIbEENS_8equal_toIbEENS6_INS_4pairIKbS8_EEEEEESA_SC_NS6_INSD_ISE_SH_EEEEEEEEPvEEEENS6_ISN_EEEC2B8ue170006ILb1EvEEv, symObjAddr: 0x13190, symBinAddr: 0x100015978, symSize: 0x34 }
  - { offsetInCU: 0x9B12C, offset: 0x9B12C, size: 0x8, addend: 0x0, symName: __ZNSt3__122__compressed_pair_elemINS_16__hash_node_baseIPNS_11__hash_nodeINS_17__hash_value_typeIbNS_13unordered_mapIbNS4_IbNS_6vectorIfNS_9allocatorIfEEEENS_4hashIbEENS_8equal_toIbEENS6_INS_4pairIKbS8_EEEEEESA_SC_NS6_INSD_ISE_SH_EEEEEEEEPvEEEELi0ELb0EEC2B8ue170006ENS_16__value_init_tagE, symObjAddr: 0x131C4, symBinAddr: 0x1000159AC, symSize: 0x2C }
  - { offsetInCU: 0x9B161, offset: 0x9B161, size: 0x8, addend: 0x0, symName: __ZNSt3__122__compressed_pair_elemINS_9allocatorINS_11__hash_nodeINS_17__hash_value_typeIbNS_13unordered_mapIbNS4_IbNS_6vectorIfNS1_IfEEEENS_4hashIbEENS_8equal_toIbEENS1_INS_4pairIKbS7_EEEEEES9_SB_NS1_INSC_ISD_SG_EEEEEEEEPvEEEELi1ELb1EEC2B8ue170006ENS_16__value_init_tagE, symObjAddr: 0x131F0, symBinAddr: 0x1000159D8, symSize: 0x2C }
  - { offsetInCU: 0x9B196, offset: 0x9B196, size: 0x8, addend: 0x0, symName: __ZNSt3__116__hash_node_baseIPNS_11__hash_nodeINS_17__hash_value_typeIbNS_13unordered_mapIbNS3_IbNS_6vectorIfNS_9allocatorIfEEEENS_4hashIbEENS_8equal_toIbEENS5_INS_4pairIKbS7_EEEEEES9_SB_NS5_INSC_ISD_SG_EEEEEEEEPvEEEC1B8ue170006Ev, symObjAddr: 0x1321C, symBinAddr: 0x100015A04, symSize: 0x2C }
  - { offsetInCU: 0x9B1C0, offset: 0x9B1C0, size: 0x8, addend: 0x0, symName: __ZNSt3__116__hash_node_baseIPNS_11__hash_nodeINS_17__hash_value_typeIbNS_13unordered_mapIbNS3_IbNS_6vectorIfNS_9allocatorIfEEEENS_4hashIbEENS_8equal_toIbEENS5_INS_4pairIKbS7_EEEEEES9_SB_NS5_INSC_ISD_SG_EEEEEEEEPvEEEC2B8ue170006Ev, symObjAddr: 0x13248, symBinAddr: 0x100015A30, symSize: 0x18 }
  - { offsetInCU: 0x9B1EA, offset: 0x9B1EA, size: 0x8, addend: 0x0, symName: __ZNSt3__19allocatorINS_11__hash_nodeINS_17__hash_value_typeIbNS_13unordered_mapIbNS3_IbNS_6vectorIfNS0_IfEEEENS_4hashIbEENS_8equal_toIbEENS0_INS_4pairIKbS6_EEEEEES8_SA_NS0_INSB_ISC_SF_EEEEEEEEPvEEEC2B8ue170006Ev, symObjAddr: 0x13260, symBinAddr: 0x100015A48, symSize: 0x2C }
  - { offsetInCU: 0x9B214, offset: 0x9B214, size: 0x8, addend: 0x0, symName: __ZNSt3__116__non_trivial_ifILb1ENS_9allocatorINS_11__hash_nodeINS_17__hash_value_typeIbNS_13unordered_mapIbNS4_IbNS_6vectorIfNS1_IfEEEENS_4hashIbEENS_8equal_toIbEENS1_INS_4pairIKbS7_EEEEEES9_SB_NS1_INSC_ISD_SG_EEEEEEEEPvEEEEEC2B8ue170006Ev, symObjAddr: 0x1328C, symBinAddr: 0x100015A74, symSize: 0x14 }
  - { offsetInCU: 0x9B23E, offset: 0x9B23E, size: 0x8, addend: 0x0, symName: __ZNSt3__117__compressed_pairImNS_22__unordered_map_hasherIbNS_17__hash_value_typeIbNS_13unordered_mapIbNS3_IbNS_6vectorIfNS_9allocatorIfEEEENS_4hashIbEENS_8equal_toIbEENS5_INS_4pairIKbS7_EEEEEES9_SB_NS5_INSC_ISD_SG_EEEEEEEES9_SB_Lb1EEEEC2B8ue170006IiNS_18__default_init_tagEEEOT_OT0_, symObjAddr: 0x132A0, symBinAddr: 0x100015A88, symSize: 0x40 }
  - { offsetInCU: 0x9B296, offset: 0x9B296, size: 0x8, addend: 0x0, symName: __ZNSt3__122__compressed_pair_elemINS_22__unordered_map_hasherIbNS_17__hash_value_typeIbNS_13unordered_mapIbNS3_IbNS_6vectorIfNS_9allocatorIfEEEENS_4hashIbEENS_8equal_toIbEENS5_INS_4pairIKbS7_EEEEEES9_SB_NS5_INSC_ISD_SG_EEEEEEEES9_SB_Lb1EEELi1ELb1EEC2B8ue170006ENS_18__default_init_tagE, symObjAddr: 0x132E0, symBinAddr: 0x100015AC8, symSize: 0x2C }
  - { offsetInCU: 0x9B2CB, offset: 0x9B2CB, size: 0x8, addend: 0x0, symName: __ZNSt3__122__unordered_map_hasherIbNS_17__hash_value_typeIbNS_13unordered_mapIbNS2_IbNS_6vectorIfNS_9allocatorIfEEEENS_4hashIbEENS_8equal_toIbEENS4_INS_4pairIKbS6_EEEEEES8_SA_NS4_INSB_ISC_SF_EEEEEEEES8_SA_Lb1EEC2B8ue170006Ev, symObjAddr: 0x1330C, symBinAddr: 0x100015AF4, symSize: 0x14 }
  - { offsetInCU: 0x9B2F5, offset: 0x9B2F5, size: 0x8, addend: 0x0, symName: __ZNSt3__117__compressed_pairIfNS_21__unordered_map_equalIbNS_17__hash_value_typeIbNS_13unordered_mapIbNS3_IbNS_6vectorIfNS_9allocatorIfEEEENS_4hashIbEENS_8equal_toIbEENS5_INS_4pairIKbS7_EEEEEES9_SB_NS5_INSC_ISD_SG_EEEEEEEESB_S9_Lb1EEEEC2B8ue170006IfNS_18__default_init_tagEEEOT_OT0_, symObjAddr: 0x13320, symBinAddr: 0x100015B08, symSize: 0x40 }
  - { offsetInCU: 0x9B34D, offset: 0x9B34D, size: 0x8, addend: 0x0, symName: __ZNSt3__122__compressed_pair_elemINS_21__unordered_map_equalIbNS_17__hash_value_typeIbNS_13unordered_mapIbNS3_IbNS_6vectorIfNS_9allocatorIfEEEENS_4hashIbEENS_8equal_toIbEENS5_INS_4pairIKbS7_EEEEEES9_SB_NS5_INSC_ISD_SG_EEEEEEEESB_S9_Lb1EEELi1ELb1EEC2B8ue170006ENS_18__default_init_tagE, symObjAddr: 0x13360, symBinAddr: 0x100015B48, symSize: 0x2C }
  - { offsetInCU: 0x9B382, offset: 0x9B382, size: 0x8, addend: 0x0, symName: __ZNSt3__121__unordered_map_equalIbNS_17__hash_value_typeIbNS_13unordered_mapIbNS2_IbNS_6vectorIfNS_9allocatorIfEEEENS_4hashIbEENS_8equal_toIbEENS4_INS_4pairIKbS6_EEEEEES8_SA_NS4_INSB_ISC_SF_EEEEEEEESA_S8_Lb1EEC2B8ue170006Ev, symObjAddr: 0x1338C, symBinAddr: 0x100015B74, symSize: 0x14 }
  - { offsetInCU: 0x9B3AC, offset: 0x9B3AC, size: 0x8, addend: 0x0, symName: __ZNSt3__113unordered_mapIbNS0_IbNS0_IbNS_6vectorIfNS_9allocatorIfEEEENS_4hashIbEENS_8equal_toIbEENS2_INS_4pairIKbS4_EEEEEES6_S8_NS2_INS9_ISA_SD_EEEEEES6_S8_NS2_INS9_ISA_SG_EEEEED2B8ue170006Ev, symObjAddr: 0x133A0, symBinAddr: 0x100015B88, symSize: 0x2C }
  - { offsetInCU: 0x9B3D6, offset: 0x9B3D6, size: 0x8, addend: 0x0, symName: __ZNSt3__112__hash_tableINS_17__hash_value_typeIbNS_13unordered_mapIbNS2_IbNS_6vectorIfNS_9allocatorIfEEEENS_4hashIbEENS_8equal_toIbEENS4_INS_4pairIKbS6_EEEEEES8_SA_NS4_INSB_ISC_SF_EEEEEEEENS_22__unordered_map_hasherIbSJ_S8_SA_Lb1EEENS_21__unordered_map_equalIbSJ_SA_S8_Lb1EEENS4_ISJ_EEED1Ev, symObjAddr: 0x133CC, symBinAddr: 0x100015BB4, symSize: 0x2C }
  - { offsetInCU: 0x9B402, offset: 0x9B402, size: 0x8, addend: 0x0, symName: __ZNSt3__112__hash_tableINS_17__hash_value_typeIbNS_13unordered_mapIbNS2_IbNS_6vectorIfNS_9allocatorIfEEEENS_4hashIbEENS_8equal_toIbEENS4_INS_4pairIKbS6_EEEEEES8_SA_NS4_INSB_ISC_SF_EEEEEEEENS_22__unordered_map_hasherIbSJ_S8_SA_Lb1EEENS_21__unordered_map_equalIbSJ_SA_S8_Lb1EEENS4_ISJ_EEED2Ev, symObjAddr: 0x133F8, symBinAddr: 0x100015BE0, symSize: 0x48 }
  - { offsetInCU: 0x9B42E, offset: 0x9B42E, size: 0x8, addend: 0x0, symName: __ZNSt3__112__hash_tableINS_17__hash_value_typeIbNS_13unordered_mapIbNS2_IbNS_6vectorIfNS_9allocatorIfEEEENS_4hashIbEENS_8equal_toIbEENS4_INS_4pairIKbS6_EEEEEES8_SA_NS4_INSB_ISC_SF_EEEEEEEENS_22__unordered_map_hasherIbSJ_S8_SA_Lb1EEENS_21__unordered_map_equalIbSJ_SA_S8_Lb1EEENS4_ISJ_EEE17__deallocate_nodeEPNS_16__hash_node_baseIPNS_11__hash_nodeISJ_PvEEEE, symObjAddr: 0x13440, symBinAddr: 0x100015C28, symSize: 0xA8 }
  - { offsetInCU: 0x9B499, offset: 0x9B499, size: 0x8, addend: 0x0, symName: __ZNSt3__117__compressed_pairINS_16__hash_node_baseIPNS_11__hash_nodeINS_17__hash_value_typeIbNS_13unordered_mapIbNS4_IbNS_6vectorIfNS_9allocatorIfEEEENS_4hashIbEENS_8equal_toIbEENS6_INS_4pairIKbS8_EEEEEESA_SC_NS6_INSD_ISE_SH_EEEEEEEEPvEEEENS6_ISN_EEE5firstB8ue170006Ev, symObjAddr: 0x134E8, symBinAddr: 0x100015CD0, symSize: 0x24 }
  - { offsetInCU: 0x9B4BF, offset: 0x9B4BF, size: 0x8, addend: 0x0, symName: __ZNSt3__110unique_ptrIA_PNS_16__hash_node_baseIPNS_11__hash_nodeINS_17__hash_value_typeIbNS_13unordered_mapIbNS4_IbNS_6vectorIfNS_9allocatorIfEEEENS_4hashIbEENS_8equal_toIbEENS6_INS_4pairIKbS8_EEEEEESA_SC_NS6_INSD_ISE_SH_EEEEEEEEPvEEEENS_25__bucket_list_deallocatorINS6_ISQ_EEEEED1B8ue170006Ev, symObjAddr: 0x1350C, symBinAddr: 0x100015CF4, symSize: 0x2C }
