---
triple:          'arm64-apple-darwin'
binary-path:     PrefixPostfixMultiThreadSR
relocations:
  - { offsetInCU: 0x1016A, offset: 0x1016A, size: 0x8, addend: 0x0, symName: __ZN5Eigen8internal13blueNorm_implINS_5BlockIKNS_6MatrixIfLin1ELin1ELi0ELin1ELin1EEELin1ELi1ELb1EEEEENS_9NumTraitsINS0_6traitsIT_E6ScalarEE4RealERKNS_9EigenBaseIS9_EE, symObjAddr: 0x44F20, symBinAddr: 0x100048B18, symSize: 0x44C }
  - { offsetInCU: 0x101D5, offset: 0x101D5, size: 0x8, addend: 0x0, symName: __ZZN5Eigen8internal13blueNorm_implINS_5BlockIKNS_6MatrixIfLin1ELin1ELi0ELin1ELin1EEELin1ELi1ELb1EEEEENS_9NumTraitsINS0_6traitsIT_E6ScalarEE4RealERKNS_9EigenBaseIS9_EEE2b1, symObjAddr: 0x6D990, symBinAddr: 0x100076400, symSize: 0x0 }
  - { offsetInCU: 0x101EA, offset: 0x101EA, size: 0x8, addend: 0x0, symName: __ZZN5Eigen8internal13blueNorm_implINS_5BlockIKNS_6MatrixIfLin1ELin1ELi0ELin1ELin1EEELin1ELi1ELb1EEEEENS_9NumTraitsINS0_6traitsIT_E6ScalarEE4RealERKNS_9EigenBaseIS9_EEE2b2, symObjAddr: 0x6D9A0, symBinAddr: 0x100076410, symSize: 0x0 }
  - { offsetInCU: 0x101FF, offset: 0x101FF, size: 0x8, addend: 0x0, symName: __ZZN5Eigen8internal13blueNorm_implINS_5BlockIKNS_6MatrixIfLin1ELin1ELi0ELin1ELin1EEELin1ELi1ELb1EEEEENS_9NumTraitsINS0_6traitsIT_E6ScalarEE4RealERKNS_9EigenBaseIS9_EEE3s1m, symObjAddr: 0x6D9B0, symBinAddr: 0x100076420, symSize: 0x0 }
  - { offsetInCU: 0x10214, offset: 0x10214, size: 0x8, addend: 0x0, symName: __ZZN5Eigen8internal13blueNorm_implINS_5BlockIKNS_6MatrixIfLin1ELin1ELi0ELin1ELin1EEELin1ELi1ELb1EEEEENS_9NumTraitsINS0_6traitsIT_E6ScalarEE4RealERKNS_9EigenBaseIS9_EEE3s2m, symObjAddr: 0x6D9C0, symBinAddr: 0x100076430, symSize: 0x0 }
  - { offsetInCU: 0x10229, offset: 0x10229, size: 0x8, addend: 0x0, symName: __ZZN5Eigen8internal13blueNorm_implINS_5BlockIKNS_6MatrixIfLin1ELin1ELi0ELin1ELin1EEELin1ELi1ELb1EEEEENS_9NumTraitsINS0_6traitsIT_E6ScalarEE4RealERKNS_9EigenBaseIS9_EEE3eps, symObjAddr: 0x6D9D0, symBinAddr: 0x100076440, symSize: 0x0 }
  - { offsetInCU: 0x1023E, offset: 0x1023E, size: 0x8, addend: 0x0, symName: __ZZN5Eigen8internal13blueNorm_implINS_5BlockIKNS_6MatrixIfLin1ELin1ELi0ELin1ELin1EEELin1ELi1ELb1EEEEENS_9NumTraitsINS0_6traitsIT_E6ScalarEE4RealERKNS_9EigenBaseIS9_EEE6relerr, symObjAddr: 0x6D9E0, symBinAddr: 0x100076450, symSize: 0x0 }
  - { offsetInCU: 0x10599, offset: 0x10599, size: 0x8, addend: 0x0, symName: __ZN5Eigen8internal13blueNorm_implINS_6MatrixIfLin1ELi1ELi0ELin1ELi1EEEEENS_9NumTraitsINS0_6traitsIT_E6ScalarEE4RealERKNS_9EigenBaseIS6_EE, symObjAddr: 0x4A430, symBinAddr: 0x10004E028, symSize: 0x44C }
  - { offsetInCU: 0x10604, offset: 0x10604, size: 0x8, addend: 0x0, symName: __ZZN5Eigen8internal13blueNorm_implINS_6MatrixIfLin1ELi1ELi0ELin1ELi1EEEEENS_9NumTraitsINS0_6traitsIT_E6ScalarEE4RealERKNS_9EigenBaseIS6_EEE2b1, symObjAddr: 0x6D9F0, symBinAddr: 0x100076460, symSize: 0x0 }
  - { offsetInCU: 0x10619, offset: 0x10619, size: 0x8, addend: 0x0, symName: __ZZN5Eigen8internal13blueNorm_implINS_6MatrixIfLin1ELi1ELi0ELin1ELi1EEEEENS_9NumTraitsINS0_6traitsIT_E6ScalarEE4RealERKNS_9EigenBaseIS6_EEE2b2, symObjAddr: 0x6DA00, symBinAddr: 0x100076470, symSize: 0x0 }
  - { offsetInCU: 0x1062E, offset: 0x1062E, size: 0x8, addend: 0x0, symName: __ZZN5Eigen8internal13blueNorm_implINS_6MatrixIfLin1ELi1ELi0ELin1ELi1EEEEENS_9NumTraitsINS0_6traitsIT_E6ScalarEE4RealERKNS_9EigenBaseIS6_EEE3s1m, symObjAddr: 0x6DA10, symBinAddr: 0x100076480, symSize: 0x0 }
  - { offsetInCU: 0x10643, offset: 0x10643, size: 0x8, addend: 0x0, symName: __ZZN5Eigen8internal13blueNorm_implINS_6MatrixIfLin1ELi1ELi0ELin1ELi1EEEEENS_9NumTraitsINS0_6traitsIT_E6ScalarEE4RealERKNS_9EigenBaseIS6_EEE3s2m, symObjAddr: 0x6DA20, symBinAddr: 0x100076490, symSize: 0x0 }
  - { offsetInCU: 0x10658, offset: 0x10658, size: 0x8, addend: 0x0, symName: __ZZN5Eigen8internal13blueNorm_implINS_6MatrixIfLin1ELi1ELi0ELin1ELi1EEEEENS_9NumTraitsINS0_6traitsIT_E6ScalarEE4RealERKNS_9EigenBaseIS6_EEE3eps, symObjAddr: 0x6DA30, symBinAddr: 0x1000764A0, symSize: 0x0 }
  - { offsetInCU: 0x1066D, offset: 0x1066D, size: 0x8, addend: 0x0, symName: __ZZN5Eigen8internal13blueNorm_implINS_6MatrixIfLin1ELi1ELi0ELin1ELi1EEEEENS_9NumTraitsINS0_6traitsIT_E6ScalarEE4RealERKNS_9EigenBaseIS6_EEE6relerr, symObjAddr: 0x6DA40, symBinAddr: 0x1000764B0, symSize: 0x0 }
  - { offsetInCU: 0x269C1, offset: 0x269C1, size: 0x8, addend: 0x0, symName: __ZN5Eigen8internal37evaluateProductBlockingSizesHeuristicIffLi1ElEEvRT2_S3_S3_S2_, symObjAddr: 0x3D944, symBinAddr: 0x10004153C, symSize: 0x374 }
  - { offsetInCU: 0x47D9E, offset: 0x47D9E, size: 0x8, addend: 0x0, symName: __ZN5Eigen8internal27stable_norm_impl_inner_stepINS_6MatrixIfLin1ELi1ELi0ELin1ELi1EEEfEEvRKT_RT0_S8_S8_, symObjAddr: 0x42CD0, symBinAddr: 0x1000468C8, symSize: 0x240 }
  - { offsetInCU: 0x4D5D6, offset: 0x4D5D6, size: 0x8, addend: 0x0, symName: __ZN5Eigen8internal28conditional_aligned_new_autoIfLb1EEEPT_m, symObjAddr: 0x12788, symBinAddr: 0x100016380, symSize: 0x68 }
  - { offsetInCU: 0x4F7A5, offset: 0x4F7A5, size: 0x8, addend: 0x0, symName: __ZN5Eigen8internal17resize_if_allowedINS_6MatrixIfLin1ELin1ELi0ELin1ELin1EEES3_ffEEvRT_RKT0_RKNS0_9assign_opIT1_T2_EE, symObjAddr: 0x126D0, symBinAddr: 0x1000162C8, symSize: 0xB8 }
  - { offsetInCU: 0x57C6C, offset: 0x57C6C, size: 0x8, addend: 0x0, symName: __ZN5Eigen8internal28conditional_aligned_new_autoINS_14AutoDiffScalarINS_6MatrixIfLin1ELi1ELi0ELin1ELi1EEEEELb1EEEPT_m, symObjAddr: 0x25B1C, symBinAddr: 0x100029714, symSize: 0x88 }
  - { offsetInCU: 0x57DF7, offset: 0x57DF7, size: 0x8, addend: 0x0, symName: __ZN5Eigen8internal26call_dense_assignment_loopINS_6MatrixINS_14AutoDiffScalarINS2_IfLin1ELi1ELi0ELin1ELi1EEEEELin1ELi1ELi0ELin1ELi1EEEEEvRT_RKNS_14CwiseNullaryOpINS0_18scalar_constant_opINS7_6ScalarEEES7_EERKNS0_9assign_opISB_SB_EE, symObjAddr: 0x25BA4, symBinAddr: 0x10002979C, symSize: 0x264 }
  - { offsetInCU: 0x589D9, offset: 0x589D9, size: 0x8, addend: 0x0, symName: __ZN5Eigen8internal26call_dense_assignment_loopINS_6MatrixINS_14AutoDiffScalarINS2_IfLin1ELi1ELi0ELin1ELi1EEEEELin1ELi1ELi0ELin1ELi1EEENS_12CwiseUnaryOpINS0_14scalar_tanh_opIS5_EEKNS_12ArrayWrapperIS6_EEEENS0_9assign_opIS5_S5_EEEEvRT_RKT0_RKT1_, symObjAddr: 0x270D0, symBinAddr: 0x10002ACC8, symSize: 0xEC }
  - { offsetInCU: 0x5915F, offset: 0x5915F, size: 0x8, addend: 0x0, symName: __ZN5Eigen8internal31generic_dense_assignment_kernelINS0_9evaluatorINS_6MatrixINS_14AutoDiffScalarINS3_IfLin1ELi1ELi0ELin1ELi1EEEEELin1ELi1ELi0ELin1ELi1EEEEENS2_INS_12CwiseUnaryOpINS0_14scalar_tanh_opIS6_EEKNS_12ArrayWrapperIS7_EEEEEENS0_9assign_opIS6_S6_EELi0EE11assignCoeffEl, symObjAddr: 0x271BC, symBinAddr: 0x10002ADB4, symSize: 0x2A4 }
  - { offsetInCU: 0x5925F, offset: 0x5925F, size: 0x8, addend: 0x0, symName: __ZN5Eigen8internal26call_dense_assignment_loopINS_6MatrixINS_14AutoDiffScalarINS2_IfLin1ELi1ELi0ELin1ELi1EEEEELin1ELi1ELi0ELin1ELi1EEENS_12CwiseUnaryOpINS0_14scalar_acos_opIS5_EEKNS_12ArrayWrapperIS6_EEEENS0_9assign_opIS5_S5_EEEEvRT_RKT0_RKT1_, symObjAddr: 0x27460, symBinAddr: 0x10002B058, symSize: 0xEC }
  - { offsetInCU: 0x599E5, offset: 0x599E5, size: 0x8, addend: 0x0, symName: __ZN5Eigen8internal31generic_dense_assignment_kernelINS0_9evaluatorINS_6MatrixINS_14AutoDiffScalarINS3_IfLin1ELi1ELi0ELin1ELi1EEEEELin1ELi1ELi0ELin1ELi1EEEEENS2_INS_12CwiseUnaryOpINS0_14scalar_acos_opIS6_EEKNS_12ArrayWrapperIS7_EEEEEENS0_9assign_opIS6_S6_EELi0EE11assignCoeffEl, symObjAddr: 0x2754C, symBinAddr: 0x10002B144, symSize: 0x29C }
  - { offsetInCU: 0x59AE5, offset: 0x59AE5, size: 0x8, addend: 0x0, symName: __ZN5Eigen8internal26call_dense_assignment_loopINS_6MatrixINS_14AutoDiffScalarINS2_IfLin1ELi1ELi0ELin1ELi1EEEEELin1ELi1ELi0ELin1ELi1EEENS_12CwiseUnaryOpINS0_18scalar_opposite_opIS5_EEKNS_12ArrayWrapperIS6_EEEENS0_9assign_opIS5_S5_EEEEvRT_RKT0_RKT1_, symObjAddr: 0x277E8, symBinAddr: 0x10002B3E0, symSize: 0xEC }
  - { offsetInCU: 0x5A26B, offset: 0x5A26B, size: 0x8, addend: 0x0, symName: __ZN5Eigen8internal31generic_dense_assignment_kernelINS0_9evaluatorINS_6MatrixINS_14AutoDiffScalarINS3_IfLin1ELi1ELi0ELin1ELi1EEEEELin1ELi1ELi0ELin1ELi1EEEEENS2_INS_12CwiseUnaryOpINS0_18scalar_opposite_opIS6_EEKNS_12ArrayWrapperIS7_EEEEEENS0_9assign_opIS6_S6_EELi0EE11assignCoeffEl, symObjAddr: 0x278D4, symBinAddr: 0x10002B4CC, symSize: 0x28C }
  - { offsetInCU: 0x60E2C, offset: 0x60E2C, size: 0x8, addend: 0x0, symName: __ZN5Eigen8internal28conditional_aligned_new_autoIlLb1EEEPT_m, symObjAddr: 0x37E68, symBinAddr: 0x10003BA60, symSize: 0x68 }
  - { offsetInCU: 0x6260B, offset: 0x6260B, size: 0x8, addend: 0x0, symName: __ZN5Eigen8internal26call_dense_assignment_loopINS_5BlockINS2_INS_6MatrixIfLin1ELin1ELi0ELin1ELin1EEELin1ELi1ELb1EEELin1ELi1ELb0EEENS_13CwiseBinaryOpINS0_20scalar_difference_opIffEEKNS2_IKNS2_IKS4_Lin1ELi1ELb1EEELin1ELi1ELb0EEEKNS7_INS0_18scalar_quotient_opIffEEKNS_7ProductINS_9TransposeIKNS2_ISA_Lin1ELin1ELb0EEEEESB_Li0EEEKNS_14CwiseNullaryOpINS0_18scalar_constant_opIfEEKNS3_IfLin1ELi1ELi0ELin1ELi1EEEEEEEEENS0_9assign_opIffEEEEvRT_RKT0_RKT1_, symObjAddr: 0x3C240, symBinAddr: 0x10003FE38, symSize: 0x39C }
  - { offsetInCU: 0x6384D, offset: 0x6384D, size: 0x8, addend: 0x0, symName: __ZN5Eigen8internal26call_dense_assignment_loopINS_5BlockINS2_INS_6MatrixIfLin1ELin1ELi0ELin1ELin1EEELin1ELi1ELb1EEELin1ELi1ELb0EEENS_13CwiseBinaryOpINS0_17scalar_product_opIffEEKNS_14CwiseNullaryOpINS0_18scalar_constant_opIfEEKNS3_IfLin1ELi1ELi0ELin1ELi1EEEEEKNS7_INS0_20scalar_difference_opIffEEKNS2_IKNS2_IKS4_Lin1ELi1ELb1EEELin1ELi1ELb0EEEKNS_7ProductINS_9TransposeIKNS2_ISJ_Lin1ELin1ELb1EEEEESK_Li0EEEEEEENS0_9assign_opIffEEEEvRT_RKT0_RKT1_, symObjAddr: 0x40320, symBinAddr: 0x100043F18, symSize: 0x398 }
  - { offsetInCU: 0x64A8E, offset: 0x64A8E, size: 0x8, addend: 0x0, symName: __ZN5Eigen8internal26call_dense_assignment_loopINS_6MatrixIfLin1ELi1ELi0ELin1ELi1EEENS_13CwiseBinaryOpINS0_13scalar_sum_opIffEEKNS4_INS0_18scalar_quotient_opIffEEKS3_KNS_14CwiseNullaryOpINS0_18scalar_constant_opIfEES9_EEEEKNS4_IS8_KNS_7ProductINS2_IfLin1ELin1ELi0ELin1ELin1EEES3_Li0EEESE_EEEENS0_9assign_opIffEEEEvRT_RKT0_RKT1_, symObjAddr: 0x40B34, symBinAddr: 0x10004472C, symSize: 0x248 }
  - { offsetInCU: 0x6D498, offset: 0x6D498, size: 0x8, addend: 0x0, symName: __ZN5Eigen8internal26call_dense_assignment_loopINS_9TransposeINS_6MatrixIfLin1ELi1ELi0ELin1ELi1EEEEENS_16PartialReduxExprINS3_IfLin1ELin1ELi0ELin1ELin1EEENS0_15member_blueNormIffEELi0EEENS0_9assign_opIffEEEEvRT_RKT0_RKT1_, symObjAddr: 0x44E3C, symBinAddr: 0x100048A34, symSize: 0xE4 }
  - { offsetInCU: 0x6D9A5, offset: 0x6D9A5, size: 0x8, addend: 0x0, symName: __ZN5Eigen8internal13blueNorm_implINS_5BlockIKNS_6MatrixIfLin1ELin1ELi0ELin1ELin1EEELin1ELi1ELb1EEEEENS_9NumTraitsINS0_6traitsIT_E6ScalarEE4RealERKNS_9EigenBaseIS9_EE, symObjAddr: 0x44F20, symBinAddr: 0x100048B18, symSize: 0x44C }
  - { offsetInCU: 0x6D9EE, offset: 0x6D9EE, size: 0x8, addend: 0x0, symName: __ZN5Eigen8internal28conditional_aligned_new_autoIiLb1EEEPT_m, symObjAddr: 0x462E8, symBinAddr: 0x100049EE0, symSize: 0x68 }
  - { offsetInCU: 0x6DAA3, offset: 0x6DAA3, size: 0x8, addend: 0x0, symName: __ZN5Eigen8internal16stable_norm_implINS_13CwiseBinaryOpINS0_17scalar_product_opIffEEKNS_6MatrixIfLin1ELi1ELi0ELin1ELi1EEES7_EEEENT_10RealScalarERKS9_PNS0_9enable_ifIXsrS9_21IsVectorAtCompileTimeEvE4typeE, symObjAddr: 0x47748, symBinAddr: 0x10004B340, symSize: 0x16C }
  - { offsetInCU: 0x6E280, offset: 0x6E280, size: 0x8, addend: 0x0, symName: __ZN5Eigen8internal6lmpar2IfEEvRKNS_19ColPivHouseholderQRINS_6MatrixIT_Lin1ELin1ELi0ELin1ELin1EEEEERKNS3_IS4_Lin1ELi1ELi0ELin1ELi1EEESB_S4_RS4_RS9_, symObjAddr: 0x43534, symBinAddr: 0x10004712C, symSize: 0x14A0 }
  - { offsetInCU: 0x7317E, offset: 0x7317E, size: 0x8, addend: 0x0, symName: __ZN5Eigen8internal15call_assignmentINS_6MatrixIfLin1ELi1ELi0ELin1ELi1EEENS_7ProductINS_14TriangularViewINS2_IfLin1ELin1ELi0ELin1ELin1EEELj2EEENS4_INS_7InverseINS_17PermutationMatrixILin1ELin1EiEEEES3_Li2EEELi0EEENS0_9assign_opIffEEEEvRT_RKT0_RKT1_NS0_9enable_ifIXsr25evaluator_assume_aliasingISI_EE5valueEPvE4typeE, symObjAddr: 0x4B2F4, symBinAddr: 0x10004EEEC, symSize: 0x178 }
  - { offsetInCU: 0x73A84, offset: 0x73A84, size: 0x8, addend: 0x0, symName: __ZN5Eigen8internal18stable_norm_kernelINS_3RefIKNS_6MatrixIfLin1ELi1ELi0ELi4096ELi1EEELi16ENS_11InnerStrideILi1EEEEEfEEvRKT_RT0_SD_SD_, symObjAddr: 0x42F10, symBinAddr: 0x100046B08, symSize: 0x288 }
  - { offsetInCU: 0x74E9C, offset: 0x74E9C, size: 0x8, addend: 0x0, symName: __ZN5Board2dfERN5Eigen6MatrixIfLin1ELi1ELi0ELin1ELi1EEERNS1_IfLin1ELin1ELi0ELin1ELin1EEE, symObjAddr: 0x43198, symBinAddr: 0x100046D90, symSize: 0x39C }
  - { offsetInCU: 0x765F0, offset: 0x765F0, size: 0x8, addend: 0x0, symName: __ZN5Eigen8internal26call_dense_assignment_loopINS_6MatrixIfLin1ELi1ELi0ELin1ELi1EEENS_13CwiseBinaryOpINS0_18scalar_quotient_opIffEEKNS_7ProductINS_7InverseINS_17PermutationMatrixILin1ELin1EiEEEENS4_INS0_17scalar_product_opIffEEKS3_SE_EELi2EEEKNS_14CwiseNullaryOpINS0_18scalar_constant_opIfEESE_EEEENS0_9assign_opIffEEEEvRT_RKT0_RKT1_, symObjAddr: 0x4A87C, symBinAddr: 0x10004E474, symSize: 0x280 }
  - { offsetInCU: 0x77440, offset: 0x77440, size: 0x8, addend: 0x0, symName: __ZN5Eigen8internal6qrsolvIfEEvRNS_6MatrixIT_Lin1ELin1ELi0ELin1ELin1EEERKNS2_IiLin1ELi1ELi0ELin1ELi1EEERKNS2_IS3_Lin1ELi1ELi0ELin1ELi1EEESB_RS9_SC_, symObjAddr: 0x488DC, symBinAddr: 0x10004C4D4, symSize: 0xDAC }
  - { offsetInCU: 0x7BC0E, offset: 0x7BC0E, size: 0x8, addend: 0x0, symName: __ZN5Eigen8internal26outer_product_selector_runINS_5BlockINS2_INS_6MatrixIfLin1ELin1ELi0ELin1ELin1EEELin1ELin1ELb0EEELin1ELin1ELb0EEENS_13CwiseBinaryOpINS0_17scalar_product_opIffEEKNS_14CwiseNullaryOpINS0_18scalar_constant_opIfEEKNS3_IfLin1ELi1ELi0ELin1ELi1EEEEEKNS2_INS2_IS4_Lin1ELi1ELb1EEELin1ELi1ELb0EEEEENS_3MapINS3_IfLi1ELin1ELi1ELi1ELin1EEELi0ENS_6StrideILi0ELi0EEEEENS0_20generic_product_implISK_SP_NS_10DenseShapeESR_Li5EE3subEEEvRT_RKT0_RKT1_RKT2_RKNS0_10false_typeE, symObjAddr: 0x47178, symBinAddr: 0x10004AD70, symSize: 0x224 }
  - { offsetInCU: 0x7F70D, offset: 0x7F70D, size: 0x8, addend: 0x0, symName: __ZN5Eigen8internal26call_dense_assignment_loopINS_5BlockINS2_INS_6MatrixIfLin1ELi1ELi0ELin1ELi1EEELin1ELin1ELb0EEELin1ELin1ELb0EEENS_7ProductINS_13CwiseBinaryOpINS0_17scalar_product_opIffEEKNS_14CwiseNullaryOpINS0_18scalar_constant_opIfEEKS4_EEKNS2_IKNS3_IfLin1ELin1ELi0ELin1ELin1EEELin1ELi1ELb0EEEEENS_3MapINS3_IfLi1ELin1ELi1ELi1ELi1EEELi0ENS_6StrideILi0ELi0EEEEELi1EEENS0_13sub_assign_opIffEEEEvRT_RKT0_RKT1_, symObjAddr: 0x48424, symBinAddr: 0x10004C01C, symSize: 0x204 }
  - { offsetInCU: 0x8391A, offset: 0x8391A, size: 0x8, addend: 0x0, symName: __ZN5Eigen8internal13psincos_floatILb0E19__simd128_float32_tEET0_RKS3_, symObjAddr: 0x4D168, symBinAddr: 0x100050D60, symSize: 0x3BC }
  - { offsetInCU: 0x83A1B, offset: 0x83A1B, size: 0x8, addend: 0x0, symName: __ZN5Eigen8internal13psincos_floatILb0E19__simd128_float32_tEET0_RKS3_, symObjAddr: 0x4D168, symBinAddr: 0x100050D60, symSize: 0x3BC }
  - { offsetInCU: 0x84201, offset: 0x84201, size: 0x8, addend: 0x0, symName: __ZN5Eigen8internal13psincos_floatILb1E19__simd128_float32_tEET0_RKS3_, symObjAddr: 0x4D6F4, symBinAddr: 0x1000512EC, symSize: 0x3B8 }
  - { offsetInCU: 0x84302, offset: 0x84302, size: 0x8, addend: 0x0, symName: __ZN5Eigen8internal13psincos_floatILb1E19__simd128_float32_tEET0_RKS3_, symObjAddr: 0x4D6F4, symBinAddr: 0x1000512EC, symSize: 0x3B8 }
  - { offsetInCU: 0x286A93, offset: 0x286A93, size: 0x8, addend: 0x0, symName: __ZNSt3__119piecewise_constructE, symObjAddr: 0x68E74, symBinAddr: 0x10006CB24, symSize: 0x0 }
  - { offsetInCU: 0x29ECA3, offset: 0x29ECA3, size: 0x8, addend: 0x0, symName: __ZNSt3__111__introsortINS_17_ClassicAlgPolicyERN7LBFGSpp7ArgSortIfEEPiLb0EEEvT1_S7_T0_NS_15iterator_traitsIS7_E15difference_typeEb, symObjAddr: 0x32720, symBinAddr: 0x100036318, symSize: 0x7B0 }
  - { offsetInCU: 0x2A03C5, offset: 0x2A03C5, size: 0x8, addend: 0x0, symName: __ZNSt3__127__insertion_sort_incompleteB8ue170006INS_17_ClassicAlgPolicyERN7LBFGSpp7ArgSortIfEEPiEEbT1_S7_T0_, symObjAddr: 0x32ED0, symBinAddr: 0x100036AC8, symSize: 0x2B8 }
  - { offsetInCU: 0x2A6D0E, offset: 0x2A6D0E, size: 0x8, addend: 0x0, symName: '__ZNSt3__111__introsortINS_17_ClassicAlgPolicyERZ2GPRKN5Eigen6MatrixIfLin1ELin1ELi0ELin1ELin1EEEiNS_12basic_stringIcNS_11char_traitsIcEENS_9allocatorIcEEEESC_iRKSC_bdiPKciE3$_4PNS_4pairINS_6vectorIfNSA_IfEEEEfEELb0EEEvT1_SP_T0_NS_15iterator_traitsISP_E15difference_typeEb', symObjAddr: 0x503DC, symBinAddr: 0x100053FD4, symSize: 0x950 }
  - { offsetInCU: 0x2A8B4E, offset: 0x2A8B4E, size: 0x8, addend: 0x0, symName: '__ZNSt3__127__insertion_sort_incompleteB8ue170006INS_17_ClassicAlgPolicyERZ2GPRKN5Eigen6MatrixIfLin1ELin1ELi0ELin1ELin1EEEiNS_12basic_stringIcNS_11char_traitsIcEENS_9allocatorIcEEEESC_iRKSC_bdiPKciE3$_4PNS_4pairINS_6vectorIfNSA_IfEEEEfEEEEbT1_SP_T0_', symObjAddr: 0x50FE8, symBinAddr: 0x100054BE0, symSize: 0x200 }
  - { offsetInCU: 0x2AE8E7, offset: 0x2AE8E7, size: 0x8, addend: 0x0, symName: __ZNSt3__124__put_character_sequenceB8ue170006IcNS_11char_traitsIcEEEERNS_13basic_ostreamIT_T0_EES7_PKS4_m, symObjAddr: 0x52698, symBinAddr: 0x100056290, symSize: 0x164 }
  - { offsetInCU: 0x2C2068, offset: 0x2C2068, size: 0x8, addend: 0x0, symName: __ZNSt3__127__tree_balance_after_insertB8ue170006IPNS_16__tree_node_baseIPvEEEEvT_S5_, symObjAddr: 0x524F8, symBinAddr: 0x1000560F0, symSize: 0x1A0 }
  - { offsetInCU: 0x2C7BFE, offset: 0x2C7BFE, size: 0x8, addend: 0x0, symName: __ZNSt3__120__throw_length_errorB8ue170006EPKc, symObjAddr: 0xF988, symBinAddr: 0x100013580, symSize: 0x50 }
  - { offsetInCU: 0x2C826E, offset: 0x2C826E, size: 0x8, addend: 0x0, symName: __ZNSt3__117__call_once_proxyB8ue170006INS_5tupleIJOZN5BoardC1EbiRKNS_12basic_stringIcNS_11char_traitsIcEENS_9allocatorIcEEEES8_iS8_RKN5Eigen6MatrixIfLin1ELin1ELi0ELin1ELin1EEEbbEUlvE_EEEEEvPv, symObjAddr: 0x10084, symBinAddr: 0x100013C7C, symSize: 0xC }
  - { offsetInCU: 0x2C82AC, offset: 0x2C82AC, size: 0x8, addend: 0x0, symName: __ZNSt3__117__call_once_proxyB8ue170006INS_5tupleIJOZN5BoardC1EbiRKNS_12basic_stringIcNS_11char_traitsIcEENS_9allocatorIcEEEES8_iS8_RKN5Eigen6MatrixIfLin1ELin1ELi0ELin1ELin1EEEbbEUlvE_EEEEEvPv, symObjAddr: 0x10084, symBinAddr: 0x100013C7C, symSize: 0xC }
  - { offsetInCU: 0x2C82CA, offset: 0x2C82CA, size: 0x8, addend: 0x0, symName: __ZNSt3__117__call_once_proxyB8ue170006INS_5tupleIJOZN5BoardC1EbiRKNS_12basic_stringIcNS_11char_traitsIcEENS_9allocatorIcEEEES8_iS8_RKN5Eigen6MatrixIfLin1ELin1ELi0ELin1ELin1EEEbbEUlvE_EEEEEvPv, symObjAddr: 0x10084, symBinAddr: 0x100013C7C, symSize: 0xC }
  - { offsetInCU: 0x2C8EF9, offset: 0x2C8EF9, size: 0x8, addend: 0x0, symName: __ZNSt3__135__uninitialized_allocator_copy_implB8ue170006INS_9allocatorINS_12basic_stringIcNS_11char_traitsIcEENS1_IcEEEEEEPKS6_S9_PS6_EET2_RT_T0_T1_SB_, symObjAddr: 0x13A80, symBinAddr: 0x100017678, symSize: 0x114 }
  - { offsetInCU: 0x2C9726, offset: 0x2C9726, size: 0x8, addend: 0x0, symName: __ZNSt3__135__uninitialized_allocator_copy_implB8ue170006INS_9allocatorINS_12basic_stringIcNS_11char_traitsIcEENS1_IcEEEEEEPS6_S8_S8_EET2_RT_T0_T1_S9_, symObjAddr: 0x14034, symBinAddr: 0x100017C2C, symSize: 0x114 }
  - { offsetInCU: 0x2CA0B2, offset: 0x2CA0B2, size: 0x8, addend: 0x0, symName: __ZNSt3__1eqB8ue170006IcNS_11char_traitsIcEENS_9allocatorIcEEEEbRKNS_12basic_stringIT_T0_T1_EEPKS6_, symObjAddr: 0x15C10, symBinAddr: 0x100019808, symSize: 0x74 }
  - { offsetInCU: 0x2CAB7E, offset: 0x2CAB7E, size: 0x8, addend: 0x0, symName: __ZNSt3__15asyncB8ue170006IRZN5Board8AsyncPSOEvEUliE_JRiEEENS_6futureINS_11__invoke_ofIu7__decayIT_EJDpu7__decayIT0_EEE4typeEEENS_6launchEOS7_DpOS9_, symObjAddr: 0x1DA8C, symBinAddr: 0x100021684, symSize: 0x180 }
  - { offsetInCU: 0x2CB6DA, offset: 0x2CB6DA, size: 0x8, addend: 0x0, symName: __ZNSt3__124__make_async_assoc_stateB8ue170006IvNS_12__async_funcIZN5Board8AsyncPSOEvEUliE_JiEEEEENS_6futureIT_EEOT0_, symObjAddr: 0x1DC78, symBinAddr: 0x100021870, symSize: 0x128 }
  - { offsetInCU: 0x2CC2FE, offset: 0x2CC2FE, size: 0x8, addend: 0x0, symName: __ZNSt3__114__thread_proxyB8ue170006INS_5tupleIJNS_10unique_ptrINS_15__thread_structENS_14default_deleteIS3_EEEEMNS_19__async_assoc_stateIvNS_12__async_funcIZN5Board8AsyncPSOEvEUliE_JiEEEEEFvvEPSC_EEEEEPvSH_, symObjAddr: 0x1E460, symBinAddr: 0x100022058, symSize: 0x8C }
  - { offsetInCU: 0x2CE219, offset: 0x2CE219, size: 0x8, addend: 0x0, symName: __ZNSt3__17__sort4B8ue170006INS_17_ClassicAlgPolicyERN7LBFGSpp7ArgSortIfEEPiEEvT1_S7_S7_S7_T0_, symObjAddr: 0x33188, symBinAddr: 0x100036D80, symSize: 0x110 }
  - { offsetInCU: 0x2CE68D, offset: 0x2CE68D, size: 0x8, addend: 0x0, symName: __ZNSt3__119__partial_sort_implB8ue170006INS_17_ClassicAlgPolicyERN7LBFGSpp7ArgSortIfEEPiS6_EET1_S7_S7_T2_OT0_, symObjAddr: 0x33298, symBinAddr: 0x100036E90, symSize: 0x36C }
  - { offsetInCU: 0x2D1401, offset: 0x2D1401, size: 0x8, addend: 0x0, symName: '__ZNSt3__17__sort3B8ue170006INS_17_ClassicAlgPolicyERZ2GPRKN5Eigen6MatrixIfLin1ELin1ELi0ELin1ELin1EEEiNS_12basic_stringIcNS_11char_traitsIcEENS_9allocatorIcEEEESC_iRKSC_bdiPKciE3$_4PNS_4pairINS_6vectorIfNSA_IfEEEEfEEEEjT1_SP_SP_T0_', symObjAddr: 0x50E8C, symBinAddr: 0x100054A84, symSize: 0x15C }
  - { offsetInCU: 0x2D1468, offset: 0x2D1468, size: 0x8, addend: 0x0, symName: '__ZNSt3__17__sort3B8ue170006INS_17_ClassicAlgPolicyERZ2GPRKN5Eigen6MatrixIfLin1ELin1ELi0ELin1ELin1EEEiNS_12basic_stringIcNS_11char_traitsIcEENS_9allocatorIcEEEESC_iRKSC_bdiPKciE3$_4PNS_4pairINS_6vectorIfNSA_IfEEEEfEEEEjT1_SP_SP_T0_', symObjAddr: 0x50E8C, symBinAddr: 0x100054A84, symSize: 0x15C }
  - { offsetInCU: 0x2D1C10, offset: 0x2D1C10, size: 0x8, addend: 0x0, symName: '__ZNSt3__17__sort4B8ue170006INS_17_ClassicAlgPolicyERZ2GPRKN5Eigen6MatrixIfLin1ELin1ELi0ELin1ELin1EEEiNS_12basic_stringIcNS_11char_traitsIcEENS_9allocatorIcEEEESC_iRKSC_bdiPKciE3$_4PNS_4pairINS_6vectorIfNSA_IfEEEEfEEEEvT1_SP_SP_SP_T0_', symObjAddr: 0x511E8, symBinAddr: 0x100054DE0, symSize: 0x10C }
  - { offsetInCU: 0x2D2158, offset: 0x2D2158, size: 0x8, addend: 0x0, symName: '__ZNSt3__124__sort5_maybe_branchlessB8ue170006INS_17_ClassicAlgPolicyERZ2GPRKN5Eigen6MatrixIfLin1ELin1ELi0ELin1ELin1EEEiNS_12basic_stringIcNS_11char_traitsIcEENS_9allocatorIcEEEESC_iRKSC_bdiPKciE3$_4PNS_4pairINS_6vectorIfNSA_IfEEEEfEEEENS_9enable_ifIXntsr21__use_branchless_sortIT0_T1_EE5valueEvE4typeESR_SR_SR_SR_SR_SQ_', symObjAddr: 0x50D2C, symBinAddr: 0x100054924, symSize: 0x160 }
  - { offsetInCU: 0x2D2D45, offset: 0x2D2D45, size: 0x8, addend: 0x0, symName: '__ZNSt3__114__thread_proxyB8ue170006INS_5tupleIJNS_10unique_ptrINS_15__thread_structENS_14default_deleteIS3_EEEEZ18SimulatedAnnealingRKN5Eigen6MatrixIfLin1ELin1ELi0ELin1ELin1EEEiNS_12basic_stringIcNS_11char_traitsIcEENS_9allocatorIcEEEESH_iRKSH_bdiPKciE3$_3EEEEEPvSO_', symObjAddr: 0x52218, symBinAddr: 0x100055E10, symSize: 0x284 }
  - { offsetInCU: 0x2D3C22, offset: 0x2D3C22, size: 0x8, addend: 0x0, symName: __ZNSt3__116__pad_and_outputB8ue170006IcNS_11char_traitsIcEEEENS_19ostreambuf_iteratorIT_T0_EES6_PKS4_S8_S8_RNS_8ios_baseES4_, symObjAddr: 0x527FC, symBinAddr: 0x1000563F4, symSize: 0x194 }
  - { offsetInCU: 0x2D4425, offset: 0x2D4425, size: 0x8, addend: 0x0, symName: '__ZNSt3__114__thread_proxyB8ue170006INS_5tupleIJNS_10unique_ptrINS_15__thread_structENS_14default_deleteIS3_EEEEZ2GPRKN5Eigen6MatrixIfLin1ELin1ELi0ELin1ELin1EEEiNS_12basic_stringIcNS_11char_traitsIcEENS_9allocatorIcEEEESH_iRKSH_bdiPKciE3$_8EEEEEPvSO_', symObjAddr: 0x52990, symBinAddr: 0x100056588, symSize: 0x284 }
  - { offsetInCU: 0x2D4E38, offset: 0x2D4E38, size: 0x8, addend: 0x0, symName: '__ZNSt3__114__thread_proxyB8ue170006INS_5tupleIJNS_10unique_ptrINS_15__thread_structENS_14default_deleteIS3_EEEEZ3PSORKN5Eigen6MatrixIfLin1ELin1ELi0ELin1ELin1EEEiNS_12basic_stringIcNS_11char_traitsIcEENS_9allocatorIcEEEESH_iRKSH_bdiPKciE3$_9EEEEEPvSO_', symObjAddr: 0x52C5C, symBinAddr: 0x100056854, symSize: 0x284 }
  - { offsetInCU: 0x2D5D16, offset: 0x2D5D16, size: 0x8, addend: 0x0, symName: '__ZNSt3__114__thread_proxyB8ue170006INS_5tupleIJNS_10unique_ptrINS_15__thread_structENS_14default_deleteIS3_EEEEZ4MCTSRKN5Eigen6MatrixIfLin1ELin1ELi0ELin1ELin1EEEiNS_12basic_stringIcNS_11char_traitsIcEENS_9allocatorIcEEEESH_iRKSH_bdiPKcijE4$_10EEEEEPvSO_', symObjAddr: 0x54410, symBinAddr: 0x100058008, symSize: 0x270 }
  - { offsetInCU: 0x2D6729, offset: 0x2D6729, size: 0x8, addend: 0x0, symName: '__ZNSt3__114__thread_proxyB8ue170006INS_5tupleIJNS_10unique_ptrINS_15__thread_structENS_14default_deleteIS3_EEEEZ4MCTSRKN5Eigen6MatrixIfLin1ELin1ELi0ELin1ELin1EEEiNS_12basic_stringIcNS_11char_traitsIcEENS_9allocatorIcEEEESH_iRKSH_bdiPKcijE4$_11EEEEEPvSO_', symObjAddr: 0x546DC, symBinAddr: 0x1000582D4, symSize: 0x78 }
  - { offsetInCU: 0x2DA33A, offset: 0x2DA33A, size: 0x8, addend: 0x0, symName: __ZNSt3__133__libcpp_thread_poll_with_backoffB8ue170006IRZNKS_5latch4waitB8ue170006EvEUlvE_RNS_33__libcpp_atomic_wait_backoff_implINS_17__cxx_atomic_implIlNS_22__cxx_atomic_base_implIlEEEES2_EEEEbOT_OT0_NS_6chrono8durationIxNS_5ratioILl1ELl1000000000EEEEE, symObjAddr: 0x5A4E8, symBinAddr: 0x10005E0E0, symSize: 0xD0 }
  - { offsetInCU: 0x2DAB32, offset: 0x2DAB32, size: 0x8, addend: 0x0, symName: '__ZNSt3__114__thread_proxyB8ue170006INS_5tupleIJNS_10unique_ptrINS_15__thread_structENS_14default_deleteIS3_EEEEZ12RandomSearchRKN5Eigen6MatrixIfLin1ELin1ELi0ELin1ELin1EEEiNS_12basic_stringIcNS_11char_traitsIcEENS_9allocatorIcEEEESH_iRKSH_bdiPKcijE4$_12EEEEEPvSO_', symObjAddr: 0x5FBB0, symBinAddr: 0x1000637A8, symSize: 0x270 }
  - { offsetInCU: 0x2DB509, offset: 0x2DB509, size: 0x8, addend: 0x0, symName: '__ZNSt3__114__thread_proxyB8ue170006INS_5tupleIJNS_10unique_ptrINS_15__thread_structENS_14default_deleteIS3_EEEEZ12RandomSearchRKN5Eigen6MatrixIfLin1ELin1ELi0ELin1ELin1EEEiNS_12basic_stringIcNS_11char_traitsIcEENS_9allocatorIcEEEESH_iRKSH_bdiPKcijE4$_13EEEEEPvSO_', symObjAddr: 0x5FE68, symBinAddr: 0x100063A60, symSize: 0x7D4 }
  - { offsetInCU: 0x2DEB71, offset: 0x2DEB71, size: 0x8, addend: 0x0, symName: __ZSt28__throw_bad_array_new_lengthB8ue170006v, symObjAddr: 0xF9FC, symBinAddr: 0x1000135F4, symSize: 0x28 }
  - { offsetInCU: 0x2DEBF5, offset: 0x2DEBF5, size: 0x8, addend: 0x0, symName: __Z12generateDataiiPFfRKN5Eigen6MatrixIfLin1ELi1ELi0ELin1ELi1EEEEff, symObjAddr: 0x0, symBinAddr: 0x100003BF8, symSize: 0x588 }
  - { offsetInCU: 0x2DF933, offset: 0x2DF933, size: 0x8, addend: 0x0, symName: __ZN5Board15expression_dictE, symObjAddr: 0x6B590, symBinAddr: 0x100074000, symSize: 0x0 }
  - { offsetInCU: 0x2E2CE9, offset: 0x2E2CE9, size: 0x8, addend: 0x0, symName: __ZN5boost9unordered6detail3foa16concurrent_tableINS2_14flat_map_typesINSt3__112basic_stringIcNS5_11char_traitsIcEENS5_9allocatorIcEEEEN5Eigen6MatrixIfLin1ELi1ELi0ELin1ELi1EEEEENS_4hashISB_EENS5_8equal_toISB_EENS9_INS5_4pairIKSB_SE_EEEEE14thread_counterE, symObjAddr: 0x6D958, symBinAddr: 0x1000763C8, symSize: 0x0 }
  - { offsetInCU: 0x2E8E5B, offset: 0x2E8E5B, size: 0x8, addend: 0x0, symName: __ZN5boost9unordered6detail3foa16concurrent_tableINS2_14flat_map_typesINSt3__112basic_stringIcNS5_11char_traitsIcEENS5_9allocatorIcEEEENS0_19concurrent_flat_mapIffNS_4hashIfEENS5_8equal_toIfEENS9_INS5_4pairIKffEEEEEEEENSD_ISB_EENSF_ISB_EENS9_INSH_IKSB_SL_EEEEE14thread_counterE, symObjAddr: 0x6DA58, symBinAddr: 0x1000764C8, symSize: 0x0 }
  - { offsetInCU: 0x2E8E6F, offset: 0x2E8E6F, size: 0x8, addend: 0x0, symName: __ZN5boost9unordered6detail3foa16concurrent_tableINS2_14flat_map_typesIffEENS_4hashIfEENSt3__18equal_toIfEENS8_9allocatorINS8_4pairIKffEEEEE14thread_counterE, symObjAddr: 0x6DA60, symBinAddr: 0x1000764D0, symSize: 0x0 }
  - { offsetInCU: 0x2E8E83, offset: 0x2E8E83, size: 0x8, addend: 0x0, symName: __ZN5boost9unordered6detail3foa16concurrent_tableINS2_14flat_map_typesINSt3__112basic_stringIcNS5_11char_traitsIcEENS5_9allocatorIcEEEEfEENS_4hashISB_EENS5_8equal_toISB_EENS9_INS5_4pairIKSB_fEEEEE14thread_counterE, symObjAddr: 0x6DA68, symBinAddr: 0x1000764D8, symSize: 0x0 }
  - { offsetInCU: 0x2EB2B5, offset: 0x2EB2B5, size: 0x8, addend: 0x0, symName: __ZN5boost4mp116detail16tuple_apply_implINS_9unordered6detail3foa16concurrent_tableINS5_14flat_map_typesINSt3__112basic_stringIcNS8_11char_traitsIcEENS8_9allocatorIcEEEEN5Eigen6MatrixIfLin1ELi1ELi0ELin1ELi1EEEEENS_4hashISE_EENS8_8equal_toISE_EENSC_INS8_4pairIKSE_SH_EEEEE26call_emplace_or_visit_implENS8_5tupleIJPSR_NS8_17integral_constantIbLb1EEEOZNS3_19concurrent_flat_mapISE_SH_SK_SM_SQ_E16insert_or_assignISH_EEbRSO_OT_EUlRSP_E_ONS5_18try_emplace_args_tES10_OSH_EEEJLm0ELm1ELm2ELm3ELm4ELm5EEEEDTclclsr3stdE7forwardIS11_Efp_Espcl3getIXT1_EEclsr3stdE7forwardIT0_Efp0_EEEES12_OS1A_NS0_16integer_sequenceImJXspT1_EEEE, symObjAddr: 0x180CC, symBinAddr: 0x10001BCC4, symSize: 0x760 }
  - { offsetInCU: 0x2ED521, offset: 0x2ED521, size: 0x8, addend: 0x0, symName: __ZN5boost4mp116detail16tuple_apply_implINS_9unordered6detail3foa16concurrent_tableINS5_14flat_map_typesINSt3__112basic_stringIcNS8_11char_traitsIcEENS8_9allocatorIcEEEEN5Eigen6MatrixIfLin1ELi1ELi0ELin1ELi1EEEEENS_4hashISE_EENS8_8equal_toISE_EENSC_INS8_4pairIKSE_SH_EEEEE26call_emplace_or_visit_implENS8_5tupleIJPSR_NS8_17integral_constantIbLb1EEEOZNS3_19concurrent_flat_mapISE_SH_SK_SM_SQ_E16insert_or_assignIRSH_EEbRSO_OT_EUlRSP_E_ONS5_18try_emplace_args_tES11_S10_EEEJLm0ELm1ELm2ELm3ELm4ELm5EEEEDTclclsr3stdE7forwardIS12_Efp_Espcl3getIXT1_EEclsr3stdE7forwardIT0_Efp0_EEEES13_OS1A_NS0_16integer_sequenceImJXspT1_EEEE, symObjAddr: 0x192AC, symBinAddr: 0x10001CEA4, symSize: 0x7E8 }
  - { offsetInCU: 0x2EF6ED, offset: 0x2EF6ED, size: 0x8, addend: 0x0, symName: __ZN5boost4mp116detail16tuple_apply_implINS_9unordered6detail3foa16concurrent_tableINS5_14flat_map_typesINSt3__112basic_stringIcNS8_11char_traitsIcEENS8_9allocatorIcEEEEfEENS_4hashISE_EENS8_8equal_toISE_EENSC_INS8_4pairIKSE_fEEEEE26call_emplace_or_visit_implENS8_5tupleIJPSO_NS8_17integral_constantIbLb1EEEOZNS3_19concurrent_flat_mapISE_fSH_SJ_SN_E16insert_or_assignIfEEbRSL_OT_EUlRSM_E_ONS5_18try_emplace_args_tESX_OfEEEJLm0ELm1ELm2ELm3ELm4ELm5EEEEDTclclsr3stdE7forwardISY_Efp_Espcl3getIXT1_EEclsr3stdE7forwardIT0_Efp0_EEEESZ_OS17_NS0_16integer_sequenceImJXspT1_EEEE, symObjAddr: 0x5A71C, symBinAddr: 0x10005E314, symSize: 0x724 }
  - { offsetInCU: 0x2F1780, offset: 0x2F1780, size: 0x8, addend: 0x0, symName: __ZN5boost4mp116detail16tuple_apply_implINS_9unordered6detail3foa16concurrent_tableINS5_14flat_map_typesINSt3__112basic_stringIcNS8_11char_traitsIcEENS8_9allocatorIcEEEENS3_19concurrent_flat_mapIffNS_4hashIfEENS8_8equal_toIfEENSC_INS8_4pairIKffEEEEEEEENSG_ISE_EENSI_ISE_EENSC_INSK_IKSE_SO_EEEEE26call_emplace_or_visit_implENS8_5tupleIJPSV_NS8_17integral_constantIbLb1EEEOZNSF_ISE_SO_SQ_SR_SU_E16insert_or_assignISO_EEbRSS_OT_EUlRST_E_ONS5_18try_emplace_args_tES13_OSO_EEEJLm0ELm1ELm2ELm3ELm4ELm5EEEEDTclclsr3stdE7forwardIS14_Efp_Espcl3getIXT1_EEclsr3stdE7forwardIT0_Efp0_EEEES15_OS1D_NS0_16integer_sequenceImJXspT1_EEEE, symObjAddr: 0x5C3CC, symBinAddr: 0x10005FFC4, symSize: 0x6CC }
  - { offsetInCU: 0x2F349C, offset: 0x2F349C, size: 0x8, addend: 0x0, symName: __ZN5boost4mp116detail16tuple_apply_implINS_9unordered6detail3foa16concurrent_tableINS5_14flat_map_typesIffEENS_4hashIfEENSt3__18equal_toIfEENSB_9allocatorINSB_4pairIKffEEEEE26call_emplace_or_visit_implENSB_5tupleIJPSJ_NSB_17integral_constantIbLb1EEEOZNS3_19concurrent_flat_mapIffSA_SD_SI_E16insert_or_assignIfEEbRSG_OT_EUlRSH_E_ONS5_18try_emplace_args_tESS_OfEEEJLm0ELm1ELm2ELm3ELm4ELm5EEEEDTclclsr3stdE7forwardIST_Efp_Espcl3getIXT1_EEclsr3stdE7forwardIT0_Efp0_EEEESU_OS12_NS0_16integer_sequenceImJXspT1_EEEE, symObjAddr: 0x5B6E0, symBinAddr: 0x10005F2D8, symSize: 0x5B8 }
  - { offsetInCU: 0x2F503D, offset: 0x2F503D, size: 0x8, addend: 0x0, symName: __ZN5boost4mp116detail16tuple_apply_implINS_9unordered6detail3foa16concurrent_tableINS5_14flat_map_typesIffEENS_4hashIfEENSt3__18equal_toIfEENSB_9allocatorINSB_4pairIKffEEEEE26call_emplace_or_visit_implENSB_5tupleIJPSJ_NSB_17integral_constantIbLb1EEEOZNS3_19concurrent_flat_mapIffSA_SD_SI_E16insert_or_assignIRSG_EEbSS_OT_EUlRSH_E_ONS5_18try_emplace_args_tESS_SS_EEEJLm0ELm1ELm2ELm3ELm4ELm5EEEEDTclclsr3stdE7forwardIST_Efp_Espcl3getIXT1_EEclsr3stdE7forwardIT0_Efp0_EEEESU_OS11_NS0_16integer_sequenceImJXspT1_EEEE, symObjAddr: 0x5EE70, symBinAddr: 0x100062A68, symSize: 0x5B8 }
  - { offsetInCU: 0x2F6BDE, offset: 0x2F6BDE, size: 0x8, addend: 0x0, symName: __ZN5boost4mp116detail16tuple_apply_implINS_9unordered6detail3foa16concurrent_tableINS5_14flat_map_typesIffEENS_4hashIfEENSt3__18equal_toIfEENSB_9allocatorINSB_4pairIKffEEEEE26call_emplace_or_visit_implENSB_5tupleIJPSJ_NSB_17integral_constantIbLb1EEEOZNS3_19concurrent_flat_mapIffSA_SD_SI_E16insert_or_assignIRfEEbRSG_OT_EUlRSH_E_ONS5_18try_emplace_args_tEST_SS_EEEJLm0ELm1ELm2ELm3ELm4ELm5EEEEDTclclsr3stdE7forwardISU_Efp_Espcl3getIXT1_EEclsr3stdE7forwardIT0_Efp0_EEEESV_OS12_NS0_16integer_sequenceImJXspT1_EEEE, symObjAddr: 0x5F428, symBinAddr: 0x100063020, symSize: 0x5B8 }
  - { offsetInCU: 0x2F8CA2, offset: 0x2F8CA2, size: 0x8, addend: 0x0, symName: __ZN5boost11hash_detail10hash_rangeIPKcEENSt3__19enable_ifIXaaaasr12is_char_typeINS4_15iterator_traitsIT_E10value_typeEEE5valuesr3std7is_sameINS8_17iterator_categoryENS4_26random_access_iterator_tagEEE5valuegtL_ZNS4_14numeric_limitsImE6digitsEELi32EEmE4typeEmS7_S7_, symObjAddr: 0x17FD4, symBinAddr: 0x10001BBCC, symSize: 0xF8 }
  - { offsetInCU: 0x309CC4, offset: 0x309CC4, size: 0x8, addend: 0x0, symName: __ZN5Board12__input_varsE, symObjAddr: 0x6D680, symBinAddr: 0x1000760F0, symSize: 0x0 }
  - { offsetInCU: 0x309CD8, offset: 0x309CD8, size: 0x8, addend: 0x0, symName: __ZN5Board17__unary_operatorsE, symObjAddr: 0x6D6A0, symBinAddr: 0x100076110, symSize: 0x0 }
  - { offsetInCU: 0x309CEC, offset: 0x309CEC, size: 0x8, addend: 0x0, symName: __ZN5Board18__binary_operatorsE, symObjAddr: 0x6D6C0, symBinAddr: 0x100076130, symSize: 0x0 }
  - { offsetInCU: 0x309D00, offset: 0x309D00, size: 0x8, addend: 0x0, symName: __ZN5Board11__operatorsE, symObjAddr: 0x6D6E0, symBinAddr: 0x100076150, symSize: 0x0 }
  - { offsetInCU: 0x309D14, offset: 0x309D14, size: 0x8, addend: 0x0, symName: __ZN5Board14__other_tokensE, symObjAddr: 0x6D700, symBinAddr: 0x100076170, symSize: 0x0 }
  - { offsetInCU: 0x309D28, offset: 0x309D28, size: 0x8, addend: 0x0, symName: __ZN5Board8__tokensE, symObjAddr: 0x6D720, symBinAddr: 0x100076190, symSize: 0x0 }
  - { offsetInCU: 0x309D3C, offset: 0x309D3C, size: 0x8, addend: 0x0, symName: __ZN5Board14__tokens_floatE, symObjAddr: 0x6D740, symBinAddr: 0x1000761B0, symSize: 0x0 }
  - { offsetInCU: 0x309D50, offset: 0x309D50, size: 0x8, addend: 0x0, symName: __ZN5Board4dataE, symObjAddr: 0x6D760, symBinAddr: 0x1000761D0, symSize: 0x0 }
  - { offsetInCU: 0x309D64, offset: 0x309D64, size: 0x8, addend: 0x0, symName: __ZN5Board17__operators_floatE, symObjAddr: 0x6D7D0, symBinAddr: 0x100076240, symSize: 0x0 }
  - { offsetInCU: 0x309D78, offset: 0x309D78, size: 0x8, addend: 0x0, symName: __ZN5Board23__unary_operators_floatE, symObjAddr: 0x6D7F0, symBinAddr: 0x100076260, symSize: 0x0 }
  - { offsetInCU: 0x309D8C, offset: 0x309D8C, size: 0x8, addend: 0x0, symName: __ZN5Board24__binary_operators_floatE, symObjAddr: 0x6D810, symBinAddr: 0x100076280, symSize: 0x0 }
  - { offsetInCU: 0x309DA0, offset: 0x309DA0, size: 0x8, addend: 0x0, symName: __ZN5Board18__input_vars_floatE, symObjAddr: 0x6D830, symBinAddr: 0x1000762A0, symSize: 0x0 }
  - { offsetInCU: 0x309DB4, offset: 0x309DB4, size: 0x8, addend: 0x0, symName: __ZN5Board20__other_tokens_floatE, symObjAddr: 0x6D850, symBinAddr: 0x1000762C0, symSize: 0x0 }
  - { offsetInCU: 0x309DC8, offset: 0x309DC8, size: 0x8, addend: 0x0, symName: __ZN5Board13__tokens_dictE, symObjAddr: 0x6D870, symBinAddr: 0x1000762E0, symSize: 0x0 }
  - { offsetInCU: 0x309DDC, offset: 0x309DDC, size: 0x8, addend: 0x0, symName: __ZN5Board17__tokens_inv_dictE, symObjAddr: 0x6D8A0, symBinAddr: 0x100076310, symSize: 0x0 }
  - { offsetInCU: 0x309DF0, offset: 0x309DF0, size: 0x8, addend: 0x0, symName: __ZN5Board29una_bin_leaf_legal_moves_dictE, symObjAddr: 0x6D8D0, symBinAddr: 0x100076340, symSize: 0x0 }
  - { offsetInCU: 0x309E04, offset: 0x309E04, size: 0x8, addend: 0x0, symName: __ZN5Board13thread_lockerE, symObjAddr: 0x6D900, symBinAddr: 0x100076370, symSize: 0x0 }
  - { offsetInCU: 0x309E72, offset: 0x309E72, size: 0x8, addend: 0x0, symName: __ZN5Board14__num_featuresE, symObjAddr: 0x6D950, symBinAddr: 0x1000763C0, symSize: 0x0 }
  - { offsetInCU: 0x309E8C, offset: 0x309E8C, size: 0x8, addend: 0x0, symName: __ZN5Board11action_sizeE, symObjAddr: 0x6D954, symBinAddr: 0x1000763C4, symSize: 0x0 }
  - { offsetInCU: 0x309EA0, offset: 0x309EA0, size: 0x8, addend: 0x0, symName: __ZN5Board19initialization_flagE, symObjAddr: 0x6D948, symBinAddr: 0x1000763B8, symSize: 0x0 }
  - { offsetInCU: 0x309ED4, offset: 0x309ED4, size: 0x8, addend: 0x0, symName: __ZN5Eigen8internal23triangular_solve_vectorIfflLi1ELi2ELb0ELi0EE3runElPKflPf, symObjAddr: 0x497B4, symBinAddr: 0x10004D3AC, symSize: 0x4E0 }
  - { offsetInCU: 0x30A605, offset: 0x30A605, size: 0x8, addend: 0x0, symName: __ZN5Eigen8internal29general_matrix_vector_productIlfNS0_22const_blas_data_mapperIflLi0EEELi0ELb0EfS3_Lb0ELi0EE3runEllRKS3_S6_Pflf, symObjAddr: 0x49C94, symBinAddr: 0x10004D88C, symSize: 0x580 }
  - { offsetInCU: 0x30A621, offset: 0x30A621, size: 0x8, addend: 0x0, symName: __ZN5Eigen8internal23triangular_solve_vectorIfflLi1ELi1ELb0ELi1EE3runElPKflPf, symObjAddr: 0x4AC34, symBinAddr: 0x10004E82C, symSize: 0x2C8 }
  - { offsetInCU: 0x30AE1C, offset: 0x30AE1C, size: 0x8, addend: 0x0, symName: __ZN5Eigen8internal26triangular_solver_selectorINS_9TransposeINS_5BlockINS_6MatrixIfLin1ELin1ELi0ELin1ELin1EEELin1ELin1ELb0EEEEENS3_INS4_IfLin1ELi1ELi0ELin1ELi1EEELin1ELi1ELb0EEELi1ELi2ELi0ELi1EE3runERKS7_RS9_, symObjAddr: 0x4AEFC, symBinAddr: 0x10004EAF4, symSize: 0x138 }
  - { offsetInCU: 0x30AE32, offset: 0x30AE32, size: 0x8, addend: 0x0, symName: __ZN5Eigen8internal23triangular_solve_vectorIfflLi1ELi2ELb0ELi1EE3runElPKflPf, symObjAddr: 0x4B034, symBinAddr: 0x10004EC2C, symSize: 0x2C0 }
  - { offsetInCU: 0x30B607, offset: 0x30B607, size: 0x8, addend: 0x0, symName: __ZN5Eigen8internal15call_assignmentINS_6MatrixIfLin1ELi1ELi0ELin1ELi1EEENS_7ProductINS_14TriangularViewINS2_IfLin1ELin1ELi0ELin1ELin1EEELj2EEENS4_INS_7InverseINS_17PermutationMatrixILin1ELin1EiEEEES3_Li2EEELi0EEENS0_9assign_opIffEEEEvRT_RKT0_RKT1_NS0_9enable_ifIXsr25evaluator_assume_aliasingISI_EE5valueEPvE4typeE, symObjAddr: 0x4B2F4, symBinAddr: 0x10004EEEC, symSize: 0x178 }
  - { offsetInCU: 0x30B623, offset: 0x30B623, size: 0x8, addend: 0x0, symName: __ZN5Eigen8internal32triangular_matrix_vector_productIlLi2EfLb0EfLb0ELi0ELi0EE3runEllPKflS4_lPflRS3_, symObjAddr: 0x4B770, symBinAddr: 0x10004F368, symSize: 0x54C }
  - { offsetInCU: 0x30C02E, offset: 0x30C02E, size: 0x8, addend: 0x0, symName: __ZN5Board8fit_timeE, symObjAddr: 0x6DA50, symBinAddr: 0x1000764C0, symSize: 0x0 }
  - { offsetInCU: 0x30C49D, offset: 0x30C49D, size: 0x8, addend: 0x0, symName: __Z4MCTSRKN5Eigen6MatrixIfLin1ELin1ELi0ELin1ELin1EEEiNSt3__112basic_stringIcNS4_11char_traitsIcEENS4_9allocatorIcEEEESA_iRKSA_bdiPKcij, symObjAddr: 0x7D28, symBinAddr: 0x10000B920, symSize: 0xAC4 }
  - { offsetInCU: 0x310236, offset: 0x310236, size: 0x8, addend: 0x0, symName: '__ZZ4MCTSRKN5Eigen6MatrixIfLin1ELin1ELi0ELin1ELin1EEEiNSt3__112basic_stringIcNS4_11char_traitsIcEENS4_9allocatorIcEEEESA_iRKSA_bdiPKcijENK4$_11clEv', symObjAddr: 0x5479C, symBinAddr: 0x100058394, symSize: 0x5C48 }
  - { offsetInCU: 0x328A30, offset: 0x328A30, size: 0x8, addend: 0x0, symName: __ZN5boost9unordered6detail3foa10table_coreINS2_14flat_map_typesIffEENS2_7group15INS2_15atomic_integralEEENS2_23concurrent_table_arraysENS2_19atomic_size_controlENS_4hashIfEENSt3__18equal_toIfEENSD_9allocatorINSD_4pairIKffEEEEEaSEOSL_, symObjAddr: 0x5CD60, symBinAddr: 0x100060958, symSize: 0x128 }
  - { offsetInCU: 0x329172, offset: 0x329172, size: 0x8, addend: 0x0, symName: __Z12RandomSearchRKN5Eigen6MatrixIfLin1ELin1ELi0ELin1ELin1EEEiNSt3__112basic_stringIcNS4_11char_traitsIcEENS4_9allocatorIcEEEESA_iRKSA_bdiPKcij, symObjAddr: 0x8958, symBinAddr: 0x10000C550, symSize: 0x7FC }
  - { offsetInCU: 0x32FA38, offset: 0x32FA38, size: 0x8, addend: 0x0, symName: __ZN5Eigen8internal29general_matrix_vector_productIlfNS0_22const_blas_data_mapperIflLi1EEELi1ELb0EfNS2_IflLi0EEELb0ELi0EE3runEllRKS3_RKS4_Pflf, symObjAddr: 0x33A60, symBinAddr: 0x100037658, symSize: 0xB30 }
  - { offsetInCU: 0x333605, offset: 0x333605, size: 0x8, addend: 0x0, symName: __ZN5Eigen8internal21dense_assignment_loopINS0_31generic_dense_assignment_kernelINS0_9evaluatorINS_5BlockINS_6MatrixIfLin1ELin1ELi0ELin1ELin1EEELin1ELin1ELb0EEEEENS3_INS5_IfLin1ELi1ELi0ELin1ELi1EEEEENS0_9assign_opIffEELi0EEELi4ELi0EE3runERSD_, symObjAddr: 0x35F5C, symBinAddr: 0x100039B54, symSize: 0x298 }
  - { offsetInCU: 0x3336B4, offset: 0x3336B4, size: 0x8, addend: 0x0, symName: __ZN5Eigen8internal21dense_assignment_loopINS0_31generic_dense_assignment_kernelINS0_9evaluatorINS_5BlockINS_6MatrixIfLin1ELin1ELi0ELin1ELin1EEELin1ELin1ELb0EEEEENS3_INS5_IfLin1ELi1ELi0ELin1ELi1EEEEENS0_9assign_opIffEELi0EEELi4ELi0EE3runERSD_, symObjAddr: 0x35F5C, symBinAddr: 0x100039B54, symSize: 0x298 }
  - { offsetInCU: 0x333C35, offset: 0x333C35, size: 0x8, addend: 0x0, symName: __ZN5Eigen8internal21dense_assignment_loopINS0_31generic_dense_assignment_kernelINS0_9evaluatorINS_5BlockINS_6MatrixIfLin1ELin1ELi0ELin1ELin1EEELin1ELin1ELb0EEEEENS3_INS_14CwiseNullaryOpINS0_18scalar_constant_opIfEES6_EEEENS0_9assign_opIffEELi0EEELi4ELi0EE3runERSG_, symObjAddr: 0x361F4, symBinAddr: 0x100039DEC, symSize: 0x264 }
  - { offsetInCU: 0x333CE4, offset: 0x333CE4, size: 0x8, addend: 0x0, symName: __ZN5Eigen8internal21dense_assignment_loopINS0_31generic_dense_assignment_kernelINS0_9evaluatorINS_5BlockINS_6MatrixIfLin1ELin1ELi0ELin1ELin1EEELin1ELin1ELb0EEEEENS3_INS_14CwiseNullaryOpINS0_18scalar_constant_opIfEES6_EEEENS0_9assign_opIffEELi0EEELi4ELi0EE3runERSG_, symObjAddr: 0x361F4, symBinAddr: 0x100039DEC, symSize: 0x264 }
  - { offsetInCU: 0x3343BC, offset: 0x3343BC, size: 0x8, addend: 0x0, symName: __ZN5Eigen8internal21dense_assignment_loopINS0_31generic_dense_assignment_kernelINS0_9evaluatorINS_5BlockINS_6MatrixIfLin1ELin1ELi0ELin1ELin1EEELin1ELin1ELb0EEEEENS3_INS_14CwiseNullaryOpINS0_18scalar_constant_opIfEES6_EEEENS0_13mul_assign_opIffEELi0EEELi4ELi0EE3runERSG_, symObjAddr: 0x36458, symBinAddr: 0x10003A050, symSize: 0x2CC }
  - { offsetInCU: 0x33446B, offset: 0x33446B, size: 0x8, addend: 0x0, symName: __ZN5Eigen8internal21dense_assignment_loopINS0_31generic_dense_assignment_kernelINS0_9evaluatorINS_5BlockINS_6MatrixIfLin1ELin1ELi0ELin1ELin1EEELin1ELin1ELb0EEEEENS3_INS_14CwiseNullaryOpINS0_18scalar_constant_opIfEES6_EEEENS0_13mul_assign_opIffEELi0EEELi4ELi0EE3runERSG_, symObjAddr: 0x36458, symBinAddr: 0x10003A050, symSize: 0x2CC }
  - { offsetInCU: 0x3365A2, offset: 0x3365A2, size: 0x8, addend: 0x0, symName: __ZN5Eigen8internal21dense_assignment_loopINS0_31generic_dense_assignment_kernelINS0_9evaluatorINS_5BlockINS_6MatrixIfLin1ELin1ELi0ELin1ELin1EEELin1ELin1ELb0EEEEENS3_INS_14CwiseNullaryOpINS0_18scalar_constant_opIfEES6_EEEENS0_13div_assign_opIffEELi0EEELi4ELi0EE3runERSG_, symObjAddr: 0x38130, symBinAddr: 0x10003BD28, symSize: 0x2E0 }
  - { offsetInCU: 0x336651, offset: 0x336651, size: 0x8, addend: 0x0, symName: __ZN5Eigen8internal21dense_assignment_loopINS0_31generic_dense_assignment_kernelINS0_9evaluatorINS_5BlockINS_6MatrixIfLin1ELin1ELi0ELin1ELin1EEELin1ELin1ELb0EEEEENS3_INS_14CwiseNullaryOpINS0_18scalar_constant_opIfEES6_EEEENS0_13div_assign_opIffEELi0EEELi4ELi0EE3runERSG_, symObjAddr: 0x38130, symBinAddr: 0x10003BD28, symSize: 0x2E0 }
  - { offsetInCU: 0x336CFC, offset: 0x336CFC, size: 0x8, addend: 0x0, symName: __ZN5Eigen8internal29general_matrix_vector_productIlfNS0_22const_blas_data_mapperIflLi0EEELi0ELb0EfNS2_IflLi1EEELb0ELi0EE3runEllRKS3_RKS4_Pflf, symObjAddr: 0x3BC5C, symBinAddr: 0x10003F854, symSize: 0x5E4 }
  - { offsetInCU: 0x33A79C, offset: 0x33A79C, size: 0x8, addend: 0x0, symName: __ZN5Eigen8internal21dense_assignment_loopINS0_31generic_dense_assignment_kernelINS0_9evaluatorINS_5BlockINS_6MatrixIfLin1ELin1ELi0ELin1ELin1EEELin1ELin1ELb0EEEEENS3_INS4_IKS6_Lin1ELin1ELb0EEEEENS0_9assign_opIffEELi0EEELi4ELi0EE3runERSE_, symObjAddr: 0x3CA48, symBinAddr: 0x100040640, symSize: 0x2C4 }
  - { offsetInCU: 0x33A84B, offset: 0x33A84B, size: 0x8, addend: 0x0, symName: __ZN5Eigen8internal21dense_assignment_loopINS0_31generic_dense_assignment_kernelINS0_9evaluatorINS_5BlockINS_6MatrixIfLin1ELin1ELi0ELin1ELin1EEELin1ELin1ELb0EEEEENS3_INS4_IKS6_Lin1ELin1ELb0EEEEENS0_9assign_opIffEELi0EEELi4ELi0EE3runERSE_, symObjAddr: 0x3CA48, symBinAddr: 0x100040640, symSize: 0x2C4 }
  - { offsetInCU: 0x33AE31, offset: 0x33AE31, size: 0x8, addend: 0x0, symName: __ZN5Eigen8internal13gemm_pack_lhsIflNS0_22const_blas_data_mapperIflLi1EEELi12ELi4E19__simd128_float32_tLi1ELb0ELb0EEclEPfRKS3_llll, symObjAddr: 0x3E228, symBinAddr: 0x100041E20, symSize: 0x530 }
  - { offsetInCU: 0x33B33E, offset: 0x33B33E, size: 0x8, addend: 0x0, symName: __ZN5Eigen8internal11gebp_kernelIfflNS0_16blas_data_mapperIflLi0ELi0ELi1EEELi12ELi4ELb0ELb0EEclERKS3_PKfS8_lllfllll, symObjAddr: 0x3EB80, symBinAddr: 0x100042778, symSize: 0xF28 }
  - { offsetInCU: 0x34450F, offset: 0x34450F, size: 0x8, addend: 0x0, symName: __ZN5Eigen8internal21dense_assignment_loopINS0_31generic_dense_assignment_kernelINS0_9evaluatorINS_5BlockINS_6MatrixIfLin1ELin1ELi0ELin1ELin1EEELin1ELin1ELb0EEEEENS3_INS_13CwiseBinaryOpINS0_18scalar_quotient_opIffEEKNS9_INS0_20scalar_difference_opIffEEKNS5_IfLin1ELi1ELi0ELin1ELi1EEESF_EEKNS_14CwiseNullaryOpINS0_18scalar_constant_opIfEESF_EEEEEENS0_9assign_opIffEELi0EEELi4ELi0EE3runERSR_, symObjAddr: 0x44A2C, symBinAddr: 0x100048624, symSize: 0x410 }
  - { offsetInCU: 0x348FB6, offset: 0x348FB6, size: 0x8, addend: 0x0, symName: __ZN5Eigen8internal21dense_assignment_loopINS0_31generic_dense_assignment_kernelINS0_9evaluatorINS_5BlockINS_6MatrixIfLin1ELi1ELi0ELin1ELi1EEELin1ELin1ELb0EEEEENS3_INS_14CwiseNullaryOpINS0_18scalar_constant_opIfEENS5_IfLin1ELin1ELi0ELin1ELi1EEEEEEENS0_13mul_assign_opIffEELi0EEELi4ELi0EE3runERSH_, symObjAddr: 0x47FC0, symBinAddr: 0x10004BBB8, symSize: 0x2CC }
  - { offsetInCU: 0x349065, offset: 0x349065, size: 0x8, addend: 0x0, symName: __ZN5Eigen8internal21dense_assignment_loopINS0_31generic_dense_assignment_kernelINS0_9evaluatorINS_5BlockINS_6MatrixIfLin1ELi1ELi0ELin1ELi1EEELin1ELin1ELb0EEEEENS3_INS_14CwiseNullaryOpINS0_18scalar_constant_opIfEENS5_IfLin1ELin1ELi0ELin1ELi1EEEEEEENS0_13mul_assign_opIffEELi0EEELi4ELi0EE3runERSH_, symObjAddr: 0x47FC0, symBinAddr: 0x10004BBB8, symSize: 0x2CC }
  - { offsetInCU: 0x34A5D2, offset: 0x34A5D2, size: 0x8, addend: 0x0, symName: __ZN5Eigen8internal21dense_assignment_loopINS0_31generic_dense_assignment_kernelINS0_9evaluatorINS_5BlockINS4_INS_6MatrixIfLin1ELi1ELi0ELin1ELi1EEELin1ELin1ELb0EEELin1ELin1ELb0EEEEENS3_INS_7ProductINS_13CwiseBinaryOpINS0_17scalar_product_opIffEEKNS_14CwiseNullaryOpINS0_18scalar_constant_opIfEEKS6_EEKNS4_IKNS5_IfLin1ELin1ELi0ELin1ELin1EEELin1ELi1ELb0EEEEENS_3MapINS5_IfLi1ELin1ELi1ELi1ELi1EEELi0ENS_6StrideILi0ELi0EEEEELi1EEEEENS0_13sub_assign_opIffEELi0EEELi4ELi0EE3runERSY_, symObjAddr: 0x48628, symBinAddr: 0x10004C220, symSize: 0x2B4 }
  - { offsetInCU: 0x34B326, offset: 0x34B326, size: 0x8, addend: 0x0, symName: __ZN5Eigen8internal6qrsolvIfEEvRNS_6MatrixIT_Lin1ELin1ELi0ELin1ELin1EEERKNS2_IiLin1ELi1ELi0ELin1ELi1EEERKNS2_IS3_Lin1ELi1ELi0ELin1ELi1EEESB_RS9_SC_, symObjAddr: 0x488DC, symBinAddr: 0x10004C4D4, symSize: 0xDAC }
  - { offsetInCU: 0x34C0BD, offset: 0x34C0BD, size: 0x8, addend: 0x0, symName: __ZN5Eigen8internal29general_matrix_vector_productIlfNS0_22const_blas_data_mapperIflLi0EEELi0ELb0EfS3_Lb0ELi0EE3runEllRKS3_S6_Pflf, symObjAddr: 0x49C94, symBinAddr: 0x10004D88C, symSize: 0x580 }
  - { offsetInCU: 0x34E4E7, offset: 0x34E4E7, size: 0x8, addend: 0x0, symName: __ZN5Eigen8internal29general_matrix_vector_productIlfNS0_22const_blas_data_mapperIflLi0EEELi0ELb0EfNS2_IflLi1EEELb0ELi1EE3runEllRKS3_RKS4_Pflf, symObjAddr: 0x4BEF4, symBinAddr: 0x10004FAEC, symSize: 0x5E4 }
  - { offsetInCU: 0x350DAE, offset: 0x350DAE, size: 0x8, addend: 0x0, symName: __ZN5BoardC2EbiRKNSt3__112basic_stringIcNS0_11char_traitsIcEENS0_9allocatorIcEEEES6_iS6_RKN5Eigen6MatrixIfLin1ELin1ELi0ELin1ELin1EEEbb, symObjAddr: 0xFA24, symBinAddr: 0x10001361C, symSize: 0x508 }
  - { offsetInCU: 0x352F94, offset: 0x352F94, size: 0x8, addend: 0x0, symName: __ZN5Board8AsyncPSOEv, symObjAddr: 0x1A574, symBinAddr: 0x10001E16C, symSize: 0x824 }
  - { offsetInCU: 0x357CAD, offset: 0x357CAD, size: 0x8, addend: 0x0, symName: __ZN5Eigen8internal19gemv_dense_selectorILi2ELi1ELb1EE3runINS_9TransposeIKNS_5BlockIKNS_6MatrixIfLin1ELin1ELi0ELin1ELin1EEELin1ELin1ELb1EEEEENS6_IfLin1ELi1ELi0ELin1ELi1EEENS5_ISC_Lin1ELi1ELb0EEEEEvRKT_RKT0_RT1_RKNSK_6ScalarE, symObjAddr: 0x338C0, symBinAddr: 0x1000374B8, symSize: 0x1A0 }
  - { offsetInCU: 0x358EA7, offset: 0x358EA7, size: 0x8, addend: 0x0, symName: __ZN5Eigen8internal19gemv_dense_selectorILi2ELi1ELb1EE3runINS_13CwiseBinaryOpINS0_17scalar_product_opIffEEKNS_14CwiseNullaryOpINS0_18scalar_constant_opIfEEKNS_6MatrixIfLin1ELin1ELi1ELin1ELin1EEEEEKNS_9TransposeIKNS_5BlockIKNSA_IfLin1ELin1ELi0ELin1ELin1EEELin1ELin1ELb1EEEEEEENSA_IfLin1ELi1ELi0ELin1ELi1EEENSG_ISO_Lin1ELi1ELb0EEEEEvRKT_RKT0_RT1_RKNSW_6ScalarE, symObjAddr: 0x348A8, symBinAddr: 0x1000384A0, symSize: 0x1A4 }
  - { offsetInCU: 0x359D4D, offset: 0x359D4D, size: 0x8, addend: 0x0, symName: __ZN5Eigen8internal19gemv_dense_selectorILi2ELi1ELb1EE3runINS_9TransposeINS_5BlockINS_6MatrixIfLin1ELin1ELi0ELin1ELin1EEELin1ELin1ELb1EEEEENS5_IS7_Lin1ELi1ELb1EEENS6_IfLin1ELi1ELi0ELin1ELi1EEEEEvRKT_RKT0_RT1_RKNSI_6ScalarE, symObjAddr: 0x35DBC, symBinAddr: 0x1000399B4, symSize: 0x1A0 }
  - { offsetInCU: 0x35A7BD, offset: 0x35A7BD, size: 0x8, addend: 0x0, symName: __ZN5Eigen8internal19gemv_dense_selectorILi2ELi1ELb1EE3runINS_9TransposeIKNS_6MatrixIfLin1ELin1ELi0ELin1ELin1EEEEENS5_IfLin1ELi1ELi0ELin1ELi1EEES9_EEvRKT_RKT0_RT1_RKNSG_6ScalarE, symObjAddr: 0x3B840, symBinAddr: 0x10003F438, symSize: 0x188 }
  - { offsetInCU: 0x35BDEE, offset: 0x35BDEE, size: 0x8, addend: 0x0, symName: __ZN5Eigen8internal19gemv_dense_selectorILi2ELi1ELb1EE3runINS_9TransposeIKNS_5BlockIKNS_6MatrixIfLin1ELin1ELi0ELin1ELin1EEELin1ELin1ELb0EEEEENS5_IS8_Lin1ELi1ELb1EEENS6_IfLin1ELi1ELi0ELin1ELi1EEEEEvRKT_RKT0_RT1_RKNSK_6ScalarE, symObjAddr: 0x3C794, symBinAddr: 0x10004038C, symSize: 0x1A0 }
  - { offsetInCU: 0x35CA2C, offset: 0x35CA2C, size: 0x8, addend: 0x0, symName: __ZN5Eigen8internal19gemv_dense_selectorILi2ELi1ELb1EE3runINS_9TransposeIKNS_5BlockIKNS_6MatrixIfLin1ELin1ELi0ELin1ELin1EEELin1ELin1ELb1EEEEENS5_ISA_Lin1ELi1ELb1EEENS5_INS5_IS7_Lin1ELin1ELb0EEELin1ELi1ELb1EEEEEvRKT_RKT0_RT1_RKNSL_6ScalarE, symObjAddr: 0x3D600, symBinAddr: 0x1000411F8, symSize: 0x1A0 }
  - { offsetInCU: 0x35D1F8, offset: 0x35D1F8, size: 0x8, addend: 0x0, symName: __ZN5Eigen8internal19gemv_dense_selectorILi2ELi1ELb1EE3runINS_9TransposeIKNS_5BlockIKNS_6MatrixIfLin1ELin1ELi0ELin1ELin1EEELin1ELin1ELb1EEEEENS4_IKNS5_IKSB_Li1ELin1ELb1EEEEENS4_INS5_INS5_IS7_Lin1ELin1ELb0EEELi1ELin1ELb0EEEEEEEvRKT_RKT0_RT1_RKNSP_6ScalarE, symObjAddr: 0x3D7A0, symBinAddr: 0x100041398, symSize: 0x1A4 }
  - { offsetInCU: 0x35DC48, offset: 0x35DC48, size: 0x8, addend: 0x0, symName: __ZN5Eigen8internal19gemv_dense_selectorILi2ELi1ELb1EE3runINS_9TransposeIKNS_5BlockIKNS_6MatrixIfLin1ELin1ELi0ELin1ELin1EEELin1ELin1ELb1EEEEENS5_IS8_Lin1ELi1ELb1EEENS6_IfLin1ELi1ELi0ELin1ELi1EEEEEvRKT_RKT0_RT1_RKNSK_6ScalarE, symObjAddr: 0x40870, symBinAddr: 0x100044468, symSize: 0x1A0 }
  - { offsetInCU: 0x35EF6A, offset: 0x35EF6A, size: 0x8, addend: 0x0, symName: __ZN5Eigen8internal19gemv_dense_selectorILi2ELi1ELb1EE3runINS_9TransposeIKNS_5BlockINS5_INS_6MatrixIfLin1ELin1ELi0ELin1ELin1EEELin1ELin1ELb0EEELin1ELin1ELb0EEEEENS4_IKNS4_IKNS5_INS5_IS7_Lin1ELi1ELb1EEELin1ELi1ELb0EEEEEEENS4_INS_3MapINS6_IfLi1ELin1ELi1ELi1ELin1EEELi0ENS_6StrideILi0ELi0EEEEEEEEEvRKT_RKT0_RT1_RKNSU_6ScalarE, symObjAddr: 0x46FD4, symBinAddr: 0x10004ABCC, symSize: 0x1A4 }
  - { offsetInCU: 0x36183F, offset: 0x36183F, size: 0x8, addend: 0x0, symName: __ZN5Eigen8internal13trmv_selectorILi2ELi0EE3runINS_6MatrixIfLin1ELin1ELi0ELin1ELin1EEENS_7ProductINS_7InverseINS_17PermutationMatrixILin1ELin1EiEEEENS4_IfLin1ELi1ELi0ELin1ELi1EEELi2EEESB_EEvRKT_RKT0_RT1_RKNSJ_6ScalarE, symObjAddr: 0x4B524, symBinAddr: 0x10004F11C, symSize: 0x24C }
  - { offsetInCU: 0x3639A1, offset: 0x3639A1, size: 0x8, addend: 0x0, symName: __ZNSt3__124uniform_int_distributionIiEclINS_23mersenne_twister_engineIjLm32ELm624ELm397ELm31ELj2567483615ELm11ELj4294967295ELm7ELj2636928640ELm15ELj4022730752ELm18ELj1812433253EEEEEiRT_RKNS1_10param_typeE, symObjAddr: 0x52080, symBinAddr: 0x100055C78, symSize: 0x198 }
  - { offsetInCU: 0x363A3D, offset: 0x363A3D, size: 0x8, addend: 0x0, symName: __ZNSt3__124uniform_int_distributionIiEclINS_23mersenne_twister_engineIjLm32ELm624ELm397ELm31ELj2567483615ELm11ELj4294967295ELm7ELj2636928640ELm15ELj4022730752ELm18ELj1812433253EEEEEiRT_RKNS1_10param_typeE, symObjAddr: 0x52080, symBinAddr: 0x100055C78, symSize: 0x198 }
  - { offsetInCU: 0x363BA9, offset: 0x363BA9, size: 0x8, addend: 0x0, symName: __Z18SimulatedAnnealingRKN5Eigen6MatrixIfLin1ELin1ELi0ELin1ELin1EEEiNSt3__112basic_stringIcNS4_11char_traitsIcEENS4_9allocatorIcEEEESA_iRKSA_bdiPKci, symObjAddr: 0x1270, symBinAddr: 0x100004E68, symSize: 0x11A8 }
  - { offsetInCU: 0x369869, offset: 0x369869, size: 0x8, addend: 0x0, symName: __Z2GPRKN5Eigen6MatrixIfLin1ELin1ELi0ELin1ELin1EEEiNSt3__112basic_stringIcNS4_11char_traitsIcEENS4_9allocatorIcEEEESA_iRKSA_bdiPKci, symObjAddr: 0x43F4, symBinAddr: 0x100007FEC, symSize: 0x1D30 }
  - { offsetInCU: 0x373830, offset: 0x373830, size: 0x8, addend: 0x0, symName: __Z3PSORKN5Eigen6MatrixIfLin1ELin1ELi0ELin1ELin1EEEiNSt3__112basic_stringIcNS4_11char_traitsIcEENS4_9allocatorIcEEEESA_iRKSA_bdiPKci, symObjAddr: 0x6124, symBinAddr: 0x100009D1C, symSize: 0x1C04 }
  - { offsetInCU: 0x381099, offset: 0x381099, size: 0x8, addend: 0x0, symName: __Z7trueModii, symObjAddr: 0x588, symBinAddr: 0x100004180, symSize: 0x18 }
  - { offsetInCU: 0x38185F, offset: 0x38185F, size: 0x8, addend: 0x0, symName: __Z3MSERKN5Eigen6MatrixIfLin1ELi1ELi0ELin1ELi1EEES3_, symObjAddr: 0x5A0, symBinAddr: 0x100004198, symSize: 0x1AC }
  - { offsetInCU: 0x38253B, offset: 0x38253B, size: 0x8, addend: 0x0, symName: __Z3MSERKN5Eigen6MatrixIfLin1ELi1ELi0ELin1ELi1EEES3_.cold.1, symObjAddr: 0x60684, symBinAddr: 0x100064A68, symSize: 0x24 }
  - { offsetInCU: 0x382593, offset: 0x382593, size: 0x8, addend: 0x0, symName: __ZNSt16invalid_argumentC1B8ue170006EPKc, symObjAddr: 0x74C, symBinAddr: 0x100004344, symSize: 0x24 }
  - { offsetInCU: 0x383035, offset: 0x383035, size: 0x8, addend: 0x0, symName: __Z3MSERKN5Eigen6MatrixINS_14AutoDiffScalarINS0_IfLin1ELi1ELi0ELin1ELi1EEEEELin1ELi1ELi0ELin1ELi1EEERKS2_, symObjAddr: 0x770, symBinAddr: 0x100004368, symSize: 0x1B0 }
  - { offsetInCU: 0x383BD2, offset: 0x383BD2, size: 0x8, addend: 0x0, symName: __ZN5Eigen8internal10redux_implINS0_13scalar_sum_opINS_14AutoDiffScalarINS_6MatrixIfLin1ELi1ELi0ELin1ELi1EEEEES6_EENS0_15redux_evaluatorINS_12CwiseUnaryOpINS0_14scalar_abs2_opIS6_EEKNS_13CwiseBinaryOpINS0_20scalar_difference_opIfS6_EEKS5_KNS4_IS6_Lin1ELi1ELi0ELin1ELi1EEEEEEEEELi0ELi0EE3runISK_EES6_RKSL_RKS7_RKT_, symObjAddr: 0x516F8, symBinAddr: 0x1000552F0, symSize: 0x50C }
  - { offsetInCU: 0x38524A, offset: 0x38524A, size: 0x8, addend: 0x0, symName: __ZN5Eigen14AutoDiffScalarINS_6MatrixIfLin1ELi1ELi0ELin1ELi1EEEEC2INS_13CwiseBinaryOpINS_8internal17scalar_product_opIffEEKS2_KNS_14CwiseNullaryOpINS6_18scalar_constant_opIfEES9_EEEEEERKNS0_IT_EENS6_9enable_ifIXaasr8internal7is_sameIfNS6_6traitsINS6_10remove_allISG_E4typeEE6ScalarEEE5valuesr8internal14is_convertibleISG_S2_EE5valueEPvE4typeE, symObjAddr: 0x51EA4, symBinAddr: 0x100055A9C, symSize: 0x18C }
  - { offsetInCU: 0x385912, offset: 0x385912, size: 0x8, addend: 0x0, symName: __Z3MSERKN5Eigen6MatrixINS_14AutoDiffScalarINS0_IfLin1ELi1ELi0ELin1ELi1EEEEELin1ELi1ELi0ELin1ELi1EEERKS2_.cold.1, symObjAddr: 0x606A8, symBinAddr: 0x100064A8C, symSize: 0x24 }
  - { offsetInCU: 0x385969, offset: 0x385969, size: 0x8, addend: 0x0, symName: __Z9loss_funcRKN5Eigen6MatrixIfLin1ELi1ELi0ELin1ELi1EEES3_, symObjAddr: 0x920, symBinAddr: 0x100004518, symSize: 0x20 }
  - { offsetInCU: 0x3863C3, offset: 0x3863C3, size: 0x8, addend: 0x0, symName: __ZN5boost9unordered19concurrent_flat_mapINSt3__112basic_stringIcNS2_11char_traitsIcEENS2_9allocatorIcEEEEN5Eigen6MatrixIfLin1ELi1ELi0ELin1ELi1EEENS_4hashIS8_EENS2_8equal_toIS8_EENS6_INS2_4pairIKS8_SB_EEEEED1Ev, symObjAddr: 0x940, symBinAddr: 0x100004538, symSize: 0x128 }
  - { offsetInCU: 0x386C36, offset: 0x386C36, size: 0x8, addend: 0x0, symName: __ZNSt3__16vectorINS_12basic_stringIcNS_11char_traitsIcEENS_9allocatorIcEEEENS4_IS6_EEED1B8ue170006Ev, symObjAddr: 0xA68, symBinAddr: 0x100004660, symSize: 0x74 }
  - { offsetInCU: 0x386FDE, offset: 0x386FDE, size: 0x8, addend: 0x0, symName: __ZNSt3__16vectorIfNS_9allocatorIfEEED1B8ue170006Ev, symObjAddr: 0xADC, symBinAddr: 0x1000046D4, symSize: 0x30 }
  - { offsetInCU: 0x38717E, offset: 0x38717E, size: 0x8, addend: 0x0, symName: __ZN4DataD1Ev, symObjAddr: 0xB0C, symBinAddr: 0x100004704, symSize: 0x4 }
  - { offsetInCU: 0x3871AC, offset: 0x3871AC, size: 0x8, addend: 0x0, symName: __ZN4DataD1Ev, symObjAddr: 0xB0C, symBinAddr: 0x100004704, symSize: 0x4 }
  - { offsetInCU: 0x3871BF, offset: 0x3871BF, size: 0x8, addend: 0x0, symName: __ZN4DataD2Ev, symObjAddr: 0xF8C8, symBinAddr: 0x1000134C0, symSize: 0xAC }
  - { offsetInCU: 0x387D30, offset: 0x387D30, size: 0x8, addend: 0x0, symName: __ZNSt3__113unordered_mapIfNS_12basic_stringIcNS_11char_traitsIcEENS_9allocatorIcEEEENS_4hashIfEENS_8equal_toIfEENS4_INS_4pairIKfS6_EEEEED1B8ue170006Ev, symObjAddr: 0xB10, symBinAddr: 0x100004708, symSize: 0x68 }
  - { offsetInCU: 0x388408, offset: 0x388408, size: 0x8, addend: 0x0, symName: __ZNSt3__113unordered_mapINS_12basic_stringIcNS_11char_traitsIcEENS_9allocatorIcEEEEfNS_4hashIS6_EENS_8equal_toIS6_EENS4_INS_4pairIKS6_fEEEEED1B8ue170006Ev, symObjAddr: 0xB78, symBinAddr: 0x100004770, symSize: 0x68 }
  - { offsetInCU: 0x388B34, offset: 0x388B34, size: 0x8, addend: 0x0, symName: __ZNSt3__113unordered_mapIbNS0_IbNS0_IbNS_6vectorIfNS_9allocatorIfEEEENS_4hashIbEENS_8equal_toIbEENS2_INS_4pairIKbS4_EEEEEES6_S8_NS2_INS9_ISA_SD_EEEEEES6_S8_NS2_INS9_ISA_SG_EEEEED1B8ue170006Ev, symObjAddr: 0xBE0, symBinAddr: 0x1000047D8, symSize: 0x5C }
  - { offsetInCU: 0x388F07, offset: 0x388F07, size: 0x8, addend: 0x0, symName: __ZNSt3__112__hash_tableINS_17__hash_value_typeIbNS_13unordered_mapIbNS_6vectorIfNS_9allocatorIfEEEENS_4hashIbEENS_8equal_toIbEENS4_INS_4pairIKbS6_EEEEEEEENS_22__unordered_map_hasherIbSG_S8_SA_Lb1EEENS_21__unordered_map_equalIbSG_SA_S8_Lb1EEENS4_ISG_EEED2Ev, symObjAddr: 0x150C0, symBinAddr: 0x100018CB8, symSize: 0xA0 }
  - { offsetInCU: 0x389766, offset: 0x389766, size: 0x8, addend: 0x0, symName: __Z11exampleFuncRKN5Eigen6MatrixIfLin1ELi1ELi0ELin1ELi1EEE, symObjAddr: 0xC3C, symBinAddr: 0x100004834, symSize: 0x50 }
  - { offsetInCU: 0x3898F3, offset: 0x3898F3, size: 0x8, addend: 0x0, symName: __Z9Hemberg_1RKN5Eigen6MatrixIfLin1ELi1ELi0ELin1ELi1EEE, symObjAddr: 0xC8C, symBinAddr: 0x100004884, symSize: 0x48 }
  - { offsetInCU: 0x3898FE, offset: 0x3898FE, size: 0x8, addend: 0x0, symName: __Z11exampleFuncRKN5Eigen6MatrixIfLin1ELi1ELi0ELin1ELi1EEE.cold.1, symObjAddr: 0x606CC, symBinAddr: 0x100064AB0, symSize: 0x24 }
  - { offsetInCU: 0x38992B, offset: 0x38992B, size: 0x8, addend: 0x0, symName: __Z9Hemberg_1RKN5Eigen6MatrixIfLin1ELi1ELi0ELin1ELi1EEE, symObjAddr: 0xC8C, symBinAddr: 0x100004884, symSize: 0x48 }
  - { offsetInCU: 0x389ACA, offset: 0x389ACA, size: 0x8, addend: 0x0, symName: __Z9Hemberg_2RKN5Eigen6MatrixIfLin1ELi1ELi0ELin1ELi1EEE, symObjAddr: 0xCD4, symBinAddr: 0x1000048CC, symSize: 0x50 }
  - { offsetInCU: 0x389AD5, offset: 0x389AD5, size: 0x8, addend: 0x0, symName: __Z9Hemberg_1RKN5Eigen6MatrixIfLin1ELi1ELi0ELin1ELi1EEE.cold.2, symObjAddr: 0x60714, symBinAddr: 0x100064AF8, symSize: 0x24 }
  - { offsetInCU: 0x389B03, offset: 0x389B03, size: 0x8, addend: 0x0, symName: __Z9Hemberg_1RKN5Eigen6MatrixIfLin1ELi1ELi0ELin1ELi1EEE.cold.1, symObjAddr: 0x606F0, symBinAddr: 0x100064AD4, symSize: 0x24 }
  - { offsetInCU: 0x389B30, offset: 0x389B30, size: 0x8, addend: 0x0, symName: __Z9Hemberg_2RKN5Eigen6MatrixIfLin1ELi1ELi0ELin1ELi1EEE, symObjAddr: 0xCD4, symBinAddr: 0x1000048CC, symSize: 0x50 }
  - { offsetInCU: 0x389CCF, offset: 0x389CCF, size: 0x8, addend: 0x0, symName: __Z9Hemberg_3RKN5Eigen6MatrixIfLin1ELi1ELi0ELin1ELi1EEE, symObjAddr: 0xD24, symBinAddr: 0x10000491C, symSize: 0x60 }
  - { offsetInCU: 0x389CDA, offset: 0x389CDA, size: 0x8, addend: 0x0, symName: __Z9Hemberg_2RKN5Eigen6MatrixIfLin1ELi1ELi0ELin1ELi1EEE.cold.2, symObjAddr: 0x6075C, symBinAddr: 0x100064B40, symSize: 0x24 }
  - { offsetInCU: 0x389D08, offset: 0x389D08, size: 0x8, addend: 0x0, symName: __Z9Hemberg_2RKN5Eigen6MatrixIfLin1ELi1ELi0ELin1ELi1EEE.cold.1, symObjAddr: 0x60738, symBinAddr: 0x100064B1C, symSize: 0x24 }
  - { offsetInCU: 0x389D35, offset: 0x389D35, size: 0x8, addend: 0x0, symName: __Z9Hemberg_3RKN5Eigen6MatrixIfLin1ELi1ELi0ELin1ELi1EEE, symObjAddr: 0xD24, symBinAddr: 0x10000491C, symSize: 0x60 }
  - { offsetInCU: 0x389ED4, offset: 0x389ED4, size: 0x8, addend: 0x0, symName: __Z9Hemberg_4RKN5Eigen6MatrixIfLin1ELi1ELi0ELin1ELi1EEE, symObjAddr: 0xD84, symBinAddr: 0x10000497C, symSize: 0x88 }
  - { offsetInCU: 0x389EDF, offset: 0x389EDF, size: 0x8, addend: 0x0, symName: __Z9Hemberg_3RKN5Eigen6MatrixIfLin1ELi1ELi0ELin1ELi1EEE.cold.2, symObjAddr: 0x607A4, symBinAddr: 0x100064B88, symSize: 0x24 }
  - { offsetInCU: 0x389F0D, offset: 0x389F0D, size: 0x8, addend: 0x0, symName: __Z9Hemberg_3RKN5Eigen6MatrixIfLin1ELi1ELi0ELin1ELi1EEE.cold.1, symObjAddr: 0x60780, symBinAddr: 0x100064B64, symSize: 0x24 }
  - { offsetInCU: 0x389F3A, offset: 0x389F3A, size: 0x8, addend: 0x0, symName: __Z9Hemberg_4RKN5Eigen6MatrixIfLin1ELi1ELi0ELin1ELi1EEE, symObjAddr: 0xD84, symBinAddr: 0x10000497C, symSize: 0x88 }
  - { offsetInCU: 0x38A0D9, offset: 0x38A0D9, size: 0x8, addend: 0x0, symName: __Z9Hemberg_5RKN5Eigen6MatrixIfLin1ELi1ELi0ELin1ELi1EEE, symObjAddr: 0xE0C, symBinAddr: 0x100004A04, symSize: 0x98 }
  - { offsetInCU: 0x38A0E4, offset: 0x38A0E4, size: 0x8, addend: 0x0, symName: __Z9Hemberg_4RKN5Eigen6MatrixIfLin1ELi1ELi0ELin1ELi1EEE.cold.2, symObjAddr: 0x607EC, symBinAddr: 0x100064BD0, symSize: 0x24 }
  - { offsetInCU: 0x38A112, offset: 0x38A112, size: 0x8, addend: 0x0, symName: __Z9Hemberg_4RKN5Eigen6MatrixIfLin1ELi1ELi0ELin1ELi1EEE.cold.1, symObjAddr: 0x607C8, symBinAddr: 0x100064BAC, symSize: 0x24 }
  - { offsetInCU: 0x38A13F, offset: 0x38A13F, size: 0x8, addend: 0x0, symName: __Z9Hemberg_5RKN5Eigen6MatrixIfLin1ELi1ELi0ELin1ELi1EEE, symObjAddr: 0xE0C, symBinAddr: 0x100004A04, symSize: 0x98 }
  - { offsetInCU: 0x38A2DE, offset: 0x38A2DE, size: 0x8, addend: 0x0, symName: __Z9Feynman_1RKN5Eigen6MatrixIfLin1ELi1ELi0ELin1ELi1EEE, symObjAddr: 0xEA4, symBinAddr: 0x100004A9C, symSize: 0x8C }
  - { offsetInCU: 0x38A2E9, offset: 0x38A2E9, size: 0x8, addend: 0x0, symName: __Z9Hemberg_5RKN5Eigen6MatrixIfLin1ELi1ELi0ELin1ELi1EEE.cold.2, symObjAddr: 0x60834, symBinAddr: 0x100064C18, symSize: 0x24 }
  - { offsetInCU: 0x38A317, offset: 0x38A317, size: 0x8, addend: 0x0, symName: __Z9Hemberg_5RKN5Eigen6MatrixIfLin1ELi1ELi0ELin1ELi1EEE.cold.1, symObjAddr: 0x60810, symBinAddr: 0x100064BF4, symSize: 0x24 }
  - { offsetInCU: 0x38A380, offset: 0x38A380, size: 0x8, addend: 0x0, symName: __Z9Feynman_1RKN5Eigen6MatrixIfLin1ELi1ELi0ELin1ELi1EEE, symObjAddr: 0xEA4, symBinAddr: 0x100004A9C, symSize: 0x8C }
  - { offsetInCU: 0x38A512, offset: 0x38A512, size: 0x8, addend: 0x0, symName: __Z9Feynman_2RKN5Eigen6MatrixIfLin1ELi1ELi0ELin1ELi1EEE, symObjAddr: 0xF30, symBinAddr: 0x100004B28, symSize: 0xD0 }
  - { offsetInCU: 0x38A51D, offset: 0x38A51D, size: 0x8, addend: 0x0, symName: __Z9Feynman_1RKN5Eigen6MatrixIfLin1ELi1ELi0ELin1ELi1EEE.cold.5, symObjAddr: 0x608E8, symBinAddr: 0x100064CCC, symSize: 0x24 }
  - { offsetInCU: 0x38A54B, offset: 0x38A54B, size: 0x8, addend: 0x0, symName: __Z9Feynman_1RKN5Eigen6MatrixIfLin1ELi1ELi0ELin1ELi1EEE.cold.1, symObjAddr: 0x60858, symBinAddr: 0x100064C3C, symSize: 0x24 }
  - { offsetInCU: 0x38A579, offset: 0x38A579, size: 0x8, addend: 0x0, symName: __Z9Feynman_1RKN5Eigen6MatrixIfLin1ELi1ELi0ELin1ELi1EEE.cold.4, symObjAddr: 0x608C4, symBinAddr: 0x100064CA8, symSize: 0x24 }
  - { offsetInCU: 0x38A5A7, offset: 0x38A5A7, size: 0x8, addend: 0x0, symName: __Z9Feynman_1RKN5Eigen6MatrixIfLin1ELi1ELi0ELin1ELi1EEE.cold.2, symObjAddr: 0x6087C, symBinAddr: 0x100064C60, symSize: 0x24 }
  - { offsetInCU: 0x38A5D5, offset: 0x38A5D5, size: 0x8, addend: 0x0, symName: __Z9Feynman_1RKN5Eigen6MatrixIfLin1ELi1ELi0ELin1ELi1EEE.cold.3, symObjAddr: 0x608A0, symBinAddr: 0x100064C84, symSize: 0x24 }
  - { offsetInCU: 0x38A602, offset: 0x38A602, size: 0x8, addend: 0x0, symName: __Z9Feynman_2RKN5Eigen6MatrixIfLin1ELi1ELi0ELin1ELi1EEE, symObjAddr: 0xF30, symBinAddr: 0x100004B28, symSize: 0xD0 }
  - { offsetInCU: 0x38A88D, offset: 0x38A88D, size: 0x8, addend: 0x0, symName: __Z9Feynman_3RKN5Eigen6MatrixIfLin1ELi1ELi0ELin1ELi1EEE, symObjAddr: 0x1000, symBinAddr: 0x100004BF8, symSize: 0xC8 }
  - { offsetInCU: 0x38A898, offset: 0x38A898, size: 0x8, addend: 0x0, symName: __Z9Feynman_2RKN5Eigen6MatrixIfLin1ELi1ELi0ELin1ELi1EEE.cold.9, symObjAddr: 0x60A2C, symBinAddr: 0x100064E10, symSize: 0x24 }
  - { offsetInCU: 0x38A8C6, offset: 0x38A8C6, size: 0x8, addend: 0x0, symName: __Z9Feynman_2RKN5Eigen6MatrixIfLin1ELi1ELi0ELin1ELi1EEE.cold.1, symObjAddr: 0x6090C, symBinAddr: 0x100064CF0, symSize: 0x24 }
  - { offsetInCU: 0x38A8F4, offset: 0x38A8F4, size: 0x8, addend: 0x0, symName: __Z9Feynman_2RKN5Eigen6MatrixIfLin1ELi1ELi0ELin1ELi1EEE.cold.8, symObjAddr: 0x60A08, symBinAddr: 0x100064DEC, symSize: 0x24 }
  - { offsetInCU: 0x38A922, offset: 0x38A922, size: 0x8, addend: 0x0, symName: __Z9Feynman_2RKN5Eigen6MatrixIfLin1ELi1ELi0ELin1ELi1EEE.cold.2, symObjAddr: 0x60930, symBinAddr: 0x100064D14, symSize: 0x24 }
  - { offsetInCU: 0x38A950, offset: 0x38A950, size: 0x8, addend: 0x0, symName: __Z9Feynman_2RKN5Eigen6MatrixIfLin1ELi1ELi0ELin1ELi1EEE.cold.7, symObjAddr: 0x609E4, symBinAddr: 0x100064DC8, symSize: 0x24 }
  - { offsetInCU: 0x38A97E, offset: 0x38A97E, size: 0x8, addend: 0x0, symName: __Z9Feynman_2RKN5Eigen6MatrixIfLin1ELi1ELi0ELin1ELi1EEE.cold.3, symObjAddr: 0x60954, symBinAddr: 0x100064D38, symSize: 0x24 }
  - { offsetInCU: 0x38A9AC, offset: 0x38A9AC, size: 0x8, addend: 0x0, symName: __Z9Feynman_2RKN5Eigen6MatrixIfLin1ELi1ELi0ELin1ELi1EEE.cold.6, symObjAddr: 0x609C0, symBinAddr: 0x100064DA4, symSize: 0x24 }
  - { offsetInCU: 0x38A9DA, offset: 0x38A9DA, size: 0x8, addend: 0x0, symName: __Z9Feynman_2RKN5Eigen6MatrixIfLin1ELi1ELi0ELin1ELi1EEE.cold.4, symObjAddr: 0x60978, symBinAddr: 0x100064D5C, symSize: 0x24 }
  - { offsetInCU: 0x38AA08, offset: 0x38AA08, size: 0x8, addend: 0x0, symName: __Z9Feynman_2RKN5Eigen6MatrixIfLin1ELi1ELi0ELin1ELi1EEE.cold.5, symObjAddr: 0x6099C, symBinAddr: 0x100064D80, symSize: 0x24 }
  - { offsetInCU: 0x38AA8F, offset: 0x38AA8F, size: 0x8, addend: 0x0, symName: __Z9Feynman_3RKN5Eigen6MatrixIfLin1ELi1ELi0ELin1ELi1EEE, symObjAddr: 0x1000, symBinAddr: 0x100004BF8, symSize: 0xC8 }
  - { offsetInCU: 0x38ACC5, offset: 0x38ACC5, size: 0x8, addend: 0x0, symName: __Z9Feynman_4RKN5Eigen6MatrixIfLin1ELi1ELi0ELin1ELi1EEE, symObjAddr: 0x10C8, symBinAddr: 0x100004CC0, symSize: 0xD4 }
  - { offsetInCU: 0x38ACD0, offset: 0x38ACD0, size: 0x8, addend: 0x0, symName: __Z9Feynman_3RKN5Eigen6MatrixIfLin1ELi1ELi0ELin1ELi1EEE.cold.7, symObjAddr: 0x60B28, symBinAddr: 0x100064F0C, symSize: 0x24 }
  - { offsetInCU: 0x38ACFE, offset: 0x38ACFE, size: 0x8, addend: 0x0, symName: __Z9Feynman_3RKN5Eigen6MatrixIfLin1ELi1ELi0ELin1ELi1EEE.cold.1, symObjAddr: 0x60A50, symBinAddr: 0x100064E34, symSize: 0x24 }
  - { offsetInCU: 0x38AD2C, offset: 0x38AD2C, size: 0x8, addend: 0x0, symName: __Z9Feynman_3RKN5Eigen6MatrixIfLin1ELi1ELi0ELin1ELi1EEE.cold.6, symObjAddr: 0x60B04, symBinAddr: 0x100064EE8, symSize: 0x24 }
  - { offsetInCU: 0x38AD5A, offset: 0x38AD5A, size: 0x8, addend: 0x0, symName: __Z9Feynman_3RKN5Eigen6MatrixIfLin1ELi1ELi0ELin1ELi1EEE.cold.2, symObjAddr: 0x60A74, symBinAddr: 0x100064E58, symSize: 0x24 }
  - { offsetInCU: 0x38AD88, offset: 0x38AD88, size: 0x8, addend: 0x0, symName: __Z9Feynman_3RKN5Eigen6MatrixIfLin1ELi1ELi0ELin1ELi1EEE.cold.5, symObjAddr: 0x60AE0, symBinAddr: 0x100064EC4, symSize: 0x24 }
  - { offsetInCU: 0x38ADB6, offset: 0x38ADB6, size: 0x8, addend: 0x0, symName: __Z9Feynman_3RKN5Eigen6MatrixIfLin1ELi1ELi0ELin1ELi1EEE.cold.3, symObjAddr: 0x60A98, symBinAddr: 0x100064E7C, symSize: 0x24 }
  - { offsetInCU: 0x38ADE4, offset: 0x38ADE4, size: 0x8, addend: 0x0, symName: __Z9Feynman_3RKN5Eigen6MatrixIfLin1ELi1ELi0ELin1ELi1EEE.cold.4, symObjAddr: 0x60ABC, symBinAddr: 0x100064EA0, symSize: 0x24 }
  - { offsetInCU: 0x38AE11, offset: 0x38AE11, size: 0x8, addend: 0x0, symName: __Z9Feynman_4RKN5Eigen6MatrixIfLin1ELi1ELi0ELin1ELi1EEE, symObjAddr: 0x10C8, symBinAddr: 0x100004CC0, symSize: 0xD4 }
  - { offsetInCU: 0x38B02B, offset: 0x38B02B, size: 0x8, addend: 0x0, symName: __Z9Feynman_5RKN5Eigen6MatrixIfLin1ELi1ELi0ELin1ELi1EEE, symObjAddr: 0x119C, symBinAddr: 0x100004D94, symSize: 0xD4 }
  - { offsetInCU: 0x38B036, offset: 0x38B036, size: 0x8, addend: 0x0, symName: __Z9Feynman_4RKN5Eigen6MatrixIfLin1ELi1ELi0ELin1ELi1EEE.cold.8, symObjAddr: 0x60C48, symBinAddr: 0x10006502C, symSize: 0x24 }
  - { offsetInCU: 0x38B064, offset: 0x38B064, size: 0x8, addend: 0x0, symName: __Z9Feynman_4RKN5Eigen6MatrixIfLin1ELi1ELi0ELin1ELi1EEE.cold.1, symObjAddr: 0x60B4C, symBinAddr: 0x100064F30, symSize: 0x24 }
  - { offsetInCU: 0x38B092, offset: 0x38B092, size: 0x8, addend: 0x0, symName: __Z9Feynman_4RKN5Eigen6MatrixIfLin1ELi1ELi0ELin1ELi1EEE.cold.7, symObjAddr: 0x60C24, symBinAddr: 0x100065008, symSize: 0x24 }
  - { offsetInCU: 0x38B0C0, offset: 0x38B0C0, size: 0x8, addend: 0x0, symName: __Z9Feynman_4RKN5Eigen6MatrixIfLin1ELi1ELi0ELin1ELi1EEE.cold.2, symObjAddr: 0x60B70, symBinAddr: 0x100064F54, symSize: 0x24 }
  - { offsetInCU: 0x38B0EE, offset: 0x38B0EE, size: 0x8, addend: 0x0, symName: __Z9Feynman_4RKN5Eigen6MatrixIfLin1ELi1ELi0ELin1ELi1EEE.cold.6, symObjAddr: 0x60C00, symBinAddr: 0x100064FE4, symSize: 0x24 }
  - { offsetInCU: 0x38B11C, offset: 0x38B11C, size: 0x8, addend: 0x0, symName: __Z9Feynman_4RKN5Eigen6MatrixIfLin1ELi1ELi0ELin1ELi1EEE.cold.3, symObjAddr: 0x60B94, symBinAddr: 0x100064F78, symSize: 0x24 }
  - { offsetInCU: 0x38B14A, offset: 0x38B14A, size: 0x8, addend: 0x0, symName: __Z9Feynman_4RKN5Eigen6MatrixIfLin1ELi1ELi0ELin1ELi1EEE.cold.5, symObjAddr: 0x60BDC, symBinAddr: 0x100064FC0, symSize: 0x24 }
  - { offsetInCU: 0x38B178, offset: 0x38B178, size: 0x8, addend: 0x0, symName: __Z9Feynman_4RKN5Eigen6MatrixIfLin1ELi1ELi0ELin1ELi1EEE.cold.4, symObjAddr: 0x60BB8, symBinAddr: 0x100064F9C, symSize: 0x24 }
  - { offsetInCU: 0x38B1A5, offset: 0x38B1A5, size: 0x8, addend: 0x0, symName: __Z9Feynman_5RKN5Eigen6MatrixIfLin1ELi1ELi0ELin1ELi1EEE, symObjAddr: 0x119C, symBinAddr: 0x100004D94, symSize: 0xD4 }
  - { offsetInCU: 0x38B3A3, offset: 0x38B3A3, size: 0x8, addend: 0x0, symName: __Z18SimulatedAnnealingRKN5Eigen6MatrixIfLin1ELin1ELi0ELin1ELin1EEEiNSt3__112basic_stringIcNS4_11char_traitsIcEENS4_9allocatorIcEEEESA_iRKSA_bdiPKci, symObjAddr: 0x1270, symBinAddr: 0x100004E68, symSize: 0x11A8 }
  - { offsetInCU: 0x38B3AE, offset: 0x38B3AE, size: 0x8, addend: 0x0, symName: __Z9Feynman_5RKN5Eigen6MatrixIfLin1ELi1ELi0ELin1ELi1EEE.cold.6, symObjAddr: 0x60D20, symBinAddr: 0x100065104, symSize: 0x24 }
  - { offsetInCU: 0x38B3DC, offset: 0x38B3DC, size: 0x8, addend: 0x0, symName: __Z9Feynman_5RKN5Eigen6MatrixIfLin1ELi1ELi0ELin1ELi1EEE.cold.1, symObjAddr: 0x60C6C, symBinAddr: 0x100065050, symSize: 0x24 }
  - { offsetInCU: 0x38B40A, offset: 0x38B40A, size: 0x8, addend: 0x0, symName: __Z9Feynman_5RKN5Eigen6MatrixIfLin1ELi1ELi0ELin1ELi1EEE.cold.5, symObjAddr: 0x60CFC, symBinAddr: 0x1000650E0, symSize: 0x24 }
  - { offsetInCU: 0x38B438, offset: 0x38B438, size: 0x8, addend: 0x0, symName: __Z9Feynman_5RKN5Eigen6MatrixIfLin1ELi1ELi0ELin1ELi1EEE.cold.2, symObjAddr: 0x60C90, symBinAddr: 0x100065074, symSize: 0x24 }
  - { offsetInCU: 0x38B466, offset: 0x38B466, size: 0x8, addend: 0x0, symName: __Z9Feynman_5RKN5Eigen6MatrixIfLin1ELi1ELi0ELin1ELi1EEE.cold.4, symObjAddr: 0x60CD8, symBinAddr: 0x1000650BC, symSize: 0x24 }
  - { offsetInCU: 0x38B494, offset: 0x38B494, size: 0x8, addend: 0x0, symName: __Z9Feynman_5RKN5Eigen6MatrixIfLin1ELi1ELi0ELin1ELi1EEE.cold.3, symObjAddr: 0x60CB4, symBinAddr: 0x100065098, symSize: 0x24 }
  - { offsetInCU: 0x38D3B6, offset: 0x38D3B6, size: 0x8, addend: 0x0, symName: __ZN5BoardD2Ev, symObjAddr: 0x501B8, symBinAddr: 0x100053DB0, symSize: 0xB0 }
  - { offsetInCU: 0x38DB80, offset: 0x38DB80, size: 0x8, addend: 0x0, symName: __ZN5Board15complete_statusEb, symObjAddr: 0x2418, symBinAddr: 0x100006010, symSize: 0x1058 }
  - { offsetInCU: 0x391E6F, offset: 0x391E6F, size: 0x8, addend: 0x0, symName: __ZN5Board15get_legal_movesEv, symObjAddr: 0x3470, symBinAddr: 0x100007068, symSize: 0xC84 }
  - { offsetInCU: 0x393F5E, offset: 0x393F5E, size: 0x8, addend: 0x0, symName: '__ZZ18SimulatedAnnealingRKN5Eigen6MatrixIfLin1ELin1ELi0ELin1ELin1EEEiNSt3__112basic_stringIcNS4_11char_traitsIcEENS4_9allocatorIcEEEESA_iRKSA_bdiPKciENK3$_1clEf', symObjAddr: 0x40F4, symBinAddr: 0x100007CEC, symSize: 0x1A0 }
  - { offsetInCU: 0x3942BB, offset: 0x3942BB, size: 0x8, addend: 0x0, symName: __ZN5Board11get_indicesERNSt3__16vectorINS0_4pairIiiEENS0_9allocatorIS3_EEEERNS1_IfNS4_IfEEEE, symObjAddr: 0x4F7B0, symBinAddr: 0x1000533A8, symSize: 0x4A0 }
  - { offsetInCU: 0x394D66, offset: 0x394D66, size: 0x8, addend: 0x0, symName: __ZN5Board2GBEmRmRKNSt3__16vectorIfNS1_9allocatorIfEEEE, symObjAddr: 0x4FC50, symBinAddr: 0x100053848, symSize: 0x184 }
  - { offsetInCU: 0x394D78, offset: 0x394D78, size: 0x8, addend: 0x0, symName: __ZNSt3__16vectorIfNS_9allocatorIfEEE18__insert_with_sizeB8ue170006INS_11__wrap_iterIPfEES7_EES7_NS5_IPKfEET_T0_l, symObjAddr: 0x4FDE8, symBinAddr: 0x1000539E0, symSize: 0x3BC }
  - { offsetInCU: 0x395A04, offset: 0x395A04, size: 0x8, addend: 0x0, symName: __ZNKSt3__16vectorIdNS_9allocatorIdEEE20__throw_length_errorB8ue170006Ev, symObjAddr: 0x501A4, symBinAddr: 0x100053D9C, symSize: 0x14 }
  - { offsetInCU: 0x395A21, offset: 0x395A21, size: 0x8, addend: 0x0, symName: __ZNSt3__114basic_ofstreamIcNS_11char_traitsIcEEEC1EPKcj, symObjAddr: 0x4294, symBinAddr: 0x100007E8C, symSize: 0x108 }
  - { offsetInCU: 0x395B0A, offset: 0x395B0A, size: 0x8, addend: 0x0, symName: __ZNSt3__16__treeINS_12__value_typeIiNS_6vectorIdNS_9allocatorIdEEEEEENS_19__map_value_compareIiS6_NS_4lessIiEELb1EEENS3_IS6_EEE7destroyEPNS_11__tree_nodeIS6_PvEE, symObjAddr: 0x52030, symBinAddr: 0x100055C28, symSize: 0x50 }
  - { offsetInCU: 0x395E12, offset: 0x395E12, size: 0x8, addend: 0x0, symName: __ZNKSt3__16vectorIfNS_9allocatorIfEEE20__throw_length_errorB8ue170006Ev, symObjAddr: 0x10070, symBinAddr: 0x100013C68, symSize: 0x14 }
  - { offsetInCU: 0x395E3B, offset: 0x395E3B, size: 0x8, addend: 0x0, symName: __ZNSt3__117__call_once_proxyB8ue170006INS_5tupleIJOZN5BoardC1EbiRKNS_12basic_stringIcNS_11char_traitsIcEENS_9allocatorIcEEEES8_iS8_RKN5Eigen6MatrixIfLin1ELin1ELi0ELin1ELin1EEEbbEUlvE_EEEEEvPv, symObjAddr: 0x10084, symBinAddr: 0x100013C7C, symSize: 0xC }
  - { offsetInCU: 0x395E46, offset: 0x395E46, size: 0x8, addend: 0x0, symName: __ZNKSt3__16vectorIdNS_9allocatorIdEEE20__throw_length_errorB8ue170006Ev, symObjAddr: 0x501A4, symBinAddr: 0x100053D9C, symSize: 0x14 }
  - { offsetInCU: 0x395E6F, offset: 0x395E6F, size: 0x8, addend: 0x0, symName: __ZN5BoardD2Ev, symObjAddr: 0x501B8, symBinAddr: 0x100053DB0, symSize: 0xB0 }
  - { offsetInCU: 0x395E7A, offset: 0x395E7A, size: 0x8, addend: 0x0, symName: __ZNKSt3__112basic_stringIcNS_11char_traitsIcEENS_9allocatorIcEEE20__throw_length_errorB8ue170006Ev, symObjAddr: 0xF974, symBinAddr: 0x10001356C, symSize: 0x14 }
  - { offsetInCU: 0x395EA3, offset: 0x395EA3, size: 0x8, addend: 0x0, symName: __ZNSt3__120__throw_length_errorB8ue170006EPKc, symObjAddr: 0xF988, symBinAddr: 0x100013580, symSize: 0x50 }
  - { offsetInCU: 0x395EAE, offset: 0x395EAE, size: 0x8, addend: 0x0, symName: __ZNSt3__114basic_ofstreamIcNS_11char_traitsIcEEED1Ev, symObjAddr: 0x439C, symBinAddr: 0x100007F94, symSize: 0x58 }
  - { offsetInCU: 0x397AC3, offset: 0x397AC3, size: 0x8, addend: 0x0, symName: __ZN5Board11getRPNdepthERKNSt3__16vectorIfNS0_9allocatorIfEEEEmmbbbb, symObjAddr: 0x164CC, symBinAddr: 0x10001A0C4, symSize: 0x9E0 }
  - { offsetInCU: 0x3994C0, offset: 0x3994C0, size: 0x8, addend: 0x0, symName: __ZN5Board17fitFunctionToDataEv, symObjAddr: 0x16EAC, symBinAddr: 0x10001AAA4, symSize: 0x1114 }
  - { offsetInCU: 0x3994CB, offset: 0x3994CB, size: 0x8, addend: 0x0, symName: __ZN5Board10getPNdepthERKNSt3__16vectorIfNS0_9allocatorIfEEEEmmbbbbb, symObjAddr: 0x15C84, symBinAddr: 0x10001987C, symSize: 0x848 }
  - { offsetInCU: 0x39AD81, offset: 0x39AD81, size: 0x8, addend: 0x0, symName: __ZN5Board11getRPNdepthERKNSt3__16vectorIfNS0_9allocatorIfEEEEmmbbbb, symObjAddr: 0x164CC, symBinAddr: 0x10001A0C4, symSize: 0x9E0 }
  - { offsetInCU: 0x39AD8C, offset: 0x39AD8C, size: 0x8, addend: 0x0, symName: __ZN5boost9unordered6detail3foa11rw_spinlock5yieldEj, symObjAddr: 0x135EC, symBinAddr: 0x1000171E4, symSize: 0x84 }
  - { offsetInCU: 0x39AE86, offset: 0x39AE86, size: 0x8, addend: 0x0, symName: __ZNSt3__112__hash_tableINS_17__hash_value_typeIfNS_12basic_stringIcNS_11char_traitsIcEENS_9allocatorIcEEEEEENS_22__unordered_map_hasherIfS8_NS_4hashIfEENS_8equal_toIfEELb1EEENS_21__unordered_map_equalIfS8_SD_SB_Lb1EEENS5_IS8_EEE25__emplace_unique_key_argsIfJRKNS_21piecewise_construct_tENS_5tupleIJRKfEEENSN_IJEEEEEENS_4pairINS_15__hash_iteratorIPNS_11__hash_nodeIS8_PvEEEEbEERKT_DpOT0_, symObjAddr: 0x14148, symBinAddr: 0x100017D40, symSize: 0x2FC }
  - { offsetInCU: 0x39B5C6, offset: 0x39B5C6, size: 0x8, addend: 0x0, symName: __ZN5Board17fitFunctionToDataEv, symObjAddr: 0x16EAC, symBinAddr: 0x10001AAA4, symSize: 0x1114 }
  - { offsetInCU: 0x3A0012, offset: 0x3A0012, size: 0x8, addend: 0x0, symName: __ZN5Board15complete_statusEb.cold.4, symObjAddr: 0x60DB0, symBinAddr: 0x100065194, symSize: 0x24 }
  - { offsetInCU: 0x3A00ED, offset: 0x3A00ED, size: 0x8, addend: 0x0, symName: __ZN5Board15complete_statusEb.cold.3, symObjAddr: 0x60D8C, symBinAddr: 0x100065170, symSize: 0x24 }
  - { offsetInCU: 0x3A01C8, offset: 0x3A01C8, size: 0x8, addend: 0x0, symName: __ZN5Board15complete_statusEb.cold.2, symObjAddr: 0x60D68, symBinAddr: 0x10006514C, symSize: 0x24 }
  - { offsetInCU: 0x3A028C, offset: 0x3A028C, size: 0x8, addend: 0x0, symName: __ZN5Board15complete_statusEb.cold.1, symObjAddr: 0x60D44, symBinAddr: 0x100065128, symSize: 0x24 }
  - { offsetInCU: 0x3A05AA, offset: 0x3A05AA, size: 0x8, addend: 0x0, symName: __ZNSt3__112__hash_tableINS_17__hash_value_typeIbNS_13unordered_mapIbNS2_IbNS_6vectorIfNS_9allocatorIfEEEENS_4hashIbEENS_8equal_toIbEENS4_INS_4pairIKbS6_EEEEEES8_SA_NS4_INSB_ISC_SF_EEEEEEEENS_22__unordered_map_hasherIbSJ_S8_SA_Lb1EEENS_21__unordered_map_equalIbSJ_SA_S8_Lb1EEENS4_ISJ_EEE25__emplace_unique_key_argsIbJRKNS_21piecewise_construct_tENS_5tupleIJObEEENSU_IJEEEEEENSB_INS_15__hash_iteratorIPNS_11__hash_nodeISJ_PvEEEEbEERKT_DpOT0_, symObjAddr: 0x14C28, symBinAddr: 0x100018820, symSize: 0x2F8 }
  - { offsetInCU: 0x3A0DE2, offset: 0x3A0DE2, size: 0x8, addend: 0x0, symName: __ZNSt3__112__hash_tableINS_17__hash_value_typeIbNS_13unordered_mapIbNS_6vectorIfNS_9allocatorIfEEEENS_4hashIbEENS_8equal_toIbEENS4_INS_4pairIKbS6_EEEEEEEENS_22__unordered_map_hasherIbSG_S8_SA_Lb1EEENS_21__unordered_map_equalIbSG_SA_S8_Lb1EEENS4_ISG_EEE25__emplace_unique_key_argsIbJRKNS_21piecewise_construct_tENS_5tupleIJObEEENSR_IJEEEEEENSB_INS_15__hash_iteratorIPNS_11__hash_nodeISG_PvEEEEbEERKT_DpOT0_, symObjAddr: 0x15160, symBinAddr: 0x100018D58, symSize: 0x2F8 }
  - { offsetInCU: 0x3A161A, offset: 0x3A161A, size: 0x8, addend: 0x0, symName: __ZNSt3__112__hash_tableINS_17__hash_value_typeIbNS_6vectorIfNS_9allocatorIfEEEEEENS_22__unordered_map_hasherIbS6_NS_4hashIbEENS_8equal_toIbEELb1EEENS_21__unordered_map_equalIbS6_SB_S9_Lb1EEENS3_IS6_EEE25__emplace_unique_key_argsIbJRKNS_21piecewise_construct_tENS_5tupleIJObEEENSL_IJEEEEEENS_4pairINS_15__hash_iteratorIPNS_11__hash_nodeIS6_PvEEEEbEERKT_DpOT0_, symObjAddr: 0x15638, symBinAddr: 0x100019230, symSize: 0x2EC }
  - { offsetInCU: 0x3A1D18, offset: 0x3A1D18, size: 0x8, addend: 0x0, symName: __ZNSt3__112__hash_tableINS_17__hash_value_typeIbNS_13unordered_mapIbNS2_IbNS_6vectorIfNS_9allocatorIfEEEENS_4hashIbEENS_8equal_toIbEENS4_INS_4pairIKbS6_EEEEEES8_SA_NS4_INSB_ISC_SF_EEEEEEEENS_22__unordered_map_hasherIbSJ_S8_SA_Lb1EEENS_21__unordered_map_equalIbSJ_SA_S8_Lb1EEENS4_ISJ_EEE25__emplace_unique_key_argsIbJRKNS_21piecewise_construct_tENS_5tupleIJRSC_EEENSU_IJEEEEEENSB_INS_15__hash_iteratorIPNS_11__hash_nodeISJ_PvEEEEbEERKT_DpOT0_, symObjAddr: 0x4EED4, symBinAddr: 0x100052ACC, symSize: 0x2F8 }
  - { offsetInCU: 0x3A2550, offset: 0x3A2550, size: 0x8, addend: 0x0, symName: __ZNSt3__112__hash_tableINS_17__hash_value_typeIbNS_13unordered_mapIbNS_6vectorIfNS_9allocatorIfEEEENS_4hashIbEENS_8equal_toIbEENS4_INS_4pairIKbS6_EEEEEEEENS_22__unordered_map_hasherIbSG_S8_SA_Lb1EEENS_21__unordered_map_equalIbSG_SA_S8_Lb1EEENS4_ISG_EEE25__emplace_unique_key_argsIbJRKNS_21piecewise_construct_tENS_5tupleIJRSC_EEENSR_IJEEEEEENSB_INS_15__hash_iteratorIPNS_11__hash_nodeISG_PvEEEEbEERKT_DpOT0_, symObjAddr: 0x4F1CC, symBinAddr: 0x100052DC4, symSize: 0x2F8 }
  - { offsetInCU: 0x3A2D88, offset: 0x3A2D88, size: 0x8, addend: 0x0, symName: __ZNSt3__112__hash_tableINS_17__hash_value_typeIbNS_6vectorIfNS_9allocatorIfEEEEEENS_22__unordered_map_hasherIbS6_NS_4hashIbEENS_8equal_toIbEELb1EEENS_21__unordered_map_equalIbS6_SB_S9_Lb1EEENS3_IS6_EEE25__emplace_unique_key_argsIbJRKNS_21piecewise_construct_tENS_5tupleIJRKbEEENSL_IJEEEEEENS_4pairINS_15__hash_iteratorIPNS_11__hash_nodeIS6_PvEEEEbEERKT_DpOT0_, symObjAddr: 0x4F4C4, symBinAddr: 0x1000530BC, symSize: 0x2EC }
  - { offsetInCU: 0x3A3572, offset: 0x3A3572, size: 0x8, addend: 0x0, symName: __ZNSt3__16vectorIfNS_9allocatorIfEEE18__assign_with_sizeB8ue170006IPfS5_EEvT_T0_l, symObjAddr: 0x15ACC, symBinAddr: 0x1000196C4, symSize: 0x144 }
  - { offsetInCU: 0x3A3F87, offset: 0x3A3F87, size: 0x8, addend: 0x0, symName: __ZNSt3__1eqB8ue170006IcNS_11char_traitsIcEENS_9allocatorIcEEEEbRKNS_12basic_stringIT_T0_T1_EEPKS6_, symObjAddr: 0x15C10, symBinAddr: 0x100019808, symSize: 0x74 }
  - { offsetInCU: 0x3A4CA6, offset: 0x3A4CA6, size: 0x8, addend: 0x0, symName: __ZNSt3__16vectorINS_4pairINS0_IfNS_9allocatorIfEEEEfEENS2_IS5_EEE21__push_back_slow_pathIS5_EEvOT_, symObjAddr: 0x5027C, symBinAddr: 0x100053E74, symSize: 0x160 }
  - { offsetInCU: 0x3A53C9, offset: 0x3A53C9, size: 0x8, addend: 0x0, symName: '__ZNSt3__111__introsortINS_17_ClassicAlgPolicyERZ2GPRKN5Eigen6MatrixIfLin1ELin1ELi0ELin1ELin1EEEiNS_12basic_stringIcNS_11char_traitsIcEENS_9allocatorIcEEEESC_iRKSC_bdiPKciE3$_4PNS_4pairINS_6vectorIfNSA_IfEEEEfEELb0EEEvT1_SP_T0_NS_15iterator_traitsISP_E15difference_typeEb', symObjAddr: 0x503DC, symBinAddr: 0x100053FD4, symSize: 0x950 }
  - { offsetInCU: 0x3A53DD, offset: 0x3A53DD, size: 0x8, addend: 0x0, symName: __ZNSt3__16vectorINS_4pairINS0_IfNS_9allocatorIfEEEEfEENS2_IS5_EEE8__appendEm, symObjAddr: 0x512F4, symBinAddr: 0x100054EEC, symSize: 0x1B4 }
  - { offsetInCU: 0x3A5B92, offset: 0x3A5B92, size: 0x8, addend: 0x0, symName: __ZN5boost9unordered6detail3foa10table_coreINS2_14flat_map_typesINSt3__112basic_stringIcNS5_11char_traitsIcEENS5_9allocatorIcEEEENS0_19concurrent_flat_mapIffNS_4hashIfEENS5_8equal_toIfEENS9_INS5_4pairIKffEEEEEEEENS2_7group15INS2_15atomic_integralEEENS2_23concurrent_table_arraysENS2_19atomic_size_controlENSD_ISB_EENSF_ISB_EENS9_INSH_IKSB_SL_EEEEED2Ev, symObjAddr: 0x514A8, symBinAddr: 0x1000550A0, symSize: 0x154 }
  - { offsetInCU: 0x3A7139, offset: 0x3A7139, size: 0x8, addend: 0x0, symName: __ZNSt3__112__hash_tableINS_17__hash_value_typeIifEENS_22__unordered_map_hasherIiS2_NS_4hashIiEENS_8equal_toIiEELb1EEENS_21__unordered_map_equalIiS2_S7_S5_Lb1EEENS_9allocatorIS2_EEE25__emplace_unique_key_argsIiJRKNS_21piecewise_construct_tENS_5tupleIJRKiEEENSI_IJEEEEEENS_4pairINS_15__hash_iteratorIPNS_11__hash_nodeIS2_PvEEEEbEERKT_DpOT0_, symObjAddr: 0x52F28, symBinAddr: 0x100056B20, symSize: 0x2C0 }
  - { offsetInCU: 0x3A7804, offset: 0x3A7804, size: 0x8, addend: 0x0, symName: __ZNSt3__112__hash_tableINS_17__hash_value_typeIfNS_13unordered_mapIiiNS_4hashIiEENS_8equal_toIiEENS_9allocatorINS_4pairIKiiEEEEEEEENS_22__unordered_map_hasherIfSD_NS3_IfEENS5_IfEELb1EEENS_21__unordered_map_equalIfSD_SG_SF_Lb1EEENS7_ISD_EEE25__emplace_unique_key_argsIfJRKNS_21piecewise_construct_tENS_5tupleIJRKfEEENSQ_IJEEEEEENS8_INS_15__hash_iteratorIPNS_11__hash_nodeISD_PvEEEEbEERKT_DpOT0_, symObjAddr: 0x53344, symBinAddr: 0x100056F3C, symSize: 0x308 }
  - { offsetInCU: 0x3A8061, offset: 0x3A8061, size: 0x8, addend: 0x0, symName: __ZNSt3__112__hash_tableINS_17__hash_value_typeIiiEENS_22__unordered_map_hasherIiS2_NS_4hashIiEENS_8equal_toIiEELb1EEENS_21__unordered_map_equalIiS2_S7_S5_Lb1EEENS_9allocatorIS2_EEE25__emplace_unique_key_argsIiJRKNS_21piecewise_construct_tENS_5tupleIJRKiEEENSI_IJEEEEEENS_4pairINS_15__hash_iteratorIPNS_11__hash_nodeIS2_PvEEEEbEERKT_DpOT0_, symObjAddr: 0x53814, symBinAddr: 0x10005740C, symSize: 0x2C0 }
  - { offsetInCU: 0x3A872C, offset: 0x3A872C, size: 0x8, addend: 0x0, symName: __ZNSt3__112__hash_tableINS_17__hash_value_typeIfNS_13unordered_mapIifNS_4hashIiEENS_8equal_toIiEENS_9allocatorINS_4pairIKifEEEEEEEENS_22__unordered_map_hasherIfSD_NS3_IfEENS5_IfEELb1EEENS_21__unordered_map_equalIfSD_SG_SF_Lb1EEENS7_ISD_EEE25__emplace_unique_key_argsIfJRKNS_21piecewise_construct_tENS_5tupleIJRKfEEENSQ_IJEEEEEENS8_INS_15__hash_iteratorIPNS_11__hash_nodeISD_PvEEEEbEERKT_DpOT0_, symObjAddr: 0x53C30, symBinAddr: 0x100057828, symSize: 0x308 }
  - { offsetInCU: 0x3AAF6A, offset: 0x3AAF6A, size: 0x8, addend: 0x0, symName: __ZNK5boost9unordered6detail3foa16concurrent_tableINS2_14flat_map_typesINSt3__112basic_stringIcNS5_11char_traitsIcEENS5_9allocatorIcEEEEN5Eigen6MatrixIfLin1ELi1ELi0ELin1ELi1EEEEENS_4hashISB_EENS5_8equal_toISB_EENS9_INS5_4pairIKSB_SE_EEEEE4sizeEv, symObjAddr: 0x5F9E0, symBinAddr: 0x1000635D8, symSize: 0x1D0 }
  - { offsetInCU: 0x3AB4AF, offset: 0x3AB4AF, size: 0x8, addend: 0x0, symName: __ZN5boost9unordered6detail3foa10table_coreINS2_14flat_map_typesINSt3__112basic_stringIcNS5_11char_traitsIcEENS5_9allocatorIcEEEENS0_19concurrent_flat_mapIffNS_4hashIfEENS5_8equal_toIfEENS9_INS5_4pairIKffEEEEEEEENS2_7group15INS2_15atomic_integralEEENS2_23concurrent_table_arraysENS2_19atomic_size_controlENSD_ISB_EENSF_ISB_EENS9_INSH_IKSB_SL_EEEEED2Ev, symObjAddr: 0x514A8, symBinAddr: 0x1000550A0, symSize: 0x154 }
  - { offsetInCU: 0x3ABD85, offset: 0x3ABD85, size: 0x8, addend: 0x0, symName: __ZNSt3__16__treeINS_12__value_typeIiNS_6vectorIfNS_9allocatorIfEEEEEENS_19__map_value_compareIiS6_NS_4lessIiEELb1EEENS3_IS6_EEE7destroyEPNS_11__tree_nodeIS6_PvEE, symObjAddr: 0x54100, symBinAddr: 0x100057CF8, symSize: 0x50 }
  - { offsetInCU: 0x3AC08D, offset: 0x3AC08D, size: 0x8, addend: 0x0, symName: __ZN5boost9unordered19concurrent_flat_mapINSt3__112basic_stringIcNS2_11char_traitsIcEENS2_9allocatorIcEEEEfNS_4hashIS8_EENS2_8equal_toIS8_EENS6_INS2_4pairIKS8_fEEEEED1Ev, symObjAddr: 0x87EC, symBinAddr: 0x10000C3E4, symSize: 0x114 }
  - { offsetInCU: 0x3AC706, offset: 0x3AC706, size: 0x8, addend: 0x0, symName: __ZNSt3__16vectorINS_6threadENS_9allocatorIS1_EEED1B8ue170006Ev, symObjAddr: 0x8900, symBinAddr: 0x10000C4F8, symSize: 0x58 }
  - { offsetInCU: 0x3AD138, offset: 0x3AD138, size: 0x8, addend: 0x0, symName: __Z17HembergBenchmarksidi, symObjAddr: 0x9154, symBinAddr: 0x10000CD4C, symSize: 0x326C }
  - { offsetInCU: 0x3CF206, offset: 0x3CF206, size: 0x8, addend: 0x0, symName: __Z19AIFeynmanBenchmarksidi, symObjAddr: 0xC3C0, symBinAddr: 0x10000FFB8, symSize: 0x3334 }
  - { offsetInCU: 0x3F11DB, offset: 0x3F11DB, size: 0x8, addend: 0x0, symName: _main, symObjAddr: 0xF6F4, symBinAddr: 0x1000132EC, symSize: 0x188 }
  - { offsetInCU: 0x3F2175, offset: 0x3F2175, size: 0x8, addend: 0x0, symName: __ZN5boost9unordered6detail3foa10table_coreINS2_14flat_map_typesINSt3__112basic_stringIcNS5_11char_traitsIcEENS5_9allocatorIcEEEEN5Eigen6MatrixIfLin1ELi1ELi0ELin1ELi1EEEEENS2_7group15INS2_15atomic_integralEEENS2_23concurrent_table_arraysENS2_19atomic_size_controlENS_4hashISB_EENS5_8equal_toISB_EENS9_INS5_4pairIKSB_SE_EEEEE13delete_arraysERNSJ_ISR_SI_NS2_16pow2_size_policyESS_EE, symObjAddr: 0xF888, symBinAddr: 0x100013480, symSize: 0x40 }
  - { offsetInCU: 0x3F26B1, offset: 0x3F26B1, size: 0x8, addend: 0x0, symName: __ZNSt12length_errorC1B8ue170006EPKc, symObjAddr: 0xF9D8, symBinAddr: 0x1000135D0, symSize: 0x24 }
  - { offsetInCU: 0x3F2B7C, offset: 0x3F2B7C, size: 0x8, addend: 0x0, symName: __ZNSt3__16vectorIfNS_9allocatorIfEEE18__assign_with_sizeB8ue170006IPKfS6_EEvT_T0_l, symObjAddr: 0xFF2C, symBinAddr: 0x100013B24, symSize: 0x144 }
  - { offsetInCU: 0x3F3591, offset: 0x3F3591, size: 0x8, addend: 0x0, symName: __ZNKSt3__16vectorIfNS_9allocatorIfEEE20__throw_length_errorB8ue170006Ev, symObjAddr: 0x10070, symBinAddr: 0x100013C68, symSize: 0x14 }
  - { offsetInCU: 0x3F3700, offset: 0x3F3700, size: 0x8, addend: 0x0, symName: __ZZN5BoardC1EbiRKNSt3__112basic_stringIcNS0_11char_traitsIcEENS0_9allocatorIcEEEES6_iS6_RKN5Eigen6MatrixIfLin1ELin1ELi0ELin1ELin1EEEbbENKUlvE_clEv, symObjAddr: 0x10090, symBinAddr: 0x100013C88, symSize: 0x1E7C }
  - { offsetInCU: 0x3FAE1B, offset: 0x3FAE1B, size: 0x8, addend: 0x0, symName: __ZN4DataaSERKN5Eigen6MatrixIfLin1ELin1ELi0ELin1ELin1EEE, symObjAddr: 0x11F0C, symBinAddr: 0x100015B04, symSize: 0x68C }
  - { offsetInCU: 0x3FD881, offset: 0x3FD881, size: 0x8, addend: 0x0, symName: __ZN5boost9unordered6detail3foa16concurrent_tableINS2_14flat_map_typesINSt3__112basic_stringIcNS5_11char_traitsIcEENS5_9allocatorIcEEEEN5Eigen6MatrixIfLin1ELi1ELi0ELin1ELi1EEEEENS_4hashISB_EENS5_8equal_toISB_EENS9_INS5_4pairIKSB_SE_EEEEE5clearEv, symObjAddr: 0x13334, symBinAddr: 0x100016F2C, symSize: 0x160 }
  - { offsetInCU: 0x3FDDE1, offset: 0x3FDDE1, size: 0x8, addend: 0x0, symName: __ZNSt3__16vectorINS_12basic_stringIcNS_11char_traitsIcEENS_9allocatorIcEEEENS4_IS6_EEE7reserveEm, symObjAddr: 0x12598, symBinAddr: 0x100016190, symSize: 0x138 }
  - { offsetInCU: 0x3FE379, offset: 0x3FE379, size: 0x8, addend: 0x0, symName: __ZN5Eigen8internal17resize_if_allowedINS_6MatrixIfLin1ELin1ELi0ELin1ELin1EEES3_ffEEvRT_RKT0_RKNS0_9assign_opIT1_T2_EE, symObjAddr: 0x126D0, symBinAddr: 0x1000162C8, symSize: 0xB8 }
  - { offsetInCU: 0x3FE38B, offset: 0x3FE38B, size: 0x8, addend: 0x0, symName: __ZNSt3__16vectorINS_12basic_stringIcNS_11char_traitsIcEENS_9allocatorIcEEEENS4_IS6_EEE21__push_back_slow_pathIS6_EEvOT_, symObjAddr: 0x136E8, symBinAddr: 0x1000172E0, symSize: 0x16C }
  - { offsetInCU: 0x3FEA0D, offset: 0x3FEA0D, size: 0x8, addend: 0x0, symName: __ZNSt3__16vectorINS_12basic_stringIcNS_11char_traitsIcEENS_9allocatorIcEEEENS4_IS6_EEE18__assign_with_sizeB8ue170006IPKS6_SB_EEvT_T0_l, symObjAddr: 0x13854, symBinAddr: 0x10001744C, symSize: 0x22C }
  - { offsetInCU: 0x3FEA21, offset: 0x3FEA21, size: 0x8, addend: 0x0, symName: __ZNSt3__16vectorINS_12basic_stringIcNS_11char_traitsIcEENS_9allocatorIcEEEENS4_IS6_EEE18__assign_with_sizeB8ue170006IPKS6_SB_EEvT_T0_l, symObjAddr: 0x13854, symBinAddr: 0x10001744C, symSize: 0x22C }
  - { offsetInCU: 0x3FF452, offset: 0x3FF452, size: 0x8, addend: 0x0, symName: __ZNSt3__16vectorINS_12basic_stringIcNS_11char_traitsIcEENS_9allocatorIcEEEENS4_IS6_EEE21__push_back_slow_pathIRKS6_EEvOT_, symObjAddr: 0x13BFC, symBinAddr: 0x1000177F4, symSize: 0x20C }
  - { offsetInCU: 0x3FFEF3, offset: 0x3FFEF3, size: 0x8, addend: 0x0, symName: __ZNSt3__16vectorINS_12basic_stringIcNS_11char_traitsIcEENS_9allocatorIcEEEENS4_IS6_EEE18__assign_with_sizeB8ue170006IPS6_SA_EEvT_T0_l, symObjAddr: 0x13E08, symBinAddr: 0x100017A00, symSize: 0x22C }
  - { offsetInCU: 0x400924, offset: 0x400924, size: 0x8, addend: 0x0, symName: __ZNSt3__112__hash_tableINS_17__hash_value_typeINS_12basic_stringIcNS_11char_traitsIcEENS_9allocatorIcEEEEfEENS_22__unordered_map_hasherIS7_S8_NS_4hashIS7_EENS_8equal_toIS7_EELb1EEENS_21__unordered_map_equalIS7_S8_SD_SB_Lb1EEENS5_IS8_EEE25__emplace_unique_key_argsIS7_JRKNS_21piecewise_construct_tENS_5tupleIJRKS7_EEENSN_IJEEEEEENS_4pairINS_15__hash_iteratorIPNS_11__hash_nodeIS8_PvEEEEbEERKT_DpOT0_, symObjAddr: 0x145EC, symBinAddr: 0x1000181E4, symSize: 0x3B0 }
  - { offsetInCU: 0x40186D, offset: 0x40186D, size: 0x8, addend: 0x0, symName: __ZNSt3__112__hash_tableINS_17__hash_value_typeINS_12basic_stringIcNS_11char_traitsIcEENS_9allocatorIcEEEEN5Eigen6MatrixIfLin1ELi1ELi0ELin1ELi1EEEEENS_22__unordered_map_hasherIS7_SB_NS_4hashIS7_EENS_8equal_toIS7_EELb1EEENS_21__unordered_map_equalIS7_SB_SG_SE_Lb1EEENS5_ISB_EEE25__emplace_unique_key_argsIS7_JRKNS_21piecewise_construct_tENS_5tupleIJOS7_EEENSQ_IJEEEEEENS_4pairINS_15__hash_iteratorIPNS_11__hash_nodeISB_PvEEEEbEERKT_DpOT0_, symObjAddr: 0x127F0, symBinAddr: 0x1000163E8, symSize: 0x3A0 }
  - { offsetInCU: 0x4021A0, offset: 0x4021A0, size: 0x8, addend: 0x0, symName: __ZNSt3__16vectorIN5Eigen6MatrixIfLin1ELi1ELi0ELin1ELi1EEENS_9allocatorIS3_EEE8__appendEm, symObjAddr: 0x131D0, symBinAddr: 0x100016DC8, symSize: 0x150 }
  - { offsetInCU: 0x40291C, offset: 0x40291C, size: 0x8, addend: 0x0, symName: __ZNKSt3__16vectorIN5Eigen6MatrixIfLin1ELi1ELi0ELin1ELi1EEENS_9allocatorIS3_EEE20__throw_length_errorB8ue170006Ev, symObjAddr: 0x13320, symBinAddr: 0x100016F18, symSize: 0x14 }
  - { offsetInCU: 0x402927, offset: 0x402927, size: 0x8, addend: 0x0, symName: __ZN4DataaSERKN5Eigen6MatrixIfLin1ELin1ELi0ELin1ELin1EEE.cold.7, symObjAddr: 0x60EAC, symBinAddr: 0x100065290, symSize: 0x24 }
  - { offsetInCU: 0x402954, offset: 0x402954, size: 0x8, addend: 0x0, symName: __ZN4DataaSERKN5Eigen6MatrixIfLin1ELin1ELi0ELin1ELin1EEE.cold.2, symObjAddr: 0x60DF8, symBinAddr: 0x1000651DC, symSize: 0x24 }
  - { offsetInCU: 0x402981, offset: 0x402981, size: 0x8, addend: 0x0, symName: __ZN4DataaSERKN5Eigen6MatrixIfLin1ELin1ELi0ELin1ELin1EEE.cold.5, symObjAddr: 0x60E64, symBinAddr: 0x100065248, symSize: 0x24 }
  - { offsetInCU: 0x4029D9, offset: 0x4029D9, size: 0x8, addend: 0x0, symName: __ZN4DataaSERKN5Eigen6MatrixIfLin1ELin1ELi0ELin1ELin1EEE.cold.6, symObjAddr: 0x60E88, symBinAddr: 0x10006526C, symSize: 0x24 }
  - { offsetInCU: 0x402A48, offset: 0x402A48, size: 0x8, addend: 0x0, symName: __ZN4DataaSERKN5Eigen6MatrixIfLin1ELin1ELi0ELin1ELin1EEE.cold.3, symObjAddr: 0x60E1C, symBinAddr: 0x100065200, symSize: 0x24 }
  - { offsetInCU: 0x402AF6, offset: 0x402AF6, size: 0x8, addend: 0x0, symName: __ZN4DataaSERKN5Eigen6MatrixIfLin1ELin1ELi0ELin1ELin1EEE.cold.4, symObjAddr: 0x60E40, symBinAddr: 0x100065224, symSize: 0x24 }
  - { offsetInCU: 0x402BE7, offset: 0x402BE7, size: 0x8, addend: 0x0, symName: __ZN4DataaSERKN5Eigen6MatrixIfLin1ELin1ELi0ELin1ELin1EEE.cold.1, symObjAddr: 0x60DD4, symBinAddr: 0x1000651B8, symSize: 0x24 }
  - { offsetInCU: 0x402E2F, offset: 0x402E2F, size: 0x8, addend: 0x0, symName: __ZNKSt3__16vectorINS_12basic_stringIcNS_11char_traitsIcEENS_9allocatorIcEEEENS4_IS6_EEE20__throw_length_errorB8ue170006Ev, symObjAddr: 0x13670, symBinAddr: 0x100017268, symSize: 0x14 }
  - { offsetInCU: 0x402E58, offset: 0x402E58, size: 0x8, addend: 0x0, symName: __ZNSt3__114__split_bufferINS_12basic_stringIcNS_11char_traitsIcEENS_9allocatorIcEEEERNS4_IS6_EEED1Ev, symObjAddr: 0x13684, symBinAddr: 0x10001727C, symSize: 0x64 }
  - { offsetInCU: 0x402E63, offset: 0x402E63, size: 0x8, addend: 0x0, symName: __ZN5Eigen8internal17resize_if_allowedINS_6MatrixIfLin1ELin1ELi0ELin1ELin1EEES3_ffEEvRT_RKT0_RKNS0_9assign_opIT1_T2_EE.cold.1, symObjAddr: 0x60ED0, symBinAddr: 0x1000652B4, symSize: 0x24 }
  - { offsetInCU: 0x402E91, offset: 0x402E91, size: 0x8, addend: 0x0, symName: __ZN5Eigen8internal28conditional_aligned_new_autoIfLb1EEEPT_m.cold.1, symObjAddr: 0x60EF4, symBinAddr: 0x1000652D8, symSize: 0x24 }
  - { offsetInCU: 0x403436, offset: 0x403436, size: 0x8, addend: 0x0, symName: __ZNKSt3__121__murmur2_or_cityhashImLm64EEclB8ue170006EPKvm, symObjAddr: 0x12BE4, symBinAddr: 0x1000167DC, symSize: 0x490 }
  - { offsetInCU: 0x403D78, offset: 0x403D78, size: 0x8, addend: 0x0, symName: __ZNSt3__112__hash_tableINS_17__hash_value_typeINS_12basic_stringIcNS_11char_traitsIcEENS_9allocatorIcEEEEN5Eigen6MatrixIfLin1ELi1ELi0ELin1ELi1EEEEENS_22__unordered_map_hasherIS7_SB_NS_4hashIS7_EENS_8equal_toIS7_EELb1EEENS_21__unordered_map_equalIS7_SB_SG_SE_Lb1EEENS5_ISB_EEE11__do_rehashILb1EEEvm, symObjAddr: 0x13074, symBinAddr: 0x100016C6C, symSize: 0x15C }
  - { offsetInCU: 0x4041EC, offset: 0x4041EC, size: 0x8, addend: 0x0, symName: __ZNSt3__16vectorIN5Eigen6MatrixIfLin1ELi1ELi0ELin1ELi1EEENS_9allocatorIS3_EEE8__appendEm, symObjAddr: 0x131D0, symBinAddr: 0x100016DC8, symSize: 0x150 }
  - { offsetInCU: 0x404201, offset: 0x404201, size: 0x8, addend: 0x0, symName: __ZNSt3__110unique_ptrINS_11__hash_nodeINS_17__hash_value_typeINS_12basic_stringIcNS_11char_traitsIcEENS_9allocatorIcEEEEN5Eigen6MatrixIfLin1ELi1ELi0ELin1ELi1EEEEEPvEENS_22__hash_node_destructorINS6_ISE_EEEEED1B8ue170006Ev, symObjAddr: 0x12B90, symBinAddr: 0x100016788, symSize: 0x54 }
  - { offsetInCU: 0x404D1F, offset: 0x404D1F, size: 0x8, addend: 0x0, symName: __ZNKSt3__16vectorIN5Eigen6MatrixIfLin1ELi1ELi0ELin1ELi1EEENS_9allocatorIS3_EEE20__throw_length_errorB8ue170006Ev, symObjAddr: 0x13320, symBinAddr: 0x100016F18, symSize: 0x14 }
  - { offsetInCU: 0x404D48, offset: 0x404D48, size: 0x8, addend: 0x0, symName: __ZN5boost9unordered6detail3foa16concurrent_tableINS2_14flat_map_typesINSt3__112basic_stringIcNS5_11char_traitsIcEENS5_9allocatorIcEEEEN5Eigen6MatrixIfLin1ELi1ELi0ELin1ELi1EEEEENS_4hashISB_EENS5_8equal_toISB_EENS9_INS5_4pairIKSB_SE_EEEEE5clearEv, symObjAddr: 0x13334, symBinAddr: 0x100016F2C, symSize: 0x160 }
  - { offsetInCU: 0x404F77, offset: 0x404F77, size: 0x8, addend: 0x0, symName: __ZN5boost9unordered6detail3foa10table_coreINS2_14flat_map_typesINSt3__112basic_stringIcNS5_11char_traitsIcEENS5_9allocatorIcEEEEN5Eigen6MatrixIfLin1ELi1ELi0ELin1ELi1EEEEENS2_7group15INS2_15atomic_integralEEENS2_23concurrent_table_arraysENS2_19atomic_size_controlENS_4hashISB_EENS5_8equal_toISB_EENS9_INS5_4pairIKSB_SE_EEEEE5clearEv, symObjAddr: 0x13494, symBinAddr: 0x10001708C, symSize: 0x158 }
  - { offsetInCU: 0x405786, offset: 0x405786, size: 0x8, addend: 0x0, symName: __ZNSt3__114__split_bufferINS_12basic_stringIcNS_11char_traitsIcEENS_9allocatorIcEEEERNS4_IS6_EEED1Ev, symObjAddr: 0x13684, symBinAddr: 0x10001727C, symSize: 0x64 }
  - { offsetInCU: 0x405BFD, offset: 0x405BFD, size: 0x8, addend: 0x0, symName: __ZNSt3__128__exception_guard_exceptionsINS_29_AllocatorDestroyRangeReverseINS_9allocatorINS_12basic_stringIcNS_11char_traitsIcEENS2_IcEEEEEEPS7_EEED1B8ue170006Ev, symObjAddr: 0x13B94, symBinAddr: 0x10001778C, symSize: 0x68 }
  - { offsetInCU: 0x406605, offset: 0x406605, size: 0x8, addend: 0x0, symName: __ZNSt3__112__hash_tableINS_17__hash_value_typeIfNS_12basic_stringIcNS_11char_traitsIcEENS_9allocatorIcEEEEEENS_22__unordered_map_hasherIfS8_NS_4hashIfEENS_8equal_toIfEELb1EEENS_21__unordered_map_equalIfS8_SD_SB_Lb1EEENS5_IS8_EEE11__do_rehashILb1EEEvm, symObjAddr: 0x14490, symBinAddr: 0x100018088, symSize: 0x15C }
  - { offsetInCU: 0x406A79, offset: 0x406A79, size: 0x8, addend: 0x0, symName: __ZNSt3__112__hash_tableINS_17__hash_value_typeINS_12basic_stringIcNS_11char_traitsIcEENS_9allocatorIcEEEEfEENS_22__unordered_map_hasherIS7_S8_NS_4hashIS7_EENS_8equal_toIS7_EELb1EEENS_21__unordered_map_equalIS7_S8_SD_SB_Lb1EEENS5_IS8_EEE25__emplace_unique_key_argsIS7_JRKNS_21piecewise_construct_tENS_5tupleIJRKS7_EEENSN_IJEEEEEENS_4pairINS_15__hash_iteratorIPNS_11__hash_nodeIS8_PvEEEEbEERKT_DpOT0_, symObjAddr: 0x145EC, symBinAddr: 0x1000181E4, symSize: 0x3B0 }
  - { offsetInCU: 0x406A8E, offset: 0x406A8E, size: 0x8, addend: 0x0, symName: __ZNSt3__110unique_ptrINS_11__hash_nodeINS_17__hash_value_typeIfNS_12basic_stringIcNS_11char_traitsIcEENS_9allocatorIcEEEEEEPvEENS_22__hash_node_destructorINS6_ISB_EEEEED1B8ue170006Ev, symObjAddr: 0x14444, symBinAddr: 0x10001803C, symSize: 0x4C }
  - { offsetInCU: 0x40701B, offset: 0x40701B, size: 0x8, addend: 0x0, symName: __ZNSt3__112__hash_tableINS_17__hash_value_typeINS_12basic_stringIcNS_11char_traitsIcEENS_9allocatorIcEEEEfEENS_22__unordered_map_hasherIS7_S8_NS_4hashIS7_EENS_8equal_toIS7_EELb1EEENS_21__unordered_map_equalIS7_S8_SD_SB_Lb1EEENS5_IS8_EEE21__construct_node_hashIRKNS_21piecewise_construct_tEJNS_5tupleIJRKS7_EEENSN_IJEEEEEENS_10unique_ptrINS_11__hash_nodeIS8_PvEENS_22__hash_node_destructorINS5_ISV_EEEEEEmOT_DpOT0_, symObjAddr: 0x1499C, symBinAddr: 0x100018594, symSize: 0xE4 }
  - { offsetInCU: 0x407643, offset: 0x407643, size: 0x8, addend: 0x0, symName: __ZNSt3__112__hash_tableINS_17__hash_value_typeINS_12basic_stringIcNS_11char_traitsIcEENS_9allocatorIcEEEEfEENS_22__unordered_map_hasherIS7_S8_NS_4hashIS7_EENS_8equal_toIS7_EELb1EEENS_21__unordered_map_equalIS7_S8_SD_SB_Lb1EEENS5_IS8_EEE11__do_rehashILb1EEEvm, symObjAddr: 0x14ACC, symBinAddr: 0x1000186C4, symSize: 0x15C }
  - { offsetInCU: 0x407AB7, offset: 0x407AB7, size: 0x8, addend: 0x0, symName: __ZNSt3__112__hash_tableINS_17__hash_value_typeIbNS_13unordered_mapIbNS2_IbNS_6vectorIfNS_9allocatorIfEEEENS_4hashIbEENS_8equal_toIbEENS4_INS_4pairIKbS6_EEEEEES8_SA_NS4_INSB_ISC_SF_EEEEEEEENS_22__unordered_map_hasherIbSJ_S8_SA_Lb1EEENS_21__unordered_map_equalIbSJ_SA_S8_Lb1EEENS4_ISJ_EEE25__emplace_unique_key_argsIbJRKNS_21piecewise_construct_tENS_5tupleIJObEEENSU_IJEEEEEENSB_INS_15__hash_iteratorIPNS_11__hash_nodeISJ_PvEEEEbEERKT_DpOT0_, symObjAddr: 0x14C28, symBinAddr: 0x100018820, symSize: 0x2F8 }
  - { offsetInCU: 0x407ACC, offset: 0x407ACC, size: 0x8, addend: 0x0, symName: __ZNSt3__110unique_ptrINS_11__hash_nodeINS_17__hash_value_typeINS_12basic_stringIcNS_11char_traitsIcEENS_9allocatorIcEEEEfEEPvEENS_22__hash_node_destructorINS6_ISB_EEEEED1B8ue170006Ev, symObjAddr: 0x14A80, symBinAddr: 0x100018678, symSize: 0x4C }
  - { offsetInCU: 0x4088FD, offset: 0x4088FD, size: 0x8, addend: 0x0, symName: __ZNSt3__112__hash_tableINS_17__hash_value_typeIbNS_13unordered_mapIbNS2_IbNS_6vectorIfNS_9allocatorIfEEEENS_4hashIbEENS_8equal_toIbEENS4_INS_4pairIKbS6_EEEEEES8_SA_NS4_INSB_ISC_SF_EEEEEEEENS_22__unordered_map_hasherIbSJ_S8_SA_Lb1EEENS_21__unordered_map_equalIbSJ_SA_S8_Lb1EEENS4_ISJ_EEE11__do_rehashILb1EEEvm, symObjAddr: 0x14F64, symBinAddr: 0x100018B5C, symSize: 0x15C }
  - { offsetInCU: 0x408D71, offset: 0x408D71, size: 0x8, addend: 0x0, symName: __ZNSt3__112__hash_tableINS_17__hash_value_typeIbNS_13unordered_mapIbNS_6vectorIfNS_9allocatorIfEEEENS_4hashIbEENS_8equal_toIbEENS4_INS_4pairIKbS6_EEEEEEEENS_22__unordered_map_hasherIbSG_S8_SA_Lb1EEENS_21__unordered_map_equalIbSG_SA_S8_Lb1EEENS4_ISG_EEED2Ev, symObjAddr: 0x150C0, symBinAddr: 0x100018CB8, symSize: 0xA0 }
  - { offsetInCU: 0x408D86, offset: 0x408D86, size: 0x8, addend: 0x0, symName: __ZNSt3__110unique_ptrINS_11__hash_nodeINS_17__hash_value_typeIbNS_13unordered_mapIbNS3_IbNS_6vectorIfNS_9allocatorIfEEEENS_4hashIbEENS_8equal_toIbEENS5_INS_4pairIKbS7_EEEEEES9_SB_NS5_INSC_ISD_SG_EEEEEEEEPvEENS_22__hash_node_destructorINS5_ISM_EEEEED1B8ue170006Ev, symObjAddr: 0x14F20, symBinAddr: 0x100018B18, symSize: 0x44 }
  - { offsetInCU: 0x409BC8, offset: 0x409BC8, size: 0x8, addend: 0x0, symName: __ZNSt3__112__hash_tableINS_17__hash_value_typeIbNS_13unordered_mapIbNS_6vectorIfNS_9allocatorIfEEEENS_4hashIbEENS_8equal_toIbEENS4_INS_4pairIKbS6_EEEEEEEENS_22__unordered_map_hasherIbSG_S8_SA_Lb1EEENS_21__unordered_map_equalIbSG_SA_S8_Lb1EEENS4_ISG_EEE11__do_rehashILb1EEEvm, symObjAddr: 0x154DC, symBinAddr: 0x1000190D4, symSize: 0x15C }
  - { offsetInCU: 0x40A03C, offset: 0x40A03C, size: 0x8, addend: 0x0, symName: __ZNSt3__112__hash_tableINS_17__hash_value_typeIbNS_6vectorIfNS_9allocatorIfEEEEEENS_22__unordered_map_hasherIbS6_NS_4hashIbEENS_8equal_toIbEELb1EEENS_21__unordered_map_equalIbS6_SB_S9_Lb1EEENS3_IS6_EEE25__emplace_unique_key_argsIbJRKNS_21piecewise_construct_tENS_5tupleIJObEEENSL_IJEEEEEENS_4pairINS_15__hash_iteratorIPNS_11__hash_nodeIS6_PvEEEEbEERKT_DpOT0_, symObjAddr: 0x15638, symBinAddr: 0x100019230, symSize: 0x2EC }
  - { offsetInCU: 0x40A051, offset: 0x40A051, size: 0x8, addend: 0x0, symName: __ZNSt3__110unique_ptrINS_11__hash_nodeINS_17__hash_value_typeIbNS_13unordered_mapIbNS_6vectorIfNS_9allocatorIfEEEENS_4hashIbEENS_8equal_toIbEENS5_INS_4pairIKbS7_EEEEEEEEPvEENS_22__hash_node_destructorINS5_ISJ_EEEEED1B8ue170006Ev, symObjAddr: 0x15458, symBinAddr: 0x100019050, symSize: 0x84 }
  - { offsetInCU: 0x40ACA3, offset: 0x40ACA3, size: 0x8, addend: 0x0, symName: __ZNSt3__112__hash_tableINS_17__hash_value_typeIbNS_6vectorIfNS_9allocatorIfEEEEEENS_22__unordered_map_hasherIbS6_NS_4hashIbEENS_8equal_toIbEELb1EEENS_21__unordered_map_equalIbS6_SB_S9_Lb1EEENS3_IS6_EEE11__do_rehashILb1EEEvm, symObjAddr: 0x15970, symBinAddr: 0x100019568, symSize: 0x15C }
  - { offsetInCU: 0x40B117, offset: 0x40B117, size: 0x8, addend: 0x0, symName: __ZNSt3__16vectorIfNS_9allocatorIfEEE18__assign_with_sizeB8ue170006IPfS5_EEvT_T0_l, symObjAddr: 0x15ACC, symBinAddr: 0x1000196C4, symSize: 0x144 }
  - { offsetInCU: 0x40B12C, offset: 0x40B12C, size: 0x8, addend: 0x0, symName: __ZNSt3__110unique_ptrINS_11__hash_nodeINS_17__hash_value_typeIbNS_6vectorIfNS_9allocatorIfEEEEEEPvEENS_22__hash_node_destructorINS4_IS9_EEEEED1B8ue170006Ev, symObjAddr: 0x15924, symBinAddr: 0x10001951C, symSize: 0x4C }
  - { offsetInCU: 0x40B9DB, offset: 0x40B9DB, size: 0x8, addend: 0x0, symName: __ZNKSt3__16vectorIiNS_9allocatorIiEEE20__throw_length_errorB8ue170006Ev, symObjAddr: 0x17FC0, symBinAddr: 0x10001BBB8, symSize: 0x14 }
  - { offsetInCU: 0x40BA04, offset: 0x40BA04, size: 0x8, addend: 0x0, symName: __ZN5boost11hash_detail10hash_rangeIPKcEENSt3__19enable_ifIXaaaasr12is_char_typeINS4_15iterator_traitsIT_E10value_typeEEE5valuesr3std7is_sameINS8_17iterator_categoryENS4_26random_access_iterator_tagEEE5valuegtL_ZNS4_14numeric_limitsImE6digitsEELi32EEmE4typeEmS7_S7_, symObjAddr: 0x17FD4, symBinAddr: 0x10001BBCC, symSize: 0xF8 }
  - { offsetInCU: 0x40C262, offset: 0x40C262, size: 0x8, addend: 0x0, symName: __ZN5Board3PSOEv, symObjAddr: 0x19B78, symBinAddr: 0x10001D770, symSize: 0x9FC }
  - { offsetInCU: 0x40EF51, offset: 0x40EF51, size: 0x8, addend: 0x0, symName: __ZNK5Board20expression_evaluatorERKN5Eigen6MatrixIfLin1ELi1ELi0ELin1ELi1EEE, symObjAddr: 0x1B8B8, symBinAddr: 0x10001F4B0, symSize: 0x2100 }
  - { offsetInCU: 0x418759, offset: 0x418759, size: 0x8, addend: 0x0, symName: __ZNSt3__112__hash_tableINS_17__hash_value_typeINS_12basic_stringIcNS_11char_traitsIcEENS_9allocatorIcEEEEN5Eigen6MatrixIfLin1ELi1ELi0ELin1ELi1EEEEENS_22__unordered_map_hasherIS7_SB_NS_4hashIS7_EENS_8equal_toIS7_EELb1EEENS_21__unordered_map_equalIS7_SB_SG_SE_Lb1EEENS5_ISB_EEE25__emplace_unique_key_argsIS7_JRKNS_21piecewise_construct_tENS_5tupleIJRKS7_EEENSQ_IJEEEEEENS_4pairINS_15__hash_iteratorIPNS_11__hash_nodeISB_PvEEEEbEERKT_DpOT0_, symObjAddr: 0x4EA40, symBinAddr: 0x100052638, symSize: 0x3B0 }
  - { offsetInCU: 0x418DC0, offset: 0x418DC0, size: 0x8, addend: 0x0, symName: __ZN5Board6LBFGSBEv, symObjAddr: 0x1B158, symBinAddr: 0x10001ED50, symSize: 0x4DC }
  - { offsetInCU: 0x41B2CA, offset: 0x41B2CA, size: 0x8, addend: 0x0, symName: __ZN5Board5LBFGSEv, symObjAddr: 0x1AD98, symBinAddr: 0x10001E990, symSize: 0x3C0 }
  - { offsetInCU: 0x41D059, offset: 0x41D059, size: 0x8, addend: 0x0, symName: __ZN5Board18LevenbergMarquardtEv, symObjAddr: 0x1B634, symBinAddr: 0x10001F22C, symSize: 0x284 }
  - { offsetInCU: 0x41EF0E, offset: 0x41EF0E, size: 0x8, addend: 0x0, symName: __ZN5boost9unordered6detail3foa16concurrent_tableINS2_14flat_map_typesINSt3__112basic_stringIcNS5_11char_traitsIcEENS5_9allocatorIcEEEEN5Eigen6MatrixIfLin1ELi1ELi0ELin1ELi1EEEEENS_4hashISB_EENS5_8equal_toISB_EENS9_INS5_4pairIKSB_SE_EEEEE14rehash_if_fullEv, symObjAddr: 0x1882C, symBinAddr: 0x10001C424, symSize: 0x18C }
  - { offsetInCU: 0x41F700, offset: 0x41F700, size: 0x8, addend: 0x0, symName: __ZN5boost4mp116detail16tuple_apply_implINS_9unordered6detail3foa16concurrent_tableINS5_14flat_map_typesINSt3__112basic_stringIcNS8_11char_traitsIcEENS8_9allocatorIcEEEEN5Eigen6MatrixIfLin1ELi1ELi0ELin1ELi1EEEEENS_4hashISE_EENS8_8equal_toISE_EENSC_INS8_4pairIKSE_SH_EEEEE26call_emplace_or_visit_implENS8_5tupleIJPSR_NS8_17integral_constantIbLb1EEEOZNS3_19concurrent_flat_mapISE_SH_SK_SM_SQ_E16insert_or_assignISH_EEbRSO_OT_EUlRSP_E_ONS5_18try_emplace_args_tES10_OSH_EEEJLm0ELm1ELm2ELm3ELm4ELm5EEEEDTclclsr3stdE7forwardIS11_Efp_Espcl3getIXT1_EEclsr3stdE7forwardIT0_Efp0_EEEES12_OS1A_NS0_16integer_sequenceImJXspT1_EEEE.cold.1, symObjAddr: 0x60F18, symBinAddr: 0x1000652FC, symSize: 0x24 }
  - { offsetInCU: 0x41F7AF, offset: 0x41F7AF, size: 0x8, addend: 0x0, symName: __ZN5boost9unordered6detail3foa16concurrent_tableINS2_14flat_map_typesINSt3__112basic_stringIcNS5_11char_traitsIcEENS5_9allocatorIcEEEEN5Eigen6MatrixIfLin1ELi1ELi0ELin1ELi1EEEEENS_4hashISB_EENS5_8equal_toISB_EENS9_INS5_4pairIKSB_SE_EEEEE12reserve_slotD1Ev, symObjAddr: 0x189B8, symBinAddr: 0x10001C5B0, symSize: 0x5C }
  - { offsetInCU: 0x41F866, offset: 0x41F866, size: 0x8, addend: 0x0, symName: __ZN5boost9unordered6detail3foa10table_coreINS2_14flat_map_typesINSt3__112basic_stringIcNS5_11char_traitsIcEENS5_9allocatorIcEEEEN5Eigen6MatrixIfLin1ELi1ELi0ELin1ELi1EEEEENS2_7group15INS2_15atomic_integralEEENS2_23concurrent_table_arraysENS2_19atomic_size_controlENS_4hashISB_EENS5_8equal_toISB_EENS9_INS5_4pairIKSB_SE_EEEEE27unchecked_rehash_for_growthEv, symObjAddr: 0x18A14, symBinAddr: 0x10001C60C, symSize: 0x80 }
  - { offsetInCU: 0x41FA0D, offset: 0x41FA0D, size: 0x8, addend: 0x0, symName: __ZN5boost9unordered6detail3foa16concurrent_tableINS2_14flat_map_typesINSt3__112basic_stringIcNS5_11char_traitsIcEENS5_9allocatorIcEEEEN5Eigen6MatrixIfLin1ELi1ELi0ELin1ELi1EEEEENS_4hashISB_EENS5_8equal_toISB_EENS9_INS5_4pairIKSB_SE_EEEEE14rehash_if_fullEv.cold.1, symObjAddr: 0x60F3C, symBinAddr: 0x100065320, symSize: 0x24 }
  - { offsetInCU: 0x41FABB, offset: 0x41FABB, size: 0x8, addend: 0x0, symName: __ZN5boost9unordered6detail3foa23concurrent_table_arraysINSt3__14pairIKNS4_12basic_stringIcNS4_11char_traitsIcEENS4_9allocatorIcEEEEN5Eigen6MatrixIfLin1ELi1ELi0ELin1ELi1EEEEENS2_7group15INS2_15atomic_integralEEENS2_16pow2_size_policyENS9_ISG_EEE4new_ENS9_INS2_12group_accessEEEm, symObjAddr: 0x18D90, symBinAddr: 0x10001C988, symSize: 0x168 }
  - { offsetInCU: 0x4200D6, offset: 0x4200D6, size: 0x8, addend: 0x0, symName: __ZN5boost9unordered6detail3foa10table_coreINS2_14flat_map_typesINSt3__112basic_stringIcNS5_11char_traitsIcEENS5_9allocatorIcEEEEN5Eigen6MatrixIfLin1ELi1ELi0ELin1ELi1EEEEENS2_7group15INS2_15atomic_integralEEENS2_23concurrent_table_arraysENS2_19atomic_size_controlENS_4hashISB_EENS5_8equal_toISB_EENS9_INS5_4pairIKSB_SE_EEEEE16unchecked_rehashERNSJ_ISR_SI_NS2_16pow2_size_policyESS_EE, symObjAddr: 0x18A94, symBinAddr: 0x10001C68C, symSize: 0x2FC }
  - { offsetInCU: 0x421315, offset: 0x421315, size: 0x8, addend: 0x0, symName: __ZN5boost9unordered6detail3foa10table_coreINS2_14flat_map_typesINSt3__112basic_stringIcNS5_11char_traitsIcEENS5_9allocatorIcEEEEN5Eigen6MatrixIfLin1ELi1ELi0ELin1ELi1EEEEENS2_7group15INS2_15atomic_integralEEENS2_23concurrent_table_arraysENS2_19atomic_size_controlENS_4hashISB_EENS5_8equal_toISB_EENS9_INS5_4pairIKSB_SE_EEEEE23nosize_transfer_elementEPSR_mRKNSJ_ISR_SI_NS2_16pow2_size_policyESS_EERmNS5_17integral_constantIbLb1EEE, symObjAddr: 0x190EC, symBinAddr: 0x10001CCE4, symSize: 0x184 }
  - { offsetInCU: 0x421B38, offset: 0x421B38, size: 0x8, addend: 0x0, symName: __ZNK5boost9unordered6detail3foa10table_coreINS2_14flat_map_typesINSt3__112basic_stringIcNS5_11char_traitsIcEENS5_9allocatorIcEEEEN5Eigen6MatrixIfLin1ELi1ELi0ELin1ELi1EEEEENS2_7group15INS2_15atomic_integralEEENS2_23concurrent_table_arraysENS2_19atomic_size_controlENS_4hashISB_EENS5_8equal_toISB_EENS9_INS5_4pairIKSB_SE_EEEEE22for_all_elements_whileIZNST_16unchecked_rehashERNSJ_ISR_SI_NS2_16pow2_size_policyESS_EEEUlPSI_jPSR_E_EEbT_, symObjAddr: 0x18EF8, symBinAddr: 0x10001CAF0, symSize: 0xF0 }
  - { offsetInCU: 0x421B6D, offset: 0x421B6D, size: 0x8, addend: 0x0, symName: __ZNK5boost9unordered6detail3foa10table_coreINS2_14flat_map_typesINSt3__112basic_stringIcNS5_11char_traitsIcEENS5_9allocatorIcEEEEN5Eigen6MatrixIfLin1ELi1ELi0ELin1ELi1EEEEENS2_7group15INS2_15atomic_integralEEENS2_23concurrent_table_arraysENS2_19atomic_size_controlENS_4hashISB_EENS5_8equal_toISB_EENS9_INS5_4pairIKSB_SE_EEEEE22for_all_elements_whileIZNST_16unchecked_rehashERNSJ_ISR_SI_NS2_16pow2_size_policyESS_EEEUlPSI_jPSR_E_EEbT_, symObjAddr: 0x18EF8, symBinAddr: 0x10001CAF0, symSize: 0xF0 }
  - { offsetInCU: 0x421B9D, offset: 0x421B9D, size: 0x8, addend: 0x0, symName: __ZNK5boost9unordered6detail3foa10table_coreINS2_14flat_map_typesINSt3__112basic_stringIcNS5_11char_traitsIcEENS5_9allocatorIcEEEEN5Eigen6MatrixIfLin1ELi1ELi0ELin1ELi1EEEEENS2_7group15INS2_15atomic_integralEEENS2_23concurrent_table_arraysENS2_19atomic_size_controlENS_4hashISB_EENS5_8equal_toISB_EENS9_INS5_4pairIKSB_SE_EEEEE22for_all_elements_whileIZNST_16unchecked_rehashERNSJ_ISR_SI_NS2_16pow2_size_policyESS_EEEUlPSI_jPSR_E_EEbT_, symObjAddr: 0x18EF8, symBinAddr: 0x10001CAF0, symSize: 0xF0 }
  - { offsetInCU: 0x421FE0, offset: 0x421FE0, size: 0x8, addend: 0x0, symName: __ZN5boost9unordered6detail3foa10table_coreINS2_14flat_map_typesINSt3__112basic_stringIcNS5_11char_traitsIcEENS5_9allocatorIcEEEEN5Eigen6MatrixIfLin1ELi1ELi0ELin1ELi1EEEEENS2_7group15INS2_15atomic_integralEEENS2_23concurrent_table_arraysENS2_19atomic_size_controlENS_4hashISB_EENS5_8equal_toISB_EENS9_INS5_4pairIKSB_SE_EEEEE16for_all_elementsIZNST_16unchecked_rehashERNSJ_ISR_SI_NS2_16pow2_size_policyESS_EEEUlPSR_E0_EEDTcmclfp0_LDnEEcvv_EERKSW_T_, symObjAddr: 0x18FE8, symBinAddr: 0x10001CBE0, symSize: 0x104 }
  - { offsetInCU: 0x422DB8, offset: 0x422DB8, size: 0x8, addend: 0x0, symName: __ZN5boost9unordered6detail3foa10table_coreINS2_14flat_map_typesINSt3__112basic_stringIcNS5_11char_traitsIcEENS5_9allocatorIcEEEEN5Eigen6MatrixIfLin1ELi1ELi0ELin1ELi1EEEEENS2_7group15INS2_15atomic_integralEEENS2_23concurrent_table_arraysENS2_19atomic_size_controlENS_4hashISB_EENS5_8equal_toISB_EENS9_INS5_4pairIKSB_SE_EEEEE23destroy_element_on_exitD1Ev, symObjAddr: 0x19270, symBinAddr: 0x10001CE68, symSize: 0x3C }
  - { offsetInCU: 0x42361A, offset: 0x42361A, size: 0x8, addend: 0x0, symName: __ZNSt3__14pairIKNS_12basic_stringIcNS_11char_traitsIcEENS_9allocatorIcEEEEN5Eigen6MatrixIfLin1ELi1ELi0ELin1ELi1EEEEC1B8ue170006IJRS7_EJRSA_EEENS_21piecewise_construct_tENS_5tupleIJDpT_EEENSG_IJDpT0_EEE, symObjAddr: 0x19A94, symBinAddr: 0x10001D68C, symSize: 0xE4 }
  - { offsetInCU: 0x423C5E, offset: 0x423C5E, size: 0x8, addend: 0x0, symName: __ZN5boost4mp116detail16tuple_apply_implINS_9unordered6detail3foa16concurrent_tableINS5_14flat_map_typesINSt3__112basic_stringIcNS8_11char_traitsIcEENS8_9allocatorIcEEEEN5Eigen6MatrixIfLin1ELi1ELi0ELin1ELi1EEEEENS_4hashISE_EENS8_8equal_toISE_EENSC_INS8_4pairIKSE_SH_EEEEE26call_emplace_or_visit_implENS8_5tupleIJPSR_NS8_17integral_constantIbLb1EEEOZNS3_19concurrent_flat_mapISE_SH_SK_SM_SQ_E16insert_or_assignIRSH_EEbRSO_OT_EUlRSP_E_ONS5_18try_emplace_args_tES11_S10_EEEJLm0ELm1ELm2ELm3ELm4ELm5EEEEDTclclsr3stdE7forwardIS12_Efp_Espcl3getIXT1_EEclsr3stdE7forwardIT0_Efp0_EEEES13_OS1A_NS0_16integer_sequenceImJXspT1_EEEE.cold.1, symObjAddr: 0x60F60, symBinAddr: 0x100065344, symSize: 0x24 }
  - { offsetInCU: 0x424375, offset: 0x424375, size: 0x8, addend: 0x0, symName: __ZNSt3__16vectorINS_6futureIvEENS_9allocatorIS2_EEE7reserveEm, symObjAddr: 0x1D9B8, symBinAddr: 0x1000215B0, symSize: 0xD4 }
  - { offsetInCU: 0x42476E, offset: 0x42476E, size: 0x8, addend: 0x0, symName: __ZNSt3__15asyncB8ue170006IRZN5Board8AsyncPSOEvEUliE_JRiEEENS_6futureINS_11__invoke_ofIu7__decayIT_EJDpu7__decayIT0_EEE4typeEEENS_6launchEOS7_DpOS9_, symObjAddr: 0x1DA8C, symBinAddr: 0x100021684, symSize: 0x180 }
  - { offsetInCU: 0x424780, offset: 0x424780, size: 0x8, addend: 0x0, symName: __ZNKSt3__16vectorINS_6futureIvEENS_9allocatorIS2_EEE20__throw_length_errorB8ue170006Ev, symObjAddr: 0x1DC64, symBinAddr: 0x10002185C, symSize: 0x14 }
  - { offsetInCU: 0x4247A9, offset: 0x4247A9, size: 0x8, addend: 0x0, symName: __ZNSt3__124__make_async_assoc_stateB8ue170006IvNS_12__async_funcIZN5Board8AsyncPSOEvEUliE_JiEEEEENS_6futureIT_EEOT0_, symObjAddr: 0x1DC78, symBinAddr: 0x100021870, symSize: 0x128 }
  - { offsetInCU: 0x4247B4, offset: 0x4247B4, size: 0x8, addend: 0x0, symName: __ZNSt3__16vectorINS_6futureIvEENS_9allocatorIS2_EEED1B8ue170006Ev, symObjAddr: 0x1DC0C, symBinAddr: 0x100021804, symSize: 0x58 }
  - { offsetInCU: 0x424DB9, offset: 0x424DB9, size: 0x8, addend: 0x0, symName: __ZN7LBFGSpp11LBFGSSolverIfNS_21LineSearchMoreThuenteEEC2ERKNS_10LBFGSParamIfEE, symObjAddr: 0x1F9C4, symBinAddr: 0x1000235BC, symSize: 0xBC }
  - { offsetInCU: 0x4255B2, offset: 0x4255B2, size: 0x8, addend: 0x0, symName: __ZN7LBFGSpp11LBFGSSolverIfNS_21LineSearchMoreThuenteEE8minimizeI5BoardEEiRT_RN5Eigen6MatrixIfLin1ELi1ELi0ELin1ELi1EEERf, symObjAddr: 0x1E680, symBinAddr: 0x100022278, symSize: 0x12F4 }
  - { offsetInCU: 0x42C416, offset: 0x42C416, size: 0x8, addend: 0x0, symName: __ZN7LBFGSpp11LBFGSSolverIfNS_21LineSearchMoreThuenteEED1Ev, symObjAddr: 0x1F974, symBinAddr: 0x10002356C, symSize: 0x50 }
  - { offsetInCU: 0x42CC8C, offset: 0x42CC8C, size: 0x8, addend: 0x0, symName: __ZN7LBFGSpp12LBFGSBSolverIfNS_21LineSearchMoreThuenteEEC2ERKNS_11LBFGSBParamIfEE, symObjAddr: 0x2ABC8, symBinAddr: 0x10002E7C0, symSize: 0xBC }
  - { offsetInCU: 0x42D474, offset: 0x42D474, size: 0x8, addend: 0x0, symName: __ZN7LBFGSpp12LBFGSBSolverIfNS_21LineSearchMoreThuenteEE8minimizeI5BoardEEiRT_RN5Eigen6MatrixIfLin1ELi1ELi0ELin1ELi1EEERfRKS9_SD_, symObjAddr: 0x29334, symBinAddr: 0x10002CF2C, symSize: 0x1844 }
  - { offsetInCU: 0x4355FF, offset: 0x4355FF, size: 0x8, addend: 0x0, symName: __ZN7LBFGSpp12LBFGSBSolverIfNS_21LineSearchMoreThuenteEED1Ev, symObjAddr: 0x2AB78, symBinAddr: 0x10002E770, symSize: 0x50 }
  - { offsetInCU: 0x435D42, offset: 0x435D42, size: 0x8, addend: 0x0, symName: __ZN5Eigen18LevenbergMarquardtIR5BoardfE12minimizeInitERNS_6MatrixIfLin1ELi1ELi0ELin1ELi1EEE, symObjAddr: 0x411B0, symBinAddr: 0x100044DA8, symSize: 0x3A0 }
  - { offsetInCU: 0x436647, offset: 0x436647, size: 0x8, addend: 0x0, symName: __ZN5Eigen18LevenbergMarquardtIR5BoardfE15minimizeOneStepERNS_6MatrixIfLin1ELi1ELi0ELin1ELi1EEE, symObjAddr: 0x41550, symBinAddr: 0x100045148, symSize: 0x1720 }
  - { offsetInCU: 0x43C554, offset: 0x43C554, size: 0x8, addend: 0x0, symName: __ZN5Eigen18LevenbergMarquardtIR5BoardfED1Ev, symObjAddr: 0x41148, symBinAddr: 0x100044D40, symSize: 0x68 }
  - { offsetInCU: 0x43EFAD, offset: 0x43EFAD, size: 0x8, addend: 0x0, symName: __ZNSt3__15dequeIKN5Eigen6MatrixIfLin1ELi1ELi0ELin1ELi1EEENS_9allocatorIS4_EEE19__add_back_capacityEv, symObjAddr: 0x4C620, symBinAddr: 0x100050218, symSize: 0x4B0 }
  - { offsetInCU: 0x43FEC8, offset: 0x43FEC8, size: 0x8, addend: 0x0, symName: __ZN5Eigen15PlainObjectBaseINS_6MatrixIfLin1ELi1ELi0ELin1ELi1EEEEC2INS_13CwiseBinaryOpINS_8internal17scalar_product_opIffEEKNS_12ArrayWrapperIS2_EESB_EEEERKNS_9DenseBaseIT_EE, symObjAddr: 0x4E544, symBinAddr: 0x10005213C, symSize: 0x1D4 }
  - { offsetInCU: 0x4407AA, offset: 0x4407AA, size: 0x8, addend: 0x0, symName: __ZNSt3__15stackIKN5Eigen6MatrixIfLin1ELi1ELi0ELin1ELi1EEENS_5dequeIS4_NS_9allocatorIS4_EEEEE3popB8ue170006Ev, symObjAddr: 0x4C58C, symBinAddr: 0x100050184, symSize: 0x94 }
  - { offsetInCU: 0x440AF0, offset: 0x440AF0, size: 0x8, addend: 0x0, symName: __ZN5Eigen15PlainObjectBaseINS_6MatrixIfLin1ELi1ELi0ELin1ELi1EEEEC2INS_12CwiseUnaryOpINS_8internal14scalar_tanh_opIfEEKNS_12ArrayWrapperIS2_EEEEEERKNS_9DenseBaseIT_EE, symObjAddr: 0x4DAAC, symBinAddr: 0x1000516A4, symSize: 0x46C }
  - { offsetInCU: 0x4416C4, offset: 0x4416C4, size: 0x8, addend: 0x0, symName: __ZNSt3__15stackIKN5Eigen6MatrixIfLin1ELi1ELi0ELin1ELi1EEENS_5dequeIS4_NS_9allocatorIS4_EEEEE4pushB8ue170006EOS4_, symObjAddr: 0x4C4D8, symBinAddr: 0x1000500D0, symSize: 0xB4 }
  - { offsetInCU: 0x441933, offset: 0x441933, size: 0x8, addend: 0x0, symName: __ZN5Eigen15PlainObjectBaseINS_6MatrixIfLin1ELi1ELi0ELin1ELi1EEEEC2INS_12CwiseUnaryOpINS_8internal14scalar_acos_opIfEEKNS_12ArrayWrapperIS2_EEEEEERKNS_9DenseBaseIT_EE, symObjAddr: 0x4DF18, symBinAddr: 0x100051B10, symSize: 0xF0 }
  - { offsetInCU: 0x441EE3, offset: 0x441EE3, size: 0x8, addend: 0x0, symName: __ZN5Eigen15PlainObjectBaseINS_6MatrixIfLin1ELi1ELi0ELin1ELi1EEEEC2INS_12CwiseUnaryOpINS_8internal18scalar_opposite_opIfEEKNS_12ArrayWrapperIS2_EEEEEERKNS_9DenseBaseIT_EE, symObjAddr: 0x4E008, symBinAddr: 0x100051C00, symSize: 0x194 }
  - { offsetInCU: 0x4425C2, offset: 0x4425C2, size: 0x8, addend: 0x0, symName: __ZN5Eigen15PlainObjectBaseINS_6MatrixIfLin1ELi1ELi0ELin1ELi1EEEEC2INS_12CwiseUnaryOpINS_8internal13scalar_cos_opIfEEKNS_12ArrayWrapperIS2_EEEEEERKNS_9DenseBaseIT_EE, symObjAddr: 0x4CF98, symBinAddr: 0x100050B90, symSize: 0x1D0 }
  - { offsetInCU: 0x442D1E, offset: 0x442D1E, size: 0x8, addend: 0x0, symName: __ZN5Eigen15PlainObjectBaseINS_6MatrixIfLin1ELi1ELi0ELin1ELi1EEEEC2INS_13CwiseBinaryOpINS_8internal20scalar_difference_opIffEEKNS_12ArrayWrapperIS2_EESB_EEEERKNS_9DenseBaseIT_EE, symObjAddr: 0x4E370, symBinAddr: 0x100051F68, symSize: 0x1D4 }
  - { offsetInCU: 0x443601, offset: 0x443601, size: 0x8, addend: 0x0, symName: __ZN5Eigen15PlainObjectBaseINS_6MatrixIfLin1ELi1ELi0ELin1ELi1EEEEC2INS_13CwiseBinaryOpINS_8internal18scalar_quotient_opIffEEKNS_12ArrayWrapperIS2_EESB_EEEERKNS_9DenseBaseIT_EE, symObjAddr: 0x4E718, symBinAddr: 0x100052310, symSize: 0x1D4 }
  - { offsetInCU: 0x443EE4, offset: 0x443EE4, size: 0x8, addend: 0x0, symName: __ZN5Eigen15PlainObjectBaseINS_6MatrixIfLin1ELi1ELi0ELin1ELi1EEEEC2INS_13CwiseBinaryOpINS_8internal13scalar_sum_opIffEEKNS_12ArrayWrapperIS2_EESB_EEEERKNS_9DenseBaseIT_EE, symObjAddr: 0x4E19C, symBinAddr: 0x100051D94, symSize: 0x1D4 }
  - { offsetInCU: 0x4447C6, offset: 0x4447C6, size: 0x8, addend: 0x0, symName: __ZN5Eigen15PlainObjectBaseINS_6MatrixIfLin1ELi1ELi0ELin1ELi1EEEEC2INS_12CwiseUnaryOpINS_8internal13scalar_sin_opIfEEKNS_12ArrayWrapperIS2_EEEEEERKNS_9DenseBaseIT_EE, symObjAddr: 0x4D524, symBinAddr: 0x10005111C, symSize: 0x1D0 }
  - { offsetInCU: 0x444F22, offset: 0x444F22, size: 0x8, addend: 0x0, symName: __ZNSt3__15dequeIKN5Eigen6MatrixIfLin1ELi1ELi0ELin1ELi1EEENS_9allocatorIS4_EEED2B8ue170006Ev, symObjAddr: 0x4E8EC, symBinAddr: 0x1000524E4, symSize: 0x154 }
  - { offsetInCU: 0x445BF5, offset: 0x445BF5, size: 0x8, addend: 0x0, symName: __ZNSt3__16threadC2IMNS_19__async_assoc_stateIvNS_12__async_funcIZN5Board8AsyncPSOEvEUliE_JiEEEEEFvvEJPS7_EvEEOT_DpOT0_, symObjAddr: 0x1E390, symBinAddr: 0x100021F88, symSize: 0xD0 }
  - { offsetInCU: 0x445FEB, offset: 0x445FEB, size: 0x8, addend: 0x0, symName: __ZNSt3__119__async_assoc_stateIvNS_12__async_funcIZN5Board8AsyncPSOEvEUliE_JiEEEED1Ev, symObjAddr: 0x1DDA0, symBinAddr: 0x100021998, symSize: 0x4C }
  - { offsetInCU: 0x446068, offset: 0x446068, size: 0x8, addend: 0x0, symName: __ZNSt3__119__async_assoc_stateIvNS_12__async_funcIZN5Board8AsyncPSOEvEUliE_JiEEEED0Ev, symObjAddr: 0x1DDEC, symBinAddr: 0x1000219E4, symSize: 0x50 }
  - { offsetInCU: 0x4460ED, offset: 0x4460ED, size: 0x8, addend: 0x0, symName: __ZNSt3__119__async_assoc_stateIvNS_12__async_funcIZN5Board8AsyncPSOEvEUliE_JiEEEE16__on_zero_sharedEv, symObjAddr: 0x1DE3C, symBinAddr: 0x100021A34, symSize: 0x28 }
  - { offsetInCU: 0x446158, offset: 0x446158, size: 0x8, addend: 0x0, symName: __ZNSt3__119__async_assoc_stateIvNS_12__async_funcIZN5Board8AsyncPSOEvEUliE_JiEEEE9__executeEv, symObjAddr: 0x1DE64, symBinAddr: 0x100021A5C, symSize: 0x7C }
  - { offsetInCU: 0x446209, offset: 0x446209, size: 0x8, addend: 0x0, symName: __ZZN5Board8AsyncPSOEvENKUliE_clEi, symObjAddr: 0x1DEE0, symBinAddr: 0x100021AD8, symSize: 0x4B0 }
  - { offsetInCU: 0x44799F, offset: 0x44799F, size: 0x8, addend: 0x0, symName: __ZZN5Board8AsyncPSOEvENKUliE_clEi.cold.2, symObjAddr: 0x60FA8, symBinAddr: 0x10006538C, symSize: 0x24 }
  - { offsetInCU: 0x4479CD, offset: 0x4479CD, size: 0x8, addend: 0x0, symName: __ZZN5Board8AsyncPSOEvENKUliE_clEi.cold.9, symObjAddr: 0x610A4, symBinAddr: 0x100065488, symSize: 0x24 }
  - { offsetInCU: 0x4479FB, offset: 0x4479FB, size: 0x8, addend: 0x0, symName: __ZZN5Board8AsyncPSOEvENKUliE_clEi.cold.8, symObjAddr: 0x61080, symBinAddr: 0x100065464, symSize: 0x24 }
  - { offsetInCU: 0x447A29, offset: 0x447A29, size: 0x8, addend: 0x0, symName: __ZZN5Board8AsyncPSOEvENKUliE_clEi.cold.7, symObjAddr: 0x6105C, symBinAddr: 0x100065440, symSize: 0x24 }
  - { offsetInCU: 0x447A57, offset: 0x447A57, size: 0x8, addend: 0x0, symName: __ZZN5Board8AsyncPSOEvENKUliE_clEi.cold.6, symObjAddr: 0x61038, symBinAddr: 0x10006541C, symSize: 0x24 }
  - { offsetInCU: 0x447A85, offset: 0x447A85, size: 0x8, addend: 0x0, symName: __ZZN5Board8AsyncPSOEvENKUliE_clEi.cold.5, symObjAddr: 0x61014, symBinAddr: 0x1000653F8, symSize: 0x24 }
  - { offsetInCU: 0x447AB3, offset: 0x447AB3, size: 0x8, addend: 0x0, symName: __ZZN5Board8AsyncPSOEvENKUliE_clEi.cold.4, symObjAddr: 0x60FF0, symBinAddr: 0x1000653D4, symSize: 0x24 }
  - { offsetInCU: 0x447AE1, offset: 0x447AE1, size: 0x8, addend: 0x0, symName: __ZZN5Board8AsyncPSOEvENKUliE_clEi.cold.1, symObjAddr: 0x60F84, symBinAddr: 0x100065368, symSize: 0x24 }
  - { offsetInCU: 0x447B0F, offset: 0x447B0F, size: 0x8, addend: 0x0, symName: __ZZN5Board8AsyncPSOEvENKUliE_clEi.cold.3, symObjAddr: 0x60FCC, symBinAddr: 0x1000653B0, symSize: 0x24 }
  - { offsetInCU: 0x447FC9, offset: 0x447FC9, size: 0x8, addend: 0x0, symName: __ZNSt3__110unique_ptrINS_5tupleIJNS0_INS_15__thread_structENS_14default_deleteIS2_EEEEMNS_19__async_assoc_stateIvNS_12__async_funcIZN5Board8AsyncPSOEvEUliE_JiEEEEEFvvEPSB_EEENS3_ISF_EEED1B8ue170006Ev, symObjAddr: 0x1E4EC, symBinAddr: 0x1000220E4, symSize: 0x48 }
  - { offsetInCU: 0x448172, offset: 0x448172, size: 0x8, addend: 0x0, symName: __ZNSt3__110unique_ptrINS_15__thread_structENS_14default_deleteIS1_EEED1B8ue170006Ev, symObjAddr: 0x1E534, symBinAddr: 0x10002212C, symSize: 0x34 }
  - { offsetInCU: 0x4484AD, offset: 0x4484AD, size: 0x8, addend: 0x0, symName: __ZNSt3__122__deferred_assoc_stateIvNS_12__async_funcIZN5Board8AsyncPSOEvEUliE_JiEEEED1Ev, symObjAddr: 0x1E568, symBinAddr: 0x100022160, symSize: 0x4C }
  - { offsetInCU: 0x44852A, offset: 0x44852A, size: 0x8, addend: 0x0, symName: __ZNSt3__122__deferred_assoc_stateIvNS_12__async_funcIZN5Board8AsyncPSOEvEUliE_JiEEEED0Ev, symObjAddr: 0x1E5B4, symBinAddr: 0x1000221AC, symSize: 0x50 }
  - { offsetInCU: 0x4485AF, offset: 0x4485AF, size: 0x8, addend: 0x0, symName: __ZNSt3__122__deferred_assoc_stateIvNS_12__async_funcIZN5Board8AsyncPSOEvEUliE_JiEEEE9__executeEv, symObjAddr: 0x1E604, symBinAddr: 0x1000221FC, symSize: 0x7C }
  - { offsetInCU: 0x4495BF, offset: 0x4495BF, size: 0x8, addend: 0x0, symName: __ZN7LBFGSpp11LBFGSSolverIfNS_21LineSearchMoreThuenteEE5resetEi, symObjAddr: 0x1FDA8, symBinAddr: 0x1000239A0, symSize: 0x134 }
  - { offsetInCU: 0x449A19, offset: 0x449A19, size: 0x8, addend: 0x0, symName: __ZN5BoardclERN5Eigen6MatrixIfLin1ELi1ELi0ELin1ELi1EEES3_, symObjAddr: 0x1FEDC, symBinAddr: 0x100023AD4, symSize: 0x948 }
  - { offsetInCU: 0x449A24, offset: 0x449A24, size: 0x8, addend: 0x0, symName: __ZN5BoardclERN5Eigen6MatrixIfLin1ELi1ELi0ELin1ELi1EEES3_, symObjAddr: 0x1FEDC, symBinAddr: 0x100023AD4, symSize: 0x948 }
  - { offsetInCU: 0x44CD76, offset: 0x44CD76, size: 0x8, addend: 0x0, symName: __ZN7LBFGSpp21LineSearchMoreThuenteIfE10LineSearchI5BoardNS_10LBFGSParamIfEEEEvRT_RKT0_RKN5Eigen6MatrixIfLin1ELi1ELi0ELin1ELi1EEESF_RKfRfSI_RSD_SI_SJ_, symObjAddr: 0x20824, symBinAddr: 0x10002441C, symSize: 0xAD4 }
  - { offsetInCU: 0x4501C2, offset: 0x4501C2, size: 0x8, addend: 0x0, symName: __ZN7LBFGSpp7BFGSMatIfLb0EE14add_correctionERKN5Eigen3RefIKNS2_6MatrixIfLin1ELi1ELi0ELin1ELi1EEELi0ENS2_11InnerStrideILi1EEEEESB_, symObjAddr: 0x212F8, symBinAddr: 0x100024EF0, symSize: 0x668 }
  - { offsetInCU: 0x451DBE, offset: 0x451DBE, size: 0x8, addend: 0x0, symName: __ZN7LBFGSpp7BFGSMatIfLb0EE8apply_HvERKN5Eigen6MatrixIfLin1ELi1ELi0ELin1ELi1EEERKfRS4_, symObjAddr: 0x21960, symBinAddr: 0x100025558, symSize: 0x7BC }
  - { offsetInCU: 0x451DC9, offset: 0x451DC9, size: 0x8, addend: 0x0, symName: __ZN7LBFGSpp7BFGSMatIfLb0EE8apply_HvERKN5Eigen6MatrixIfLin1ELi1ELi0ELin1ELi1EEERKfRS4_, symObjAddr: 0x21960, symBinAddr: 0x100025558, symSize: 0x7BC }
  - { offsetInCU: 0x454DB1, offset: 0x454DB1, size: 0x8, addend: 0x0, symName: __ZN7LBFGSpp7BFGSMatIfLb0EE5resetEii, symObjAddr: 0x2211C, symBinAddr: 0x100025D14, symSize: 0x180 }
  - { offsetInCU: 0x454DBC, offset: 0x454DBC, size: 0x8, addend: 0x0, symName: __ZN7LBFGSpp11LBFGSSolverIfNS_21LineSearchMoreThuenteEE8minimizeI5BoardEEiRT_RN5Eigen6MatrixIfLin1ELi1ELi0ELin1ELi1EEERf.cold.6, symObjAddr: 0x6117C, symBinAddr: 0x100065560, symSize: 0x24 }
  - { offsetInCU: 0x454E2A, offset: 0x454E2A, size: 0x8, addend: 0x0, symName: __ZN7LBFGSpp11LBFGSSolverIfNS_21LineSearchMoreThuenteEE8minimizeI5BoardEEiRT_RN5Eigen6MatrixIfLin1ELi1ELi0ELin1ELi1EEERf.cold.5, symObjAddr: 0x61158, symBinAddr: 0x10006553C, symSize: 0x24 }
  - { offsetInCU: 0x454E58, offset: 0x454E58, size: 0x8, addend: 0x0, symName: __ZN7LBFGSpp11LBFGSSolverIfNS_21LineSearchMoreThuenteEE8minimizeI5BoardEEiRT_RN5Eigen6MatrixIfLin1ELi1ELi0ELin1ELi1EEERf.cold.4, symObjAddr: 0x61134, symBinAddr: 0x100065518, symSize: 0x24 }
  - { offsetInCU: 0x454EC6, offset: 0x454EC6, size: 0x8, addend: 0x0, symName: __ZN7LBFGSpp11LBFGSSolverIfNS_21LineSearchMoreThuenteEE8minimizeI5BoardEEiRT_RN5Eigen6MatrixIfLin1ELi1ELi0ELin1ELi1EEERf.cold.1, symObjAddr: 0x610C8, symBinAddr: 0x1000654AC, symSize: 0x24 }
  - { offsetInCU: 0x454F36, offset: 0x454F36, size: 0x8, addend: 0x0, symName: __ZN7LBFGSpp11LBFGSSolverIfNS_21LineSearchMoreThuenteEE8minimizeI5BoardEEiRT_RN5Eigen6MatrixIfLin1ELi1ELi0ELin1ELi1EEERf.cold.2, symObjAddr: 0x610EC, symBinAddr: 0x1000654D0, symSize: 0x24 }
  - { offsetInCU: 0x454FA4, offset: 0x454FA4, size: 0x8, addend: 0x0, symName: __ZN7LBFGSpp11LBFGSSolverIfNS_21LineSearchMoreThuenteEE8minimizeI5BoardEEiRT_RN5Eigen6MatrixIfLin1ELi1ELi0ELin1ELi1EEERf.cold.3, symObjAddr: 0x61110, symBinAddr: 0x1000654F4, symSize: 0x24 }
  - { offsetInCU: 0x45503F, offset: 0x45503F, size: 0x8, addend: 0x0, symName: __ZN7LBFGSpp7BFGSMatIfLb0EED2Ev, symObjAddr: 0x1FCE0, symBinAddr: 0x1000238D8, symSize: 0x78 }
  - { offsetInCU: 0x455A8F, offset: 0x455A8F, size: 0x8, addend: 0x0, symName: __ZNK7LBFGSpp10LBFGSParamIfE11check_paramEv, symObjAddr: 0x1FA80, symBinAddr: 0x100023678, symSize: 0x260 }
  - { offsetInCU: 0x455B52, offset: 0x455B52, size: 0x8, addend: 0x0, symName: __ZN7LBFGSpp6BKLDLTIfED1Ev, symObjAddr: 0x1FD58, symBinAddr: 0x100023950, symSize: 0x50 }
  - { offsetInCU: 0x455FF0, offset: 0x455FF0, size: 0x8, addend: 0x0, symName: __ZN7LBFGSpp7BFGSMatIfLb0EE5resetEii, symObjAddr: 0x2211C, symBinAddr: 0x100025D14, symSize: 0x180 }
  - { offsetInCU: 0x4563ED, offset: 0x4563ED, size: 0x8, addend: 0x0, symName: __ZN7LBFGSpp11LBFGSSolverIfNS_21LineSearchMoreThuenteEE5resetEi.cold.1, symObjAddr: 0x611A0, symBinAddr: 0x100065584, symSize: 0x24 }
  - { offsetInCU: 0x4569B8, offset: 0x4569B8, size: 0x8, addend: 0x0, symName: __ZNSt3__16vectorIN5Eigen14AutoDiffScalarINS1_6MatrixIfLin1ELi1ELi0ELin1ELi1EEEEENS_9allocatorIS5_EEEC1Em, symObjAddr: 0x2229C, symBinAddr: 0x100025E94, symSize: 0x9C }
  - { offsetInCU: 0x456CBF, offset: 0x456CBF, size: 0x8, addend: 0x0, symName: __ZNSt3__16vectorIN5Eigen14AutoDiffScalarINS1_6MatrixIfLin1ELi1ELi0ELin1ELi1EEEEENS_9allocatorIS5_EEE7reserveEm, symObjAddr: 0x22338, symBinAddr: 0x100025F30, symSize: 0x1B0 }
  - { offsetInCU: 0x4575A3, offset: 0x4575A3, size: 0x8, addend: 0x0, symName: __ZN5Board9grad_funcERNSt3__16vectorIN5Eigen14AutoDiffScalarINS2_6MatrixIfLin1ELi1ELi0ELin1ELi1EEEEENS0_9allocatorIS6_EEEE, symObjAddr: 0x224E8, symBinAddr: 0x1000260E0, symSize: 0xE8 }
  - { offsetInCU: 0x457D4E, offset: 0x457D4E, size: 0x8, addend: 0x0, symName: __ZN5BoardclERN5Eigen6MatrixIfLin1ELi1ELi0ELin1ELi1EEES3_.cold.2, symObjAddr: 0x611E8, symBinAddr: 0x1000655CC, symSize: 0x24 }
  - { offsetInCU: 0x457D7C, offset: 0x457D7C, size: 0x8, addend: 0x0, symName: __ZN5BoardclERN5Eigen6MatrixIfLin1ELi1ELi0ELin1ELi1EEES3_.cold.1, symObjAddr: 0x611C4, symBinAddr: 0x1000655A8, symSize: 0x24 }
  - { offsetInCU: 0x457DAA, offset: 0x457DAA, size: 0x8, addend: 0x0, symName: __ZNSt3__16vectorIN5Eigen14AutoDiffScalarINS1_6MatrixIfLin1ELi1ELi0ELin1ELi1EEEEENS_9allocatorIS5_EEED1B8ue170006Ev, symObjAddr: 0x225D0, symBinAddr: 0x1000261C8, symSize: 0x64 }
  - { offsetInCU: 0x4585A9, offset: 0x4585A9, size: 0x8, addend: 0x0, symName: __ZN7LBFGSpp21LineSearchMoreThuenteIfE14step_selectionERKfS3_S3_S3_S3_S3_S3_S3_S3_, symObjAddr: 0x28FB0, symBinAddr: 0x10002CBA8, symSize: 0x224 }
  - { offsetInCU: 0x459191, offset: 0x459191, size: 0x8, addend: 0x0, symName: __ZN7LBFGSpp7BFGSMatIfLb0EE14add_correctionERKN5Eigen3RefIKNS2_6MatrixIfLin1ELi1ELi0ELin1ELi1EEELi0ENS2_11InnerStrideILi1EEEEESB_.cold.2, symObjAddr: 0x61230, symBinAddr: 0x100065614, symSize: 0x24 }
  - { offsetInCU: 0x4591EA, offset: 0x4591EA, size: 0x8, addend: 0x0, symName: __ZN7LBFGSpp7BFGSMatIfLb0EE14add_correctionERKN5Eigen3RefIKNS2_6MatrixIfLin1ELi1ELi0ELin1ELi1EEELi0ENS2_11InnerStrideILi1EEEEESB_.cold.14, symObjAddr: 0x613E0, symBinAddr: 0x1000657C4, symSize: 0x24 }
  - { offsetInCU: 0x459243, offset: 0x459243, size: 0x8, addend: 0x0, symName: __ZN7LBFGSpp7BFGSMatIfLb0EE14add_correctionERKN5Eigen3RefIKNS2_6MatrixIfLin1ELi1ELi0ELin1ELi1EEELi0ENS2_11InnerStrideILi1EEEEESB_.cold.12, symObjAddr: 0x61398, symBinAddr: 0x10006577C, symSize: 0x24 }
  - { offsetInCU: 0x45929C, offset: 0x45929C, size: 0x8, addend: 0x0, symName: __ZN7LBFGSpp7BFGSMatIfLb0EE14add_correctionERKN5Eigen3RefIKNS2_6MatrixIfLin1ELi1ELi0ELin1ELi1EEELi0ENS2_11InnerStrideILi1EEEEESB_.cold.11, symObjAddr: 0x61374, symBinAddr: 0x100065758, symSize: 0x24 }
  - { offsetInCU: 0x4592F5, offset: 0x4592F5, size: 0x8, addend: 0x0, symName: __ZN7LBFGSpp7BFGSMatIfLb0EE14add_correctionERKN5Eigen3RefIKNS2_6MatrixIfLin1ELi1ELi0ELin1ELi1EEELi0ENS2_11InnerStrideILi1EEEEESB_.cold.8, symObjAddr: 0x61308, symBinAddr: 0x1000656EC, symSize: 0x24 }
  - { offsetInCU: 0x459323, offset: 0x459323, size: 0x8, addend: 0x0, symName: __ZN7LBFGSpp7BFGSMatIfLb0EE14add_correctionERKN5Eigen3RefIKNS2_6MatrixIfLin1ELi1ELi0ELin1ELi1EEELi0ENS2_11InnerStrideILi1EEEEESB_.cold.7, symObjAddr: 0x612E4, symBinAddr: 0x1000656C8, symSize: 0x24 }
  - { offsetInCU: 0x45937C, offset: 0x45937C, size: 0x8, addend: 0x0, symName: __ZN7LBFGSpp7BFGSMatIfLb0EE14add_correctionERKN5Eigen3RefIKNS2_6MatrixIfLin1ELi1ELi0ELin1ELi1EEELi0ENS2_11InnerStrideILi1EEEEESB_.cold.10, symObjAddr: 0x61350, symBinAddr: 0x100065734, symSize: 0x24 }
  - { offsetInCU: 0x4593AA, offset: 0x4593AA, size: 0x8, addend: 0x0, symName: __ZN7LBFGSpp7BFGSMatIfLb0EE14add_correctionERKN5Eigen3RefIKNS2_6MatrixIfLin1ELi1ELi0ELin1ELi1EEELi0ENS2_11InnerStrideILi1EEEEESB_.cold.9, symObjAddr: 0x6132C, symBinAddr: 0x100065710, symSize: 0x24 }
  - { offsetInCU: 0x459418, offset: 0x459418, size: 0x8, addend: 0x0, symName: __ZN7LBFGSpp7BFGSMatIfLb0EE14add_correctionERKN5Eigen3RefIKNS2_6MatrixIfLin1ELi1ELi0ELin1ELi1EEELi0ENS2_11InnerStrideILi1EEEEESB_.cold.6, symObjAddr: 0x612C0, symBinAddr: 0x1000656A4, symSize: 0x24 }
  - { offsetInCU: 0x459471, offset: 0x459471, size: 0x8, addend: 0x0, symName: __ZN7LBFGSpp7BFGSMatIfLb0EE14add_correctionERKN5Eigen3RefIKNS2_6MatrixIfLin1ELi1ELi0ELin1ELi1EEELi0ENS2_11InnerStrideILi1EEEEESB_.cold.1, symObjAddr: 0x6120C, symBinAddr: 0x1000655F0, symSize: 0x24 }
  - { offsetInCU: 0x459520, offset: 0x459520, size: 0x8, addend: 0x0, symName: __ZN7LBFGSpp7BFGSMatIfLb0EE14add_correctionERKN5Eigen3RefIKNS2_6MatrixIfLin1ELi1ELi0ELin1ELi1EEELi0ENS2_11InnerStrideILi1EEEEESB_.cold.3, symObjAddr: 0x61254, symBinAddr: 0x100065638, symSize: 0x24 }
  - { offsetInCU: 0x4595CF, offset: 0x4595CF, size: 0x8, addend: 0x0, symName: __ZN7LBFGSpp7BFGSMatIfLb0EE14add_correctionERKN5Eigen3RefIKNS2_6MatrixIfLin1ELi1ELi0ELin1ELi1EEELi0ENS2_11InnerStrideILi1EEEEESB_.cold.4, symObjAddr: 0x61278, symBinAddr: 0x10006565C, symSize: 0x24 }
  - { offsetInCU: 0x45967E, offset: 0x45967E, size: 0x8, addend: 0x0, symName: __ZN7LBFGSpp7BFGSMatIfLb0EE14add_correctionERKN5Eigen3RefIKNS2_6MatrixIfLin1ELi1ELi0ELin1ELi1EEELi0ENS2_11InnerStrideILi1EEEEESB_.cold.5, symObjAddr: 0x6129C, symBinAddr: 0x100065680, symSize: 0x24 }
  - { offsetInCU: 0x45972D, offset: 0x45972D, size: 0x8, addend: 0x0, symName: __ZN7LBFGSpp7BFGSMatIfLb0EE14add_correctionERKN5Eigen3RefIKNS2_6MatrixIfLin1ELi1ELi0ELin1ELi1EEELi0ENS2_11InnerStrideILi1EEEEESB_.cold.15, symObjAddr: 0x61404, symBinAddr: 0x1000657E8, symSize: 0x24 }
  - { offsetInCU: 0x4597CF, offset: 0x4597CF, size: 0x8, addend: 0x0, symName: __ZN7LBFGSpp7BFGSMatIfLb0EE14add_correctionERKN5Eigen3RefIKNS2_6MatrixIfLin1ELi1ELi0ELin1ELi1EEELi0ENS2_11InnerStrideILi1EEEEESB_.cold.13, symObjAddr: 0x613BC, symBinAddr: 0x1000657A0, symSize: 0x24 }
  - { offsetInCU: 0x45A3E6, offset: 0x45A3E6, size: 0x8, addend: 0x0, symName: __ZN7LBFGSpp7BFGSMatIfLb0EE8apply_HvERKN5Eigen6MatrixIfLin1ELi1ELi0ELin1ELi1EEERKfRS4_.cold.4, symObjAddr: 0x61494, symBinAddr: 0x100065878, symSize: 0x24 }
  - { offsetInCU: 0x45A43F, offset: 0x45A43F, size: 0x8, addend: 0x0, symName: __ZN7LBFGSpp7BFGSMatIfLb0EE8apply_HvERKN5Eigen6MatrixIfLin1ELi1ELi0ELin1ELi1EEERKfRS4_.cold.19, symObjAddr: 0x616B0, symBinAddr: 0x100065A94, symSize: 0x24 }
  - { offsetInCU: 0x45A498, offset: 0x45A498, size: 0x8, addend: 0x0, symName: __ZN7LBFGSpp7BFGSMatIfLb0EE8apply_HvERKN5Eigen6MatrixIfLin1ELi1ELi0ELin1ELi1EEERKfRS4_.cold.9, symObjAddr: 0x61548, symBinAddr: 0x10006592C, symSize: 0x24 }
  - { offsetInCU: 0x45A4F1, offset: 0x45A4F1, size: 0x8, addend: 0x0, symName: __ZN7LBFGSpp7BFGSMatIfLb0EE8apply_HvERKN5Eigen6MatrixIfLin1ELi1ELi0ELin1ELi1EEERKfRS4_.cold.13, symObjAddr: 0x615D8, symBinAddr: 0x1000659BC, symSize: 0x24 }
  - { offsetInCU: 0x45A54A, offset: 0x45A54A, size: 0x8, addend: 0x0, symName: __ZN7LBFGSpp7BFGSMatIfLb0EE8apply_HvERKN5Eigen6MatrixIfLin1ELi1ELi0ELin1ELi1EEERKfRS4_.cold.21, symObjAddr: 0x616F8, symBinAddr: 0x100065ADC, symSize: 0x24 }
  - { offsetInCU: 0x45A578, offset: 0x45A578, size: 0x8, addend: 0x0, symName: __ZN7LBFGSpp7BFGSMatIfLb0EE8apply_HvERKN5Eigen6MatrixIfLin1ELi1ELi0ELin1ELi1EEERKfRS4_.cold.15, symObjAddr: 0x61620, symBinAddr: 0x100065A04, symSize: 0x24 }
  - { offsetInCU: 0x45A5A6, offset: 0x45A5A6, size: 0x8, addend: 0x0, symName: __ZN7LBFGSpp7BFGSMatIfLb0EE8apply_HvERKN5Eigen6MatrixIfLin1ELi1ELi0ELin1ELi1EEERKfRS4_.cold.23, symObjAddr: 0x61740, symBinAddr: 0x100065B24, symSize: 0x24 }
  - { offsetInCU: 0x45A5D4, offset: 0x45A5D4, size: 0x8, addend: 0x0, symName: __ZN7LBFGSpp7BFGSMatIfLb0EE8apply_HvERKN5Eigen6MatrixIfLin1ELi1ELi0ELin1ELi1EEERKfRS4_.cold.20, symObjAddr: 0x616D4, symBinAddr: 0x100065AB8, symSize: 0x24 }
  - { offsetInCU: 0x45A602, offset: 0x45A602, size: 0x8, addend: 0x0, symName: __ZN7LBFGSpp7BFGSMatIfLb0EE8apply_HvERKN5Eigen6MatrixIfLin1ELi1ELi0ELin1ELi1EEERKfRS4_.cold.6, symObjAddr: 0x614DC, symBinAddr: 0x1000658C0, symSize: 0x24 }
  - { offsetInCU: 0x45A65B, offset: 0x45A65B, size: 0x8, addend: 0x0, symName: __ZN7LBFGSpp7BFGSMatIfLb0EE8apply_HvERKN5Eigen6MatrixIfLin1ELi1ELi0ELin1ELi1EEERKfRS4_.cold.18, symObjAddr: 0x6168C, symBinAddr: 0x100065A70, symSize: 0x24 }
  - { offsetInCU: 0x45A6E0, offset: 0x45A6E0, size: 0x8, addend: 0x0, symName: __ZN7LBFGSpp7BFGSMatIfLb0EE8apply_HvERKN5Eigen6MatrixIfLin1ELi1ELi0ELin1ELi1EEERKfRS4_.cold.17, symObjAddr: 0x61668, symBinAddr: 0x100065A4C, symSize: 0x24 }
  - { offsetInCU: 0x45A70E, offset: 0x45A70E, size: 0x8, addend: 0x0, symName: __ZN7LBFGSpp7BFGSMatIfLb0EE8apply_HvERKN5Eigen6MatrixIfLin1ELi1ELi0ELin1ELi1EEERKfRS4_.cold.14, symObjAddr: 0x615FC, symBinAddr: 0x1000659E0, symSize: 0x24 }
  - { offsetInCU: 0x45A73C, offset: 0x45A73C, size: 0x8, addend: 0x0, symName: __ZN7LBFGSpp7BFGSMatIfLb0EE8apply_HvERKN5Eigen6MatrixIfLin1ELi1ELi0ELin1ELi1EEERKfRS4_.cold.11, symObjAddr: 0x61590, symBinAddr: 0x100065974, symSize: 0x24 }
  - { offsetInCU: 0x45A795, offset: 0x45A795, size: 0x8, addend: 0x0, symName: __ZN7LBFGSpp7BFGSMatIfLb0EE8apply_HvERKN5Eigen6MatrixIfLin1ELi1ELi0ELin1ELi1EEERKfRS4_.cold.12, symObjAddr: 0x615B4, symBinAddr: 0x100065998, symSize: 0x24 }
  - { offsetInCU: 0x45A81A, offset: 0x45A81A, size: 0x8, addend: 0x0, symName: __ZN7LBFGSpp7BFGSMatIfLb0EE8apply_HvERKN5Eigen6MatrixIfLin1ELi1ELi0ELin1ELi1EEERKfRS4_.cold.22, symObjAddr: 0x6171C, symBinAddr: 0x100065B00, symSize: 0x24 }
  - { offsetInCU: 0x45A888, offset: 0x45A888, size: 0x8, addend: 0x0, symName: __ZN7LBFGSpp7BFGSMatIfLb0EE8apply_HvERKN5Eigen6MatrixIfLin1ELi1ELi0ELin1ELi1EEERKfRS4_.cold.16, symObjAddr: 0x61644, symBinAddr: 0x100065A28, symSize: 0x24 }
  - { offsetInCU: 0x45A8F6, offset: 0x45A8F6, size: 0x8, addend: 0x0, symName: __ZN7LBFGSpp7BFGSMatIfLb0EE8apply_HvERKN5Eigen6MatrixIfLin1ELi1ELi0ELin1ELi1EEERKfRS4_.cold.3, symObjAddr: 0x61470, symBinAddr: 0x100065854, symSize: 0x24 }
  - { offsetInCU: 0x45A9A5, offset: 0x45A9A5, size: 0x8, addend: 0x0, symName: __ZN7LBFGSpp7BFGSMatIfLb0EE8apply_HvERKN5Eigen6MatrixIfLin1ELi1ELi0ELin1ELi1EEERKfRS4_.cold.5, symObjAddr: 0x614B8, symBinAddr: 0x10006589C, symSize: 0x24 }
  - { offsetInCU: 0x45AA54, offset: 0x45AA54, size: 0x8, addend: 0x0, symName: __ZN7LBFGSpp7BFGSMatIfLb0EE8apply_HvERKN5Eigen6MatrixIfLin1ELi1ELi0ELin1ELi1EEERKfRS4_.cold.8, symObjAddr: 0x61524, symBinAddr: 0x100065908, symSize: 0x24 }
  - { offsetInCU: 0x45AB03, offset: 0x45AB03, size: 0x8, addend: 0x0, symName: __ZN7LBFGSpp7BFGSMatIfLb0EE8apply_HvERKN5Eigen6MatrixIfLin1ELi1ELi0ELin1ELi1EEERKfRS4_.cold.10, symObjAddr: 0x6156C, symBinAddr: 0x100065950, symSize: 0x24 }
  - { offsetInCU: 0x45ABB2, offset: 0x45ABB2, size: 0x8, addend: 0x0, symName: __ZN7LBFGSpp7BFGSMatIfLb0EE8apply_HvERKN5Eigen6MatrixIfLin1ELi1ELi0ELin1ELi1EEERKfRS4_.cold.1, symObjAddr: 0x61428, symBinAddr: 0x10006580C, symSize: 0x24 }
  - { offsetInCU: 0x45ABE0, offset: 0x45ABE0, size: 0x8, addend: 0x0, symName: __ZN7LBFGSpp7BFGSMatIfLb0EE8apply_HvERKN5Eigen6MatrixIfLin1ELi1ELi0ELin1ELi1EEERKfRS4_.cold.2, symObjAddr: 0x6144C, symBinAddr: 0x100065830, symSize: 0x24 }
  - { offsetInCU: 0x45AC39, offset: 0x45AC39, size: 0x8, addend: 0x0, symName: __ZN7LBFGSpp7BFGSMatIfLb0EE8apply_HvERKN5Eigen6MatrixIfLin1ELi1ELi0ELin1ELi1EEERKfRS4_.cold.7, symObjAddr: 0x61500, symBinAddr: 0x1000658E4, symSize: 0x24 }
  - { offsetInCU: 0x45ACBC, offset: 0x45ACBC, size: 0x8, addend: 0x0, symName: __ZN7LBFGSpp7BFGSMatIfLb0EE5resetEii.cold.1, symObjAddr: 0x61764, symBinAddr: 0x100065B48, symSize: 0x24 }
  - { offsetInCU: 0x45ACEA, offset: 0x45ACEA, size: 0x8, addend: 0x0, symName: __ZN7LBFGSpp7BFGSMatIfLb0EE5resetEii.cold.2, symObjAddr: 0x61788, symBinAddr: 0x100065B6C, symSize: 0x24 }
  - { offsetInCU: 0x45AEDC, offset: 0x45AEDC, size: 0x8, addend: 0x0, symName: __ZNKSt3__16vectorIN5Eigen14AutoDiffScalarINS1_6MatrixIfLin1ELi1ELi0ELin1ELi1EEEEENS_9allocatorIS5_EEE20__throw_length_errorB8ue170006Ev, symObjAddr: 0x22634, symBinAddr: 0x10002622C, symSize: 0x14 }
  - { offsetInCU: 0x45AF05, offset: 0x45AF05, size: 0x8, addend: 0x0, symName: __ZNSt3__114__split_bufferIN5Eigen14AutoDiffScalarINS1_6MatrixIfLin1ELi1ELi0ELin1ELi1EEEEERNS_9allocatorIS5_EEED1Ev, symObjAddr: 0x22648, symBinAddr: 0x100026240, symSize: 0x54 }
  - { offsetInCU: 0x45AF10, offset: 0x45AF10, size: 0x8, addend: 0x0, symName: __ZNSt3__16vectorIN5Eigen14AutoDiffScalarINS1_6MatrixIfLin1ELi1ELi0ELin1ELi1EEEEENS_9allocatorIS5_EEEC1Em.cold.1, symObjAddr: 0x617AC, symBinAddr: 0x100065B90, symSize: 0x5C }
  - { offsetInCU: 0x45B4E0, offset: 0x45B4E0, size: 0x8, addend: 0x0, symName: __ZNSt3__114__split_bufferIN5Eigen14AutoDiffScalarINS1_6MatrixIfLin1ELi1ELi0ELin1ELi1EEEEERNS_9allocatorIS5_EEED1Ev, symObjAddr: 0x22648, symBinAddr: 0x100026240, symSize: 0x54 }
  - { offsetInCU: 0x45B822, offset: 0x45B822, size: 0x8, addend: 0x0, symName: __ZNK5Board20expression_evaluatorERKNSt3__16vectorIN5Eigen14AutoDiffScalarINS2_6MatrixIfLin1ELi1ELi0ELin1ELi1EEEEENS0_9allocatorIS6_EEEE, symObjAddr: 0x2269C, symBinAddr: 0x100026294, symSize: 0x269C }
  - { offsetInCU: 0x46C2B4, offset: 0x46C2B4, size: 0x8, addend: 0x0, symName: __ZN5Eigen6MatrixINS_14AutoDiffScalarINS0_IfLin1ELi1ELi0ELin1ELi1EEEEELin1ELi1ELi0ELin1ELi1EED1Ev, symObjAddr: 0x24D38, symBinAddr: 0x100028930, symSize: 0x5C }
  - { offsetInCU: 0x46FF13, offset: 0x46FF13, size: 0x8, addend: 0x0, symName: __ZNKSt3__111__copy_loopINS_17_ClassicAlgPolicyEEclB8ue170006IPKN5Eigen14AutoDiffScalarINS4_6MatrixIfLin1ELi1ELi0ELin1ELi1EEEEESA_PS8_EENS_4pairIT_T1_EESD_T0_SE_, symObjAddr: 0x25F38, symBinAddr: 0x100029B30, symSize: 0x168 }
  - { offsetInCU: 0x470452, offset: 0x470452, size: 0x8, addend: 0x0, symName: __ZNSt3__15dequeIN5Eigen6MatrixINS1_14AutoDiffScalarINS2_IfLin1ELi1ELi0ELin1ELi1EEEEELin1ELi1ELi0ELin1ELi1EEENS_9allocatorIS6_EEE8pop_backEv, symObjAddr: 0x260A0, symBinAddr: 0x100029C98, symSize: 0xC4 }
  - { offsetInCU: 0x470478, offset: 0x470478, size: 0x8, addend: 0x0, symName: __ZN5Eigen15PlainObjectBaseINS_6MatrixINS_14AutoDiffScalarINS1_IfLin1ELi1ELi0ELin1ELi1EEEEELin1ELi1ELi0ELin1ELi1EEEEC2IS3_EERKNS_9DenseBaseIT_EE, symObjAddr: 0x25E08, symBinAddr: 0x100029A00, symSize: 0x130 }
  - { offsetInCU: 0x470BF5, offset: 0x470BF5, size: 0x8, addend: 0x0, symName: __ZNSt3__15dequeIN5Eigen6MatrixINS1_14AutoDiffScalarINS2_IfLin1ELi1ELi0ELin1ELi1EEEEELin1ELi1ELi0ELin1ELi1EEENS_9allocatorIS6_EEE19__add_back_capacityEv, symObjAddr: 0x25148, symBinAddr: 0x100028D40, symSize: 0x4B0 }
  - { offsetInCU: 0x471B10, offset: 0x471B10, size: 0x8, addend: 0x0, symName: __ZN5Eigen6MatrixINS_14AutoDiffScalarINS0_IfLin1ELi1ELi0ELin1ELi1EEEEELin1ELi1ELi0ELin1ELi1EEC1ERKS4_, symObjAddr: 0x24E18, symBinAddr: 0x100028A10, symSize: 0x58 }
  - { offsetInCU: 0x471CF7, offset: 0x471CF7, size: 0x8, addend: 0x0, symName: __ZNSt3__15dequeIN5Eigen6MatrixINS1_14AutoDiffScalarINS2_IfLin1ELi1ELi0ELin1ELi1EEEEELin1ELi1ELi0ELin1ELi1EEENS_9allocatorIS6_EEE8pop_backEv, symObjAddr: 0x260A0, symBinAddr: 0x100029C98, symSize: 0xC4 }
  - { offsetInCU: 0x472203, offset: 0x472203, size: 0x8, addend: 0x0, symName: __ZN5Eigen6MatrixINS_14AutoDiffScalarINS0_IfLin1ELi1ELi0ELin1ELi1EEEEELin1ELi1ELi0ELin1ELi1EEC1INS_12CwiseUnaryOpINS_8internal14scalar_tanh_opIS3_EEKNS_12ArrayWrapperIS4_EEEEEERKNS_9EigenBaseIT_EE, symObjAddr: 0x24E70, symBinAddr: 0x100028A68, symSize: 0xCC }
  - { offsetInCU: 0x47269F, offset: 0x47269F, size: 0x8, addend: 0x0, symName: __ZNSt3__15stackIN5Eigen6MatrixINS1_14AutoDiffScalarINS2_IfLin1ELi1ELi0ELin1ELi1EEEEELin1ELi1ELi0ELin1ELi1EEENS_5dequeIS6_NS_9allocatorIS6_EEEEE4pushB8ue170006EOS6_, symObjAddr: 0x24D94, symBinAddr: 0x10002898C, symSize: 0x84 }
  - { offsetInCU: 0x4728A3, offset: 0x4728A3, size: 0x8, addend: 0x0, symName: __ZN5Eigen6MatrixINS_14AutoDiffScalarINS0_IfLin1ELi1ELi0ELin1ELi1EEEEELin1ELi1ELi0ELin1ELi1EEC1INS_12CwiseUnaryOpINS_8internal14scalar_acos_opIS3_EEKNS_12ArrayWrapperIS4_EEEEEERKNS_9EigenBaseIT_EE, symObjAddr: 0x24F3C, symBinAddr: 0x100028B34, symSize: 0xCC }
  - { offsetInCU: 0x472D45, offset: 0x472D45, size: 0x8, addend: 0x0, symName: __ZN5Eigen6MatrixINS_14AutoDiffScalarINS0_IfLin1ELi1ELi0ELin1ELi1EEEEELin1ELi1ELi0ELin1ELi1EEC1INS_12CwiseUnaryOpINS_8internal18scalar_opposite_opIS3_EEKNS_12ArrayWrapperIS4_EEEEEERKNS_9EigenBaseIT_EE, symObjAddr: 0x25008, symBinAddr: 0x100028C00, symSize: 0xCC }
  - { offsetInCU: 0x4731E1, offset: 0x4731E1, size: 0x8, addend: 0x0, symName: __ZN5Eigen8internal31generic_dense_assignment_kernelINS0_9evaluatorINS_6MatrixINS_14AutoDiffScalarINS3_IfLin1ELi1ELi0ELin1ELi1EEEEELin1ELi1ELi0ELin1ELi1EEEEENS2_INS_12CwiseUnaryOpINS0_14scalar_asin_opIS6_EEKNS_12ArrayWrapperIS7_EEEEEENS0_9assign_opIS6_S6_EELi0EE11assignCoeffEl, symObjAddr: 0x26BA0, symBinAddr: 0x10002A798, symSize: 0x29C }
  - { offsetInCU: 0x473E51, offset: 0x473E51, size: 0x8, addend: 0x0, symName: __ZN5Eigen8internal31generic_dense_assignment_kernelINS0_9evaluatorINS_6MatrixINS_14AutoDiffScalarINS3_IfLin1ELi1ELi0ELin1ELi1EEEEELin1ELi1ELi0ELin1ELi1EEEEENS2_INS_12CwiseUnaryOpINS0_13scalar_log_opIS6_EEKNS_12ArrayWrapperIS7_EEEEEENS0_9assign_opIS6_S6_EELi0EE11assignCoeffEl, symObjAddr: 0x26E3C, symBinAddr: 0x10002AA34, symSize: 0x294 }
  - { offsetInCU: 0x474AB2, offset: 0x474AB2, size: 0x8, addend: 0x0, symName: __ZN5Eigen8internal31generic_dense_assignment_kernelINS0_9evaluatorINS_6MatrixINS_14AutoDiffScalarINS3_IfLin1ELi1ELi0ELin1ELi1EEEEELin1ELi1ELi0ELin1ELi1EEEEENS2_INS_12CwiseUnaryOpINS0_14scalar_sqrt_opIS6_EEKNS_12ArrayWrapperIS7_EEEEEENS0_9assign_opIS6_S6_EELi0EE11assignCoeffEl, symObjAddr: 0x2667C, symBinAddr: 0x10002A274, symSize: 0x294 }
  - { offsetInCU: 0x475728, offset: 0x475728, size: 0x8, addend: 0x0, symName: __ZN5Eigen8internal31generic_dense_assignment_kernelINS0_9evaluatorINS_6MatrixINS_14AutoDiffScalarINS3_IfLin1ELi1ELi0ELin1ELi1EEEEELin1ELi1ELi0ELin1ELi1EEEEENS2_INS_12CwiseUnaryOpINS0_13scalar_cos_opIS6_EEKNS_12ArrayWrapperIS7_EEEEEENS0_9assign_opIS6_S6_EELi0EE11assignCoeffEl, symObjAddr: 0x26164, symBinAddr: 0x100029D5C, symSize: 0x294 }
  - { offsetInCU: 0x476387, offset: 0x476387, size: 0x8, addend: 0x0, symName: __ZN5Eigen8internal31generic_dense_assignment_kernelINS0_9evaluatorINS_6MatrixINS_14AutoDiffScalarINS3_IfLin1ELi1ELi0ELin1ELi1EEEEELin1ELi1ELi0ELin1ELi1EEEEENS2_INS_12CwiseUnaryOpINS0_13scalar_exp_opIS6_EEKNS_12ArrayWrapperIS7_EEEEEENS0_9assign_opIS6_S6_EELi0EE11assignCoeffEl, symObjAddr: 0x263F8, symBinAddr: 0x100029FF0, symSize: 0x284 }
  - { offsetInCU: 0x476FDD, offset: 0x476FDD, size: 0x8, addend: 0x0, symName: __ZN5Eigen8internal31generic_dense_assignment_kernelINS0_9evaluatorINS_6MatrixINS_14AutoDiffScalarINS3_IfLin1ELi1ELi0ELin1ELi1EEEEELin1ELi1ELi0ELin1ELi1EEEEENS2_INS_12CwiseUnaryOpINS0_13scalar_sin_opIS6_EEKNS_12ArrayWrapperIS7_EEEEEENS0_9assign_opIS6_S6_EELi0EE11assignCoeffEl, symObjAddr: 0x26910, symBinAddr: 0x10002A508, symSize: 0x290 }
  - { offsetInCU: 0x477C3C, offset: 0x477C3C, size: 0x8, addend: 0x0, symName: __ZN5Eigen8internal31generic_dense_assignment_kernelINS0_9evaluatorINS_6MatrixINS_14AutoDiffScalarINS3_IfLin1ELi1ELi0ELin1ELi1EEEEELin1ELi1ELi0ELin1ELi1EEEEENS2_INS_13CwiseBinaryOpINS0_20scalar_difference_opIS6_S6_EEKNS_12ArrayWrapperIS7_EESE_EEEENS0_9assign_opIS6_S6_EELi0EE11assignCoeffEl, symObjAddr: 0x27EEC, symBinAddr: 0x10002BAE4, symSize: 0x2F8 }
  - { offsetInCU: 0x47895D, offset: 0x47895D, size: 0x8, addend: 0x0, symName: __ZN5Eigen8internal31generic_dense_assignment_kernelINS0_9evaluatorINS_6MatrixINS_14AutoDiffScalarINS3_IfLin1ELi1ELi0ELin1ELi1EEEEELin1ELi1ELi0ELin1ELi1EEEEENS2_INS_13CwiseBinaryOpINS0_17scalar_product_opIS6_S6_EEKNS_12ArrayWrapperIS7_EESE_EEEENS0_9assign_opIS6_S6_EELi0EE11assignCoeffEl, symObjAddr: 0x281E4, symBinAddr: 0x10002BDDC, symSize: 0x30C }
  - { offsetInCU: 0x4798E8, offset: 0x4798E8, size: 0x8, addend: 0x0, symName: __ZN5Eigen8internal31generic_dense_assignment_kernelINS0_9evaluatorINS_6MatrixINS_14AutoDiffScalarINS3_IfLin1ELi1ELi0ELin1ELi1EEEEELin1ELi1ELi0ELin1ELi1EEEEENS2_INS_13CwiseBinaryOpINS0_18scalar_quotient_opIS6_S6_EEKNS_12ArrayWrapperIS7_EESE_EEEENS0_9assign_opIS6_S6_EELi0EE11assignCoeffEl, symObjAddr: 0x284F0, symBinAddr: 0x10002C0E8, symSize: 0x350 }
  - { offsetInCU: 0x47A95F, offset: 0x47A95F, size: 0x8, addend: 0x0, symName: __ZN5Eigen8internal31generic_dense_assignment_kernelINS0_9evaluatorINS_6MatrixINS_14AutoDiffScalarINS3_IfLin1ELi1ELi0ELin1ELi1EEEEELin1ELi1ELi0ELin1ELi1EEEEENS2_INS_13CwiseBinaryOpINS0_13scalar_sum_opIS6_S6_EEKNS_12ArrayWrapperIS7_EESE_EEEENS0_9assign_opIS6_S6_EELi0EE11assignCoeffEl, symObjAddr: 0x27B60, symBinAddr: 0x10002B758, symSize: 0x2F8 }
  - { offsetInCU: 0x47B67D, offset: 0x47B67D, size: 0x8, addend: 0x0, symName: __ZN5Eigen8internal31generic_dense_assignment_kernelINS0_9evaluatorINS_6MatrixINS_14AutoDiffScalarINS3_IfLin1ELi1ELi0ELin1ELi1EEEEELin1ELi1ELi0ELin1ELi1EEEEENS2_INS_12CwiseUnaryOpINS0_13scalar_exp_opIS6_EEKNS_13CwiseBinaryOpINS0_17scalar_product_opIS6_S6_EEKNS_12ArrayWrapperIS7_EEKNS9_INS0_13scalar_log_opIS6_EESH_EEEEEEEENS0_9assign_opIS6_S6_EELi0EE11assignCoeffEl, symObjAddr: 0x28840, symBinAddr: 0x10002C438, symSize: 0x2B0 }
  - { offsetInCU: 0x47C3AC, offset: 0x47C3AC, size: 0x8, addend: 0x0, symName: __ZNSt3__15stackIN5Eigen6MatrixINS1_14AutoDiffScalarINS2_IfLin1ELi1ELi0ELin1ELi1EEEEELin1ELi1ELi0ELin1ELi1EEENS_5dequeIS6_NS_9allocatorIS6_EEEEED1Ev, symObjAddr: 0x250D4, symBinAddr: 0x100028CCC, symSize: 0x74 }
  - { offsetInCU: 0x47C9D2, offset: 0x47C9D2, size: 0x8, addend: 0x0, symName: __ZNSt3__15dequeIN5Eigen6MatrixINS1_14AutoDiffScalarINS2_IfLin1ELi1ELi0ELin1ELi1EEEEELin1ELi1ELi0ELin1ELi1EEENS_9allocatorIS6_EEE5clearEv, symObjAddr: 0x28E70, symBinAddr: 0x10002CA68, symSize: 0x140 }
  - { offsetInCU: 0x47D405, offset: 0x47D405, size: 0x8, addend: 0x0, symName: __ZNSt3__114__split_bufferIPN5Eigen6MatrixINS1_14AutoDiffScalarINS2_IfLin1ELi1ELi0ELin1ELi1EEEEELin1ELi1ELi0ELin1ELi1EEENS_9allocatorIS7_EEE9push_backEOS7_, symObjAddr: 0x255F8, symBinAddr: 0x1000291F0, symSize: 0x190 }
  - { offsetInCU: 0x47D8A9, offset: 0x47D8A9, size: 0x8, addend: 0x0, symName: __ZNSt3__114__split_bufferIPN5Eigen6MatrixINS1_14AutoDiffScalarINS2_IfLin1ELi1ELi0ELin1ELi1EEEEELin1ELi1ELi0ELin1ELi1EEENS_9allocatorIS7_EEE10push_frontEOS7_, symObjAddr: 0x25788, symBinAddr: 0x100029380, symSize: 0x19C }
  - { offsetInCU: 0x47D8B4, offset: 0x47D8B4, size: 0x8, addend: 0x0, symName: __ZNSt3__114__split_bufferIPN5Eigen6MatrixINS1_14AutoDiffScalarINS2_IfLin1ELi1ELi0ELin1ELi1EEEEELin1ELi1ELi0ELin1ELi1EEENS_9allocatorIS7_EEE10push_frontEOS7_, symObjAddr: 0x25788, symBinAddr: 0x100029380, symSize: 0x19C }
  - { offsetInCU: 0x47DD37, offset: 0x47DD37, size: 0x8, addend: 0x0, symName: __ZNSt3__114__split_bufferIPN5Eigen6MatrixINS1_14AutoDiffScalarINS2_IfLin1ELi1ELi0ELin1ELi1EEEEELin1ELi1ELi0ELin1ELi1EEERNS_9allocatorIS7_EEE10push_frontERKS7_, symObjAddr: 0x25924, symBinAddr: 0x10002951C, symSize: 0x19C }
  - { offsetInCU: 0x47DD42, offset: 0x47DD42, size: 0x8, addend: 0x0, symName: __ZNSt3__114__split_bufferIPN5Eigen6MatrixINS1_14AutoDiffScalarINS2_IfLin1ELi1ELi0ELin1ELi1EEEEELin1ELi1ELi0ELin1ELi1EEERNS_9allocatorIS7_EEE10push_frontERKS7_, symObjAddr: 0x25924, symBinAddr: 0x10002951C, symSize: 0x19C }
  - { offsetInCU: 0x47E1AA, offset: 0x47E1AA, size: 0x8, addend: 0x0, symName: __ZN5Eigen12DenseStorageINS_14AutoDiffScalarINS_6MatrixIfLin1ELi1ELi0ELin1ELi1EEEEELin1ELin1ELi1ELi0EED1Ev, symObjAddr: 0x25AC0, symBinAddr: 0x1000296B8, symSize: 0x5C }
  - { offsetInCU: 0x47E2CD, offset: 0x47E2CD, size: 0x8, addend: 0x0, symName: __ZN5Eigen12DenseStorageINS_14AutoDiffScalarINS_6MatrixIfLin1ELi1ELi0ELin1ELi1EEEEELin1ELin1ELi1ELi0EED1Ev, symObjAddr: 0x25AC0, symBinAddr: 0x1000296B8, symSize: 0x5C }
  - { offsetInCU: 0x47E4F6, offset: 0x47E4F6, size: 0x8, addend: 0x0, symName: __ZN5Eigen8internal28conditional_aligned_new_autoINS_14AutoDiffScalarINS_6MatrixIfLin1ELi1ELi0ELin1ELi1EEEEELb1EEEPT_m.cold.1, symObjAddr: 0x61808, symBinAddr: 0x100065BEC, symSize: 0x24 }
  - { offsetInCU: 0x47E5AA, offset: 0x47E5AA, size: 0x8, addend: 0x0, symName: __ZN5Eigen8internal26call_dense_assignment_loopINS_6MatrixINS_14AutoDiffScalarINS2_IfLin1ELi1ELi0ELin1ELi1EEEEELin1ELi1ELi0ELin1ELi1EEEEEvRT_RKNS_14CwiseNullaryOpINS0_18scalar_constant_opINS7_6ScalarEEES7_EERKNS0_9assign_opISB_SB_EE.cold.1, symObjAddr: 0x6182C, symBinAddr: 0x100065C10, symSize: 0x24 }
  - { offsetInCU: 0x47E79E, offset: 0x47E79E, size: 0x8, addend: 0x0, symName: __ZNKSt3__111__copy_loopINS_17_ClassicAlgPolicyEEclB8ue170006IPKN5Eigen14AutoDiffScalarINS4_6MatrixIfLin1ELi1ELi0ELin1ELi1EEEEESA_PS8_EENS_4pairIT_T1_EESD_T0_SE_.cold.1, symObjAddr: 0x61850, symBinAddr: 0x100065C34, symSize: 0x24 }
  - { offsetInCU: 0x47ECE4, offset: 0x47ECE4, size: 0x8, addend: 0x0, symName: __ZN5Eigen8internal31generic_dense_assignment_kernelINS0_9evaluatorINS_6MatrixINS_14AutoDiffScalarINS3_IfLin1ELi1ELi0ELin1ELi1EEEEELin1ELi1ELi0ELin1ELi1EEEEENS2_INS_12CwiseUnaryOpINS0_13scalar_cos_opIS6_EEKNS_12ArrayWrapperIS7_EEEEEENS0_9assign_opIS6_S6_EELi0EE11assignCoeffEl.cold.1, symObjAddr: 0x61874, symBinAddr: 0x100065C58, symSize: 0x24 }
  - { offsetInCU: 0x47EE06, offset: 0x47EE06, size: 0x8, addend: 0x0, symName: __ZN5Eigen8internal31generic_dense_assignment_kernelINS0_9evaluatorINS_6MatrixINS_14AutoDiffScalarINS3_IfLin1ELi1ELi0ELin1ELi1EEEEELin1ELi1ELi0ELin1ELi1EEEEENS2_INS_12CwiseUnaryOpINS0_13scalar_exp_opIS6_EEKNS_12ArrayWrapperIS7_EEEEEENS0_9assign_opIS6_S6_EELi0EE11assignCoeffEl.cold.1, symObjAddr: 0x61898, symBinAddr: 0x100065C7C, symSize: 0x24 }
  - { offsetInCU: 0x47EF3C, offset: 0x47EF3C, size: 0x8, addend: 0x0, symName: __ZN5Eigen8internal31generic_dense_assignment_kernelINS0_9evaluatorINS_6MatrixINS_14AutoDiffScalarINS3_IfLin1ELi1ELi0ELin1ELi1EEEEELin1ELi1ELi0ELin1ELi1EEEEENS2_INS_12CwiseUnaryOpINS0_14scalar_sqrt_opIS6_EEKNS_12ArrayWrapperIS7_EEEEEENS0_9assign_opIS6_S6_EELi0EE11assignCoeffEl.cold.1, symObjAddr: 0x618BC, symBinAddr: 0x100065CA0, symSize: 0x24 }
  - { offsetInCU: 0x47F06C, offset: 0x47F06C, size: 0x8, addend: 0x0, symName: __ZN5Eigen8internal31generic_dense_assignment_kernelINS0_9evaluatorINS_6MatrixINS_14AutoDiffScalarINS3_IfLin1ELi1ELi0ELin1ELi1EEEEELin1ELi1ELi0ELin1ELi1EEEEENS2_INS_12CwiseUnaryOpINS0_13scalar_sin_opIS6_EEKNS_12ArrayWrapperIS7_EEEEEENS0_9assign_opIS6_S6_EELi0EE11assignCoeffEl.cold.1, symObjAddr: 0x618E0, symBinAddr: 0x100065CC4, symSize: 0x24 }
  - { offsetInCU: 0x47F18E, offset: 0x47F18E, size: 0x8, addend: 0x0, symName: __ZN5Eigen8internal31generic_dense_assignment_kernelINS0_9evaluatorINS_6MatrixINS_14AutoDiffScalarINS3_IfLin1ELi1ELi0ELin1ELi1EEEEELin1ELi1ELi0ELin1ELi1EEEEENS2_INS_12CwiseUnaryOpINS0_14scalar_asin_opIS6_EEKNS_12ArrayWrapperIS7_EEEEEENS0_9assign_opIS6_S6_EELi0EE11assignCoeffEl.cold.1, symObjAddr: 0x61904, symBinAddr: 0x100065CE8, symSize: 0x24 }
  - { offsetInCU: 0x47F2CC, offset: 0x47F2CC, size: 0x8, addend: 0x0, symName: __ZN5Eigen8internal31generic_dense_assignment_kernelINS0_9evaluatorINS_6MatrixINS_14AutoDiffScalarINS3_IfLin1ELi1ELi0ELin1ELi1EEEEELin1ELi1ELi0ELin1ELi1EEEEENS2_INS_12CwiseUnaryOpINS0_13scalar_log_opIS6_EEKNS_12ArrayWrapperIS7_EEEEEENS0_9assign_opIS6_S6_EELi0EE11assignCoeffEl.cold.1, symObjAddr: 0x61928, symBinAddr: 0x100065D0C, symSize: 0x24 }
  - { offsetInCU: 0x47F5DC, offset: 0x47F5DC, size: 0x8, addend: 0x0, symName: __ZN5Eigen8internal31generic_dense_assignment_kernelINS0_9evaluatorINS_6MatrixINS_14AutoDiffScalarINS3_IfLin1ELi1ELi0ELin1ELi1EEEEELin1ELi1ELi0ELin1ELi1EEEEENS2_INS_12CwiseUnaryOpINS0_14scalar_tanh_opIS6_EEKNS_12ArrayWrapperIS7_EEEEEENS0_9assign_opIS6_S6_EELi0EE11assignCoeffEl, symObjAddr: 0x271BC, symBinAddr: 0x10002ADB4, symSize: 0x2A4 }
  - { offsetInCU: 0x48028C, offset: 0x48028C, size: 0x8, addend: 0x0, symName: __ZN5Eigen8internal26call_dense_assignment_loopINS_6MatrixINS_14AutoDiffScalarINS2_IfLin1ELi1ELi0ELin1ELi1EEEEELin1ELi1ELi0ELin1ELi1EEENS_12CwiseUnaryOpINS0_14scalar_tanh_opIS5_EEKNS_12ArrayWrapperIS6_EEEENS0_9assign_opIS5_S5_EEEEvRT_RKT0_RKT1_.cold.1, symObjAddr: 0x6194C, symBinAddr: 0x100065D30, symSize: 0x24 }
  - { offsetInCU: 0x480382, offset: 0x480382, size: 0x8, addend: 0x0, symName: __ZN5Eigen8internal31generic_dense_assignment_kernelINS0_9evaluatorINS_6MatrixINS_14AutoDiffScalarINS3_IfLin1ELi1ELi0ELin1ELi1EEEEELin1ELi1ELi0ELin1ELi1EEEEENS2_INS_12CwiseUnaryOpINS0_14scalar_tanh_opIS6_EEKNS_12ArrayWrapperIS7_EEEEEENS0_9assign_opIS6_S6_EELi0EE11assignCoeffEl.cold.1, symObjAddr: 0x61970, symBinAddr: 0x100065D54, symSize: 0x24 }
  - { offsetInCU: 0x48066E, offset: 0x48066E, size: 0x8, addend: 0x0, symName: __ZN5Eigen8internal31generic_dense_assignment_kernelINS0_9evaluatorINS_6MatrixINS_14AutoDiffScalarINS3_IfLin1ELi1ELi0ELin1ELi1EEEEELin1ELi1ELi0ELin1ELi1EEEEENS2_INS_12CwiseUnaryOpINS0_14scalar_acos_opIS6_EEKNS_12ArrayWrapperIS7_EEEEEENS0_9assign_opIS6_S6_EELi0EE11assignCoeffEl, symObjAddr: 0x2754C, symBinAddr: 0x10002B144, symSize: 0x29C }
  - { offsetInCU: 0x4812DE, offset: 0x4812DE, size: 0x8, addend: 0x0, symName: __ZN5Eigen8internal26call_dense_assignment_loopINS_6MatrixINS_14AutoDiffScalarINS2_IfLin1ELi1ELi0ELin1ELi1EEEEELin1ELi1ELi0ELin1ELi1EEENS_12CwiseUnaryOpINS0_14scalar_acos_opIS5_EEKNS_12ArrayWrapperIS6_EEEENS0_9assign_opIS5_S5_EEEEvRT_RKT0_RKT1_.cold.1, symObjAddr: 0x61994, symBinAddr: 0x100065D78, symSize: 0x24 }
  - { offsetInCU: 0x4813A3, offset: 0x4813A3, size: 0x8, addend: 0x0, symName: __ZN5Eigen8internal31generic_dense_assignment_kernelINS0_9evaluatorINS_6MatrixINS_14AutoDiffScalarINS3_IfLin1ELi1ELi0ELin1ELi1EEEEELin1ELi1ELi0ELin1ELi1EEEEENS2_INS_12CwiseUnaryOpINS0_14scalar_acos_opIS6_EEKNS_12ArrayWrapperIS7_EEEEEENS0_9assign_opIS6_S6_EELi0EE11assignCoeffEl.cold.1, symObjAddr: 0x619B8, symBinAddr: 0x100065D9C, symSize: 0x24 }
  - { offsetInCU: 0x48168F, offset: 0x48168F, size: 0x8, addend: 0x0, symName: __ZN5Eigen8internal31generic_dense_assignment_kernelINS0_9evaluatorINS_6MatrixINS_14AutoDiffScalarINS3_IfLin1ELi1ELi0ELin1ELi1EEEEELin1ELi1ELi0ELin1ELi1EEEEENS2_INS_12CwiseUnaryOpINS0_18scalar_opposite_opIS6_EEKNS_12ArrayWrapperIS7_EEEEEENS0_9assign_opIS6_S6_EELi0EE11assignCoeffEl, symObjAddr: 0x278D4, symBinAddr: 0x10002B4CC, symSize: 0x28C }
  - { offsetInCU: 0x4821BF, offset: 0x4821BF, size: 0x8, addend: 0x0, symName: __ZN5Eigen8internal26call_dense_assignment_loopINS_6MatrixINS_14AutoDiffScalarINS2_IfLin1ELi1ELi0ELin1ELi1EEEEELin1ELi1ELi0ELin1ELi1EEENS_12CwiseUnaryOpINS0_18scalar_opposite_opIS5_EEKNS_12ArrayWrapperIS6_EEEENS0_9assign_opIS5_S5_EEEEvRT_RKT0_RKT1_.cold.1, symObjAddr: 0x619DC, symBinAddr: 0x100065DC0, symSize: 0x24 }
  - { offsetInCU: 0x482391, offset: 0x482391, size: 0x8, addend: 0x0, symName: __ZN5Eigen8internal31generic_dense_assignment_kernelINS0_9evaluatorINS_6MatrixINS_14AutoDiffScalarINS3_IfLin1ELi1ELi0ELin1ELi1EEEEELin1ELi1ELi0ELin1ELi1EEEEENS2_INS_12CwiseUnaryOpINS0_18scalar_opposite_opIS6_EEKNS_12ArrayWrapperIS7_EEEEEENS0_9assign_opIS6_S6_EELi0EE11assignCoeffEl.cold.1, symObjAddr: 0x61A00, symBinAddr: 0x100065DE4, symSize: 0x24 }
  - { offsetInCU: 0x4829D9, offset: 0x4829D9, size: 0x8, addend: 0x0, symName: __ZN5Eigen8internal18make_coherent_implINS_6MatrixIfLin1ELi1ELi0ELin1ELi1EEES3_E3runERS3_S5_, symObjAddr: 0x27E58, symBinAddr: 0x10002BA50, symSize: 0x94 }
  - { offsetInCU: 0x482E1F, offset: 0x482E1F, size: 0x8, addend: 0x0, symName: __ZN5Eigen8internal31generic_dense_assignment_kernelINS0_9evaluatorINS_6MatrixINS_14AutoDiffScalarINS3_IfLin1ELi1ELi0ELin1ELi1EEEEELin1ELi1ELi0ELin1ELi1EEEEENS2_INS_13CwiseBinaryOpINS0_20scalar_difference_opIS6_S6_EEKNS_12ArrayWrapperIS7_EESE_EEEENS0_9assign_opIS6_S6_EELi0EE11assignCoeffEl, symObjAddr: 0x27EEC, symBinAddr: 0x10002BAE4, symSize: 0x2F8 }
  - { offsetInCU: 0x482E2A, offset: 0x482E2A, size: 0x8, addend: 0x0, symName: __ZN5Eigen8internal31generic_dense_assignment_kernelINS0_9evaluatorINS_6MatrixINS_14AutoDiffScalarINS3_IfLin1ELi1ELi0ELin1ELi1EEEEELin1ELi1ELi0ELin1ELi1EEEEENS2_INS_13CwiseBinaryOpINS0_13scalar_sum_opIS6_S6_EEKNS_12ArrayWrapperIS7_EESE_EEEENS0_9assign_opIS6_S6_EELi0EE11assignCoeffEl.cold.2, symObjAddr: 0x61A48, symBinAddr: 0x100065E2C, symSize: 0x24 }
  - { offsetInCU: 0x482EC3, offset: 0x482EC3, size: 0x8, addend: 0x0, symName: __ZN5Eigen8internal31generic_dense_assignment_kernelINS0_9evaluatorINS_6MatrixINS_14AutoDiffScalarINS3_IfLin1ELi1ELi0ELin1ELi1EEEEELin1ELi1ELi0ELin1ELi1EEEEENS2_INS_13CwiseBinaryOpINS0_13scalar_sum_opIS6_S6_EEKNS_12ArrayWrapperIS7_EESE_EEEENS0_9assign_opIS6_S6_EELi0EE11assignCoeffEl.cold.1, symObjAddr: 0x61A24, symBinAddr: 0x100065E08, symSize: 0x24 }
  - { offsetInCU: 0x482FF6, offset: 0x482FF6, size: 0x8, addend: 0x0, symName: __ZN5Eigen8internal18make_coherent_implINS_6MatrixIfLin1ELi1ELi0ELin1ELi1EEES3_E3runERS3_S5_.cold.1, symObjAddr: 0x61A6C, symBinAddr: 0x100065E50, symSize: 0x24 }
  - { offsetInCU: 0x483024, offset: 0x483024, size: 0x8, addend: 0x0, symName: __ZN5Eigen8internal18make_coherent_implINS_6MatrixIfLin1ELi1ELi0ELin1ELi1EEES3_E3runERS3_S5_.cold.2, symObjAddr: 0x61A90, symBinAddr: 0x100065E74, symSize: 0x24 }
  - { offsetInCU: 0x48326D, offset: 0x48326D, size: 0x8, addend: 0x0, symName: __ZN5Eigen8internal31generic_dense_assignment_kernelINS0_9evaluatorINS_6MatrixINS_14AutoDiffScalarINS3_IfLin1ELi1ELi0ELin1ELi1EEEEELin1ELi1ELi0ELin1ELi1EEEEENS2_INS_13CwiseBinaryOpINS0_20scalar_difference_opIS6_S6_EEKNS_12ArrayWrapperIS7_EESE_EEEENS0_9assign_opIS6_S6_EELi0EE11assignCoeffEl.cold.2, symObjAddr: 0x61AD8, symBinAddr: 0x100065EBC, symSize: 0x24 }
  - { offsetInCU: 0x483307, offset: 0x483307, size: 0x8, addend: 0x0, symName: __ZN5Eigen8internal31generic_dense_assignment_kernelINS0_9evaluatorINS_6MatrixINS_14AutoDiffScalarINS3_IfLin1ELi1ELi0ELin1ELi1EEEEELin1ELi1ELi0ELin1ELi1EEEEENS2_INS_13CwiseBinaryOpINS0_20scalar_difference_opIS6_S6_EEKNS_12ArrayWrapperIS7_EESE_EEEENS0_9assign_opIS6_S6_EELi0EE11assignCoeffEl.cold.1, symObjAddr: 0x61AB4, symBinAddr: 0x100065E98, symSize: 0x24 }
  - { offsetInCU: 0x48399B, offset: 0x48399B, size: 0x8, addend: 0x0, symName: __ZN5Eigen8internal31generic_dense_assignment_kernelINS0_9evaluatorINS_6MatrixINS_14AutoDiffScalarINS3_IfLin1ELi1ELi0ELin1ELi1EEEEELin1ELi1ELi0ELin1ELi1EEEEENS2_INS_13CwiseBinaryOpINS0_17scalar_product_opIS6_S6_EEKNS_12ArrayWrapperIS7_EESE_EEEENS0_9assign_opIS6_S6_EELi0EE11assignCoeffEl.cold.1, symObjAddr: 0x61AFC, symBinAddr: 0x100065EE0, symSize: 0x24 }
  - { offsetInCU: 0x483A35, offset: 0x483A35, size: 0x8, addend: 0x0, symName: __ZN5Eigen8internal31generic_dense_assignment_kernelINS0_9evaluatorINS_6MatrixINS_14AutoDiffScalarINS3_IfLin1ELi1ELi0ELin1ELi1EEEEELin1ELi1ELi0ELin1ELi1EEEEENS2_INS_13CwiseBinaryOpINS0_17scalar_product_opIS6_S6_EEKNS_12ArrayWrapperIS7_EESE_EEEENS0_9assign_opIS6_S6_EELi0EE11assignCoeffEl.cold.2, symObjAddr: 0x61B20, symBinAddr: 0x100065F04, symSize: 0x24 }
  - { offsetInCU: 0x483ACF, offset: 0x483ACF, size: 0x8, addend: 0x0, symName: __ZN5Eigen8internal31generic_dense_assignment_kernelINS0_9evaluatorINS_6MatrixINS_14AutoDiffScalarINS3_IfLin1ELi1ELi0ELin1ELi1EEEEELin1ELi1ELi0ELin1ELi1EEEEENS2_INS_13CwiseBinaryOpINS0_17scalar_product_opIS6_S6_EEKNS_12ArrayWrapperIS7_EESE_EEEENS0_9assign_opIS6_S6_EELi0EE11assignCoeffEl.cold.3, symObjAddr: 0x61B44, symBinAddr: 0x100065F28, symSize: 0x24 }
  - { offsetInCU: 0x4841CC, offset: 0x4841CC, size: 0x8, addend: 0x0, symName: __ZN5Eigen8internal31generic_dense_assignment_kernelINS0_9evaluatorINS_6MatrixINS_14AutoDiffScalarINS3_IfLin1ELi1ELi0ELin1ELi1EEEEELin1ELi1ELi0ELin1ELi1EEEEENS2_INS_13CwiseBinaryOpINS0_18scalar_quotient_opIS6_S6_EEKNS_12ArrayWrapperIS7_EESE_EEEENS0_9assign_opIS6_S6_EELi0EE11assignCoeffEl.cold.1, symObjAddr: 0x61B68, symBinAddr: 0x100065F4C, symSize: 0x24 }
  - { offsetInCU: 0x484267, offset: 0x484267, size: 0x8, addend: 0x0, symName: __ZN5Eigen8internal31generic_dense_assignment_kernelINS0_9evaluatorINS_6MatrixINS_14AutoDiffScalarINS3_IfLin1ELi1ELi0ELin1ELi1EEEEELin1ELi1ELi0ELin1ELi1EEEEENS2_INS_13CwiseBinaryOpINS0_18scalar_quotient_opIS6_S6_EEKNS_12ArrayWrapperIS7_EESE_EEEENS0_9assign_opIS6_S6_EELi0EE11assignCoeffEl.cold.2, symObjAddr: 0x61B8C, symBinAddr: 0x100065F70, symSize: 0x24 }
  - { offsetInCU: 0x484302, offset: 0x484302, size: 0x8, addend: 0x0, symName: __ZN5Eigen8internal31generic_dense_assignment_kernelINS0_9evaluatorINS_6MatrixINS_14AutoDiffScalarINS3_IfLin1ELi1ELi0ELin1ELi1EEEEELin1ELi1ELi0ELin1ELi1EEEEENS2_INS_13CwiseBinaryOpINS0_18scalar_quotient_opIS6_S6_EEKNS_12ArrayWrapperIS7_EESE_EEEENS0_9assign_opIS6_S6_EELi0EE11assignCoeffEl.cold.3, symObjAddr: 0x61BB0, symBinAddr: 0x100065F94, symSize: 0x24 }
  - { offsetInCU: 0x4843C5, offset: 0x4843C5, size: 0x8, addend: 0x0, symName: __ZNK5Eigen8internal16binary_evaluatorINS_13CwiseBinaryOpINS0_17scalar_product_opINS_14AutoDiffScalarINS_6MatrixIfLin1ELi1ELi0ELin1ELi1EEEEES7_EEKNS_12ArrayWrapperINS5_IS7_Lin1ELi1ELi0ELin1ELi1EEEEEKNS_12CwiseUnaryOpINS0_13scalar_log_opIS7_EESC_EEEENS0_10IndexBasedESJ_S7_S7_E5coeffEl, symObjAddr: 0x28AF0, symBinAddr: 0x10002C6E8, symSize: 0x380 }
  - { offsetInCU: 0x4856AD, offset: 0x4856AD, size: 0x8, addend: 0x0, symName: __ZNK5Eigen8internal16binary_evaluatorINS_13CwiseBinaryOpINS0_17scalar_product_opINS_14AutoDiffScalarINS_6MatrixIfLin1ELi1ELi0ELin1ELi1EEEEES7_EEKNS_12ArrayWrapperINS5_IS7_Lin1ELi1ELi0ELin1ELi1EEEEEKNS_12CwiseUnaryOpINS0_13scalar_log_opIS7_EESC_EEEENS0_10IndexBasedESJ_S7_S7_E5coeffEl.cold.1, symObjAddr: 0x61BD4, symBinAddr: 0x100065FB8, symSize: 0x24 }
  - { offsetInCU: 0x485837, offset: 0x485837, size: 0x8, addend: 0x0, symName: __ZN7LBFGSpp21LineSearchMoreThuenteIfE15cubic_minimizerERKfS3_S3_S3_S3_S3_Rb, symObjAddr: 0x291D4, symBinAddr: 0x10002CDCC, symSize: 0x160 }
  - { offsetInCU: 0x485ACB, offset: 0x485ACB, size: 0x8, addend: 0x0, symName: __ZN7LBFGSpp12LBFGSBSolverIfNS_21LineSearchMoreThuenteEE12force_boundsERN5Eigen6MatrixIfLin1ELi1ELi0ELin1ELi1EEERKS5_S8_, symObjAddr: 0x2AF54, symBinAddr: 0x10002EB4C, symSize: 0x180 }
  - { offsetInCU: 0x486418, offset: 0x486418, size: 0x8, addend: 0x0, symName: __ZN7LBFGSpp12LBFGSBSolverIfNS_21LineSearchMoreThuenteEE5resetEi, symObjAddr: 0x2B0D4, symBinAddr: 0x10002ECCC, symSize: 0x134 }
  - { offsetInCU: 0x486423, offset: 0x486423, size: 0x8, addend: 0x0, symName: __ZN7LBFGSpp12LBFGSBSolverIfNS_21LineSearchMoreThuenteEE5resetEi, symObjAddr: 0x2B0D4, symBinAddr: 0x10002ECCC, symSize: 0x134 }
  - { offsetInCU: 0x486874, offset: 0x486874, size: 0x8, addend: 0x0, symName: __ZN7LBFGSpp12LBFGSBSolverIfNS_21LineSearchMoreThuenteEE14proj_grad_normERKN5Eigen6MatrixIfLin1ELi1ELi0ELin1ELi1EEES7_S7_S7_, symObjAddr: 0x2B208, symBinAddr: 0x10002EE00, symSize: 0xC0 }
  - { offsetInCU: 0x48687F, offset: 0x48687F, size: 0x8, addend: 0x0, symName: __ZN7LBFGSpp12LBFGSBSolverIfNS_21LineSearchMoreThuenteEE14proj_grad_normERKN5Eigen6MatrixIfLin1ELi1ELi0ELin1ELi1EEES7_S7_S7_, symObjAddr: 0x2B208, symBinAddr: 0x10002EE00, symSize: 0xC0 }
  - { offsetInCU: 0x48724F, offset: 0x48724F, size: 0x8, addend: 0x0, symName: __ZN7LBFGSpp6CauchyIfE16get_cauchy_pointERKNS_7BFGSMatIfLb1EEERKN5Eigen6MatrixIfLin1ELi1ELi0ELin1ELi1EEESA_SA_SA_RS8_SB_RNSt3__16vectorIiNSC_9allocatorIiEEEESH_, symObjAddr: 0x2B2C8, symBinAddr: 0x10002EEC0, symSize: 0x1D88 }
  - { offsetInCU: 0x49050E, offset: 0x49050E, size: 0x8, addend: 0x0, symName: __ZN7LBFGSpp12LBFGSBSolverIfNS_21LineSearchMoreThuenteEE13max_step_sizeERKN5Eigen6MatrixIfLin1ELi1ELi0ELin1ELi1EEES7_S7_S7_, symObjAddr: 0x2D050, symBinAddr: 0x100030C48, symSize: 0xD0 }
  - { offsetInCU: 0x4906A6, offset: 0x4906A6, size: 0x8, addend: 0x0, symName: __ZN7LBFGSpp7BFGSMatIfLb1EE5resetEii, symObjAddr: 0x2D120, symBinAddr: 0x100030D18, symSize: 0x294 }
  - { offsetInCU: 0x4906B1, offset: 0x4906B1, size: 0x8, addend: 0x0, symName: __ZN7LBFGSpp7BFGSMatIfLb1EE5resetEii, symObjAddr: 0x2D120, symBinAddr: 0x100030D18, symSize: 0x294 }
  - { offsetInCU: 0x490E97, offset: 0x490E97, size: 0x8, addend: 0x0, symName: __ZN7LBFGSpp21LineSearchMoreThuenteIfE10LineSearchI5BoardNS_11LBFGSBParamIfEEEEvRT_RKT0_RKN5Eigen6MatrixIfLin1ELi1ELi0ELin1ELi1EEESF_RKfRfSI_RSD_SI_SJ_, symObjAddr: 0x2D3B4, symBinAddr: 0x100030FAC, symSize: 0xAD4 }
  - { offsetInCU: 0x4942E3, offset: 0x4942E3, size: 0x8, addend: 0x0, symName: __ZN7LBFGSpp7BFGSMatIfLb1EE14add_correctionERKN5Eigen3RefIKNS2_6MatrixIfLin1ELi1ELi0ELin1ELi1EEELi0ENS2_11InnerStrideILi1EEEEESB_, symObjAddr: 0x2DE88, symBinAddr: 0x100031A80, symSize: 0xF84 }
  - { offsetInCU: 0x498FCA, offset: 0x498FCA, size: 0x8, addend: 0x0, symName: __ZN7LBFGSpp11SubspaceMinIfE17subspace_minimizeERKNS_7BFGSMatIfLb1EEERKN5Eigen6MatrixIfLin1ELi1ELi0ELin1ELi1EEESA_SA_SA_SA_SA_RKNSt3__16vectorIiNSB_9allocatorIiEEEESH_iRS8_, symObjAddr: 0x2EE0C, symBinAddr: 0x100032A04, symSize: 0x2578 }
  - { offsetInCU: 0x4A4EB7, offset: 0x4A4EB7, size: 0x8, addend: 0x0, symName: __ZN7LBFGSpp12LBFGSBSolverIfNS_21LineSearchMoreThuenteEE8minimizeI5BoardEEiRT_RN5Eigen6MatrixIfLin1ELi1ELi0ELin1ELi1EEERfRKS9_SD_.cold.2, symObjAddr: 0x61C1C, symBinAddr: 0x100066000, symSize: 0x24 }
  - { offsetInCU: 0x4A4EE4, offset: 0x4A4EE4, size: 0x8, addend: 0x0, symName: __ZN7LBFGSpp12LBFGSBSolverIfNS_21LineSearchMoreThuenteEE8minimizeI5BoardEEiRT_RN5Eigen6MatrixIfLin1ELi1ELi0ELin1ELi1EEERfRKS9_SD_.cold.1, symObjAddr: 0x61BF8, symBinAddr: 0x100065FDC, symSize: 0x24 }
  - { offsetInCU: 0x4A4F51, offset: 0x4A4F51, size: 0x8, addend: 0x0, symName: __ZN7LBFGSpp7BFGSMatIfLb1EED2Ev, symObjAddr: 0x2AEDC, symBinAddr: 0x10002EAD4, symSize: 0x78 }
  - { offsetInCU: 0x4A5939, offset: 0x4A5939, size: 0x8, addend: 0x0, symName: __ZNK7LBFGSpp11LBFGSBParamIfE11check_paramEv, symObjAddr: 0x2AC84, symBinAddr: 0x10002E87C, symSize: 0x258 }
  - { offsetInCU: 0x4A6096, offset: 0x4A6096, size: 0x8, addend: 0x0, symName: __ZN7LBFGSpp12LBFGSBSolverIfNS_21LineSearchMoreThuenteEE12force_boundsERN5Eigen6MatrixIfLin1ELi1ELi0ELin1ELi1EEERKS5_S8_.cold.2, symObjAddr: 0x61C64, symBinAddr: 0x100066048, symSize: 0x24 }
  - { offsetInCU: 0x4A60ED, offset: 0x4A60ED, size: 0x8, addend: 0x0, symName: __ZN7LBFGSpp12LBFGSBSolverIfNS_21LineSearchMoreThuenteEE12force_boundsERN5Eigen6MatrixIfLin1ELi1ELi0ELin1ELi1EEERKS5_S8_.cold.1, symObjAddr: 0x61C40, symBinAddr: 0x100066024, symSize: 0x24 }
  - { offsetInCU: 0x4A6144, offset: 0x4A6144, size: 0x8, addend: 0x0, symName: __ZN7LBFGSpp12LBFGSBSolverIfNS_21LineSearchMoreThuenteEE5resetEi.cold.1, symObjAddr: 0x61C88, symBinAddr: 0x10006606C, symSize: 0x24 }
  - { offsetInCU: 0x4A6A3D, offset: 0x4A6A3D, size: 0x8, addend: 0x0, symName: __ZN5Eigen8internal10redux_implINS0_13scalar_max_opIffLi0EEENS0_15redux_evaluatorINS_12CwiseUnaryOpINS0_13scalar_abs_opIfEEKNS_13CwiseBinaryOpINS0_20scalar_difference_opIffEEKNS8_INS0_13scalar_min_opIffLi0EEEKNS8_IS3_KNS8_ISA_KNS_6MatrixIfLin1ELi1ELi0ELin1ELi1EEESF_EESF_EESF_EESF_EEEEEELi3ELi0EE3runISO_EEfRKSP_RKS3_RKT_, symObjAddr: 0x31384, symBinAddr: 0x100034F7C, symSize: 0x3E4 }
  - { offsetInCU: 0x4A6B08, offset: 0x4A6B08, size: 0x8, addend: 0x0, symName: __ZN5Eigen8internal10redux_implINS0_13scalar_max_opIffLi0EEENS0_15redux_evaluatorINS_12CwiseUnaryOpINS0_13scalar_abs_opIfEEKNS_13CwiseBinaryOpINS0_20scalar_difference_opIffEEKNS8_INS0_13scalar_min_opIffLi0EEEKNS8_IS3_KNS8_ISA_KNS_6MatrixIfLin1ELi1ELi0ELin1ELi1EEESF_EESF_EESF_EESF_EEEEEELi3ELi0EE3runISO_EEfRKSP_RKS3_RKT_, symObjAddr: 0x31384, symBinAddr: 0x100034F7C, symSize: 0x3E4 }
  - { offsetInCU: 0x4A6B23, offset: 0x4A6B23, size: 0x8, addend: 0x0, symName: __ZN5Eigen8internal10redux_implINS0_13scalar_max_opIffLi0EEENS0_15redux_evaluatorINS_12CwiseUnaryOpINS0_13scalar_abs_opIfEEKNS_13CwiseBinaryOpINS0_20scalar_difference_opIffEEKNS8_INS0_13scalar_min_opIffLi0EEEKNS8_IS3_KNS8_ISA_KNS_6MatrixIfLin1ELi1ELi0ELin1ELi1EEESF_EESF_EESF_EESF_EEEEEELi3ELi0EE3runISO_EEfRKSP_RKS3_RKT_, symObjAddr: 0x31384, symBinAddr: 0x100034F7C, symSize: 0x3E4 }
  - { offsetInCU: 0x4A6B3E, offset: 0x4A6B3E, size: 0x8, addend: 0x0, symName: __ZN5Eigen8internal10redux_implINS0_13scalar_max_opIffLi0EEENS0_15redux_evaluatorINS_12CwiseUnaryOpINS0_13scalar_abs_opIfEEKNS_13CwiseBinaryOpINS0_20scalar_difference_opIffEEKNS8_INS0_13scalar_min_opIffLi0EEEKNS8_IS3_KNS8_ISA_KNS_6MatrixIfLin1ELi1ELi0ELin1ELi1EEESF_EESF_EESF_EESF_EEEEEELi3ELi0EE3runISO_EEfRKSP_RKS3_RKT_, symObjAddr: 0x31384, symBinAddr: 0x100034F7C, symSize: 0x3E4 }
  - { offsetInCU: 0x4A6B59, offset: 0x4A6B59, size: 0x8, addend: 0x0, symName: __ZN5Eigen8internal10redux_implINS0_13scalar_max_opIffLi0EEENS0_15redux_evaluatorINS_12CwiseUnaryOpINS0_13scalar_abs_opIfEEKNS_13CwiseBinaryOpINS0_20scalar_difference_opIffEEKNS8_INS0_13scalar_min_opIffLi0EEEKNS8_IS3_KNS8_ISA_KNS_6MatrixIfLin1ELi1ELi0ELin1ELi1EEESF_EESF_EESF_EESF_EEEEEELi3ELi0EE3runISO_EEfRKSP_RKS3_RKT_, symObjAddr: 0x31384, symBinAddr: 0x100034F7C, symSize: 0x3E4 }
  - { offsetInCU: 0x4A8955, offset: 0x4A8955, size: 0x8, addend: 0x0, symName: __ZN7LBFGSpp12LBFGSBSolverIfNS_21LineSearchMoreThuenteEE14proj_grad_normERKN5Eigen6MatrixIfLin1ELi1ELi0ELin1ELi1EEES7_S7_S7_.cold.4, symObjAddr: 0x61D18, symBinAddr: 0x1000660FC, symSize: 0x24 }
  - { offsetInCU: 0x4A89AD, offset: 0x4A89AD, size: 0x8, addend: 0x0, symName: __ZN7LBFGSpp12LBFGSBSolverIfNS_21LineSearchMoreThuenteEE14proj_grad_normERKN5Eigen6MatrixIfLin1ELi1ELi0ELin1ELi1EEES7_S7_S7_.cold.3, symObjAddr: 0x61CF4, symBinAddr: 0x1000660D8, symSize: 0x24 }
  - { offsetInCU: 0x4A8A04, offset: 0x4A8A04, size: 0x8, addend: 0x0, symName: __ZN7LBFGSpp12LBFGSBSolverIfNS_21LineSearchMoreThuenteEE14proj_grad_normERKN5Eigen6MatrixIfLin1ELi1ELi0ELin1ELi1EEES7_S7_S7_.cold.2, symObjAddr: 0x61CD0, symBinAddr: 0x1000660B4, symSize: 0x24 }
  - { offsetInCU: 0x4A8A5B, offset: 0x4A8A5B, size: 0x8, addend: 0x0, symName: __ZN7LBFGSpp12LBFGSBSolverIfNS_21LineSearchMoreThuenteEE14proj_grad_normERKN5Eigen6MatrixIfLin1ELi1ELi0ELin1ELi1EEES7_S7_S7_.cold.1, symObjAddr: 0x61CAC, symBinAddr: 0x100066090, symSize: 0x24 }
  - { offsetInCU: 0x4A8E0E, offset: 0x4A8E0E, size: 0x8, addend: 0x0, symName: __ZNK7LBFGSpp7BFGSMatIfLb1EE9apply_WtvERKN5Eigen6MatrixIfLin1ELi1ELi0ELin1ELi1EEERS4_, symObjAddr: 0x31768, symBinAddr: 0x100035360, symSize: 0x1D0 }
  - { offsetInCU: 0x4A9A53, offset: 0x4A9A53, size: 0x8, addend: 0x0, symName: __ZNK7LBFGSpp7BFGSMatIfLb1EE8apply_MvERKN5Eigen6MatrixIfLin1ELi1ELi0ELin1ELi1EEERS4_, symObjAddr: 0x31938, symBinAddr: 0x100035530, symSize: 0xA4C }
  - { offsetInCU: 0x4AB3BB, offset: 0x4AB3BB, size: 0x8, addend: 0x0, symName: __ZNK7LBFGSpp7BFGSMatIfLb1EE2WbEi, symObjAddr: 0x32384, symBinAddr: 0x100035F7C, symSize: 0x39C }
  - { offsetInCU: 0x4ABD20, offset: 0x4ABD20, size: 0x8, addend: 0x0, symName: __ZN7LBFGSpp6CauchyIfE16get_cauchy_pointERKNS_7BFGSMatIfLb1EEERKN5Eigen6MatrixIfLin1ELi1ELi0ELin1ELi1EEESA_SA_SA_RS8_SB_RNSt3__16vectorIiNSC_9allocatorIiEEEESH_.cold.1, symObjAddr: 0x61D3C, symBinAddr: 0x100066120, symSize: 0x24 }
  - { offsetInCU: 0x4ABD4E, offset: 0x4ABD4E, size: 0x8, addend: 0x0, symName: __ZN7LBFGSpp6CauchyIfE16get_cauchy_pointERKNS_7BFGSMatIfLb1EEERKN5Eigen6MatrixIfLin1ELi1ELi0ELin1ELi1EEESA_SA_SA_RS8_SB_RNSt3__16vectorIiNSC_9allocatorIiEEEESH_.cold.2, symObjAddr: 0x61D60, symBinAddr: 0x100066144, symSize: 0x24 }
  - { offsetInCU: 0x4ABD7C, offset: 0x4ABD7C, size: 0x8, addend: 0x0, symName: __ZN7LBFGSpp6CauchyIfE16get_cauchy_pointERKNS_7BFGSMatIfLb1EEERKN5Eigen6MatrixIfLin1ELi1ELi0ELin1ELi1EEESA_SA_SA_RS8_SB_RNSt3__16vectorIiNSC_9allocatorIiEEEESH_.cold.3, symObjAddr: 0x61D84, symBinAddr: 0x100066168, symSize: 0x24 }
  - { offsetInCU: 0x4ABDEC, offset: 0x4ABDEC, size: 0x8, addend: 0x0, symName: __ZN7LBFGSpp6CauchyIfE16get_cauchy_pointERKNS_7BFGSMatIfLb1EEERKN5Eigen6MatrixIfLin1ELi1ELi0ELin1ELi1EEESA_SA_SA_RS8_SB_RNSt3__16vectorIiNSC_9allocatorIiEEEESH_.cold.4, symObjAddr: 0x61DA8, symBinAddr: 0x10006618C, symSize: 0x24 }
  - { offsetInCU: 0x4ABE87, offset: 0x4ABE87, size: 0x8, addend: 0x0, symName: __ZN7LBFGSpp12LBFGSBSolverIfNS_21LineSearchMoreThuenteEE13max_step_sizeERKN5Eigen6MatrixIfLin1ELi1ELi0ELin1ELi1EEES7_S7_S7_.cold.1, symObjAddr: 0x61DCC, symBinAddr: 0x1000661B0, symSize: 0x24 }
  - { offsetInCU: 0x4ABEB4, offset: 0x4ABEB4, size: 0x8, addend: 0x0, symName: __ZN7LBFGSpp12LBFGSBSolverIfNS_21LineSearchMoreThuenteEE13max_step_sizeERKN5Eigen6MatrixIfLin1ELi1ELi0ELin1ELi1EEES7_S7_S7_.cold.3, symObjAddr: 0x61E14, symBinAddr: 0x1000661F8, symSize: 0x24 }
  - { offsetInCU: 0x4ABEE1, offset: 0x4ABEE1, size: 0x8, addend: 0x0, symName: __ZN7LBFGSpp12LBFGSBSolverIfNS_21LineSearchMoreThuenteEE13max_step_sizeERKN5Eigen6MatrixIfLin1ELi1ELi0ELin1ELi1EEES7_S7_S7_.cold.2, symObjAddr: 0x61DF0, symBinAddr: 0x1000661D4, symSize: 0x24 }
  - { offsetInCU: 0x4ABF0E, offset: 0x4ABF0E, size: 0x8, addend: 0x0, symName: __ZN7LBFGSpp12LBFGSBSolverIfNS_21LineSearchMoreThuenteEE13max_step_sizeERKN5Eigen6MatrixIfLin1ELi1ELi0ELin1ELi1EEES7_S7_S7_.cold.5, symObjAddr: 0x61E5C, symBinAddr: 0x100066240, symSize: 0x24 }
  - { offsetInCU: 0x4ABF3B, offset: 0x4ABF3B, size: 0x8, addend: 0x0, symName: __ZN7LBFGSpp12LBFGSBSolverIfNS_21LineSearchMoreThuenteEE13max_step_sizeERKN5Eigen6MatrixIfLin1ELi1ELi0ELin1ELi1EEES7_S7_S7_.cold.4, symObjAddr: 0x61E38, symBinAddr: 0x10006621C, symSize: 0x24 }
  - { offsetInCU: 0x4AC26C, offset: 0x4AC26C, size: 0x8, addend: 0x0, symName: __ZN7LBFGSpp7BFGSMatIfLb1EE5resetEii.cold.3, symObjAddr: 0x61EC8, symBinAddr: 0x1000662AC, symSize: 0x28 }
  - { offsetInCU: 0x4AC2C4, offset: 0x4AC2C4, size: 0x8, addend: 0x0, symName: __ZN7LBFGSpp7BFGSMatIfLb1EE5resetEii.cold.1, symObjAddr: 0x61E80, symBinAddr: 0x100066264, symSize: 0x24 }
  - { offsetInCU: 0x4AC2F2, offset: 0x4AC2F2, size: 0x8, addend: 0x0, symName: __ZN7LBFGSpp7BFGSMatIfLb1EE5resetEii.cold.2, symObjAddr: 0x61EA4, symBinAddr: 0x100066288, symSize: 0x24 }
  - { offsetInCU: 0x4AD1F2, offset: 0x4AD1F2, size: 0x8, addend: 0x0, symName: __ZN5Eigen15PlainObjectBaseINS_6MatrixIfLin1ELi1ELi0ELin1ELi1EEEEC2INS_7ProductINS_9TransposeINS_5BlockINS1_IfLin1ELin1ELi0ELin1ELin1EEELin1ELin1ELb1EEEEENS7_IS8_Lin1ELi1ELb1EEELi0EEEEERKNS_9DenseBaseIT_EE, symObjAddr: 0x35AF4, symBinAddr: 0x1000396EC, symSize: 0x110 }
  - { offsetInCU: 0x4AD7CF, offset: 0x4AD7CF, size: 0x8, addend: 0x0, symName: __ZN7LBFGSpp6BKLDLTIfE7computeERKN5Eigen3RefIKNS2_6MatrixIfLin1ELin1ELi0ELin1ELin1EEELi0ENS2_11OuterStrideILin1EEEEEiRKf, symObjAddr: 0x356F8, symBinAddr: 0x1000392F0, symSize: 0x3FC }
  - { offsetInCU: 0x4AE2D6, offset: 0x4AE2D6, size: 0x8, addend: 0x0, symName: __ZN7LBFGSpp7BFGSMatIfLb1EE14add_correctionERKN5Eigen3RefIKNS2_6MatrixIfLin1ELi1ELi0ELin1ELi1EEELi0ENS2_11InnerStrideILi1EEEEESB_.cold.7, symObjAddr: 0x61FC8, symBinAddr: 0x1000663AC, symSize: 0x24 }
  - { offsetInCU: 0x4AE32F, offset: 0x4AE32F, size: 0x8, addend: 0x0, symName: __ZN7LBFGSpp7BFGSMatIfLb1EE14add_correctionERKN5Eigen3RefIKNS2_6MatrixIfLin1ELi1ELi0ELin1ELi1EEELi0ENS2_11InnerStrideILi1EEEEESB_.cold.9, symObjAddr: 0x62010, symBinAddr: 0x1000663F4, symSize: 0x24 }
  - { offsetInCU: 0x4AE35D, offset: 0x4AE35D, size: 0x8, addend: 0x0, symName: __ZN7LBFGSpp7BFGSMatIfLb1EE14add_correctionERKN5Eigen3RefIKNS2_6MatrixIfLin1ELi1ELi0ELin1ELi1EEELi0ENS2_11InnerStrideILi1EEEEESB_.cold.2, symObjAddr: 0x61F14, symBinAddr: 0x1000662F8, symSize: 0x24 }
  - { offsetInCU: 0x4AE3B6, offset: 0x4AE3B6, size: 0x8, addend: 0x0, symName: __ZN7LBFGSpp7BFGSMatIfLb1EE14add_correctionERKN5Eigen3RefIKNS2_6MatrixIfLin1ELi1ELi0ELin1ELi1EEELi0ENS2_11InnerStrideILi1EEEEESB_.cold.18, symObjAddr: 0x62154, symBinAddr: 0x100066538, symSize: 0x24 }
  - { offsetInCU: 0x4AE40F, offset: 0x4AE40F, size: 0x8, addend: 0x0, symName: __ZN7LBFGSpp7BFGSMatIfLb1EE14add_correctionERKN5Eigen3RefIKNS2_6MatrixIfLin1ELi1ELi0ELin1ELi1EEELi0ENS2_11InnerStrideILi1EEEEESB_.cold.16, symObjAddr: 0x6210C, symBinAddr: 0x1000664F0, symSize: 0x24 }
  - { offsetInCU: 0x4AE468, offset: 0x4AE468, size: 0x8, addend: 0x0, symName: __ZN7LBFGSpp7BFGSMatIfLb1EE14add_correctionERKN5Eigen3RefIKNS2_6MatrixIfLin1ELi1ELi0ELin1ELi1EEELi0ENS2_11InnerStrideILi1EEEEESB_.cold.15, symObjAddr: 0x620E8, symBinAddr: 0x1000664CC, symSize: 0x24 }
  - { offsetInCU: 0x4AE4C1, offset: 0x4AE4C1, size: 0x8, addend: 0x0, symName: __ZN7LBFGSpp7BFGSMatIfLb1EE14add_correctionERKN5Eigen3RefIKNS2_6MatrixIfLin1ELi1ELi0ELin1ELi1EEELi0ENS2_11InnerStrideILi1EEEEESB_.cold.12, symObjAddr: 0x6207C, symBinAddr: 0x100066460, symSize: 0x24 }
  - { offsetInCU: 0x4AE4EF, offset: 0x4AE4EF, size: 0x8, addend: 0x0, symName: __ZN7LBFGSpp7BFGSMatIfLb1EE14add_correctionERKN5Eigen3RefIKNS2_6MatrixIfLin1ELi1ELi0ELin1ELi1EEELi0ENS2_11InnerStrideILi1EEEEESB_.cold.11, symObjAddr: 0x62058, symBinAddr: 0x10006643C, symSize: 0x24 }
  - { offsetInCU: 0x4AE548, offset: 0x4AE548, size: 0x8, addend: 0x0, symName: __ZN7LBFGSpp7BFGSMatIfLb1EE14add_correctionERKN5Eigen3RefIKNS2_6MatrixIfLin1ELi1ELi0ELin1ELi1EEELi0ENS2_11InnerStrideILi1EEEEESB_.cold.8, symObjAddr: 0x61FEC, symBinAddr: 0x1000663D0, symSize: 0x24 }
  - { offsetInCU: 0x4AE5A1, offset: 0x4AE5A1, size: 0x8, addend: 0x0, symName: __ZN7LBFGSpp7BFGSMatIfLb1EE14add_correctionERKN5Eigen3RefIKNS2_6MatrixIfLin1ELi1ELi0ELin1ELi1EEELi0ENS2_11InnerStrideILi1EEEEESB_.cold.14, symObjAddr: 0x620C4, symBinAddr: 0x1000664A8, symSize: 0x24 }
  - { offsetInCU: 0x4AE5CF, offset: 0x4AE5CF, size: 0x8, addend: 0x0, symName: __ZN7LBFGSpp7BFGSMatIfLb1EE14add_correctionERKN5Eigen3RefIKNS2_6MatrixIfLin1ELi1ELi0ELin1ELi1EEELi0ENS2_11InnerStrideILi1EEEEESB_.cold.6, symObjAddr: 0x61FA4, symBinAddr: 0x100066388, symSize: 0x24 }
  - { offsetInCU: 0x4AE67E, offset: 0x4AE67E, size: 0x8, addend: 0x0, symName: __ZN7LBFGSpp7BFGSMatIfLb1EE14add_correctionERKN5Eigen3RefIKNS2_6MatrixIfLin1ELi1ELi0ELin1ELi1EEELi0ENS2_11InnerStrideILi1EEEEESB_.cold.13, symObjAddr: 0x620A0, symBinAddr: 0x100066484, symSize: 0x24 }
  - { offsetInCU: 0x4AE6EC, offset: 0x4AE6EC, size: 0x8, addend: 0x0, symName: __ZN7LBFGSpp7BFGSMatIfLb1EE14add_correctionERKN5Eigen3RefIKNS2_6MatrixIfLin1ELi1ELi0ELin1ELi1EEELi0ENS2_11InnerStrideILi1EEEEESB_.cold.10, symObjAddr: 0x62034, symBinAddr: 0x100066418, symSize: 0x24 }
  - { offsetInCU: 0x4AE745, offset: 0x4AE745, size: 0x8, addend: 0x0, symName: __ZN7LBFGSpp7BFGSMatIfLb1EE14add_correctionERKN5Eigen3RefIKNS2_6MatrixIfLin1ELi1ELi0ELin1ELi1EEELi0ENS2_11InnerStrideILi1EEEEESB_.cold.1, symObjAddr: 0x61EF0, symBinAddr: 0x1000662D4, symSize: 0x24 }
  - { offsetInCU: 0x4AE7F4, offset: 0x4AE7F4, size: 0x8, addend: 0x0, symName: __ZN7LBFGSpp7BFGSMatIfLb1EE14add_correctionERKN5Eigen3RefIKNS2_6MatrixIfLin1ELi1ELi0ELin1ELi1EEELi0ENS2_11InnerStrideILi1EEEEESB_.cold.3, symObjAddr: 0x61F38, symBinAddr: 0x10006631C, symSize: 0x24 }
  - { offsetInCU: 0x4AE8A3, offset: 0x4AE8A3, size: 0x8, addend: 0x0, symName: __ZN7LBFGSpp7BFGSMatIfLb1EE14add_correctionERKN5Eigen3RefIKNS2_6MatrixIfLin1ELi1ELi0ELin1ELi1EEELi0ENS2_11InnerStrideILi1EEEEESB_.cold.4, symObjAddr: 0x61F5C, symBinAddr: 0x100066340, symSize: 0x24 }
  - { offsetInCU: 0x4AE952, offset: 0x4AE952, size: 0x8, addend: 0x0, symName: __ZN7LBFGSpp7BFGSMatIfLb1EE14add_correctionERKN5Eigen3RefIKNS2_6MatrixIfLin1ELi1ELi0ELin1ELi1EEELi0ENS2_11InnerStrideILi1EEEEESB_.cold.5, symObjAddr: 0x61F80, symBinAddr: 0x100066364, symSize: 0x24 }
  - { offsetInCU: 0x4AEA01, offset: 0x4AEA01, size: 0x8, addend: 0x0, symName: __ZN7LBFGSpp7BFGSMatIfLb1EE14add_correctionERKN5Eigen3RefIKNS2_6MatrixIfLin1ELi1ELi0ELin1ELi1EEELi0ENS2_11InnerStrideILi1EEEEESB_.cold.19, symObjAddr: 0x62178, symBinAddr: 0x10006655C, symSize: 0x24 }
  - { offsetInCU: 0x4AEAA3, offset: 0x4AEAA3, size: 0x8, addend: 0x0, symName: __ZN7LBFGSpp7BFGSMatIfLb1EE14add_correctionERKN5Eigen3RefIKNS2_6MatrixIfLin1ELi1ELi0ELin1ELi1EEELi0ENS2_11InnerStrideILi1EEEEESB_.cold.17, symObjAddr: 0x62130, symBinAddr: 0x100066514, symSize: 0x24 }
  - { offsetInCU: 0x4AEFB1, offset: 0x4AEFB1, size: 0x8, addend: 0x0, symName: __ZNK7LBFGSpp7BFGSMatIfLb1EE2WbERKNSt3__16vectorIiNS2_9allocatorIiEEEE, symObjAddr: 0x38410, symBinAddr: 0x10003C008, symSize: 0x1F4 }
  - { offsetInCU: 0x4AF446, offset: 0x4AF446, size: 0x8, addend: 0x0, symName: __ZNK7LBFGSpp7BFGSMatIfLb1EE13compute_FtBAbERKN5Eigen6MatrixIfLin1ELin1ELi0ELin1ELin1EEERKNSt3__16vectorIiNS7_9allocatorIiEEEESD_RKNS3_IfLin1ELi1ELi0ELin1ELi1EEESG_RSE_, symObjAddr: 0x38604, symBinAddr: 0x10003C1FC, symSize: 0x6D8 }
  - { offsetInCU: 0x4B0BE0, offset: 0x4B0BE0, size: 0x8, addend: 0x0, symName: __ZNK7LBFGSpp7BFGSMatIfLb1EE10solve_PtBPERKN5Eigen6MatrixIfLin1ELin1ELi0ELin1ELin1EEERKNS3_IfLin1ELi1ELi0ELin1ELi1EEERS7_, symObjAddr: 0x38CDC, symBinAddr: 0x10003C8D4, symSize: 0x1024 }
  - { offsetInCU: 0x4B52E8, offset: 0x4B52E8, size: 0x8, addend: 0x0, symName: __ZN7LBFGSpp11SubspaceMinIfE9in_boundsERKN5Eigen6MatrixIfLin1ELi1ELi0ELin1ELi1EEES6_S6_, symObjAddr: 0x39D00, symBinAddr: 0x10003D8F8, symSize: 0xB4 }
  - { offsetInCU: 0x4B542A, offset: 0x4B542A, size: 0x8, addend: 0x0, symName: __ZN7LBFGSpp11SubspaceMinIfE6subvecERKN5Eigen6MatrixIfLin1ELi1ELi0ELin1ELi1EEERKNSt3__16vectorIiNS7_9allocatorIiEEEE, symObjAddr: 0x39DB4, symBinAddr: 0x10003D9AC, symSize: 0xF8 }
  - { offsetInCU: 0x4B5435, offset: 0x4B5435, size: 0x8, addend: 0x0, symName: __ZN7LBFGSpp11SubspaceMinIfE6subvecERKN5Eigen6MatrixIfLin1ELi1ELi0ELin1ELi1EEERKNSt3__16vectorIiNS7_9allocatorIiEEEE, symObjAddr: 0x39DB4, symBinAddr: 0x10003D9AC, symSize: 0xF8 }
  - { offsetInCU: 0x4B56F8, offset: 0x4B56F8, size: 0x8, addend: 0x0, symName: __ZNK7LBFGSpp7BFGSMatIfLb1EE11apply_PtBQvERKN5Eigen6MatrixIfLin1ELin1ELi0ELin1ELin1EEERKNSt3__16vectorIiNS7_9allocatorIiEEEERKNS3_IfLin1ELi1ELi0ELin1ELi1EEERSE_b, symObjAddr: 0x39EAC, symBinAddr: 0x10003DAA4, symSize: 0x490 }
  - { offsetInCU: 0x4B6BF1, offset: 0x4B6BF1, size: 0x8, addend: 0x0, symName: __ZNK7LBFGSpp7BFGSMatIfLb1EE10apply_WtPvERKNSt3__16vectorIiNS2_9allocatorIiEEEERKN5Eigen6MatrixIfLin1ELi1ELi0ELin1ELi1EEERSB_b, symObjAddr: 0x3A33C, symBinAddr: 0x10003DF34, symSize: 0x9D0 }
  - { offsetInCU: 0x4B868C, offset: 0x4B868C, size: 0x8, addend: 0x0, symName: __ZNK7LBFGSpp7BFGSMatIfLb1EE11apply_PtWMvERKNSt3__16vectorIiNS2_9allocatorIiEEEERKN5Eigen6MatrixIfLin1ELi1ELi0ELin1ELi1EEERSB_RKf, symObjAddr: 0x3AD0C, symBinAddr: 0x10003E904, symSize: 0x548 }
  - { offsetInCU: 0x4B9675, offset: 0x4B9675, size: 0x8, addend: 0x0, symName: __ZN7LBFGSpp11SubspaceMinIfE11P_convergedERKNSt3__16vectorIiNS2_9allocatorIiEEEERKN5Eigen6MatrixIfLin1ELi1ELi0ELin1ELi1EEESD_SD_, symObjAddr: 0x3B254, symBinAddr: 0x10003EE4C, symSize: 0xAC }
  - { offsetInCU: 0x4B9787, offset: 0x4B9787, size: 0x8, addend: 0x0, symName: __ZNK7LBFGSpp7BFGSMatIfLb1EE11apply_PtWMvERKN5Eigen6MatrixIfLin1ELin1ELi0ELin1ELin1EEERKNS3_IfLin1ELi1ELi0ELin1ELi1EEERS7_RKf, symObjAddr: 0x3B300, symBinAddr: 0x10003EEF8, symSize: 0x3B0 }
  - { offsetInCU: 0x4B9792, offset: 0x4B9792, size: 0x8, addend: 0x0, symName: __ZN7LBFGSpp11SubspaceMinIfE17subspace_minimizeERKNS_7BFGSMatIfLb1EEERKN5Eigen6MatrixIfLin1ELi1ELi0ELin1ELi1EEESA_SA_SA_SA_SA_RKNSt3__16vectorIiNSB_9allocatorIiEEEESH_iRS8_.cold.2, symObjAddr: 0x621C0, symBinAddr: 0x1000665A4, symSize: 0x24 }
  - { offsetInCU: 0x4B97EB, offset: 0x4B97EB, size: 0x8, addend: 0x0, symName: __ZN7LBFGSpp11SubspaceMinIfE17subspace_minimizeERKNS_7BFGSMatIfLb1EEERKN5Eigen6MatrixIfLin1ELi1ELi0ELin1ELi1EEESA_SA_SA_SA_SA_RKNSt3__16vectorIiNSB_9allocatorIiEEEESH_iRS8_.cold.1, symObjAddr: 0x6219C, symBinAddr: 0x100066580, symSize: 0x24 }
  - { offsetInCU: 0x4BA2B3, offset: 0x4BA2B3, size: 0x8, addend: 0x0, symName: __ZN5Eigen8internal10AssignmentINS_5BlockINS_6MatrixIfLin1ELi1ELi0ELin1ELi1EEELin1ELi1ELb0EEENS_7ProductINS_9TransposeIKNS2_IKNS3_IfLin1ELin1ELi0ELin1ELin1EEELin1ELin1ELb1EEEEES4_Li0EEENS0_9assign_opIffEENS0_11Dense2DenseEvE3runERS5_RKSD_RKSF_, symObjAddr: 0x33604, symBinAddr: 0x1000371FC, symSize: 0x11C }
  - { offsetInCU: 0x4BA835, offset: 0x4BA835, size: 0x8, addend: 0x0, symName: __ZN5Eigen8internal20generic_product_implINS_9TransposeIKNS_5BlockIKNS_6MatrixIfLin1ELin1ELi0ELin1ELin1EEELin1ELin1ELb1EEEEENS4_IfLin1ELi1ELi0ELin1ELi1EEENS_10DenseShapeESB_Li7EE13scaleAndAddToINS3_ISA_Lin1ELi1ELb0EEEEEvRT_RKS9_RKSA_RKf, symObjAddr: 0x33720, symBinAddr: 0x100037318, symSize: 0x1A0 }
  - { offsetInCU: 0x4BA84C, offset: 0x4BA84C, size: 0x8, addend: 0x0, symName: __ZN5Eigen8internal10AssignmentINS_5BlockINS_6MatrixIfLin1ELi1ELi0ELin1ELi1EEELin1ELi1ELb0EEENS_7ProductINS_13CwiseBinaryOpINS0_17scalar_product_opIffEEKNS_14CwiseNullaryOpINS0_18scalar_constant_opIfEEKNS3_IfLin1ELin1ELi1ELin1ELin1EEEEEKNS_9TransposeIKNS2_IKNS3_IfLin1ELin1ELi0ELin1ELin1EEELin1ELin1ELb1EEEEEEES4_Li0EEENS0_9assign_opIffEENS0_11Dense2DenseEvE3runERS5_RKSP_RKSR_, symObjAddr: 0x34590, symBinAddr: 0x100038188, symSize: 0x11C }
  - { offsetInCU: 0x4BADEE, offset: 0x4BADEE, size: 0x8, addend: 0x0, symName: __ZN5Eigen8internal20generic_product_implINS_13CwiseBinaryOpINS0_17scalar_product_opIffEEKNS_14CwiseNullaryOpINS0_18scalar_constant_opIfEEKNS_6MatrixIfLin1ELin1ELi1ELin1ELin1EEEEEKNS_9TransposeIKNS_5BlockIKNS8_IfLin1ELin1ELi0ELin1ELin1EEELin1ELin1ELb1EEEEEEENS8_IfLin1ELi1ELi0ELin1ELi1EEENS_10DenseShapeESN_Li7EE13scaleAndAddToINSE_ISM_Lin1ELi1ELb0EEEEEvRT_RKSL_RKSM_RKf, symObjAddr: 0x346AC, symBinAddr: 0x1000382A4, symSize: 0x1FC }
  - { offsetInCU: 0x4BADF9, offset: 0x4BADF9, size: 0x8, addend: 0x0, symName: __ZNK7LBFGSpp7BFGSMatIfLb1EE9apply_WtvERKN5Eigen6MatrixIfLin1ELi1ELi0ELin1ELi1EEERS4_.cold.3, symObjAddr: 0x6222C, symBinAddr: 0x100066610, symSize: 0x24 }
  - { offsetInCU: 0x4BAE52, offset: 0x4BAE52, size: 0x8, addend: 0x0, symName: __ZNK7LBFGSpp7BFGSMatIfLb1EE9apply_WtvERKN5Eigen6MatrixIfLin1ELi1ELi0ELin1ELi1EEERS4_.cold.4, symObjAddr: 0x62250, symBinAddr: 0x100066634, symSize: 0x24 }
  - { offsetInCU: 0x4BAEC0, offset: 0x4BAEC0, size: 0x8, addend: 0x0, symName: __ZNK7LBFGSpp7BFGSMatIfLb1EE9apply_WtvERKN5Eigen6MatrixIfLin1ELi1ELi0ELin1ELi1EEERS4_.cold.6, symObjAddr: 0x62298, symBinAddr: 0x10006667C, symSize: 0x24 }
  - { offsetInCU: 0x4BAF19, offset: 0x4BAF19, size: 0x8, addend: 0x0, symName: __ZNK7LBFGSpp7BFGSMatIfLb1EE9apply_WtvERKN5Eigen6MatrixIfLin1ELi1ELi0ELin1ELi1EEERS4_.cold.8, symObjAddr: 0x622E0, symBinAddr: 0x1000666C4, symSize: 0x24 }
  - { offsetInCU: 0x4BAF87, offset: 0x4BAF87, size: 0x8, addend: 0x0, symName: __ZNK7LBFGSpp7BFGSMatIfLb1EE9apply_WtvERKN5Eigen6MatrixIfLin1ELi1ELi0ELin1ELi1EEERS4_.cold.1, symObjAddr: 0x621E4, symBinAddr: 0x1000665C8, symSize: 0x24 }
  - { offsetInCU: 0x4BAFB5, offset: 0x4BAFB5, size: 0x8, addend: 0x0, symName: __ZNK7LBFGSpp7BFGSMatIfLb1EE9apply_WtvERKN5Eigen6MatrixIfLin1ELi1ELi0ELin1ELi1EEERS4_.cold.2, symObjAddr: 0x62208, symBinAddr: 0x1000665EC, symSize: 0x24 }
  - { offsetInCU: 0x4BB04E, offset: 0x4BB04E, size: 0x8, addend: 0x0, symName: __ZNK7LBFGSpp7BFGSMatIfLb1EE9apply_WtvERKN5Eigen6MatrixIfLin1ELi1ELi0ELin1ELi1EEERS4_.cold.10, symObjAddr: 0x62328, symBinAddr: 0x10006670C, symSize: 0x24 }
  - { offsetInCU: 0x4BB0A7, offset: 0x4BB0A7, size: 0x8, addend: 0x0, symName: __ZNK7LBFGSpp7BFGSMatIfLb1EE9apply_WtvERKN5Eigen6MatrixIfLin1ELi1ELi0ELin1ELi1EEERS4_.cold.5, symObjAddr: 0x62274, symBinAddr: 0x100066658, symSize: 0x24 }
  - { offsetInCU: 0x4BB140, offset: 0x4BB140, size: 0x8, addend: 0x0, symName: __ZNK7LBFGSpp7BFGSMatIfLb1EE9apply_WtvERKN5Eigen6MatrixIfLin1ELi1ELi0ELin1ELi1EEERS4_.cold.7, symObjAddr: 0x622BC, symBinAddr: 0x1000666A0, symSize: 0x24 }
  - { offsetInCU: 0x4BB199, offset: 0x4BB199, size: 0x8, addend: 0x0, symName: __ZNK7LBFGSpp7BFGSMatIfLb1EE9apply_WtvERKN5Eigen6MatrixIfLin1ELi1ELi0ELin1ELi1EEERS4_.cold.9, symObjAddr: 0x62304, symBinAddr: 0x1000666E8, symSize: 0x24 }
  - { offsetInCU: 0x4BB9D3, offset: 0x4BB9D3, size: 0x8, addend: 0x0, symName: __ZNK7LBFGSpp6BKLDLTIfE13solve_inplaceEN5Eigen3RefINS2_6MatrixIfLin1ELi1ELi0ELin1ELi1EEELi0ENS2_11InnerStrideILi1EEEEE, symObjAddr: 0x34A4C, symBinAddr: 0x100038644, symSize: 0xCAC }
  - { offsetInCU: 0x4BDABF, offset: 0x4BDABF, size: 0x8, addend: 0x0, symName: __ZNK7LBFGSpp7BFGSMatIfLb1EE8apply_MvERKN5Eigen6MatrixIfLin1ELi1ELi0ELin1ELi1EEERS4_.cold.1, symObjAddr: 0x6234C, symBinAddr: 0x100066730, symSize: 0x24 }
  - { offsetInCU: 0x4BDAED, offset: 0x4BDAED, size: 0x8, addend: 0x0, symName: __ZNK7LBFGSpp7BFGSMatIfLb1EE8apply_MvERKN5Eigen6MatrixIfLin1ELi1ELi0ELin1ELi1EEERS4_.cold.2, symObjAddr: 0x62370, symBinAddr: 0x100066754, symSize: 0x24 }
  - { offsetInCU: 0x4BDDB2, offset: 0x4BDDB2, size: 0x8, addend: 0x0, symName: __ZNK7LBFGSpp7BFGSMatIfLb1EE2WbEi.cold.1, symObjAddr: 0x62394, symBinAddr: 0x100066778, symSize: 0x24 }
  - { offsetInCU: 0x4BE335, offset: 0x4BE335, size: 0x8, addend: 0x0, symName: __ZN5Eigen8internal20generic_product_implINS_9TransposeIKNS_5BlockIKNS_6MatrixIfLin1ELin1ELi0ELin1ELin1EEELin1ELin1ELb1EEEEENS4_IfLin1ELi1ELi0ELin1ELi1EEENS_10DenseShapeESB_Li7EE13scaleAndAddToINS3_ISA_Lin1ELi1ELb0EEEEEvRT_RKS9_RKSA_RKf, symObjAddr: 0x33720, symBinAddr: 0x100037318, symSize: 0x1A0 }
  - { offsetInCU: 0x4BEF55, offset: 0x4BEF55, size: 0x8, addend: 0x0, symName: __ZN5Eigen8internal19gemv_dense_selectorILi2ELi1ELb1EE3runINS_9TransposeIKNS_5BlockIKNS_6MatrixIfLin1ELin1ELi0ELin1ELin1EEELin1ELin1ELb1EEEEENS6_IfLin1ELi1ELi0ELin1ELi1EEENS5_ISC_Lin1ELi1ELb0EEEEEvRKT_RKT0_RT1_RKNSK_6ScalarE, symObjAddr: 0x338C0, symBinAddr: 0x1000374B8, symSize: 0x1A0 }
  - { offsetInCU: 0x4BEF69, offset: 0x4BEF69, size: 0x8, addend: 0x0, symName: __ZN5Eigen8internal10AssignmentINS_5BlockINS_6MatrixIfLin1ELi1ELi0ELin1ELi1EEELin1ELi1ELb0EEENS_7ProductINS_9TransposeIKNS2_IKNS3_IfLin1ELin1ELi0ELin1ELin1EEELin1ELin1ELb1EEEEES4_Li0EEENS0_9assign_opIffEENS0_11Dense2DenseEvE3runERS5_RKSD_RKSF_.cold.1, symObjAddr: 0x623B8, symBinAddr: 0x10006679C, symSize: 0x24 }
  - { offsetInCU: 0x4BF017, offset: 0x4BF017, size: 0x8, addend: 0x0, symName: __ZN5Eigen8internal10AssignmentINS_5BlockINS_6MatrixIfLin1ELi1ELi0ELin1ELi1EEELin1ELi1ELb0EEENS_7ProductINS_9TransposeIKNS2_IKNS3_IfLin1ELin1ELi0ELin1ELin1EEELin1ELin1ELb1EEEEES4_Li0EEENS0_9assign_opIffEENS0_11Dense2DenseEvE3runERS5_RKSD_RKSF_.cold.2, symObjAddr: 0x623DC, symBinAddr: 0x1000667C0, symSize: 0x24 }
  - { offsetInCU: 0x4BF744, offset: 0x4BF744, size: 0x8, addend: 0x0, symName: __ZN5Eigen8internal20generic_product_implINS_9TransposeIKNS_5BlockIKNS_6MatrixIfLin1ELin1ELi0ELin1ELin1EEELin1ELin1ELb1EEEEENS4_IfLin1ELi1ELi0ELin1ELi1EEENS_10DenseShapeESB_Li7EE13scaleAndAddToINS3_ISA_Lin1ELi1ELb0EEEEEvRT_RKS9_RKSA_RKf.cold.4, symObjAddr: 0x6246C, symBinAddr: 0x100066850, symSize: 0x24 }
  - { offsetInCU: 0x4BF772, offset: 0x4BF772, size: 0x8, addend: 0x0, symName: __ZN5Eigen8internal20generic_product_implINS_9TransposeIKNS_5BlockIKNS_6MatrixIfLin1ELin1ELi0ELin1ELin1EEELin1ELin1ELb1EEEEENS4_IfLin1ELi1ELi0ELin1ELi1EEENS_10DenseShapeESB_Li7EE13scaleAndAddToINS3_ISA_Lin1ELi1ELb0EEEEEvRT_RKS9_RKSA_RKf.cold.3, symObjAddr: 0x62448, symBinAddr: 0x10006682C, symSize: 0x24 }
  - { offsetInCU: 0x4BF7E0, offset: 0x4BF7E0, size: 0x8, addend: 0x0, symName: __ZN5Eigen8internal20generic_product_implINS_9TransposeIKNS_5BlockIKNS_6MatrixIfLin1ELin1ELi0ELin1ELin1EEELin1ELin1ELb1EEEEENS4_IfLin1ELi1ELi0ELin1ELi1EEENS_10DenseShapeESB_Li7EE13scaleAndAddToINS3_ISA_Lin1ELi1ELb0EEEEEvRT_RKS9_RKSA_RKf.cold.1, symObjAddr: 0x62400, symBinAddr: 0x1000667E4, symSize: 0x24 }
  - { offsetInCU: 0x4BF879, offset: 0x4BF879, size: 0x8, addend: 0x0, symName: __ZN5Eigen8internal20generic_product_implINS_9TransposeIKNS_5BlockIKNS_6MatrixIfLin1ELin1ELi0ELin1ELin1EEELin1ELin1ELb1EEEEENS4_IfLin1ELi1ELi0ELin1ELi1EEENS_10DenseShapeESB_Li7EE13scaleAndAddToINS3_ISA_Lin1ELi1ELb0EEEEEvRT_RKS9_RKSA_RKf.cold.2, symObjAddr: 0x62424, symBinAddr: 0x100066808, symSize: 0x24 }
  - { offsetInCU: 0x4BFC7D, offset: 0x4BFC7D, size: 0x8, addend: 0x0, symName: __ZN5Eigen8internal19gemv_dense_selectorILi2ELi1ELb1EE3runINS_9TransposeIKNS_5BlockIKNS_6MatrixIfLin1ELin1ELi0ELin1ELin1EEELin1ELin1ELb1EEEEENS6_IfLin1ELi1ELi0ELin1ELi1EEENS5_ISC_Lin1ELi1ELb0EEEEEvRKT_RKT0_RT1_RKNSK_6ScalarE.cold.1, symObjAddr: 0x62490, symBinAddr: 0x100066874, symSize: 0x24 }
  - { offsetInCU: 0x4BFF85, offset: 0x4BFF85, size: 0x8, addend: 0x0, symName: __ZN5Eigen8internal20generic_product_implINS_13CwiseBinaryOpINS0_17scalar_product_opIffEEKNS_14CwiseNullaryOpINS0_18scalar_constant_opIfEEKNS_6MatrixIfLin1ELin1ELi1ELin1ELin1EEEEEKNS_9TransposeIKNS_5BlockIKNS8_IfLin1ELin1ELi0ELin1ELin1EEELin1ELin1ELb1EEEEEEENS8_IfLin1ELi1ELi0ELin1ELi1EEENS_10DenseShapeESN_Li7EE13scaleAndAddToINSE_ISM_Lin1ELi1ELb0EEEEEvRT_RKSL_RKSM_RKf, symObjAddr: 0x346AC, symBinAddr: 0x1000382A4, symSize: 0x1FC }
  - { offsetInCU: 0x4C10D7, offset: 0x4C10D7, size: 0x8, addend: 0x0, symName: __ZN5Eigen8internal10AssignmentINS_5BlockINS_6MatrixIfLin1ELi1ELi0ELin1ELi1EEELin1ELi1ELb0EEENS_7ProductINS_13CwiseBinaryOpINS0_17scalar_product_opIffEEKNS_14CwiseNullaryOpINS0_18scalar_constant_opIfEEKNS3_IfLin1ELin1ELi1ELin1ELin1EEEEEKNS_9TransposeIKNS2_IKNS3_IfLin1ELin1ELi0ELin1ELin1EEELin1ELin1ELb1EEEEEEES4_Li0EEENS0_9assign_opIffEENS0_11Dense2DenseEvE3runERS5_RKSP_RKSR_.cold.1, symObjAddr: 0x624B4, symBinAddr: 0x100066898, symSize: 0x24 }
  - { offsetInCU: 0x4C1185, offset: 0x4C1185, size: 0x8, addend: 0x0, symName: __ZN5Eigen8internal10AssignmentINS_5BlockINS_6MatrixIfLin1ELi1ELi0ELin1ELi1EEELin1ELi1ELb0EEENS_7ProductINS_13CwiseBinaryOpINS0_17scalar_product_opIffEEKNS_14CwiseNullaryOpINS0_18scalar_constant_opIfEEKNS3_IfLin1ELin1ELi1ELin1ELin1EEEEEKNS_9TransposeIKNS2_IKNS3_IfLin1ELin1ELi0ELin1ELin1EEELin1ELin1ELb1EEEEEEES4_Li0EEENS0_9assign_opIffEENS0_11Dense2DenseEvE3runERS5_RKSP_RKSR_.cold.2, symObjAddr: 0x624D8, symBinAddr: 0x1000668BC, symSize: 0x24 }
  - { offsetInCU: 0x4C18BE, offset: 0x4C18BE, size: 0x8, addend: 0x0, symName: __ZN5Eigen8internal20generic_product_implINS_13CwiseBinaryOpINS0_17scalar_product_opIffEEKNS_14CwiseNullaryOpINS0_18scalar_constant_opIfEEKNS_6MatrixIfLin1ELin1ELi1ELin1ELin1EEEEEKNS_9TransposeIKNS_5BlockIKNS8_IfLin1ELin1ELi0ELin1ELin1EEELin1ELin1ELb1EEEEEEENS8_IfLin1ELi1ELi0ELin1ELi1EEENS_10DenseShapeESN_Li7EE13scaleAndAddToINSE_ISM_Lin1ELi1ELb0EEEEEvRT_RKSL_RKSM_RKf.cold.3, symObjAddr: 0x62544, symBinAddr: 0x100066928, symSize: 0x24 }
  - { offsetInCU: 0x4C18EC, offset: 0x4C18EC, size: 0x8, addend: 0x0, symName: __ZN5Eigen8internal20generic_product_implINS_13CwiseBinaryOpINS0_17scalar_product_opIffEEKNS_14CwiseNullaryOpINS0_18scalar_constant_opIfEEKNS_6MatrixIfLin1ELin1ELi1ELin1ELin1EEEEEKNS_9TransposeIKNS_5BlockIKNS8_IfLin1ELin1ELi0ELin1ELin1EEELin1ELin1ELb1EEEEEEENS8_IfLin1ELi1ELi0ELin1ELi1EEENS_10DenseShapeESN_Li7EE13scaleAndAddToINSE_ISM_Lin1ELi1ELb0EEEEEvRT_RKSL_RKSM_RKf.cold.2, symObjAddr: 0x62520, symBinAddr: 0x100066904, symSize: 0x24 }
  - { offsetInCU: 0x4C195A, offset: 0x4C195A, size: 0x8, addend: 0x0, symName: __ZN5Eigen8internal20generic_product_implINS_13CwiseBinaryOpINS0_17scalar_product_opIffEEKNS_14CwiseNullaryOpINS0_18scalar_constant_opIfEEKNS_6MatrixIfLin1ELin1ELi1ELin1ELin1EEEEEKNS_9TransposeIKNS_5BlockIKNS8_IfLin1ELin1ELi0ELin1ELin1EEELin1ELin1ELb1EEEEEEENS8_IfLin1ELi1ELi0ELin1ELi1EEENS_10DenseShapeESN_Li7EE13scaleAndAddToINSE_ISM_Lin1ELi1ELb0EEEEEvRT_RKSL_RKSM_RKf.cold.1, symObjAddr: 0x624FC, symBinAddr: 0x1000668E0, symSize: 0x24 }
  - { offsetInCU: 0x4C19F3, offset: 0x4C19F3, size: 0x8, addend: 0x0, symName: __ZN5Eigen8internal19gemv_dense_selectorILi2ELi1ELb1EE3runINS_13CwiseBinaryOpINS0_17scalar_product_opIffEEKNS_14CwiseNullaryOpINS0_18scalar_constant_opIfEEKNS_6MatrixIfLin1ELin1ELi1ELin1ELin1EEEEEKNS_9TransposeIKNS_5BlockIKNSA_IfLin1ELin1ELi0ELin1ELin1EEELin1ELin1ELb1EEEEEEENSA_IfLin1ELi1ELi0ELin1ELi1EEENSG_ISO_Lin1ELi1ELb0EEEEEvRKT_RKT0_RT1_RKNSW_6ScalarE.cold.1, symObjAddr: 0x62568, symBinAddr: 0x10006694C, symSize: 0x24 }
  - { offsetInCU: 0x4C24EA, offset: 0x4C24EA, size: 0x8, addend: 0x0, symName: __ZNK7LBFGSpp6BKLDLTIfE13solve_inplaceEN5Eigen3RefINS2_6MatrixIfLin1ELi1ELi0ELin1ELi1EEELi0ENS2_11InnerStrideILi1EEEEE.cold.7, symObjAddr: 0x62664, symBinAddr: 0x100066A48, symSize: 0x24 }
  - { offsetInCU: 0x4C2558, offset: 0x4C2558, size: 0x8, addend: 0x0, symName: __ZNK7LBFGSpp6BKLDLTIfE13solve_inplaceEN5Eigen3RefINS2_6MatrixIfLin1ELi1ELi0ELin1ELi1EEELi0ENS2_11InnerStrideILi1EEEEE.cold.10, symObjAddr: 0x626D0, symBinAddr: 0x100066AB4, symSize: 0x24 }
  - { offsetInCU: 0x4C25C6, offset: 0x4C25C6, size: 0x8, addend: 0x0, symName: __ZNK7LBFGSpp6BKLDLTIfE13solve_inplaceEN5Eigen3RefINS2_6MatrixIfLin1ELi1ELi0ELin1ELi1EEELi0ENS2_11InnerStrideILi1EEEEE.cold.13, symObjAddr: 0x6273C, symBinAddr: 0x100066B20, symSize: 0x24 }
  - { offsetInCU: 0x4C25F4, offset: 0x4C25F4, size: 0x8, addend: 0x0, symName: __ZNK7LBFGSpp6BKLDLTIfE13solve_inplaceEN5Eigen3RefINS2_6MatrixIfLin1ELi1ELi0ELin1ELi1EEELi0ENS2_11InnerStrideILi1EEEEE.cold.8, symObjAddr: 0x62688, symBinAddr: 0x100066A6C, symSize: 0x24 }
  - { offsetInCU: 0x4C2622, offset: 0x4C2622, size: 0x8, addend: 0x0, symName: __ZNK7LBFGSpp6BKLDLTIfE13solve_inplaceEN5Eigen3RefINS2_6MatrixIfLin1ELi1ELi0ELin1ELi1EEELi0ENS2_11InnerStrideILi1EEEEE.cold.12, symObjAddr: 0x62718, symBinAddr: 0x100066AFC, symSize: 0x24 }
  - { offsetInCU: 0x4C2690, offset: 0x4C2690, size: 0x8, addend: 0x0, symName: __ZNK7LBFGSpp6BKLDLTIfE13solve_inplaceEN5Eigen3RefINS2_6MatrixIfLin1ELi1ELi0ELin1ELi1EEELi0ENS2_11InnerStrideILi1EEEEE.cold.4, symObjAddr: 0x625F8, symBinAddr: 0x1000669DC, symSize: 0x24 }
  - { offsetInCU: 0x4C26E8, offset: 0x4C26E8, size: 0x8, addend: 0x0, symName: __ZNK7LBFGSpp6BKLDLTIfE13solve_inplaceEN5Eigen3RefINS2_6MatrixIfLin1ELi1ELi0ELin1ELi1EEELi0ENS2_11InnerStrideILi1EEEEE.cold.6, symObjAddr: 0x62640, symBinAddr: 0x100066A24, symSize: 0x24 }
  - { offsetInCU: 0x4C2716, offset: 0x4C2716, size: 0x8, addend: 0x0, symName: __ZNK7LBFGSpp6BKLDLTIfE13solve_inplaceEN5Eigen3RefINS2_6MatrixIfLin1ELi1ELi0ELin1ELi1EEELi0ENS2_11InnerStrideILi1EEEEE.cold.9, symObjAddr: 0x626AC, symBinAddr: 0x100066A90, symSize: 0x24 }
  - { offsetInCU: 0x4C276E, offset: 0x4C276E, size: 0x8, addend: 0x0, symName: __ZNK7LBFGSpp6BKLDLTIfE13solve_inplaceEN5Eigen3RefINS2_6MatrixIfLin1ELi1ELi0ELin1ELi1EEELi0ENS2_11InnerStrideILi1EEEEE.cold.11, symObjAddr: 0x626F4, symBinAddr: 0x100066AD8, symSize: 0x24 }
  - { offsetInCU: 0x4C27C6, offset: 0x4C27C6, size: 0x8, addend: 0x0, symName: __ZNK7LBFGSpp6BKLDLTIfE13solve_inplaceEN5Eigen3RefINS2_6MatrixIfLin1ELi1ELi0ELin1ELi1EEELi0ENS2_11InnerStrideILi1EEEEE.cold.5, symObjAddr: 0x6261C, symBinAddr: 0x100066A00, symSize: 0x24 }
  - { offsetInCU: 0x4C2834, offset: 0x4C2834, size: 0x8, addend: 0x0, symName: __ZNK7LBFGSpp6BKLDLTIfE13solve_inplaceEN5Eigen3RefINS2_6MatrixIfLin1ELi1ELi0ELin1ELi1EEELi0ENS2_11InnerStrideILi1EEEEE.cold.2, symObjAddr: 0x625B0, symBinAddr: 0x100066994, symSize: 0x24 }
  - { offsetInCU: 0x4C2862, offset: 0x4C2862, size: 0x8, addend: 0x0, symName: __ZNK7LBFGSpp6BKLDLTIfE13solve_inplaceEN5Eigen3RefINS2_6MatrixIfLin1ELi1ELi0ELin1ELi1EEELi0ENS2_11InnerStrideILi1EEEEE.cold.1, symObjAddr: 0x6258C, symBinAddr: 0x100066970, symSize: 0x24 }
  - { offsetInCU: 0x4C28D0, offset: 0x4C28D0, size: 0x8, addend: 0x0, symName: __ZNK7LBFGSpp6BKLDLTIfE13solve_inplaceEN5Eigen3RefINS2_6MatrixIfLin1ELi1ELi0ELin1ELi1EEELi0ENS2_11InnerStrideILi1EEEEE.cold.3, symObjAddr: 0x625D4, symBinAddr: 0x1000669B8, symSize: 0x24 }
  - { offsetInCU: 0x4C2F96, offset: 0x4C2F96, size: 0x8, addend: 0x0, symName: __ZN7LBFGSpp6BKLDLTIfE15compute_pointerEv, symObjAddr: 0x36724, symBinAddr: 0x10003A31C, symSize: 0x16C }
  - { offsetInCU: 0x4C371B, offset: 0x4C371B, size: 0x8, addend: 0x0, symName: __ZN7LBFGSpp6BKLDLTIfE13permutate_matElRKf, symObjAddr: 0x36890, symBinAddr: 0x10003A488, symSize: 0x330 }
  - { offsetInCU: 0x4C3726, offset: 0x4C3726, size: 0x8, addend: 0x0, symName: __ZN7LBFGSpp6BKLDLTIfE13permutate_matElRKf, symObjAddr: 0x36890, symBinAddr: 0x10003A488, symSize: 0x330 }
  - { offsetInCU: 0x4C3BF7, offset: 0x4C3BF7, size: 0x8, addend: 0x0, symName: __ZN7LBFGSpp6BKLDLTIfE24gaussian_elimination_1x1El, symObjAddr: 0x36BC0, symBinAddr: 0x10003A7B8, symSize: 0x468 }
  - { offsetInCU: 0x4C4469, offset: 0x4C4469, size: 0x8, addend: 0x0, symName: __ZN7LBFGSpp6BKLDLTIfE24gaussian_elimination_2x2El, symObjAddr: 0x37028, symBinAddr: 0x10003AC20, symSize: 0xCEC }
  - { offsetInCU: 0x4C4474, offset: 0x4C4474, size: 0x8, addend: 0x0, symName: __ZN7LBFGSpp6BKLDLTIfE24gaussian_elimination_2x2El, symObjAddr: 0x37028, symBinAddr: 0x10003AC20, symSize: 0xCEC }
  - { offsetInCU: 0x4C5D69, offset: 0x4C5D69, size: 0x8, addend: 0x0, symName: __ZN7LBFGSpp6BKLDLTIfE20compress_permutationEv, symObjAddr: 0x37D14, symBinAddr: 0x10003B90C, symSize: 0x154 }
  - { offsetInCU: 0x4C63E7, offset: 0x4C63E7, size: 0x8, addend: 0x0, symName: __ZN5Eigen8internal28conditional_aligned_new_autoIlLb1EEEPT_m, symObjAddr: 0x37E68, symBinAddr: 0x10003BA60, symSize: 0x68 }
  - { offsetInCU: 0x4C63F2, offset: 0x4C63F2, size: 0x8, addend: 0x0, symName: __ZN7LBFGSpp6BKLDLTIfE7computeERKN5Eigen3RefIKNS2_6MatrixIfLin1ELin1ELi0ELin1ELin1EEELi0ENS2_11OuterStrideILin1EEEEEiRKf.cold.1, symObjAddr: 0x62760, symBinAddr: 0x100066B44, symSize: 0x24 }
  - { offsetInCU: 0x4C6420, offset: 0x4C6420, size: 0x8, addend: 0x0, symName: __ZN7LBFGSpp6BKLDLTIfE7computeERKN5Eigen3RefIKNS2_6MatrixIfLin1ELin1ELi0ELin1ELin1EEELi0ENS2_11OuterStrideILin1EEEEEiRKf.cold.2, symObjAddr: 0x62784, symBinAddr: 0x100066B68, symSize: 0x24 }
  - { offsetInCU: 0x4C6630, offset: 0x4C6630, size: 0x8, addend: 0x0, symName: __ZN5Eigen8internal20generic_product_implINS_9TransposeINS_5BlockINS_6MatrixIfLin1ELin1ELi0ELin1ELin1EEELin1ELin1ELb1EEEEENS3_IS5_Lin1ELi1ELb1EEENS_10DenseShapeES9_Li7EE13scaleAndAddToINS4_IfLin1ELi1ELi0ELin1ELi1EEEEEvRT_RKS7_RKS8_RKf, symObjAddr: 0x35C04, symBinAddr: 0x1000397FC, symSize: 0x1B8 }
  - { offsetInCU: 0x4C7257, offset: 0x4C7257, size: 0x8, addend: 0x0, symName: __ZN5Eigen8internal19gemv_dense_selectorILi2ELi1ELb1EE3runINS_9TransposeINS_5BlockINS_6MatrixIfLin1ELin1ELi0ELin1ELin1EEELin1ELin1ELb1EEEEENS5_IS7_Lin1ELi1ELb1EEENS6_IfLin1ELi1ELi0ELin1ELi1EEEEEvRKT_RKT0_RT1_RKNSI_6ScalarE, symObjAddr: 0x35DBC, symBinAddr: 0x1000399B4, symSize: 0x1A0 }
  - { offsetInCU: 0x4C798A, offset: 0x4C798A, size: 0x8, addend: 0x0, symName: __ZN5Eigen8internal20generic_product_implINS_9TransposeINS_5BlockINS_6MatrixIfLin1ELin1ELi0ELin1ELin1EEELin1ELin1ELb1EEEEENS3_IS5_Lin1ELi1ELb1EEENS_10DenseShapeES9_Li7EE13scaleAndAddToINS4_IfLin1ELi1ELi0ELin1ELi1EEEEEvRT_RKS7_RKS8_RKf.cold.4, symObjAddr: 0x62814, symBinAddr: 0x100066BF8, symSize: 0x24 }
  - { offsetInCU: 0x4C79B8, offset: 0x4C79B8, size: 0x8, addend: 0x0, symName: __ZN5Eigen8internal20generic_product_implINS_9TransposeINS_5BlockINS_6MatrixIfLin1ELin1ELi0ELin1ELin1EEELin1ELin1ELb1EEEEENS3_IS5_Lin1ELi1ELb1EEENS_10DenseShapeES9_Li7EE13scaleAndAddToINS4_IfLin1ELi1ELi0ELin1ELi1EEEEEvRT_RKS7_RKS8_RKf.cold.3, symObjAddr: 0x627F0, symBinAddr: 0x100066BD4, symSize: 0x24 }
  - { offsetInCU: 0x4C7A26, offset: 0x4C7A26, size: 0x8, addend: 0x0, symName: __ZN5Eigen8internal20generic_product_implINS_9TransposeINS_5BlockINS_6MatrixIfLin1ELin1ELi0ELin1ELin1EEELin1ELin1ELb1EEEEENS3_IS5_Lin1ELi1ELb1EEENS_10DenseShapeES9_Li7EE13scaleAndAddToINS4_IfLin1ELi1ELi0ELin1ELi1EEEEEvRT_RKS7_RKS8_RKf.cold.1, symObjAddr: 0x627A8, symBinAddr: 0x100066B8C, symSize: 0x24 }
  - { offsetInCU: 0x4C7ABF, offset: 0x4C7ABF, size: 0x8, addend: 0x0, symName: __ZN5Eigen8internal20generic_product_implINS_9TransposeINS_5BlockINS_6MatrixIfLin1ELin1ELi0ELin1ELin1EEELin1ELin1ELb1EEEEENS3_IS5_Lin1ELi1ELb1EEENS_10DenseShapeES9_Li7EE13scaleAndAddToINS4_IfLin1ELi1ELi0ELin1ELi1EEEEEvRT_RKS7_RKS8_RKf.cold.2, symObjAddr: 0x627CC, symBinAddr: 0x100066BB0, symSize: 0x24 }
  - { offsetInCU: 0x4C7D59, offset: 0x4C7D59, size: 0x8, addend: 0x0, symName: __ZN5Eigen8internal19gemv_dense_selectorILi2ELi1ELb1EE3runINS_9TransposeINS_5BlockINS_6MatrixIfLin1ELin1ELi0ELin1ELin1EEELin1ELin1ELb1EEEEENS5_IS7_Lin1ELi1ELb1EEENS6_IfLin1ELi1ELi0ELin1ELi1EEEEEvRKT_RKT0_RT1_RKNSI_6ScalarE.cold.1, symObjAddr: 0x62838, symBinAddr: 0x100066C1C, symSize: 0x24 }
  - { offsetInCU: 0x4C8823, offset: 0x4C8823, size: 0x8, addend: 0x0, symName: __ZNKSt3__16vectorIPfNS_9allocatorIS1_EEE20__throw_length_errorB8ue170006Ev, symObjAddr: 0x37ED0, symBinAddr: 0x10003BAC8, symSize: 0x14 }
  - { offsetInCU: 0x4C884C, offset: 0x4C884C, size: 0x8, addend: 0x0, symName: __ZN7LBFGSpp6BKLDLTIfE12pivoting_1x1Ell, symObjAddr: 0x37EE4, symBinAddr: 0x10003BADC, symSize: 0x188 }
  - { offsetInCU: 0x4C89A3, offset: 0x4C89A3, size: 0x8, addend: 0x0, symName: __ZN7LBFGSpp6BKLDLTIfE12pivoting_2x2Elll, symObjAddr: 0x3806C, symBinAddr: 0x10003BC64, symSize: 0xB0 }
  - { offsetInCU: 0x4C8D2F, offset: 0x4C8D2F, size: 0x8, addend: 0x0, symName: __ZNKSt3__16vectorINS_4pairIllEENS_9allocatorIS2_EEE20__throw_length_errorB8ue170006Ev, symObjAddr: 0x3811C, symBinAddr: 0x10003BD14, symSize: 0x14 }
  - { offsetInCU: 0x4C8D3A, offset: 0x4C8D3A, size: 0x8, addend: 0x0, symName: __ZN7LBFGSpp6BKLDLTIfE12pivoting_1x1Ell, symObjAddr: 0x37EE4, symBinAddr: 0x10003BADC, symSize: 0x188 }
  - { offsetInCU: 0x4C90E9, offset: 0x4C90E9, size: 0x8, addend: 0x0, symName: __ZN7LBFGSpp6BKLDLTIfE12pivoting_2x2Elll, symObjAddr: 0x3806C, symBinAddr: 0x10003BC64, symSize: 0xB0 }
  - { offsetInCU: 0x4C9563, offset: 0x4C9563, size: 0x8, addend: 0x0, symName: __ZN7LBFGSpp6BKLDLTIfE24gaussian_elimination_1x1El.cold.2, symObjAddr: 0x62880, symBinAddr: 0x100066C64, symSize: 0x24 }
  - { offsetInCU: 0x4C9627, offset: 0x4C9627, size: 0x8, addend: 0x0, symName: __ZN7LBFGSpp6BKLDLTIfE24gaussian_elimination_1x1El.cold.1, symObjAddr: 0x6285C, symBinAddr: 0x100066C40, symSize: 0x24 }
  - { offsetInCU: 0x4CA243, offset: 0x4CA243, size: 0x8, addend: 0x0, symName: __ZN7LBFGSpp6BKLDLTIfE24gaussian_elimination_2x2El.cold.1, symObjAddr: 0x628A4, symBinAddr: 0x100066C88, symSize: 0x24 }
  - { offsetInCU: 0x4CA5F2, offset: 0x4CA5F2, size: 0x8, addend: 0x0, symName: __ZN7LBFGSpp6BKLDLTIfE20compress_permutationEv.cold.1, symObjAddr: 0x628C8, symBinAddr: 0x100066CAC, symSize: 0x24 }
  - { offsetInCU: 0x4CA61F, offset: 0x4CA61F, size: 0x8, addend: 0x0, symName: __ZNKSt3__16vectorINS_4pairIllEENS_9allocatorIS2_EEE20__throw_length_errorB8ue170006Ev, symObjAddr: 0x3811C, symBinAddr: 0x10003BD14, symSize: 0x14 }
  - { offsetInCU: 0x4CA648, offset: 0x4CA648, size: 0x8, addend: 0x0, symName: __ZN5Eigen8internal21dense_assignment_loopINS0_31generic_dense_assignment_kernelINS0_9evaluatorINS_5BlockINS_6MatrixIfLin1ELin1ELi0ELin1ELin1EEELin1ELin1ELb0EEEEENS3_INS_14CwiseNullaryOpINS0_18scalar_constant_opIfEES6_EEEENS0_13div_assign_opIffEELi0EEELi4ELi0EE3runERSG_, symObjAddr: 0x38130, symBinAddr: 0x10003BD28, symSize: 0x2E0 }
  - { offsetInCU: 0x4CA653, offset: 0x4CA653, size: 0x8, addend: 0x0, symName: __ZN5Eigen8internal28conditional_aligned_new_autoIlLb1EEEPT_m.cold.1, symObjAddr: 0x628EC, symBinAddr: 0x100066CD0, symSize: 0x24 }
  - { offsetInCU: 0x4CA6D0, offset: 0x4CA6D0, size: 0x8, addend: 0x0, symName: __ZN7LBFGSpp6BKLDLTIfE12pivoting_1x1Ell.cold.1, symObjAddr: 0x62910, symBinAddr: 0x100066CF4, symSize: 0x24 }
  - { offsetInCU: 0x4CA6FD, offset: 0x4CA6FD, size: 0x8, addend: 0x0, symName: __ZN7LBFGSpp6BKLDLTIfE12pivoting_1x1Ell.cold.2, symObjAddr: 0x62934, symBinAddr: 0x100066D18, symSize: 0x24 }
  - { offsetInCU: 0x4CA74B, offset: 0x4CA74B, size: 0x8, addend: 0x0, symName: __ZN7LBFGSpp6BKLDLTIfE12pivoting_2x2Elll.cold.2, symObjAddr: 0x6297C, symBinAddr: 0x100066D60, symSize: 0x24 }
  - { offsetInCU: 0x4CA778, offset: 0x4CA778, size: 0x8, addend: 0x0, symName: __ZN7LBFGSpp6BKLDLTIfE12pivoting_2x2Elll.cold.1, symObjAddr: 0x62958, symBinAddr: 0x100066D3C, symSize: 0x24 }
  - { offsetInCU: 0x4CA929, offset: 0x4CA929, size: 0x8, addend: 0x0, symName: __ZNK7LBFGSpp7BFGSMatIfLb1EE2WbERKNSt3__16vectorIiNS2_9allocatorIiEEEE.cold.1, symObjAddr: 0x629A0, symBinAddr: 0x100066D84, symSize: 0x24 }
  - { offsetInCU: 0x4CAB8A, offset: 0x4CAB8A, size: 0x8, addend: 0x0, symName: __ZN5Eigen8internal20generic_product_implINS_9TransposeIKNS_6MatrixIfLin1ELin1ELi0ELin1ELin1EEEEENS3_IfLin1ELi1ELi0ELin1ELi1EEENS_10DenseShapeES8_Li7EE13scaleAndAddToIS7_EEvRT_RKS6_RKS7_RKf, symObjAddr: 0x3B6B0, symBinAddr: 0x10003F2A8, symSize: 0x190 }
  - { offsetInCU: 0x4CB7AC, offset: 0x4CB7AC, size: 0x8, addend: 0x0, symName: __ZN5Eigen8internal19gemv_dense_selectorILi2ELi1ELb1EE3runINS_9TransposeIKNS_6MatrixIfLin1ELin1ELi0ELin1ELin1EEEEENS5_IfLin1ELi1ELi0ELin1ELi1EEES9_EEvRKT_RKT0_RT1_RKNSG_6ScalarE, symObjAddr: 0x3B840, symBinAddr: 0x10003F438, symSize: 0x188 }
  - { offsetInCU: 0x4CB7C0, offset: 0x4CB7C0, size: 0x8, addend: 0x0, symName: __ZNK7LBFGSpp7BFGSMatIfLb1EE11apply_PtWMvERKN5Eigen6MatrixIfLin1ELin1ELi0ELin1ELin1EEERKNS3_IfLin1ELi1ELi0ELin1ELi1EEERS7_RKf, symObjAddr: 0x3B300, symBinAddr: 0x10003EEF8, symSize: 0x3B0 }
  - { offsetInCU: 0x4CC4DF, offset: 0x4CC4DF, size: 0x8, addend: 0x0, symName: __ZNK7LBFGSpp7BFGSMatIfLb1EE13compute_FtBAbERKN5Eigen6MatrixIfLin1ELin1ELi0ELin1ELin1EEERKNSt3__16vectorIiNS7_9allocatorIiEEEESD_RKNS3_IfLin1ELi1ELi0ELin1ELi1EEESG_RSE_.cold.1, symObjAddr: 0x629C4, symBinAddr: 0x100066DA8, symSize: 0x24 }
  - { offsetInCU: 0x4CD7F3, offset: 0x4CD7F3, size: 0x8, addend: 0x0, symName: __ZN5Eigen8internal30assignment_from_xpr_op_productINS_5BlockINS_6MatrixIfLin1ELin1ELi0ELin1ELin1EEELin1ELin1ELb0EEENS2_IKS4_Lin1ELin1ELb0EEENS_7ProductINS_9TransposeIKNS2_IS6_Lin1ELin1ELb1EEEEESA_Li0EEENS0_9assign_opIffEENS0_13sub_assign_opIffEEE3runINS_13CwiseBinaryOpINS0_20scalar_difference_opIffEEKS7_KSD_EESF_EEvRS5_RKT_RKT0_, symObjAddr: 0x3C934, symBinAddr: 0x10004052C, symSize: 0x114 }
  - { offsetInCU: 0x4CE027, offset: 0x4CE027, size: 0x8, addend: 0x0, symName: __ZN5Eigen8internal21dense_assignment_loopINS0_31generic_dense_assignment_kernelINS0_9evaluatorINS_5BlockINS_6MatrixIfLin1ELin1ELi0ELin1ELin1EEELin1ELin1ELb0EEEEENS3_INS4_IKS6_Lin1ELin1ELb0EEEEENS0_9assign_opIffEELi0EEELi4ELi0EE3runERSE_, symObjAddr: 0x3CA48, symBinAddr: 0x100040640, symSize: 0x2C4 }
  - { offsetInCU: 0x4CE044, offset: 0x4CE044, size: 0x8, addend: 0x0, symName: __ZN5Eigen15PlainObjectBaseINS_6MatrixIfLin1ELi1ELi0ELin1ELi1EEEEC2INS_7ProductINS_9TransposeIKNS1_IfLin1ELin1ELi0ELin1ELin1EEEEES2_Li0EEEEERKNS_9DenseBaseIT_EE, symObjAddr: 0x40A10, symBinAddr: 0x100044608, symSize: 0x124 }
  - { offsetInCU: 0x4CE642, offset: 0x4CE642, size: 0x8, addend: 0x0, symName: __ZNK7LBFGSpp7BFGSMatIfLb1EE10solve_PtBPERKN5Eigen6MatrixIfLin1ELin1ELi0ELin1ELin1EEERKNS3_IfLin1ELi1ELi0ELin1ELi1EEERS7_.cold.1, symObjAddr: 0x629E8, symBinAddr: 0x100066DCC, symSize: 0x24 }
  - { offsetInCU: 0x4CE672, offset: 0x4CE672, size: 0x8, addend: 0x0, symName: __ZNK7LBFGSpp7BFGSMatIfLb1EE10solve_PtBPERKN5Eigen6MatrixIfLin1ELin1ELi0ELin1ELin1EEERKNS3_IfLin1ELi1ELi0ELin1ELi1EEERS7_.cold.2, symObjAddr: 0x62A0C, symBinAddr: 0x100066DF0, symSize: 0x24 }
  - { offsetInCU: 0x4CE6CC, offset: 0x4CE6CC, size: 0x8, addend: 0x0, symName: __ZN7LBFGSpp11SubspaceMinIfE9in_boundsERKN5Eigen6MatrixIfLin1ELi1ELi0ELin1ELi1EEES6_S6_.cold.1, symObjAddr: 0x62A30, symBinAddr: 0x100066E14, symSize: 0x24 }
  - { offsetInCU: 0x4CE6FA, offset: 0x4CE6FA, size: 0x8, addend: 0x0, symName: __ZN7LBFGSpp11SubspaceMinIfE9in_boundsERKN5Eigen6MatrixIfLin1ELi1ELi0ELin1ELi1EEES6_S6_.cold.2, symObjAddr: 0x62A54, symBinAddr: 0x100066E38, symSize: 0x24 }
  - { offsetInCU: 0x4CE728, offset: 0x4CE728, size: 0x8, addend: 0x0, symName: __ZN7LBFGSpp11SubspaceMinIfE9in_boundsERKN5Eigen6MatrixIfLin1ELi1ELi0ELin1ELi1EEES6_S6_.cold.3, symObjAddr: 0x62A78, symBinAddr: 0x100066E5C, symSize: 0x24 }
  - { offsetInCU: 0x4CE756, offset: 0x4CE756, size: 0x8, addend: 0x0, symName: __ZN7LBFGSpp11SubspaceMinIfE6subvecERKN5Eigen6MatrixIfLin1ELi1ELi0ELin1ELi1EEERKNSt3__16vectorIiNS7_9allocatorIiEEEE.cold.1, symObjAddr: 0x62A9C, symBinAddr: 0x100066E80, symSize: 0x24 }
  - { offsetInCU: 0x4CE9FF, offset: 0x4CE9FF, size: 0x8, addend: 0x0, symName: __ZN5Eigen8internal20generic_product_implINS_12CwiseUnaryOpINS0_18scalar_opposite_opIfEEKNS_6MatrixIfLin1ELin1ELi0ELin1ELin1EEEEENS5_IfLin1ELi1ELi0ELin1ELi1EEENS_10DenseShapeESA_Li7EE13scaleAndAddToIS9_EEvRT_RKS8_RKS9_RKf, symObjAddr: 0x40FE0, symBinAddr: 0x100044BD8, symSize: 0x168 }
  - { offsetInCU: 0x4CF45D, offset: 0x4CF45D, size: 0x8, addend: 0x0, symName: __ZN5Eigen18LevenbergMarquardtIR5BoardfED1Ev, symObjAddr: 0x41148, symBinAddr: 0x100044D40, symSize: 0x68 }
  - { offsetInCU: 0x4CF471, offset: 0x4CF471, size: 0x8, addend: 0x0, symName: __ZNK7LBFGSpp7BFGSMatIfLb1EE11apply_PtBQvERKN5Eigen6MatrixIfLin1ELin1ELi0ELin1ELin1EEERKNSt3__16vectorIiNS7_9allocatorIiEEEERKNS3_IfLin1ELi1ELi0ELin1ELi1EEERSE_b.cold.1, symObjAddr: 0x62AC0, symBinAddr: 0x100066EA4, symSize: 0x24 }
  - { offsetInCU: 0x4CF5F8, offset: 0x4CF5F8, size: 0x8, addend: 0x0, symName: __ZNK7LBFGSpp7BFGSMatIfLb1EE11apply_PtWMvERKNSt3__16vectorIiNS2_9allocatorIiEEEERKN5Eigen6MatrixIfLin1ELi1ELi0ELin1ELi1EEERSB_RKf.cold.1, symObjAddr: 0x62AE4, symBinAddr: 0x100066EC8, symSize: 0x24 }
  - { offsetInCU: 0x4CF628, offset: 0x4CF628, size: 0x8, addend: 0x0, symName: __ZN7LBFGSpp11SubspaceMinIfE11P_convergedERKNSt3__16vectorIiNS2_9allocatorIiEEEERKN5Eigen6MatrixIfLin1ELi1ELi0ELin1ELi1EEESD_SD_.cold.3, symObjAddr: 0x62B50, symBinAddr: 0x100066F34, symSize: 0x24 }
  - { offsetInCU: 0x4CF656, offset: 0x4CF656, size: 0x8, addend: 0x0, symName: __ZN7LBFGSpp11SubspaceMinIfE11P_convergedERKNSt3__16vectorIiNS2_9allocatorIiEEEERKN5Eigen6MatrixIfLin1ELi1ELi0ELin1ELi1EEESD_SD_.cold.2, symObjAddr: 0x62B2C, symBinAddr: 0x100066F10, symSize: 0x24 }
  - { offsetInCU: 0x4CF684, offset: 0x4CF684, size: 0x8, addend: 0x0, symName: __ZN7LBFGSpp11SubspaceMinIfE11P_convergedERKNSt3__16vectorIiNS2_9allocatorIiEEEERKN5Eigen6MatrixIfLin1ELi1ELi0ELin1ELi1EEESD_SD_.cold.1, symObjAddr: 0x62B08, symBinAddr: 0x100066EEC, symSize: 0x24 }
  - { offsetInCU: 0x4CF770, offset: 0x4CF770, size: 0x8, addend: 0x0, symName: __ZN5Eigen8internal10AssignmentINS_6MatrixIfLin1ELi1ELi0ELin1ELi1EEENS_13CwiseBinaryOpINS0_17scalar_product_opIffEEKNS_14CwiseNullaryOpINS0_18scalar_constant_opIfEEKS3_EEKNS_7ProductINS2_IfLin1ELin1ELi0ELin1ELin1EEES3_Li0EEEEENS0_9assign_opIffEENS0_11Dense2DenseEvE3runERS3_RKSH_RKSJ_, symObjAddr: 0x3B9C8, symBinAddr: 0x10003F5C0, symSize: 0x10C }
  - { offsetInCU: 0x4CFE3A, offset: 0x4CFE3A, size: 0x8, addend: 0x0, symName: __ZNK7LBFGSpp7BFGSMatIfLb1EE11apply_PtWMvERKN5Eigen6MatrixIfLin1ELin1ELi0ELin1ELin1EEERKNS3_IfLin1ELi1ELi0ELin1ELi1EEERS7_RKf.cold.1, symObjAddr: 0x62B74, symBinAddr: 0x100066F58, symSize: 0x24 }
  - { offsetInCU: 0x4D0361, offset: 0x4D0361, size: 0x8, addend: 0x0, symName: __ZN5Eigen8internal20generic_product_implINS_9TransposeIKNS_6MatrixIfLin1ELin1ELi0ELin1ELin1EEEEENS3_IfLin1ELi1ELi0ELin1ELi1EEENS_10DenseShapeES8_Li7EE13scaleAndAddToIS7_EEvRT_RKS6_RKS7_RKf.cold.4, symObjAddr: 0x62C04, symBinAddr: 0x100066FE8, symSize: 0x24 }
  - { offsetInCU: 0x4D038F, offset: 0x4D038F, size: 0x8, addend: 0x0, symName: __ZN5Eigen8internal20generic_product_implINS_9TransposeIKNS_6MatrixIfLin1ELin1ELi0ELin1ELin1EEEEENS3_IfLin1ELi1ELi0ELin1ELi1EEENS_10DenseShapeES8_Li7EE13scaleAndAddToIS7_EEvRT_RKS6_RKS7_RKf.cold.3, symObjAddr: 0x62BE0, symBinAddr: 0x100066FC4, symSize: 0x24 }
  - { offsetInCU: 0x4D03FD, offset: 0x4D03FD, size: 0x8, addend: 0x0, symName: __ZN5Eigen8internal20generic_product_implINS_9TransposeIKNS_6MatrixIfLin1ELin1ELi0ELin1ELin1EEEEENS3_IfLin1ELi1ELi0ELin1ELi1EEENS_10DenseShapeES8_Li7EE13scaleAndAddToIS7_EEvRT_RKS6_RKS7_RKf.cold.1, symObjAddr: 0x62B98, symBinAddr: 0x100066F7C, symSize: 0x24 }
  - { offsetInCU: 0x4D0496, offset: 0x4D0496, size: 0x8, addend: 0x0, symName: __ZN5Eigen8internal20generic_product_implINS_9TransposeIKNS_6MatrixIfLin1ELin1ELi0ELin1ELin1EEEEENS3_IfLin1ELi1ELi0ELin1ELi1EEENS_10DenseShapeES8_Li7EE13scaleAndAddToIS7_EEvRT_RKS6_RKS7_RKf.cold.2, symObjAddr: 0x62BBC, symBinAddr: 0x100066FA0, symSize: 0x24 }
  - { offsetInCU: 0x4D052F, offset: 0x4D052F, size: 0x8, addend: 0x0, symName: __ZN5Eigen8internal19gemv_dense_selectorILi2ELi1ELb1EE3runINS_9TransposeIKNS_6MatrixIfLin1ELin1ELi0ELin1ELin1EEEEENS5_IfLin1ELi1ELi0ELin1ELi1EEES9_EEvRKT_RKT0_RT1_RKNSG_6ScalarE.cold.1, symObjAddr: 0x62C28, symBinAddr: 0x10006700C, symSize: 0x24 }
  - { offsetInCU: 0x4D0A64, offset: 0x4D0A64, size: 0x8, addend: 0x0, symName: __ZN5Eigen8internal20generic_product_implINS_13CwiseBinaryOpINS0_17scalar_product_opIffEEKNS_14CwiseNullaryOpINS0_18scalar_constant_opIfEEKNS_6MatrixIfLin1ELin1ELi0ELin1ELin1EEEEESA_EENS8_IfLin1ELi1ELi0ELin1ELi1EEENS_10DenseShapeESF_Li7EE13scaleAndAddToISE_EEvRT_RKSD_RKSE_RKf, symObjAddr: 0x3BAD4, symBinAddr: 0x10003F6CC, symSize: 0x188 }
  - { offsetInCU: 0x4D163E, offset: 0x4D163E, size: 0x8, addend: 0x0, symName: __ZN5Eigen8internal29general_matrix_vector_productIlfNS0_22const_blas_data_mapperIflLi0EEELi0ELb0EfNS2_IflLi1EEELb0ELi0EE3runEllRKS3_RKS4_Pflf, symObjAddr: 0x3BC5C, symBinAddr: 0x10003F854, symSize: 0x5E4 }
  - { offsetInCU: 0x4D1652, offset: 0x4D1652, size: 0x8, addend: 0x0, symName: __ZN5Eigen8internal10AssignmentINS_6MatrixIfLin1ELi1ELi0ELin1ELi1EEENS_13CwiseBinaryOpINS0_17scalar_product_opIffEEKNS_14CwiseNullaryOpINS0_18scalar_constant_opIfEEKS3_EEKNS_7ProductINS2_IfLin1ELin1ELi0ELin1ELin1EEES3_Li0EEEEENS0_9assign_opIffEENS0_11Dense2DenseEvE3runERS3_RKSH_RKSJ_.cold.1, symObjAddr: 0x62C4C, symBinAddr: 0x100067030, symSize: 0x24 }
  - { offsetInCU: 0x4D16AA, offset: 0x4D16AA, size: 0x8, addend: 0x0, symName: __ZN5Eigen8internal10AssignmentINS_6MatrixIfLin1ELi1ELi0ELin1ELi1EEENS_13CwiseBinaryOpINS0_17scalar_product_opIffEEKNS_14CwiseNullaryOpINS0_18scalar_constant_opIfEEKS3_EEKNS_7ProductINS2_IfLin1ELin1ELi0ELin1ELin1EEES3_Li0EEEEENS0_9assign_opIffEENS0_11Dense2DenseEvE3runERS3_RKSH_RKSJ_.cold.4, symObjAddr: 0x62CB8, symBinAddr: 0x10006709C, symSize: 0x24 }
  - { offsetInCU: 0x4D1702, offset: 0x4D1702, size: 0x8, addend: 0x0, symName: __ZN5Eigen8internal10AssignmentINS_6MatrixIfLin1ELi1ELi0ELin1ELi1EEENS_13CwiseBinaryOpINS0_17scalar_product_opIffEEKNS_14CwiseNullaryOpINS0_18scalar_constant_opIfEEKS3_EEKNS_7ProductINS2_IfLin1ELin1ELi0ELin1ELin1EEES3_Li0EEEEENS0_9assign_opIffEENS0_11Dense2DenseEvE3runERS3_RKSH_RKSJ_.cold.2, symObjAddr: 0x62C70, symBinAddr: 0x100067054, symSize: 0x24 }
  - { offsetInCU: 0x4D17DB, offset: 0x4D17DB, size: 0x8, addend: 0x0, symName: __ZN5Eigen8internal10AssignmentINS_6MatrixIfLin1ELi1ELi0ELin1ELi1EEENS_13CwiseBinaryOpINS0_17scalar_product_opIffEEKNS_14CwiseNullaryOpINS0_18scalar_constant_opIfEEKS3_EEKNS_7ProductINS2_IfLin1ELin1ELi0ELin1ELin1EEES3_Li0EEEEENS0_9assign_opIffEENS0_11Dense2DenseEvE3runERS3_RKSH_RKSJ_.cold.3, symObjAddr: 0x62C94, symBinAddr: 0x100067078, symSize: 0x24 }
  - { offsetInCU: 0x4D21BA, offset: 0x4D21BA, size: 0x8, addend: 0x0, symName: __ZN5Eigen8internal20generic_product_implINS_13CwiseBinaryOpINS0_17scalar_product_opIffEEKNS_14CwiseNullaryOpINS0_18scalar_constant_opIfEEKNS_6MatrixIfLin1ELin1ELi0ELin1ELin1EEEEESA_EENS8_IfLin1ELi1ELi0ELin1ELi1EEENS_10DenseShapeESF_Li7EE13scaleAndAddToISE_EEvRT_RKSD_RKSE_RKf.cold.3, symObjAddr: 0x62D24, symBinAddr: 0x100067108, symSize: 0x24 }
  - { offsetInCU: 0x4D21E8, offset: 0x4D21E8, size: 0x8, addend: 0x0, symName: __ZN5Eigen8internal20generic_product_implINS_13CwiseBinaryOpINS0_17scalar_product_opIffEEKNS_14CwiseNullaryOpINS0_18scalar_constant_opIfEEKNS_6MatrixIfLin1ELin1ELi0ELin1ELin1EEEEESA_EENS8_IfLin1ELi1ELi0ELin1ELi1EEENS_10DenseShapeESF_Li7EE13scaleAndAddToISE_EEvRT_RKSD_RKSE_RKf.cold.2, symObjAddr: 0x62D00, symBinAddr: 0x1000670E4, symSize: 0x24 }
  - { offsetInCU: 0x4D2256, offset: 0x4D2256, size: 0x8, addend: 0x0, symName: __ZN5Eigen8internal20generic_product_implINS_13CwiseBinaryOpINS0_17scalar_product_opIffEEKNS_14CwiseNullaryOpINS0_18scalar_constant_opIfEEKNS_6MatrixIfLin1ELin1ELi0ELin1ELin1EEEEESA_EENS8_IfLin1ELi1ELi0ELin1ELi1EEENS_10DenseShapeESF_Li7EE13scaleAndAddToISE_EEvRT_RKSD_RKSE_RKf.cold.1, symObjAddr: 0x62CDC, symBinAddr: 0x1000670C0, symSize: 0x24 }
  - { offsetInCU: 0x4D2E99, offset: 0x4D2E99, size: 0x8, addend: 0x0, symName: __ZN5Eigen8internal20generic_product_implINS_9TransposeIKNS_5BlockIKNS_6MatrixIfLin1ELin1ELi0ELin1ELin1EEELin1ELin1ELb0EEEEENS3_IS6_Lin1ELi1ELb1EEENS_10DenseShapeESB_Li7EE13scaleAndAddToINS4_IfLin1ELi1ELi0ELin1ELi1EEEEEvRT_RKS9_RKSA_RKf, symObjAddr: 0x3C5DC, symBinAddr: 0x1000401D4, symSize: 0x1B8 }
  - { offsetInCU: 0x4D3AC0, offset: 0x4D3AC0, size: 0x8, addend: 0x0, symName: __ZN5Eigen8internal19gemv_dense_selectorILi2ELi1ELb1EE3runINS_9TransposeIKNS_5BlockIKNS_6MatrixIfLin1ELin1ELi0ELin1ELin1EEELin1ELin1ELb0EEEEENS5_IS8_Lin1ELi1ELb1EEENS6_IfLin1ELi1ELi0ELin1ELi1EEEEEvRKT_RKT0_RT1_RKNSK_6ScalarE, symObjAddr: 0x3C794, symBinAddr: 0x10004038C, symSize: 0x1A0 }
  - { offsetInCU: 0x4D3AD4, offset: 0x4D3AD4, size: 0x8, addend: 0x0, symName: __ZN5Eigen8internal26call_dense_assignment_loopINS_5BlockINS2_INS_6MatrixIfLin1ELin1ELi0ELin1ELin1EEELin1ELi1ELb1EEELin1ELi1ELb0EEENS_13CwiseBinaryOpINS0_20scalar_difference_opIffEEKNS2_IKNS2_IKS4_Lin1ELi1ELb1EEELin1ELi1ELb0EEEKNS7_INS0_18scalar_quotient_opIffEEKNS_7ProductINS_9TransposeIKNS2_ISA_Lin1ELin1ELb0EEEEESB_Li0EEEKNS_14CwiseNullaryOpINS0_18scalar_constant_opIfEEKNS3_IfLin1ELi1ELi0ELin1ELi1EEEEEEEEENS0_9assign_opIffEEEEvRT_RKT0_RKT1_.cold.1, symObjAddr: 0x62D48, symBinAddr: 0x10006712C, symSize: 0x24 }
  - { offsetInCU: 0x4D436F, offset: 0x4D436F, size: 0x8, addend: 0x0, symName: __ZN5Eigen8internal20generic_product_implINS_9TransposeIKNS_5BlockIKNS_6MatrixIfLin1ELin1ELi0ELin1ELin1EEELin1ELin1ELb0EEEEENS3_IS6_Lin1ELi1ELb1EEENS_10DenseShapeESB_Li7EE13scaleAndAddToINS4_IfLin1ELi1ELi0ELin1ELi1EEEEEvRT_RKS9_RKSA_RKf.cold.4, symObjAddr: 0x62DD8, symBinAddr: 0x1000671BC, symSize: 0x24 }
  - { offsetInCU: 0x4D439D, offset: 0x4D439D, size: 0x8, addend: 0x0, symName: __ZN5Eigen8internal20generic_product_implINS_9TransposeIKNS_5BlockIKNS_6MatrixIfLin1ELin1ELi0ELin1ELin1EEELin1ELin1ELb0EEEEENS3_IS6_Lin1ELi1ELb1EEENS_10DenseShapeESB_Li7EE13scaleAndAddToINS4_IfLin1ELi1ELi0ELin1ELi1EEEEEvRT_RKS9_RKSA_RKf.cold.3, symObjAddr: 0x62DB4, symBinAddr: 0x100067198, symSize: 0x24 }
  - { offsetInCU: 0x4D440B, offset: 0x4D440B, size: 0x8, addend: 0x0, symName: __ZN5Eigen8internal20generic_product_implINS_9TransposeIKNS_5BlockIKNS_6MatrixIfLin1ELin1ELi0ELin1ELin1EEELin1ELin1ELb0EEEEENS3_IS6_Lin1ELi1ELb1EEENS_10DenseShapeESB_Li7EE13scaleAndAddToINS4_IfLin1ELi1ELi0ELin1ELi1EEEEEvRT_RKS9_RKSA_RKf.cold.1, symObjAddr: 0x62D6C, symBinAddr: 0x100067150, symSize: 0x24 }
  - { offsetInCU: 0x4D44A4, offset: 0x4D44A4, size: 0x8, addend: 0x0, symName: __ZN5Eigen8internal20generic_product_implINS_9TransposeIKNS_5BlockIKNS_6MatrixIfLin1ELin1ELi0ELin1ELin1EEELin1ELin1ELb0EEEEENS3_IS6_Lin1ELi1ELb1EEENS_10DenseShapeESB_Li7EE13scaleAndAddToINS4_IfLin1ELi1ELi0ELin1ELi1EEEEEvRT_RKS9_RKSA_RKf.cold.2, symObjAddr: 0x62D90, symBinAddr: 0x100067174, symSize: 0x24 }
  - { offsetInCU: 0x4D45B7, offset: 0x4D45B7, size: 0x8, addend: 0x0, symName: __ZN5Eigen8internal19gemv_dense_selectorILi2ELi1ELb1EE3runINS_9TransposeIKNS_5BlockIKNS_6MatrixIfLin1ELin1ELi0ELin1ELin1EEELin1ELin1ELb0EEEEENS5_IS8_Lin1ELi1ELb1EEENS6_IfLin1ELi1ELi0ELin1ELi1EEEEEvRKT_RKT0_RT1_RKNSK_6ScalarE.cold.1, symObjAddr: 0x62DFC, symBinAddr: 0x1000671E0, symSize: 0x24 }
  - { offsetInCU: 0x4D4902, offset: 0x4D4902, size: 0x8, addend: 0x0, symName: __ZN5Eigen8internal30assignment_from_xpr_op_productINS_5BlockINS_6MatrixIfLin1ELin1ELi0ELin1ELin1EEELin1ELin1ELb0EEENS2_IKS4_Lin1ELin1ELb0EEENS_7ProductINS_9TransposeIKNS2_IS6_Lin1ELin1ELb1EEEEESA_Li0EEENS0_9assign_opIffEENS0_13sub_assign_opIffEEE3runINS_13CwiseBinaryOpINS0_20scalar_difference_opIffEEKS7_KSD_EESF_EEvRS5_RKT_RKT0_.cold.2, symObjAddr: 0x62E44, symBinAddr: 0x100067228, symSize: 0x24 }
  - { offsetInCU: 0x4D4987, offset: 0x4D4987, size: 0x8, addend: 0x0, symName: __ZN5Eigen8internal20generic_product_implINS_9TransposeIKNS_5BlockIKNS_6MatrixIfLin1ELin1ELi0ELin1ELin1EEELin1ELin1ELb1EEEEES7_NS_10DenseShapeESA_Li3EE17eval_dynamic_implINS3_IS5_Lin1ELin1ELb0EEES9_S7_NS0_13sub_assign_opIffEEfEEvRT_RKT0_RKT1_RKT2_RKT3_NS0_10false_typeE, symObjAddr: 0x3CF80, symBinAddr: 0x100040B78, symSize: 0x134 }
  - { offsetInCU: 0x4D5029, offset: 0x4D5029, size: 0x8, addend: 0x0, symName: __ZNK5Eigen8internal17product_evaluatorINS_7ProductINS_9TransposeIKNS_5BlockIKNS_6MatrixIfLin1ELin1ELi0ELin1ELin1EEELin1ELin1ELb1EEEEES8_Li1EEELi8ENS_10DenseShapeESC_ffE5coeffEll, symObjAddr: 0x3D0B4, symBinAddr: 0x100040CAC, symSize: 0x1A4 }
  - { offsetInCU: 0x4D506D, offset: 0x4D506D, size: 0x8, addend: 0x0, symName: __ZN5Eigen8internal20generic_product_implINS_9TransposeIKNS_5BlockIKNS_6MatrixIfLin1ELin1ELi0ELin1ELin1EEELin1ELin1ELb1EEEEES7_NS_10DenseShapeESA_Li8EE13scaleAndAddToINS3_IS5_Lin1ELin1ELb0EEEEEvRT_RKS9_RS8_RKf, symObjAddr: 0x3CD0C, symBinAddr: 0x100040904, symSize: 0x274 }
  - { offsetInCU: 0x4D62C8, offset: 0x4D62C8, size: 0x8, addend: 0x0, symName: __ZN5Eigen8internal30assignment_from_xpr_op_productINS_5BlockINS_6MatrixIfLin1ELin1ELi0ELin1ELin1EEELin1ELin1ELb0EEENS2_IKS4_Lin1ELin1ELb0EEENS_7ProductINS_9TransposeIKNS2_IS6_Lin1ELin1ELb1EEEEESA_Li0EEENS0_9assign_opIffEENS0_13sub_assign_opIffEEE3runINS_13CwiseBinaryOpINS0_20scalar_difference_opIffEEKS7_KSD_EESF_EEvRS5_RKT_RKT0_.cold.1, symObjAddr: 0x62E20, symBinAddr: 0x100067204, symSize: 0x24 }
  - { offsetInCU: 0x4D6E62, offset: 0x4D6E62, size: 0x8, addend: 0x0, symName: __ZN5Eigen8internal20generic_product_implINS_9TransposeIKNS_5BlockIKNS_6MatrixIfLin1ELin1ELi0ELin1ELin1EEELin1ELin1ELb1EEEEEKNS3_IS8_Lin1ELi1ELb1EEENS_10DenseShapeESC_Li7EE13scaleAndAddToINS3_INS3_IS5_Lin1ELin1ELb0EEELin1ELi1ELb1EEEEEvRT_RKS9_RSB_RKf, symObjAddr: 0x3D258, symBinAddr: 0x100040E50, symSize: 0x1C0 }
  - { offsetInCU: 0x4D7A6B, offset: 0x4D7A6B, size: 0x8, addend: 0x0, symName: __ZN5Eigen8internal20generic_product_implIKNS_5BlockIKNS_9TransposeIKNS2_IKNS_6MatrixIfLin1ELin1ELi0ELin1ELin1EEELin1ELin1ELb1EEEEELi1ELin1ELb1EEES7_NS_10DenseShapeESD_Li7EE13scaleAndAddToINS2_INS2_IS5_Lin1ELin1ELb0EEELi1ELin1ELb0EEEEEvRT_RSC_RS8_RKf, symObjAddr: 0x3D418, symBinAddr: 0x100041010, symSize: 0x1E8 }
  - { offsetInCU: 0x4D7C95, offset: 0x4D7C95, size: 0x8, addend: 0x0, symName: __ZN5Eigen8internal20generic_product_implIKNS_5BlockIKNS_9TransposeIKNS2_IKNS_6MatrixIfLin1ELin1ELi0ELin1ELin1EEELin1ELin1ELb1EEEEELi1ELin1ELb1EEES7_NS_10DenseShapeESD_Li7EE13scaleAndAddToINS2_INS2_IS5_Lin1ELin1ELb0EEELi1ELin1ELb0EEEEEvRT_RSC_RS8_RKf, symObjAddr: 0x3D418, symBinAddr: 0x100041010, symSize: 0x1E8 }
  - { offsetInCU: 0x4D89C0, offset: 0x4D89C0, size: 0x8, addend: 0x0, symName: __ZN5Eigen8internal19gemv_dense_selectorILi2ELi1ELb1EE3runINS_9TransposeIKNS_5BlockIKNS_6MatrixIfLin1ELin1ELi0ELin1ELin1EEELin1ELin1ELb1EEEEENS5_ISA_Lin1ELi1ELb1EEENS5_INS5_IS7_Lin1ELin1ELb0EEELin1ELi1ELb1EEEEEvRKT_RKT0_RT1_RKNSL_6ScalarE, symObjAddr: 0x3D600, symBinAddr: 0x1000411F8, symSize: 0x1A0 }
  - { offsetInCU: 0x4D89D4, offset: 0x4D89D4, size: 0x8, addend: 0x0, symName: __ZN5Eigen8internal29general_matrix_matrix_productIlfLi1ELb0EfLi0ELb0ELi0ELi1EE3runElllPKflS4_lPfllfRNS0_15level3_blockingIffEEPNS0_16GemmParallelInfoIlEE, symObjAddr: 0x3DCB8, symBinAddr: 0x1000418B0, symSize: 0x570 }
  - { offsetInCU: 0x4D9030, offset: 0x4D9030, size: 0x8, addend: 0x0, symName: __ZN5Eigen8internal20generic_product_implINS_9TransposeIKNS_5BlockIKNS_6MatrixIfLin1ELin1ELi0ELin1ELin1EEELin1ELin1ELb1EEEEES7_NS_10DenseShapeESA_Li8EE13scaleAndAddToINS3_IS5_Lin1ELin1ELb0EEEEEvRT_RKS9_RS8_RKf.cold.5, symObjAddr: 0x62EF8, symBinAddr: 0x1000672DC, symSize: 0x28 }
  - { offsetInCU: 0x4D9048, offset: 0x4D9048, size: 0x8, addend: 0x0, symName: __ZN5Eigen8internal20generic_product_implINS_9TransposeIKNS_5BlockIKNS_6MatrixIfLin1ELin1ELi0ELin1ELin1EEELin1ELin1ELb1EEEEES7_NS_10DenseShapeESA_Li8EE13scaleAndAddToINS3_IS5_Lin1ELin1ELb0EEEEEvRT_RKS9_RS8_RKf.cold.1, symObjAddr: 0x62E68, symBinAddr: 0x10006724C, symSize: 0x24 }
  - { offsetInCU: 0x4D90F7, offset: 0x4D90F7, size: 0x8, addend: 0x0, symName: __ZN5Eigen8internal20generic_product_implINS_9TransposeIKNS_5BlockIKNS_6MatrixIfLin1ELin1ELi0ELin1ELin1EEELin1ELin1ELb1EEEEES7_NS_10DenseShapeESA_Li8EE13scaleAndAddToINS3_IS5_Lin1ELin1ELb0EEEEEvRT_RKS9_RS8_RKf.cold.2, symObjAddr: 0x62E8C, symBinAddr: 0x100067270, symSize: 0x24 }
  - { offsetInCU: 0x4D9190, offset: 0x4D9190, size: 0x8, addend: 0x0, symName: __ZN5Eigen8internal20generic_product_implINS_9TransposeIKNS_5BlockIKNS_6MatrixIfLin1ELin1ELi0ELin1ELin1EEELin1ELin1ELb1EEEEES7_NS_10DenseShapeESA_Li8EE13scaleAndAddToINS3_IS5_Lin1ELin1ELb0EEEEEvRT_RKS9_RS8_RKf.cold.3, symObjAddr: 0x62EB0, symBinAddr: 0x100067294, symSize: 0x24 }
  - { offsetInCU: 0x4D923F, offset: 0x4D923F, size: 0x8, addend: 0x0, symName: __ZN5Eigen8internal20generic_product_implINS_9TransposeIKNS_5BlockIKNS_6MatrixIfLin1ELin1ELi0ELin1ELin1EEELin1ELin1ELb1EEEEES7_NS_10DenseShapeESA_Li8EE13scaleAndAddToINS3_IS5_Lin1ELin1ELb0EEEEEvRT_RKS9_RS8_RKf.cold.4, symObjAddr: 0x62ED4, symBinAddr: 0x1000672B8, symSize: 0x24 }
  - { offsetInCU: 0x4D9911, offset: 0x4D9911, size: 0x8, addend: 0x0, symName: __ZNK5Eigen8internal17product_evaluatorINS_7ProductINS_9TransposeIKNS_5BlockIKNS_6MatrixIfLin1ELin1ELi0ELin1ELin1EEELin1ELin1ELb1EEEEES8_Li1EEELi8ENS_10DenseShapeESC_ffE5coeffEll, symObjAddr: 0x3D0B4, symBinAddr: 0x100040CAC, symSize: 0x1A4 }
  - { offsetInCU: 0x4DA4FA, offset: 0x4DA4FA, size: 0x8, addend: 0x0, symName: __ZN5Eigen8internal20generic_product_implINS_9TransposeIKNS_5BlockIKNS_6MatrixIfLin1ELin1ELi0ELin1ELin1EEELin1ELin1ELb1EEEEEKNS3_IS8_Lin1ELi1ELb1EEENS_10DenseShapeESC_Li7EE13scaleAndAddToINS3_INS3_IS5_Lin1ELin1ELb0EEELin1ELi1ELb1EEEEEvRT_RKS9_RSB_RKf, symObjAddr: 0x3D258, symBinAddr: 0x100040E50, symSize: 0x1C0 }
  - { offsetInCU: 0x4DA505, offset: 0x4DA505, size: 0x8, addend: 0x0, symName: __ZN5Eigen8internal20generic_product_implINS_9TransposeIKNS_5BlockIKNS_6MatrixIfLin1ELin1ELi0ELin1ELin1EEELin1ELin1ELb1EEEEES7_NS_10DenseShapeESA_Li3EE17eval_dynamic_implINS3_IS5_Lin1ELin1ELb0EEES9_S7_NS0_13sub_assign_opIffEEfEEvRT_RKT0_RKT1_RKT2_RKT3_NS0_10false_typeE.cold.1, symObjAddr: 0x62F20, symBinAddr: 0x100067304, symSize: 0x24 }
  - { offsetInCU: 0x4DA549, offset: 0x4DA549, size: 0x8, addend: 0x0, symName: __ZN5Eigen8internal20generic_product_implINS_9TransposeIKNS_5BlockIKNS_6MatrixIfLin1ELin1ELi0ELin1ELin1EEELin1ELin1ELb1EEEEES7_NS_10DenseShapeESA_Li3EE17eval_dynamic_implINS3_IS5_Lin1ELin1ELb0EEES9_S7_NS0_13sub_assign_opIffEEfEEvRT_RKT0_RKT1_RKT2_RKT3_NS0_10false_typeE.cold.2, symObjAddr: 0x62F44, symBinAddr: 0x100067328, symSize: 0x24 }
  - { offsetInCU: 0x4DA8F7, offset: 0x4DA8F7, size: 0x8, addend: 0x0, symName: __ZNK5Eigen8internal17product_evaluatorINS_7ProductINS_9TransposeIKNS_5BlockIKNS_6MatrixIfLin1ELin1ELi0ELin1ELin1EEELin1ELin1ELb1EEEEES8_Li1EEELi8ENS_10DenseShapeESC_ffE5coeffEll.cold.2, symObjAddr: 0x62F8C, symBinAddr: 0x100067370, symSize: 0x24 }
  - { offsetInCU: 0x4DA950, offset: 0x4DA950, size: 0x8, addend: 0x0, symName: __ZNK5Eigen8internal17product_evaluatorINS_7ProductINS_9TransposeIKNS_5BlockIKNS_6MatrixIfLin1ELin1ELi0ELin1ELin1EEELin1ELin1ELb1EEEEES8_Li1EEELi8ENS_10DenseShapeESC_ffE5coeffEll.cold.4, symObjAddr: 0x62FD4, symBinAddr: 0x1000673B8, symSize: 0x24 }
  - { offsetInCU: 0x4DA9A9, offset: 0x4DA9A9, size: 0x8, addend: 0x0, symName: __ZNK5Eigen8internal17product_evaluatorINS_7ProductINS_9TransposeIKNS_5BlockIKNS_6MatrixIfLin1ELin1ELi0ELin1ELin1EEELin1ELin1ELb1EEEEES8_Li1EEELi8ENS_10DenseShapeESC_ffE5coeffEll.cold.6, symObjAddr: 0x6301C, symBinAddr: 0x100067400, symSize: 0x24 }
  - { offsetInCU: 0x4DAA01, offset: 0x4DAA01, size: 0x8, addend: 0x0, symName: __ZNK5Eigen8internal17product_evaluatorINS_7ProductINS_9TransposeIKNS_5BlockIKNS_6MatrixIfLin1ELin1ELi0ELin1ELin1EEELin1ELin1ELb1EEEEES8_Li1EEELi8ENS_10DenseShapeESC_ffE5coeffEll.cold.5, symObjAddr: 0x62FF8, symBinAddr: 0x1000673DC, symSize: 0x24 }
  - { offsetInCU: 0x4DAA45, offset: 0x4DAA45, size: 0x8, addend: 0x0, symName: __ZNK5Eigen8internal17product_evaluatorINS_7ProductINS_9TransposeIKNS_5BlockIKNS_6MatrixIfLin1ELin1ELi0ELin1ELin1EEELin1ELin1ELb1EEEEES8_Li1EEELi8ENS_10DenseShapeESC_ffE5coeffEll.cold.1, symObjAddr: 0x62F68, symBinAddr: 0x10006734C, symSize: 0x24 }
  - { offsetInCU: 0x4DAADE, offset: 0x4DAADE, size: 0x8, addend: 0x0, symName: __ZNK5Eigen8internal17product_evaluatorINS_7ProductINS_9TransposeIKNS_5BlockIKNS_6MatrixIfLin1ELin1ELi0ELin1ELin1EEELin1ELin1ELb1EEEEES8_Li1EEELi8ENS_10DenseShapeESC_ffE5coeffEll.cold.3, symObjAddr: 0x62FB0, symBinAddr: 0x100067394, symSize: 0x24 }
  - { offsetInCU: 0x4DAFF1, offset: 0x4DAFF1, size: 0x8, addend: 0x0, symName: __ZN5Eigen8internal20generic_product_implINS_9TransposeIKNS_5BlockIKNS_6MatrixIfLin1ELin1ELi0ELin1ELin1EEELin1ELin1ELb1EEEEEKNS3_IS8_Lin1ELi1ELb1EEENS_10DenseShapeESC_Li7EE13scaleAndAddToINS3_INS3_IS5_Lin1ELin1ELb0EEELin1ELi1ELb1EEEEEvRT_RKS9_RSB_RKf.cold.4, symObjAddr: 0x630AC, symBinAddr: 0x100067490, symSize: 0x24 }
  - { offsetInCU: 0x4DB01F, offset: 0x4DB01F, size: 0x8, addend: 0x0, symName: __ZN5Eigen8internal20generic_product_implINS_9TransposeIKNS_5BlockIKNS_6MatrixIfLin1ELin1ELi0ELin1ELin1EEELin1ELin1ELb1EEEEEKNS3_IS8_Lin1ELi1ELb1EEENS_10DenseShapeESC_Li7EE13scaleAndAddToINS3_INS3_IS5_Lin1ELin1ELb0EEELin1ELi1ELb1EEEEEvRT_RKS9_RSB_RKf.cold.3, symObjAddr: 0x63088, symBinAddr: 0x10006746C, symSize: 0x24 }
  - { offsetInCU: 0x4DB08D, offset: 0x4DB08D, size: 0x8, addend: 0x0, symName: __ZN5Eigen8internal20generic_product_implINS_9TransposeIKNS_5BlockIKNS_6MatrixIfLin1ELin1ELi0ELin1ELin1EEELin1ELin1ELb1EEEEEKNS3_IS8_Lin1ELi1ELb1EEENS_10DenseShapeESC_Li7EE13scaleAndAddToINS3_INS3_IS5_Lin1ELin1ELb0EEELin1ELi1ELb1EEEEEvRT_RKS9_RSB_RKf.cold.1, symObjAddr: 0x63040, symBinAddr: 0x100067424, symSize: 0x24 }
  - { offsetInCU: 0x4DB126, offset: 0x4DB126, size: 0x8, addend: 0x0, symName: __ZN5Eigen8internal20generic_product_implINS_9TransposeIKNS_5BlockIKNS_6MatrixIfLin1ELin1ELi0ELin1ELin1EEELin1ELin1ELb1EEEEEKNS3_IS8_Lin1ELi1ELb1EEENS_10DenseShapeESC_Li7EE13scaleAndAddToINS3_INS3_IS5_Lin1ELin1ELb0EEELin1ELi1ELb1EEEEEvRT_RKS9_RSB_RKf.cold.2, symObjAddr: 0x63064, symBinAddr: 0x100067448, symSize: 0x24 }
  - { offsetInCU: 0x4DB812, offset: 0x4DB812, size: 0x8, addend: 0x0, symName: __ZN5Eigen8internal20generic_product_implIKNS_5BlockIKNS_9TransposeIKNS2_IKNS_6MatrixIfLin1ELin1ELi0ELin1ELin1EEELin1ELin1ELb1EEEEELi1ELin1ELb1EEES7_NS_10DenseShapeESD_Li7EE13scaleAndAddToINS2_INS2_IS5_Lin1ELin1ELb0EEELi1ELin1ELb0EEEEEvRT_RSC_RS8_RKf.cold.4, symObjAddr: 0x6313C, symBinAddr: 0x100067520, symSize: 0x24 }
  - { offsetInCU: 0x4DB840, offset: 0x4DB840, size: 0x8, addend: 0x0, symName: __ZN5Eigen8internal20generic_product_implIKNS_5BlockIKNS_9TransposeIKNS2_IKNS_6MatrixIfLin1ELin1ELi0ELin1ELin1EEELin1ELin1ELb1EEEEELi1ELin1ELb1EEES7_NS_10DenseShapeESD_Li7EE13scaleAndAddToINS2_INS2_IS5_Lin1ELin1ELb0EEELi1ELin1ELb0EEEEEvRT_RSC_RS8_RKf.cold.3, symObjAddr: 0x63118, symBinAddr: 0x1000674FC, symSize: 0x24 }
  - { offsetInCU: 0x4DB8AE, offset: 0x4DB8AE, size: 0x8, addend: 0x0, symName: __ZN5Eigen8internal20generic_product_implIKNS_5BlockIKNS_9TransposeIKNS2_IKNS_6MatrixIfLin1ELin1ELi0ELin1ELin1EEELin1ELin1ELb1EEEEELi1ELin1ELb1EEES7_NS_10DenseShapeESD_Li7EE13scaleAndAddToINS2_INS2_IS5_Lin1ELin1ELb0EEELi1ELin1ELb0EEEEEvRT_RSC_RS8_RKf.cold.1, symObjAddr: 0x630D0, symBinAddr: 0x1000674B4, symSize: 0x24 }
  - { offsetInCU: 0x4DB947, offset: 0x4DB947, size: 0x8, addend: 0x0, symName: __ZN5Eigen8internal20generic_product_implIKNS_5BlockIKNS_9TransposeIKNS2_IKNS_6MatrixIfLin1ELin1ELi0ELin1ELin1EEELin1ELin1ELb1EEEEELi1ELin1ELb1EEES7_NS_10DenseShapeESD_Li7EE13scaleAndAddToINS2_INS2_IS5_Lin1ELin1ELb0EEELi1ELin1ELb0EEEEEvRT_RSC_RS8_RKf.cold.2, symObjAddr: 0x630F4, symBinAddr: 0x1000674D8, symSize: 0x24 }
  - { offsetInCU: 0x4DBBBF, offset: 0x4DBBBF, size: 0x8, addend: 0x0, symName: __ZN5Eigen8internal19gemv_dense_selectorILi2ELi1ELb1EE3runINS_9TransposeIKNS_5BlockIKNS_6MatrixIfLin1ELin1ELi0ELin1ELin1EEELin1ELin1ELb1EEEEENS5_ISA_Lin1ELi1ELb1EEENS5_INS5_IS7_Lin1ELin1ELb0EEELin1ELi1ELb1EEEEEvRKT_RKT0_RT1_RKNSL_6ScalarE.cold.1, symObjAddr: 0x63160, symBinAddr: 0x100067544, symSize: 0x24 }
  - { offsetInCU: 0x4DBE10, offset: 0x4DBE10, size: 0x8, addend: 0x0, symName: __ZN5Eigen8internal19gemv_dense_selectorILi2ELi1ELb1EE3runINS_9TransposeIKNS_5BlockIKNS_6MatrixIfLin1ELin1ELi0ELin1ELin1EEELin1ELin1ELb1EEEEENS4_IKNS5_IKSB_Li1ELin1ELb1EEEEENS4_INS5_INS5_IS7_Lin1ELin1ELb0EEELi1ELin1ELb0EEEEEEEvRKT_RKT0_RT1_RKNSP_6ScalarE.cold.1, symObjAddr: 0x63184, symBinAddr: 0x100067568, symSize: 0x24 }
  - { offsetInCU: 0x4DBFF7, offset: 0x4DBFF7, size: 0x8, addend: 0x0, symName: __ZN5Eigen8internal13gemm_pack_rhsIflNS0_22const_blas_data_mapperIflLi0EEELi4ELi0ELb0ELb0EEclEPfRKS3_llll, symObjAddr: 0x3E758, symBinAddr: 0x100042350, symSize: 0x428 }
  - { offsetInCU: 0x4DC4C4, offset: 0x4DC4C4, size: 0x8, addend: 0x0, symName: __ZN5Eigen8internal29general_matrix_matrix_productIlfLi1ELb0EfLi0ELb0ELi0ELi1EE3runElllPKflS4_lPfllfRNS0_15level3_blockingIffEEPNS0_16GemmParallelInfoIlEE.cold.2, symObjAddr: 0x631CC, symBinAddr: 0x1000675B0, symSize: 0x28 }
  - { offsetInCU: 0x4DC506, offset: 0x4DC506, size: 0x8, addend: 0x0, symName: __ZN5Eigen8internal29general_matrix_matrix_productIlfLi1ELb0EfLi0ELb0ELi0ELi1EE3runElllPKflS4_lPfllfRNS0_15level3_blockingIffEEPNS0_16GemmParallelInfoIlEE.cold.1, symObjAddr: 0x631A8, symBinAddr: 0x10006758C, symSize: 0x24 }
  - { offsetInCU: 0x4DCD70, offset: 0x4DCD70, size: 0x8, addend: 0x0, symName: __ZN5Eigen8internal22lhs_process_one_packetILi4ELl4ELl1Efff19__simd128_float32_tS2_fS2_NS0_11gebp_traitsIffLb0ELb0ELi4ELi0EEENS0_16BlasLinearMapperIflLi0ELi1EEENS0_16blas_data_mapperIflLi0ELi0ELi1EEEEclERKS8_PKfSD_fllllllilllll, symObjAddr: 0x3FAA8, symBinAddr: 0x1000436A0, symSize: 0x43C }
  - { offsetInCU: 0x4DEC4B, offset: 0x4DEC4B, size: 0x8, addend: 0x0, symName: __ZN5Eigen8internal22lhs_process_one_packetILi4ELl2ELl1Efff18__simd64_float32_tS2_S2_S2_NS0_11gebp_traitsIffLb0ELb0ELi4ELi1EEENS0_16BlasLinearMapperIflLi0ELi1EEENS0_16blas_data_mapperIflLi0ELi0ELi1EEEEclERKS8_PKfSD_fllllllilllll, symObjAddr: 0x3FEE4, symBinAddr: 0x100043ADC, symSize: 0x43C }
  - { offsetInCU: 0x4E202F, offset: 0x4E202F, size: 0x8, addend: 0x0, symName: __ZN5Eigen8internal20generic_product_implINS_9TransposeIKNS_5BlockIKNS_6MatrixIfLin1ELin1ELi0ELin1ELin1EEELin1ELin1ELb1EEEEENS3_IS6_Lin1ELi1ELb1EEENS_10DenseShapeESB_Li7EE13scaleAndAddToINS4_IfLin1ELi1ELi0ELin1ELi1EEEEEvRT_RKS9_RKSA_RKf, symObjAddr: 0x406B8, symBinAddr: 0x1000442B0, symSize: 0x1B8 }
  - { offsetInCU: 0x4E2C56, offset: 0x4E2C56, size: 0x8, addend: 0x0, symName: __ZN5Eigen8internal19gemv_dense_selectorILi2ELi1ELb1EE3runINS_9TransposeIKNS_5BlockIKNS_6MatrixIfLin1ELin1ELi0ELin1ELin1EEELin1ELin1ELb1EEEEENS5_IS8_Lin1ELi1ELb1EEENS6_IfLin1ELi1ELi0ELin1ELi1EEEEEvRKT_RKT0_RT1_RKNSK_6ScalarE, symObjAddr: 0x40870, symBinAddr: 0x100044468, symSize: 0x1A0 }
  - { offsetInCU: 0x4E2C6A, offset: 0x4E2C6A, size: 0x8, addend: 0x0, symName: __ZN5Eigen8internal26call_dense_assignment_loopINS_5BlockINS2_INS_6MatrixIfLin1ELin1ELi0ELin1ELin1EEELin1ELi1ELb1EEELin1ELi1ELb0EEENS_13CwiseBinaryOpINS0_17scalar_product_opIffEEKNS_14CwiseNullaryOpINS0_18scalar_constant_opIfEEKNS3_IfLin1ELi1ELi0ELin1ELi1EEEEEKNS7_INS0_20scalar_difference_opIffEEKNS2_IKNS2_IKS4_Lin1ELi1ELb1EEELin1ELi1ELb0EEEKNS_7ProductINS_9TransposeIKNS2_ISJ_Lin1ELin1ELb1EEEEESK_Li0EEEEEEENS0_9assign_opIffEEEEvRT_RKT0_RKT1_.cold.1, symObjAddr: 0x631F4, symBinAddr: 0x1000675D8, symSize: 0x24 }
  - { offsetInCU: 0x4E308A, offset: 0x4E308A, size: 0x8, addend: 0x0, symName: __ZN5Eigen8internal20generic_product_implINS_9TransposeIKNS_5BlockIKNS_6MatrixIfLin1ELin1ELi0ELin1ELin1EEELin1ELin1ELb1EEEEENS3_IS6_Lin1ELi1ELb1EEENS_10DenseShapeESB_Li7EE13scaleAndAddToINS4_IfLin1ELi1ELi0ELin1ELi1EEEEEvRT_RKS9_RKSA_RKf.cold.4, symObjAddr: 0x63284, symBinAddr: 0x100067668, symSize: 0x24 }
  - { offsetInCU: 0x4E30B8, offset: 0x4E30B8, size: 0x8, addend: 0x0, symName: __ZN5Eigen8internal20generic_product_implINS_9TransposeIKNS_5BlockIKNS_6MatrixIfLin1ELin1ELi0ELin1ELin1EEELin1ELin1ELb1EEEEENS3_IS6_Lin1ELi1ELb1EEENS_10DenseShapeESB_Li7EE13scaleAndAddToINS4_IfLin1ELi1ELi0ELin1ELi1EEEEEvRT_RKS9_RKSA_RKf.cold.3, symObjAddr: 0x63260, symBinAddr: 0x100067644, symSize: 0x24 }
  - { offsetInCU: 0x4E3126, offset: 0x4E3126, size: 0x8, addend: 0x0, symName: __ZN5Eigen8internal20generic_product_implINS_9TransposeIKNS_5BlockIKNS_6MatrixIfLin1ELin1ELi0ELin1ELin1EEELin1ELin1ELb1EEEEENS3_IS6_Lin1ELi1ELb1EEENS_10DenseShapeESB_Li7EE13scaleAndAddToINS4_IfLin1ELi1ELi0ELin1ELi1EEEEEvRT_RKS9_RKSA_RKf.cold.1, symObjAddr: 0x63218, symBinAddr: 0x1000675FC, symSize: 0x24 }
  - { offsetInCU: 0x4E31BF, offset: 0x4E31BF, size: 0x8, addend: 0x0, symName: __ZN5Eigen8internal20generic_product_implINS_9TransposeIKNS_5BlockIKNS_6MatrixIfLin1ELin1ELi0ELin1ELin1EEELin1ELin1ELb1EEEEENS3_IS6_Lin1ELi1ELb1EEENS_10DenseShapeESB_Li7EE13scaleAndAddToINS4_IfLin1ELi1ELi0ELin1ELi1EEEEEvRT_RKS9_RKSA_RKf.cold.2, symObjAddr: 0x6323C, symBinAddr: 0x100067620, symSize: 0x24 }
  - { offsetInCU: 0x4E3258, offset: 0x4E3258, size: 0x8, addend: 0x0, symName: __ZN5Eigen8internal19gemv_dense_selectorILi2ELi1ELb1EE3runINS_9TransposeIKNS_5BlockIKNS_6MatrixIfLin1ELin1ELi0ELin1ELin1EEELin1ELin1ELb1EEEEENS5_IS8_Lin1ELi1ELb1EEENS6_IfLin1ELi1ELi0ELin1ELi1EEEEEvRKT_RKT0_RT1_RKNSK_6ScalarE.cold.1, symObjAddr: 0x632A8, symBinAddr: 0x10006768C, symSize: 0x24 }
  - { offsetInCU: 0x4E378F, offset: 0x4E378F, size: 0x8, addend: 0x0, symName: __ZN5Eigen8internal16binary_evaluatorINS_13CwiseBinaryOpINS0_13scalar_sum_opIffEEKNS2_INS0_18scalar_quotient_opIffEEKNS_6MatrixIfLin1ELi1ELi0ELin1ELi1EEEKNS_14CwiseNullaryOpINS0_18scalar_constant_opIfEES9_EEEEKNS2_IS6_KNS_7ProductINS7_IfLin1ELin1ELi0ELin1ELin1EEES8_Li0EEESE_EEEENS0_10IndexBasedESO_ffE4DataC2ERKSN_, symObjAddr: 0x40D7C, symBinAddr: 0x100044974, symSize: 0xF8 }
  - { offsetInCU: 0x4E42EC, offset: 0x4E42EC, size: 0x8, addend: 0x0, symName: __ZN5Eigen8internal20generic_product_implINS_6MatrixIfLin1ELin1ELi0ELin1ELin1EEENS2_IfLin1ELi1ELi0ELin1ELi1EEENS_10DenseShapeES5_Li7EE13scaleAndAddToIS4_EEvRT_RKS3_RKS4_RKf, symObjAddr: 0x40E74, symBinAddr: 0x100044A6C, symSize: 0x16C }
  - { offsetInCU: 0x4E4A8B, offset: 0x4E4A8B, size: 0x8, addend: 0x0, symName: __ZN5Eigen8internal20generic_product_implINS_12CwiseUnaryOpINS0_18scalar_opposite_opIfEEKNS_6MatrixIfLin1ELin1ELi0ELin1ELin1EEEEENS5_IfLin1ELi1ELi0ELin1ELi1EEENS_10DenseShapeESA_Li7EE13scaleAndAddToIS9_EEvRT_RKS8_RKS9_RKf, symObjAddr: 0x40FE0, symBinAddr: 0x100044BD8, symSize: 0x168 }
  - { offsetInCU: 0x4E4F54, offset: 0x4E4F54, size: 0x8, addend: 0x0, symName: __ZN5Eigen8internal20generic_product_implINS_6MatrixIfLin1ELin1ELi0ELin1ELin1EEENS2_IfLin1ELi1ELi0ELin1ELi1EEENS_10DenseShapeES5_Li7EE13scaleAndAddToIS4_EEvRT_RKS3_RKS4_RKf.cold.4, symObjAddr: 0x63338, symBinAddr: 0x10006771C, symSize: 0x24 }
  - { offsetInCU: 0x4E4F82, offset: 0x4E4F82, size: 0x8, addend: 0x0, symName: __ZN5Eigen8internal20generic_product_implINS_6MatrixIfLin1ELin1ELi0ELin1ELin1EEENS2_IfLin1ELi1ELi0ELin1ELi1EEENS_10DenseShapeES5_Li7EE13scaleAndAddToIS4_EEvRT_RKS3_RKS4_RKf.cold.3, symObjAddr: 0x63314, symBinAddr: 0x1000676F8, symSize: 0x24 }
  - { offsetInCU: 0x4E4FF0, offset: 0x4E4FF0, size: 0x8, addend: 0x0, symName: __ZN5Eigen8internal20generic_product_implINS_6MatrixIfLin1ELin1ELi0ELin1ELin1EEENS2_IfLin1ELi1ELi0ELin1ELi1EEENS_10DenseShapeES5_Li7EE13scaleAndAddToIS4_EEvRT_RKS3_RKS4_RKf.cold.1, symObjAddr: 0x632CC, symBinAddr: 0x1000676B0, symSize: 0x24 }
  - { offsetInCU: 0x4E5089, offset: 0x4E5089, size: 0x8, addend: 0x0, symName: __ZN5Eigen8internal20generic_product_implINS_6MatrixIfLin1ELin1ELi0ELin1ELin1EEENS2_IfLin1ELi1ELi0ELin1ELi1EEENS_10DenseShapeES5_Li7EE13scaleAndAddToIS4_EEvRT_RKS3_RKS4_RKf.cold.2, symObjAddr: 0x632F0, symBinAddr: 0x1000676D4, symSize: 0x24 }
  - { offsetInCU: 0x4E59EE, offset: 0x4E59EE, size: 0x8, addend: 0x0, symName: __ZN5Eigen8internal20generic_product_implINS_12CwiseUnaryOpINS0_18scalar_opposite_opIfEEKNS_6MatrixIfLin1ELin1ELi0ELin1ELin1EEEEENS5_IfLin1ELi1ELi0ELin1ELi1EEENS_10DenseShapeESA_Li7EE13scaleAndAddToIS9_EEvRT_RKS8_RKS9_RKf.cold.3, symObjAddr: 0x633A4, symBinAddr: 0x100067788, symSize: 0x24 }
  - { offsetInCU: 0x4E5A1C, offset: 0x4E5A1C, size: 0x8, addend: 0x0, symName: __ZN5Eigen8internal20generic_product_implINS_12CwiseUnaryOpINS0_18scalar_opposite_opIfEEKNS_6MatrixIfLin1ELin1ELi0ELin1ELin1EEEEENS5_IfLin1ELi1ELi0ELin1ELi1EEENS_10DenseShapeESA_Li7EE13scaleAndAddToIS9_EEvRT_RKS8_RKS9_RKf.cold.2, symObjAddr: 0x63380, symBinAddr: 0x100067764, symSize: 0x24 }
  - { offsetInCU: 0x4E5A8A, offset: 0x4E5A8A, size: 0x8, addend: 0x0, symName: __ZN5Eigen8internal20generic_product_implINS_12CwiseUnaryOpINS0_18scalar_opposite_opIfEEKNS_6MatrixIfLin1ELin1ELi0ELin1ELin1EEEEENS5_IfLin1ELi1ELi0ELin1ELi1EEENS_10DenseShapeESA_Li7EE13scaleAndAddToIS9_EEvRT_RKS8_RKS9_RKf.cold.1, symObjAddr: 0x6335C, symBinAddr: 0x100067740, symSize: 0x24 }
  - { offsetInCU: 0x4E5B39, offset: 0x4E5B39, size: 0x8, addend: 0x0, symName: __ZN5Eigen18LevenbergMarquardtIR5BoardfE12minimizeInitERNS_6MatrixIfLin1ELi1ELi0ELin1ELi1EEE.cold.5, symObjAddr: 0x63458, symBinAddr: 0x10006783C, symSize: 0x24 }
  - { offsetInCU: 0x4E5B66, offset: 0x4E5B66, size: 0x8, addend: 0x0, symName: __ZNK5Eigen10MatrixBaseINS_6MatrixIfLin1ELi1ELi0ELin1ELi1EEEE10stableNormEv, symObjAddr: 0x42C70, symBinAddr: 0x100046868, symSize: 0x60 }
  - { offsetInCU: 0x4E5CE7, offset: 0x4E5CE7, size: 0x8, addend: 0x0, symName: __ZN5Eigen18LevenbergMarquardtIR5BoardfE12minimizeInitERNS_6MatrixIfLin1ELi1ELi0ELin1ELi1EEE.cold.1, symObjAddr: 0x633C8, symBinAddr: 0x1000677AC, symSize: 0x24 }
  - { offsetInCU: 0x4E5D14, offset: 0x4E5D14, size: 0x8, addend: 0x0, symName: __ZN5Eigen18LevenbergMarquardtIR5BoardfE12minimizeInitERNS_6MatrixIfLin1ELi1ELi0ELin1ELi1EEE.cold.2, symObjAddr: 0x633EC, symBinAddr: 0x1000677D0, symSize: 0x24 }
  - { offsetInCU: 0x4E5D41, offset: 0x4E5D41, size: 0x8, addend: 0x0, symName: __ZN5Eigen18LevenbergMarquardtIR5BoardfE12minimizeInitERNS_6MatrixIfLin1ELi1ELi0ELin1ELi1EEE.cold.3, symObjAddr: 0x63410, symBinAddr: 0x1000677F4, symSize: 0x24 }
  - { offsetInCU: 0x4E5D6E, offset: 0x4E5D6E, size: 0x8, addend: 0x0, symName: __ZN5Eigen18LevenbergMarquardtIR5BoardfE12minimizeInitERNS_6MatrixIfLin1ELi1ELi0ELin1ELi1EEE.cold.7, symObjAddr: 0x634A0, symBinAddr: 0x100067884, symSize: 0x28 }
  - { offsetInCU: 0x4E5D86, offset: 0x4E5D86, size: 0x8, addend: 0x0, symName: __ZN5Eigen18LevenbergMarquardtIR5BoardfE12minimizeInitERNS_6MatrixIfLin1ELi1ELi0ELin1ELi1EEE.cold.10, symObjAddr: 0x63510, symBinAddr: 0x1000678F4, symSize: 0x24 }
  - { offsetInCU: 0x4E5DB3, offset: 0x4E5DB3, size: 0x8, addend: 0x0, symName: __ZN5Eigen18LevenbergMarquardtIR5BoardfE12minimizeInitERNS_6MatrixIfLin1ELi1ELi0ELin1ELi1EEE.cold.9, symObjAddr: 0x634EC, symBinAddr: 0x1000678D0, symSize: 0x24 }
  - { offsetInCU: 0x4E5DE0, offset: 0x4E5DE0, size: 0x8, addend: 0x0, symName: __ZN5Eigen18LevenbergMarquardtIR5BoardfE12minimizeInitERNS_6MatrixIfLin1ELi1ELi0ELin1ELi1EEE.cold.8, symObjAddr: 0x634C8, symBinAddr: 0x1000678AC, symSize: 0x24 }
  - { offsetInCU: 0x4E5E0D, offset: 0x4E5E0D, size: 0x8, addend: 0x0, symName: __ZN5Eigen18LevenbergMarquardtIR5BoardfE12minimizeInitERNS_6MatrixIfLin1ELi1ELi0ELin1ELi1EEE.cold.4, symObjAddr: 0x63434, symBinAddr: 0x100067818, symSize: 0x24 }
  - { offsetInCU: 0x4E5E3A, offset: 0x4E5E3A, size: 0x8, addend: 0x0, symName: __ZN5Eigen18LevenbergMarquardtIR5BoardfE12minimizeInitERNS_6MatrixIfLin1ELi1ELi0ELin1ELi1EEE.cold.6, symObjAddr: 0x6347C, symBinAddr: 0x100067860, symSize: 0x24 }
  - { offsetInCU: 0x4E73EB, offset: 0x4E73EB, size: 0x8, addend: 0x0, symName: __ZN5Board2dfERN5Eigen6MatrixIfLin1ELi1ELi0ELin1ELi1EEERNS1_IfLin1ELin1ELi0ELin1ELin1EEE, symObjAddr: 0x43198, symBinAddr: 0x100046D90, symSize: 0x39C }
  - { offsetInCU: 0x4E87D7, offset: 0x4E87D7, size: 0x8, addend: 0x0, symName: __ZN5Eigen19ColPivHouseholderQRINS_6MatrixIfLin1ELin1ELi0ELin1ELin1EEEEC2IS2_EERNS_9EigenBaseIT_EE, symObjAddr: 0x4536C, symBinAddr: 0x100048F64, symSize: 0x2BC }
  - { offsetInCU: 0x4E926F, offset: 0x4E926F, size: 0x8, addend: 0x0, symName: __ZNK5Eigen19HouseholderSequenceINS_6MatrixIfLin1ELin1ELi0ELin1ELin1EEENS1_IfLin1ELi1ELi0ELin1ELi1EEELi1EE18applyThisOnTheLeftIS3_NS1_IfLi1ELi1ELi1ELi1ELi1EEEEEvRT_RT0_b, symObjAddr: 0x47A34, symBinAddr: 0x10004B62C, symSize: 0x174 }
  - { offsetInCU: 0x4E9899, offset: 0x4E9899, size: 0x8, addend: 0x0, symName: __ZN5Eigen10MatrixBaseINS_5BlockINS_6MatrixIfLin1ELi1ELi0ELin1ELi1EEELin1ELin1ELb0EEEE25applyHouseholderOnTheLeftINS1_IKNS2_IfLin1ELin1ELi0ELin1ELin1EEELin1ELi1ELb0EEEEEvRKT_RKfPf, symObjAddr: 0x47BA8, symBinAddr: 0x10004B7A0, symSize: 0x418 }
  - { offsetInCU: 0x4E98B6, offset: 0x4E98B6, size: 0x8, addend: 0x0, symName: __ZN5Eigen18LevenbergMarquardtIR5BoardfE15minimizeOneStepERNS_6MatrixIfLin1ELi1ELi0ELin1ELi1EEE.cold.1, symObjAddr: 0x63534, symBinAddr: 0x100067918, symSize: 0x28 }
  - { offsetInCU: 0x4E98CE, offset: 0x4E98CE, size: 0x8, addend: 0x0, symName: __ZN5Eigen19ColPivHouseholderQRINS_6MatrixIfLin1ELin1ELi0ELin1ELin1EEEED1Ev, symObjAddr: 0x449D4, symBinAddr: 0x1000485CC, symSize: 0x58 }
  - { offsetInCU: 0x4EA4A0, offset: 0x4EA4A0, size: 0x8, addend: 0x0, symName: __ZN5Eigen8internal27stable_norm_impl_inner_stepINS_6MatrixIfLin1ELi1ELi0ELin1ELi1EEEfEEvRKT_RT0_S8_S8_.cold.2, symObjAddr: 0x63580, symBinAddr: 0x100067964, symSize: 0x24 }
  - { offsetInCU: 0x4EA50D, offset: 0x4EA50D, size: 0x8, addend: 0x0, symName: __ZN5Eigen8internal27stable_norm_impl_inner_stepINS_6MatrixIfLin1ELi1ELi0ELin1ELi1EEEfEEvRKT_RT0_S8_S8_.cold.1, symObjAddr: 0x6355C, symBinAddr: 0x100067940, symSize: 0x24 }
  - { offsetInCU: 0x4EA5BA, offset: 0x4EA5BA, size: 0x8, addend: 0x0, symName: __ZN5Eigen8internal27stable_norm_impl_inner_stepINS_6MatrixIfLin1ELi1ELi0ELin1ELi1EEEfEEvRKT_RT0_S8_S8_.cold.3, symObjAddr: 0x635A4, symBinAddr: 0x100067988, symSize: 0x24 }
  - { offsetInCU: 0x4EAEC7, offset: 0x4EAEC7, size: 0x8, addend: 0x0, symName: __ZN5Eigen8internal18stable_norm_kernelINS_3RefIKNS_6MatrixIfLin1ELi1ELi0ELi4096ELi1EEELi16ENS_11InnerStrideILi1EEEEEfEEvRKT_RT0_SD_SD_.cold.2, symObjAddr: 0x635EC, symBinAddr: 0x1000679D0, symSize: 0x24 }
  - { offsetInCU: 0x4EAF20, offset: 0x4EAF20, size: 0x8, addend: 0x0, symName: __ZN5Eigen8internal18stable_norm_kernelINS_3RefIKNS_6MatrixIfLin1ELi1ELi0ELi4096ELi1EEELi16ENS_11InnerStrideILi1EEEEEfEEvRKT_RT0_SD_SD_.cold.1, symObjAddr: 0x635C8, symBinAddr: 0x1000679AC, symSize: 0x24 }
  - { offsetInCU: 0x4EC1F5, offset: 0x4EC1F5, size: 0x8, addend: 0x0, symName: __ZN5Eigen8internal26triangular_solver_selectorIKNS_5BlockIKNS_6MatrixIfLin1ELin1ELi0ELin1ELin1EEELin1ELin1ELb0EEENS2_INS3_IfLin1ELi1ELi0ELin1ELi1EEELin1ELi1ELb0EEELi1ELi2ELi0ELi1EE3runERS7_RS9_, symObjAddr: 0x49688, symBinAddr: 0x10004D280, symSize: 0x12C }
  - { offsetInCU: 0x4EC4EC, offset: 0x4EC4EC, size: 0x8, addend: 0x0, symName: __ZN5Eigen8internal26permutation_matrix_productINS_6MatrixIfLin1ELi1ELi0ELin1ELi1EEELi1ELb0ENS_10DenseShapeEE3runIS3_NS_17PermutationMatrixILin1ELin1EiEEEEvRT_RKT0_RKS3_, symObjAddr: 0x4A214, symBinAddr: 0x10004DE0C, symSize: 0x21C }
  - { offsetInCU: 0x4ECE4A, offset: 0x4ECE4A, size: 0x8, addend: 0x0, symName: __ZN5Eigen8internal26triangular_solver_selectorIKNS_9TransposeIKNS_5BlockIKNS_6MatrixIfLin1ELin1ELi0ELin1ELin1EEELin1ELin1ELb0EEEEENS4_IfLin1ELi1ELi0ELin1ELi1EEELi1ELi1ELi0ELi1EE3runERSA_RSB_, symObjAddr: 0x4AAFC, symBinAddr: 0x10004E6F4, symSize: 0x138 }
  - { offsetInCU: 0x4ED12C, offset: 0x4ED12C, size: 0x8, addend: 0x0, symName: __ZN5Eigen8internal6lmpar2IfEEvRKNS_19ColPivHouseholderQRINS_6MatrixIT_Lin1ELin1ELi0ELin1ELin1EEEEERKNS3_IS4_Lin1ELi1ELi0ELin1ELi1EEESB_S4_RS4_RS9_.cold.1, symObjAddr: 0x63610, symBinAddr: 0x1000679F4, symSize: 0x28 }
  - { offsetInCU: 0x4ED159, offset: 0x4ED159, size: 0x8, addend: 0x0, symName: __ZN5Eigen8internal6lmpar2IfEEvRKNS_19ColPivHouseholderQRINS_6MatrixIT_Lin1ELin1ELi0ELin1ELin1EEEEERKNS3_IS4_Lin1ELi1ELi0ELin1ELi1EEESB_S4_RS4_RS9_.cold.3, symObjAddr: 0x63660, symBinAddr: 0x100067A44, symSize: 0x28 }
  - { offsetInCU: 0x4ED171, offset: 0x4ED171, size: 0x8, addend: 0x0, symName: __ZN5Eigen8internal6lmpar2IfEEvRKNS_19ColPivHouseholderQRINS_6MatrixIT_Lin1ELin1ELi0ELin1ELin1EEEEERKNS3_IS4_Lin1ELi1ELi0ELin1ELi1EEESB_S4_RS4_RS9_.cold.2, symObjAddr: 0x63638, symBinAddr: 0x100067A1C, symSize: 0x28 }
  - { offsetInCU: 0x4ED62E, offset: 0x4ED62E, size: 0x8, addend: 0x0, symName: __ZN5Eigen8internal26call_dense_assignment_loopINS_9TransposeINS_6MatrixIfLin1ELi1ELi0ELin1ELi1EEEEENS_16PartialReduxExprINS3_IfLin1ELin1ELi0ELin1ELin1EEENS0_15member_blueNormIffEELi0EEENS0_9assign_opIffEEEEvRT_RKT0_RKT1_.cold.2, symObjAddr: 0x636AC, symBinAddr: 0x100067A90, symSize: 0x24 }
  - { offsetInCU: 0x4ED6C9, offset: 0x4ED6C9, size: 0x8, addend: 0x0, symName: __ZN5Eigen8internal26call_dense_assignment_loopINS_9TransposeINS_6MatrixIfLin1ELi1ELi0ELin1ELi1EEEEENS_16PartialReduxExprINS3_IfLin1ELin1ELi0ELin1ELin1EEENS0_15member_blueNormIffEELi0EEENS0_9assign_opIffEEEEvRT_RKT0_RKT1_.cold.1, symObjAddr: 0x63688, symBinAddr: 0x100067A6C, symSize: 0x24 }
  - { offsetInCU: 0x4ED7A4, offset: 0x4ED7A4, size: 0x8, addend: 0x0, symName: __ZN5Eigen8internal26call_dense_assignment_loopINS_9TransposeINS_6MatrixIfLin1ELi1ELi0ELin1ELi1EEEEENS_16PartialReduxExprINS3_IfLin1ELin1ELi0ELin1ELin1EEENS0_15member_blueNormIffEELi0EEENS0_9assign_opIffEEEEvRT_RKT0_RKT1_.cold.3, symObjAddr: 0x636D0, symBinAddr: 0x100067AB4, symSize: 0x24 }
  - { offsetInCU: 0x4ED7FD, offset: 0x4ED7FD, size: 0x8, addend: 0x0, symName: __ZN5Eigen8internal26call_dense_assignment_loopINS_9TransposeINS_6MatrixIfLin1ELi1ELi0ELin1ELi1EEEEENS_16PartialReduxExprINS3_IfLin1ELin1ELi0ELin1ELin1EEENS0_15member_blueNormIffEELi0EEENS0_9assign_opIffEEEEvRT_RKT0_RKT1_.cold.4, symObjAddr: 0x636F4, symBinAddr: 0x100067AD8, symSize: 0x28 }
  - { offsetInCU: 0x4EDD08, offset: 0x4EDD08, size: 0x8, addend: 0x0, symName: __ZN5Eigen19ColPivHouseholderQRINS_6MatrixIfLin1ELin1ELi0ELin1ELin1EEEE14computeInPlaceEv, symObjAddr: 0x45628, symBinAddr: 0x100049220, symSize: 0xCC0 }
  - { offsetInCU: 0x4F14BC, offset: 0x4F14BC, size: 0x8, addend: 0x0, symName: __ZN5Eigen8internal28conditional_aligned_new_autoIiLb1EEEPT_m, symObjAddr: 0x462E8, symBinAddr: 0x100049EE0, symSize: 0x68 }
  - { offsetInCU: 0x4F2448, offset: 0x4F2448, size: 0x8, addend: 0x0, symName: __ZNK5Eigen10MatrixBaseINS_5BlockINS1_INS_6MatrixIfLin1ELin1ELi0ELin1ELin1EEELin1ELi1ELb1EEELin1ELi1ELb0EEEE15makeHouseholderINS_11VectorBlockIS5_Lin1EEEEEvRT_RfSC_, symObjAddr: 0x467A0, symBinAddr: 0x10004A398, symSize: 0x534 }
  - { offsetInCU: 0x4F3568, offset: 0x4F3568, size: 0x8, addend: 0x0, symName: __ZN5Eigen7NoAliasINS_3MapINS_6MatrixIfLi1ELin1ELi1ELi1ELin1EEELi0ENS_6StrideILi0ELi0EEEEENS_10MatrixBaseEEaSINS_7ProductINS_9TransposeIKNS_5BlockINSC_INS2_IfLin1ELin1ELi0ELin1ELin1EEELin1ELi1ELb1EEELin1ELi1ELb0EEEEENSC_INSC_ISD_Lin1ELin1ELb0EEELin1ELin1ELb0EEELi0EEEEERS6_RKNS7_IT_EE, symObjAddr: 0x46CD4, symBinAddr: 0x10004A8CC, symSize: 0x124 }
  - { offsetInCU: 0x4F358E, offset: 0x4F358E, size: 0x8, addend: 0x0, symName: __ZN5Eigen10MatrixBaseINS_5BlockINS_6MatrixIfLin1ELin1ELi0ELin1ELin1EEELin1ELin1ELb0EEEE25applyHouseholderOnTheLeftINS_11VectorBlockINS1_IS3_Lin1ELi1ELb1EEELin1EEEEEvRKT_RKfPf, symObjAddr: 0x46350, symBinAddr: 0x100049F48, symSize: 0x450 }
  - { offsetInCU: 0x4F47C6, offset: 0x4F47C6, size: 0x8, addend: 0x0, symName: __ZN5Eigen19ColPivHouseholderQRINS_6MatrixIfLin1ELin1ELi0ELin1ELin1EEEE14computeInPlaceEv.cold.18, symObjAddr: 0x63988, symBinAddr: 0x100067D6C, symSize: 0x24 }
  - { offsetInCU: 0x4F481F, offset: 0x4F481F, size: 0x8, addend: 0x0, symName: __ZN5Eigen19ColPivHouseholderQRINS_6MatrixIfLin1ELin1ELi0ELin1ELin1EEEE14computeInPlaceEv.cold.17, symObjAddr: 0x63964, symBinAddr: 0x100067D48, symSize: 0x24 }
  - { offsetInCU: 0x4F488D, offset: 0x4F488D, size: 0x8, addend: 0x0, symName: __ZN5Eigen19ColPivHouseholderQRINS_6MatrixIfLin1ELin1ELi0ELin1ELin1EEEE14computeInPlaceEv.cold.21, symObjAddr: 0x639F4, symBinAddr: 0x100067DD8, symSize: 0x24 }
  - { offsetInCU: 0x4F48E6, offset: 0x4F48E6, size: 0x8, addend: 0x0, symName: __ZN5Eigen19ColPivHouseholderQRINS_6MatrixIfLin1ELin1ELi0ELin1ELin1EEEE14computeInPlaceEv.cold.14, symObjAddr: 0x638F8, symBinAddr: 0x100067CDC, symSize: 0x24 }
  - { offsetInCU: 0x4F4914, offset: 0x4F4914, size: 0x8, addend: 0x0, symName: __ZN5Eigen19ColPivHouseholderQRINS_6MatrixIfLin1ELin1ELi0ELin1ELin1EEEE14computeInPlaceEv.cold.6, symObjAddr: 0x637D4, symBinAddr: 0x100067BB8, symSize: 0x24 }
  - { offsetInCU: 0x4F4982, offset: 0x4F4982, size: 0x8, addend: 0x0, symName: __ZN5Eigen19ColPivHouseholderQRINS_6MatrixIfLin1ELin1ELi0ELin1ELin1EEEE14computeInPlaceEv.cold.29, symObjAddr: 0x63B14, symBinAddr: 0x100067EF8, symSize: 0x24 }
  - { offsetInCU: 0x4F49DB, offset: 0x4F49DB, size: 0x8, addend: 0x0, symName: __ZN5Eigen19ColPivHouseholderQRINS_6MatrixIfLin1ELin1ELi0ELin1ELin1EEEE14computeInPlaceEv.cold.16, symObjAddr: 0x63940, symBinAddr: 0x100067D24, symSize: 0x24 }
  - { offsetInCU: 0x4F4A49, offset: 0x4F4A49, size: 0x8, addend: 0x0, symName: __ZN5Eigen19ColPivHouseholderQRINS_6MatrixIfLin1ELin1ELi0ELin1ELin1EEEE14computeInPlaceEv.cold.15, symObjAddr: 0x6391C, symBinAddr: 0x100067D00, symSize: 0x24 }
  - { offsetInCU: 0x4F4AF8, offset: 0x4F4AF8, size: 0x8, addend: 0x0, symName: __ZN5Eigen19ColPivHouseholderQRINS_6MatrixIfLin1ELin1ELi0ELin1ELin1EEEE14computeInPlaceEv.cold.23, symObjAddr: 0x63A3C, symBinAddr: 0x100067E20, symSize: 0x24 }
  - { offsetInCU: 0x4F4B51, offset: 0x4F4B51, size: 0x8, addend: 0x0, symName: __ZN5Eigen19ColPivHouseholderQRINS_6MatrixIfLin1ELin1ELi0ELin1ELin1EEEE14computeInPlaceEv.cold.22, symObjAddr: 0x63A18, symBinAddr: 0x100067DFC, symSize: 0x24 }
  - { offsetInCU: 0x4F4BBF, offset: 0x4F4BBF, size: 0x8, addend: 0x0, symName: __ZN5Eigen19ColPivHouseholderQRINS_6MatrixIfLin1ELin1ELi0ELin1ELin1EEEE14computeInPlaceEv.cold.10, symObjAddr: 0x63868, symBinAddr: 0x100067C4C, symSize: 0x24 }
  - { offsetInCU: 0x4F4C2D, offset: 0x4F4C2D, size: 0x8, addend: 0x0, symName: __ZN5Eigen19ColPivHouseholderQRINS_6MatrixIfLin1ELin1ELi0ELin1ELin1EEEE14computeInPlaceEv.cold.20, symObjAddr: 0x639D0, symBinAddr: 0x100067DB4, symSize: 0x24 }
  - { offsetInCU: 0x4F4C86, offset: 0x4F4C86, size: 0x8, addend: 0x0, symName: __ZN5Eigen19ColPivHouseholderQRINS_6MatrixIfLin1ELin1ELi0ELin1ELin1EEEE14computeInPlaceEv.cold.19, symObjAddr: 0x639AC, symBinAddr: 0x100067D90, symSize: 0x24 }
  - { offsetInCU: 0x4F4CF4, offset: 0x4F4CF4, size: 0x8, addend: 0x0, symName: __ZN5Eigen19ColPivHouseholderQRINS_6MatrixIfLin1ELin1ELi0ELin1ELin1EEEE14computeInPlaceEv.cold.26, symObjAddr: 0x63AA8, symBinAddr: 0x100067E8C, symSize: 0x24 }
  - { offsetInCU: 0x4F4D4D, offset: 0x4F4D4D, size: 0x8, addend: 0x0, symName: __ZN5Eigen19ColPivHouseholderQRINS_6MatrixIfLin1ELin1ELi0ELin1ELin1EEEE14computeInPlaceEv.cold.25, symObjAddr: 0x63A84, symBinAddr: 0x100067E68, symSize: 0x24 }
  - { offsetInCU: 0x4F4DA6, offset: 0x4F4DA6, size: 0x8, addend: 0x0, symName: __ZN5Eigen19ColPivHouseholderQRINS_6MatrixIfLin1ELin1ELi0ELin1ELin1EEEE14computeInPlaceEv.cold.28, symObjAddr: 0x63AF0, symBinAddr: 0x100067ED4, symSize: 0x24 }
  - { offsetInCU: 0x4F4E14, offset: 0x4F4E14, size: 0x8, addend: 0x0, symName: __ZN5Eigen19ColPivHouseholderQRINS_6MatrixIfLin1ELin1ELi0ELin1ELin1EEEE14computeInPlaceEv.cold.7, symObjAddr: 0x637F8, symBinAddr: 0x100067BDC, symSize: 0x28 }
  - { offsetInCU: 0x4F4E58, offset: 0x4F4E58, size: 0x8, addend: 0x0, symName: __ZN5Eigen19ColPivHouseholderQRINS_6MatrixIfLin1ELin1ELi0ELin1ELin1EEEE14computeInPlaceEv.cold.11, symObjAddr: 0x6388C, symBinAddr: 0x100067C70, symSize: 0x24 }
  - { offsetInCU: 0x4F4F07, offset: 0x4F4F07, size: 0x8, addend: 0x0, symName: __ZN5Eigen19ColPivHouseholderQRINS_6MatrixIfLin1ELin1ELi0ELin1ELin1EEEE14computeInPlaceEv.cold.8, symObjAddr: 0x63820, symBinAddr: 0x100067C04, symSize: 0x24 }
  - { offsetInCU: 0x4F4FB6, offset: 0x4F4FB6, size: 0x8, addend: 0x0, symName: __ZN5Eigen19ColPivHouseholderQRINS_6MatrixIfLin1ELin1ELi0ELin1ELin1EEEE14computeInPlaceEv.cold.9, symObjAddr: 0x63844, symBinAddr: 0x100067C28, symSize: 0x24 }
  - { offsetInCU: 0x4F507A, offset: 0x4F507A, size: 0x8, addend: 0x0, symName: __ZN5Eigen19ColPivHouseholderQRINS_6MatrixIfLin1ELin1ELi0ELin1ELin1EEEE14computeInPlaceEv.cold.12, symObjAddr: 0x638B0, symBinAddr: 0x100067C94, symSize: 0x24 }
  - { offsetInCU: 0x4F5129, offset: 0x4F5129, size: 0x8, addend: 0x0, symName: __ZN5Eigen19ColPivHouseholderQRINS_6MatrixIfLin1ELin1ELi0ELin1ELin1EEEE14computeInPlaceEv.cold.24, symObjAddr: 0x63A60, symBinAddr: 0x100067E44, symSize: 0x24 }
  - { offsetInCU: 0x4F51D8, offset: 0x4F51D8, size: 0x8, addend: 0x0, symName: __ZN5Eigen19ColPivHouseholderQRINS_6MatrixIfLin1ELin1ELi0ELin1ELin1EEEE14computeInPlaceEv.cold.1, symObjAddr: 0x6371C, symBinAddr: 0x100067B00, symSize: 0x28 }
  - { offsetInCU: 0x4F51F0, offset: 0x4F51F0, size: 0x8, addend: 0x0, symName: __ZN5Eigen19ColPivHouseholderQRINS_6MatrixIfLin1ELin1ELi0ELin1ELin1EEEE14computeInPlaceEv.cold.2, symObjAddr: 0x63744, symBinAddr: 0x100067B28, symSize: 0x24 }
  - { offsetInCU: 0x4F521E, offset: 0x4F521E, size: 0x8, addend: 0x0, symName: __ZN5Eigen19ColPivHouseholderQRINS_6MatrixIfLin1ELin1ELi0ELin1ELin1EEEE14computeInPlaceEv.cold.3, symObjAddr: 0x63768, symBinAddr: 0x100067B4C, symSize: 0x24 }
  - { offsetInCU: 0x4F524C, offset: 0x4F524C, size: 0x8, addend: 0x0, symName: __ZN5Eigen19ColPivHouseholderQRINS_6MatrixIfLin1ELin1ELi0ELin1ELin1EEEE14computeInPlaceEv.cold.4, symObjAddr: 0x6378C, symBinAddr: 0x100067B70, symSize: 0x24 }
  - { offsetInCU: 0x4F527A, offset: 0x4F527A, size: 0x8, addend: 0x0, symName: __ZN5Eigen19ColPivHouseholderQRINS_6MatrixIfLin1ELin1ELi0ELin1ELin1EEEE14computeInPlaceEv.cold.5, symObjAddr: 0x637B0, symBinAddr: 0x100067B94, symSize: 0x24 }
  - { offsetInCU: 0x4F52D4, offset: 0x4F52D4, size: 0x8, addend: 0x0, symName: __ZN5Eigen19ColPivHouseholderQRINS_6MatrixIfLin1ELin1ELi0ELin1ELin1EEEE14computeInPlaceEv.cold.13, symObjAddr: 0x638D4, symBinAddr: 0x100067CB8, symSize: 0x24 }
  - { offsetInCU: 0x4F532C, offset: 0x4F532C, size: 0x8, addend: 0x0, symName: __ZN5Eigen19ColPivHouseholderQRINS_6MatrixIfLin1ELin1ELi0ELin1ELin1EEEE14computeInPlaceEv.cold.27, symObjAddr: 0x63ACC, symBinAddr: 0x100067EB0, symSize: 0x24 }
  - { offsetInCU: 0x4F53DB, offset: 0x4F53DB, size: 0x8, addend: 0x0, symName: __ZN5Eigen8internal28conditional_aligned_new_autoIiLb1EEEPT_m.cold.1, symObjAddr: 0x63B38, symBinAddr: 0x100067F1C, symSize: 0x24 }
  - { offsetInCU: 0x4F5EDC, offset: 0x4F5EDC, size: 0x8, addend: 0x0, symName: __ZN5Eigen7NoAliasINS_3MapINS_6MatrixIfLi1ELin1ELi1ELi1ELin1EEELi0ENS_6StrideILi0ELi0EEEEENS_10MatrixBaseEEaSINS_7ProductINS_9TransposeIKNS_5BlockINSC_INS2_IfLin1ELin1ELi0ELin1ELin1EEELin1ELi1ELb1EEELin1ELi1ELb0EEEEENSC_INSC_ISD_Lin1ELin1ELb0EEELin1ELin1ELb0EEELi0EEEEERS6_RKNS7_IT_EE, symObjAddr: 0x46CD4, symBinAddr: 0x10004A8CC, symSize: 0x124 }
  - { offsetInCU: 0x4F644D, offset: 0x4F644D, size: 0x8, addend: 0x0, symName: __ZN5Eigen8internal20generic_product_implINS_9TransposeIKNS_5BlockINS3_INS_6MatrixIfLin1ELin1ELi0ELin1ELin1EEELin1ELi1ELb1EEELin1ELi1ELb0EEEEENS3_INS3_IS5_Lin1ELin1ELb0EEELin1ELin1ELb0EEENS_10DenseShapeESC_Li7EE13scaleAndAddToINS_3MapINS4_IfLi1ELin1ELi1ELi1ELin1EEELi0ENS_6StrideILi0ELi0EEEEEEEvRT_RKS9_RKSB_RKf, symObjAddr: 0x46DF8, symBinAddr: 0x10004A9F0, symSize: 0x1DC }
  - { offsetInCU: 0x4F6461, offset: 0x4F6461, size: 0x8, addend: 0x0, symName: __ZN5Eigen10MatrixBaseINS_5BlockINS_6MatrixIfLin1ELin1ELi0ELin1ELin1EEELin1ELin1ELb0EEEE25applyHouseholderOnTheLeftINS_11VectorBlockINS1_IS3_Lin1ELi1ELb1EEELin1EEEEEvRKT_RKfPf.cold.13, symObjAddr: 0x63D0C, symBinAddr: 0x1000680F0, symSize: 0x24 }
  - { offsetInCU: 0x4F64A4, offset: 0x4F64A4, size: 0x8, addend: 0x0, symName: __ZN5Eigen10MatrixBaseINS_5BlockINS_6MatrixIfLin1ELin1ELi0ELin1ELin1EEELin1ELin1ELb0EEEE25applyHouseholderOnTheLeftINS_11VectorBlockINS1_IS3_Lin1ELi1ELb1EEELin1EEEEEvRKT_RKfPf.cold.5, symObjAddr: 0x63BEC, symBinAddr: 0x100067FD0, symSize: 0x24 }
  - { offsetInCU: 0x4F64FD, offset: 0x4F64FD, size: 0x8, addend: 0x0, symName: __ZN5Eigen10MatrixBaseINS_5BlockINS_6MatrixIfLin1ELin1ELi0ELin1ELin1EEELin1ELin1ELb0EEEE25applyHouseholderOnTheLeftINS_11VectorBlockINS1_IS3_Lin1ELi1ELb1EEELin1EEEEEvRKT_RKfPf.cold.7, symObjAddr: 0x63C34, symBinAddr: 0x100068018, symSize: 0x24 }
  - { offsetInCU: 0x4F6556, offset: 0x4F6556, size: 0x8, addend: 0x0, symName: __ZN5Eigen10MatrixBaseINS_5BlockINS_6MatrixIfLin1ELin1ELi0ELin1ELin1EEELin1ELin1ELb0EEEE25applyHouseholderOnTheLeftINS_11VectorBlockINS1_IS3_Lin1ELi1ELb1EEELin1EEEEEvRKT_RKfPf.cold.9, symObjAddr: 0x63C7C, symBinAddr: 0x100068060, symSize: 0x24 }
  - { offsetInCU: 0x4F65AF, offset: 0x4F65AF, size: 0x8, addend: 0x0, symName: __ZN5Eigen10MatrixBaseINS_5BlockINS_6MatrixIfLin1ELin1ELi0ELin1ELin1EEELin1ELin1ELb0EEEE25applyHouseholderOnTheLeftINS_11VectorBlockINS1_IS3_Lin1ELi1ELb1EEELin1EEEEEvRKT_RKfPf.cold.1, symObjAddr: 0x63B5C, symBinAddr: 0x100067F40, symSize: 0x24 }
  - { offsetInCU: 0x4F6632, offset: 0x4F6632, size: 0x8, addend: 0x0, symName: __ZN5Eigen10MatrixBaseINS_5BlockINS_6MatrixIfLin1ELin1ELi0ELin1ELin1EEELin1ELin1ELb0EEEE25applyHouseholderOnTheLeftINS_11VectorBlockINS1_IS3_Lin1ELi1ELb1EEELin1EEEEEvRKT_RKfPf.cold.2, symObjAddr: 0x63B80, symBinAddr: 0x100067F64, symSize: 0x24 }
  - { offsetInCU: 0x4F66A0, offset: 0x4F66A0, size: 0x8, addend: 0x0, symName: __ZN5Eigen10MatrixBaseINS_5BlockINS_6MatrixIfLin1ELin1ELi0ELin1ELin1EEELin1ELin1ELb0EEEE25applyHouseholderOnTheLeftINS_11VectorBlockINS1_IS3_Lin1ELi1ELb1EEELin1EEEEEvRKT_RKfPf.cold.3, symObjAddr: 0x63BA4, symBinAddr: 0x100067F88, symSize: 0x24 }
  - { offsetInCU: 0x4F6739, offset: 0x4F6739, size: 0x8, addend: 0x0, symName: __ZN5Eigen10MatrixBaseINS_5BlockINS_6MatrixIfLin1ELin1ELi0ELin1ELin1EEELin1ELin1ELb0EEEE25applyHouseholderOnTheLeftINS_11VectorBlockINS1_IS3_Lin1ELi1ELb1EEELin1EEEEEvRKT_RKfPf.cold.12, symObjAddr: 0x63CE8, symBinAddr: 0x1000680CC, symSize: 0x24 }
  - { offsetInCU: 0x4F6792, offset: 0x4F6792, size: 0x8, addend: 0x0, symName: __ZN5Eigen10MatrixBaseINS_5BlockINS_6MatrixIfLin1ELin1ELi0ELin1ELin1EEELin1ELin1ELb0EEEE25applyHouseholderOnTheLeftINS_11VectorBlockINS1_IS3_Lin1ELi1ELb1EEELin1EEEEEvRKT_RKfPf.cold.11, symObjAddr: 0x63CC4, symBinAddr: 0x1000680A8, symSize: 0x24 }
  - { offsetInCU: 0x4F682D, offset: 0x4F682D, size: 0x8, addend: 0x0, symName: __ZN5Eigen10MatrixBaseINS_5BlockINS_6MatrixIfLin1ELin1ELi0ELin1ELin1EEELin1ELin1ELb0EEEE25applyHouseholderOnTheLeftINS_11VectorBlockINS1_IS3_Lin1ELi1ELb1EEELin1EEEEEvRKT_RKfPf.cold.6, symObjAddr: 0x63C10, symBinAddr: 0x100067FF4, symSize: 0x24 }
  - { offsetInCU: 0x4F6886, offset: 0x4F6886, size: 0x8, addend: 0x0, symName: __ZN5Eigen10MatrixBaseINS_5BlockINS_6MatrixIfLin1ELin1ELi0ELin1ELin1EEELin1ELin1ELb0EEEE25applyHouseholderOnTheLeftINS_11VectorBlockINS1_IS3_Lin1ELi1ELb1EEELin1EEEEEvRKT_RKfPf.cold.10, symObjAddr: 0x63CA0, symBinAddr: 0x100068084, symSize: 0x24 }
  - { offsetInCU: 0x4F6921, offset: 0x4F6921, size: 0x8, addend: 0x0, symName: __ZN5Eigen10MatrixBaseINS_5BlockINS_6MatrixIfLin1ELin1ELi0ELin1ELin1EEELin1ELin1ELb0EEEE25applyHouseholderOnTheLeftINS_11VectorBlockINS1_IS3_Lin1ELi1ELb1EEELin1EEEEEvRKT_RKfPf.cold.8, symObjAddr: 0x63C58, symBinAddr: 0x10006803C, symSize: 0x24 }
  - { offsetInCU: 0x4F697A, offset: 0x4F697A, size: 0x8, addend: 0x0, symName: __ZN5Eigen10MatrixBaseINS_5BlockINS_6MatrixIfLin1ELin1ELi0ELin1ELin1EEELin1ELin1ELb0EEEE25applyHouseholderOnTheLeftINS_11VectorBlockINS1_IS3_Lin1ELi1ELb1EEELin1EEEEEvRKT_RKfPf.cold.4, symObjAddr: 0x63BC8, symBinAddr: 0x100067FAC, symSize: 0x24 }
  - { offsetInCU: 0x4F74AC, offset: 0x4F74AC, size: 0x8, addend: 0x0, symName: __ZNK5Eigen10MatrixBaseINS_5BlockINS1_INS_6MatrixIfLin1ELin1ELi0ELin1ELin1EEELin1ELi1ELb1EEELin1ELi1ELb0EEEE15makeHouseholderINS_11VectorBlockIS5_Lin1EEEEEvRT_RfSC_.cold.5, symObjAddr: 0x63DC0, symBinAddr: 0x1000681A4, symSize: 0x24 }
  - { offsetInCU: 0x4F7504, offset: 0x4F7504, size: 0x8, addend: 0x0, symName: __ZNK5Eigen10MatrixBaseINS_5BlockINS1_INS_6MatrixIfLin1ELin1ELi0ELin1ELin1EEELin1ELi1ELb1EEELin1ELi1ELb0EEEE15makeHouseholderINS_11VectorBlockIS5_Lin1EEEEEvRT_RfSC_.cold.2, symObjAddr: 0x63D54, symBinAddr: 0x100068138, symSize: 0x24 }
  - { offsetInCU: 0x4F759D, offset: 0x4F759D, size: 0x8, addend: 0x0, symName: __ZNK5Eigen10MatrixBaseINS_5BlockINS1_INS_6MatrixIfLin1ELin1ELi0ELin1ELin1EEELin1ELi1ELb1EEELin1ELi1ELb0EEEE15makeHouseholderINS_11VectorBlockIS5_Lin1EEEEEvRT_RfSC_.cold.1, symObjAddr: 0x63D30, symBinAddr: 0x100068114, symSize: 0x24 }
  - { offsetInCU: 0x4F7635, offset: 0x4F7635, size: 0x8, addend: 0x0, symName: __ZNK5Eigen10MatrixBaseINS_5BlockINS1_INS_6MatrixIfLin1ELin1ELi0ELin1ELin1EEELin1ELi1ELb1EEELin1ELi1ELb0EEEE15makeHouseholderINS_11VectorBlockIS5_Lin1EEEEEvRT_RfSC_.cold.3, symObjAddr: 0x63D78, symBinAddr: 0x10006815C, symSize: 0x24 }
  - { offsetInCU: 0x4F768E, offset: 0x4F768E, size: 0x8, addend: 0x0, symName: __ZNK5Eigen10MatrixBaseINS_5BlockINS1_INS_6MatrixIfLin1ELin1ELi0ELin1ELin1EEELin1ELi1ELb1EEELin1ELi1ELb0EEEE15makeHouseholderINS_11VectorBlockIS5_Lin1EEEEEvRT_RfSC_.cold.4, symObjAddr: 0x63D9C, symBinAddr: 0x100068180, symSize: 0x24 }
  - { offsetInCU: 0x4F7C1B, offset: 0x4F7C1B, size: 0x8, addend: 0x0, symName: __ZN5Eigen8internal20generic_product_implINS_9TransposeIKNS_5BlockINS3_INS_6MatrixIfLin1ELin1ELi0ELin1ELin1EEELin1ELi1ELb1EEELin1ELi1ELb0EEEEENS3_INS3_IS5_Lin1ELin1ELb0EEELin1ELin1ELb0EEENS_10DenseShapeESC_Li7EE13scaleAndAddToINS_3MapINS4_IfLi1ELin1ELi1ELi1ELin1EEELi0ENS_6StrideILi0ELi0EEEEEEEvRT_RKS9_RKSB_RKf, symObjAddr: 0x46DF8, symBinAddr: 0x10004A9F0, symSize: 0x1DC }
  - { offsetInCU: 0x4F896D, offset: 0x4F896D, size: 0x8, addend: 0x0, symName: __ZN5Eigen8internal19gemv_dense_selectorILi2ELi1ELb1EE3runINS_9TransposeIKNS_5BlockINS5_INS_6MatrixIfLin1ELin1ELi0ELin1ELin1EEELin1ELin1ELb0EEELin1ELin1ELb0EEEEENS4_IKNS4_IKNS5_INS5_IS7_Lin1ELi1ELb1EEELin1ELi1ELb0EEEEEEENS4_INS_3MapINS6_IfLi1ELin1ELi1ELi1ELin1EEELi0ENS_6StrideILi0ELi0EEEEEEEEEvRKT_RKT0_RT1_RKNSU_6ScalarE, symObjAddr: 0x46FD4, symBinAddr: 0x10004ABCC, symSize: 0x1A4 }
  - { offsetInCU: 0x4F8981, offset: 0x4F8981, size: 0x8, addend: 0x0, symName: __ZN5Eigen7NoAliasINS_3MapINS_6MatrixIfLi1ELin1ELi1ELi1ELin1EEELi0ENS_6StrideILi0ELi0EEEEENS_10MatrixBaseEEaSINS_7ProductINS_9TransposeIKNS_5BlockINSC_INS2_IfLin1ELin1ELi0ELin1ELin1EEELin1ELi1ELb1EEELin1ELi1ELb0EEEEENSC_INSC_ISD_Lin1ELin1ELb0EEELin1ELin1ELb0EEELi0EEEEERS6_RKNS7_IT_EE.cold.1, symObjAddr: 0x63DE4, symBinAddr: 0x1000681C8, symSize: 0x24 }
  - { offsetInCU: 0x4F8A5A, offset: 0x4F8A5A, size: 0x8, addend: 0x0, symName: __ZN5Eigen7NoAliasINS_3MapINS_6MatrixIfLi1ELin1ELi1ELi1ELin1EEELi0ENS_6StrideILi0ELi0EEEEENS_10MatrixBaseEEaSINS_7ProductINS_9TransposeIKNS_5BlockINSC_INS2_IfLin1ELin1ELi0ELin1ELin1EEELin1ELi1ELb1EEELin1ELi1ELb0EEEEENSC_INSC_ISD_Lin1ELin1ELb0EEELin1ELin1ELb0EEELi0EEEEERS6_RKNS7_IT_EE.cold.2, symObjAddr: 0x63E08, symBinAddr: 0x1000681EC, symSize: 0x24 }
  - { offsetInCU: 0x4F9337, offset: 0x4F9337, size: 0x8, addend: 0x0, symName: __ZN5Eigen8internal20generic_product_implINS_9TransposeIKNS_5BlockINS3_INS_6MatrixIfLin1ELin1ELi0ELin1ELin1EEELin1ELi1ELb1EEELin1ELi1ELb0EEEEENS3_INS3_IS5_Lin1ELin1ELb0EEELin1ELin1ELb0EEENS_10DenseShapeESC_Li7EE13scaleAndAddToINS_3MapINS4_IfLi1ELin1ELi1ELi1ELin1EEELi0ENS_6StrideILi0ELi0EEEEEEEvRT_RKS9_RKSB_RKf.cold.4, symObjAddr: 0x63E98, symBinAddr: 0x10006827C, symSize: 0x24 }
  - { offsetInCU: 0x4F9365, offset: 0x4F9365, size: 0x8, addend: 0x0, symName: __ZN5Eigen8internal20generic_product_implINS_9TransposeIKNS_5BlockINS3_INS_6MatrixIfLin1ELin1ELi0ELin1ELin1EEELin1ELi1ELb1EEELin1ELi1ELb0EEEEENS3_INS3_IS5_Lin1ELin1ELb0EEELin1ELin1ELb0EEENS_10DenseShapeESC_Li7EE13scaleAndAddToINS_3MapINS4_IfLi1ELin1ELi1ELi1ELin1EEELi0ENS_6StrideILi0ELi0EEEEEEEvRT_RKS9_RKSB_RKf.cold.3, symObjAddr: 0x63E74, symBinAddr: 0x100068258, symSize: 0x24 }
  - { offsetInCU: 0x4F93D3, offset: 0x4F93D3, size: 0x8, addend: 0x0, symName: __ZN5Eigen8internal20generic_product_implINS_9TransposeIKNS_5BlockINS3_INS_6MatrixIfLin1ELin1ELi0ELin1ELin1EEELin1ELi1ELb1EEELin1ELi1ELb0EEEEENS3_INS3_IS5_Lin1ELin1ELb0EEELin1ELin1ELb0EEENS_10DenseShapeESC_Li7EE13scaleAndAddToINS_3MapINS4_IfLi1ELin1ELi1ELi1ELin1EEELi0ENS_6StrideILi0ELi0EEEEEEEvRT_RKS9_RKSB_RKf.cold.1, symObjAddr: 0x63E2C, symBinAddr: 0x100068210, symSize: 0x24 }
  - { offsetInCU: 0x4F946C, offset: 0x4F946C, size: 0x8, addend: 0x0, symName: __ZN5Eigen8internal20generic_product_implINS_9TransposeIKNS_5BlockINS3_INS_6MatrixIfLin1ELin1ELi0ELin1ELin1EEELin1ELi1ELb1EEELin1ELi1ELb0EEEEENS3_INS3_IS5_Lin1ELin1ELb0EEELin1ELin1ELb0EEENS_10DenseShapeESC_Li7EE13scaleAndAddToINS_3MapINS4_IfLi1ELin1ELi1ELi1ELin1EEELi0ENS_6StrideILi0ELi0EEEEEEEvRT_RKS9_RKSB_RKf.cold.2, symObjAddr: 0x63E50, symBinAddr: 0x100068234, symSize: 0x24 }
  - { offsetInCU: 0x4F9718, offset: 0x4F9718, size: 0x8, addend: 0x0, symName: __ZN5Eigen8internal19gemv_dense_selectorILi2ELi1ELb1EE3runINS_9TransposeIKNS_5BlockINS5_INS_6MatrixIfLin1ELin1ELi0ELin1ELin1EEELin1ELin1ELb0EEELin1ELin1ELb0EEEEENS4_IKNS4_IKNS5_INS5_IS7_Lin1ELi1ELb1EEELin1ELi1ELb0EEEEEEENS4_INS_3MapINS6_IfLi1ELin1ELi1ELi1ELin1EEELi0ENS_6StrideILi0ELi0EEEEEEEEEvRKT_RKT0_RT1_RKNSU_6ScalarE.cold.1, symObjAddr: 0x63EBC, symBinAddr: 0x1000682A0, symSize: 0x24 }
  - { offsetInCU: 0x4F9A7B, offset: 0x4F9A7B, size: 0x8, addend: 0x0, symName: __ZN5Eigen8internal25local_nested_eval_wrapperINS_13CwiseBinaryOpINS0_17scalar_product_opIffEEKNS_14CwiseNullaryOpINS0_18scalar_constant_opIfEEKNS_6MatrixIfLin1ELi1ELi0ELin1ELi1EEEEEKNS_5BlockINSD_INS8_IfLin1ELin1ELi0ELin1ELin1EEELin1ELi1ELb1EEELin1ELi1ELb0EEEEELin1ELb1EEC2ERKSI_Pf, symObjAddr: 0x4759C, symBinAddr: 0x10004B194, symSize: 0x1AC }
  - { offsetInCU: 0x4F9FB9, offset: 0x4F9FB9, size: 0x8, addend: 0x0, symName: __ZNK5Eigen8internal20generic_product_implINS_13CwiseBinaryOpINS0_17scalar_product_opIffEEKNS_14CwiseNullaryOpINS0_18scalar_constant_opIfEEKNS_6MatrixIfLin1ELi1ELi0ELin1ELi1EEEEEKNS_5BlockINSD_INS8_IfLin1ELin1ELi0ELin1ELin1EEELin1ELi1ELb1EEELin1ELi1ELb0EEEEENS_3MapINS8_IfLi1ELin1ELi1ELi1ELin1EEELi0ENS_6StrideILi0ELi0EEEEENS_10DenseShapeESO_Li5EE3subclINSD_INSD_INSD_ISE_Lin1ELin1ELb0EEELin1ELin1ELb0EEELin1ELi1ELb1EEENS2_IS4_SC_KNSJ_IS9_Li16ESM_EEEEEEvRKT_RKT0_, symObjAddr: 0x4739C, symBinAddr: 0x10004AF94, symSize: 0x200 }
  - { offsetInCU: 0x4FA4F1, offset: 0x4FA4F1, size: 0x8, addend: 0x0, symName: __ZN5Eigen8internal25local_nested_eval_wrapperINS_13CwiseBinaryOpINS0_17scalar_product_opIffEEKNS_14CwiseNullaryOpINS0_18scalar_constant_opIfEEKNS_6MatrixIfLin1ELi1ELi0ELin1ELi1EEEEEKNS_5BlockINSD_INS8_IfLin1ELin1ELi0ELin1ELin1EEELin1ELi1ELb1EEELin1ELi1ELb0EEEEELin1ELb1EEC2ERKSI_Pf, symObjAddr: 0x4759C, symBinAddr: 0x10004B194, symSize: 0x1AC }
  - { offsetInCU: 0x4FA808, offset: 0x4FA808, size: 0x8, addend: 0x0, symName: __ZNK5Eigen8internal20generic_product_implINS_13CwiseBinaryOpINS0_17scalar_product_opIffEEKNS_14CwiseNullaryOpINS0_18scalar_constant_opIfEEKNS_6MatrixIfLin1ELi1ELi0ELin1ELi1EEEEEKNS_5BlockINSD_INS8_IfLin1ELin1ELi0ELin1ELin1EEELin1ELi1ELb1EEELin1ELi1ELb0EEEEENS_3MapINS8_IfLi1ELin1ELi1ELi1ELin1EEELi0ENS_6StrideILi0ELi0EEEEENS_10DenseShapeESO_Li5EE3subclINSD_INSD_INSD_ISE_Lin1ELin1ELb0EEELin1ELin1ELb0EEELin1ELi1ELb1EEENS2_IS4_SC_KNSJ_IS9_Li16ESM_EEEEEEvRKT_RKT0_.cold.1, symObjAddr: 0x63EE0, symBinAddr: 0x1000682C4, symSize: 0x24 }
  - { offsetInCU: 0x4FABEA, offset: 0x4FABEA, size: 0x8, addend: 0x0, symName: __ZN5Eigen8internal25local_nested_eval_wrapperINS_13CwiseBinaryOpINS0_17scalar_product_opIffEEKNS_14CwiseNullaryOpINS0_18scalar_constant_opIfEEKNS_6MatrixIfLin1ELi1ELi0ELin1ELi1EEEEEKNS_5BlockINSD_INS8_IfLin1ELin1ELi0ELin1ELin1EEELin1ELi1ELb1EEELin1ELi1ELb0EEEEELin1ELb1EEC2ERKSI_Pf.cold.1, symObjAddr: 0x63F04, symBinAddr: 0x1000682E8, symSize: 0x24 }
  - { offsetInCU: 0x4FAC58, offset: 0x4FAC58, size: 0x8, addend: 0x0, symName: __ZN5Eigen8internal25local_nested_eval_wrapperINS_13CwiseBinaryOpINS0_17scalar_product_opIffEEKNS_14CwiseNullaryOpINS0_18scalar_constant_opIfEEKNS_6MatrixIfLin1ELi1ELi0ELin1ELi1EEEEEKNS_5BlockINSD_INS8_IfLin1ELin1ELi0ELin1ELin1EEELin1ELi1ELb1EEELin1ELi1ELb0EEEEELin1ELb1EEC2ERKSI_Pf.cold.3, symObjAddr: 0x63F4C, symBinAddr: 0x100068330, symSize: 0x28 }
  - { offsetInCU: 0x4FACDB, offset: 0x4FACDB, size: 0x8, addend: 0x0, symName: __ZN5Eigen8internal25local_nested_eval_wrapperINS_13CwiseBinaryOpINS0_17scalar_product_opIffEEKNS_14CwiseNullaryOpINS0_18scalar_constant_opIfEEKNS_6MatrixIfLin1ELi1ELi0ELin1ELi1EEEEEKNS_5BlockINSD_INS8_IfLin1ELin1ELi0ELin1ELin1EEELin1ELi1ELb1EEELin1ELi1ELb0EEEEELin1ELb1EEC2ERKSI_Pf.cold.4, symObjAddr: 0x63F74, symBinAddr: 0x100068358, symSize: 0x24 }
  - { offsetInCU: 0x4FAD11, offset: 0x4FAD11, size: 0x8, addend: 0x0, symName: __ZN5Eigen8internal25local_nested_eval_wrapperINS_13CwiseBinaryOpINS0_17scalar_product_opIffEEKNS_14CwiseNullaryOpINS0_18scalar_constant_opIfEEKNS_6MatrixIfLin1ELi1ELi0ELin1ELi1EEEEEKNS_5BlockINSD_INS8_IfLin1ELin1ELi0ELin1ELin1EEELin1ELi1ELb1EEELin1ELi1ELb0EEEEELin1ELb1EEC2ERKSI_Pf.cold.2, symObjAddr: 0x63F28, symBinAddr: 0x10006830C, symSize: 0x24 }
  - { offsetInCU: 0x4FB0B8, offset: 0x4FB0B8, size: 0x8, addend: 0x0, symName: __ZN5Eigen3RefIKNS_6MatrixIfLin1ELi1ELi0ELi4096ELi1EEELi16ENS_11InnerStrideILi1EEEE9constructINS_5BlockIKNS_13CwiseBinaryOpINS_8internal17scalar_product_opIffEEKNS1_IfLin1ELi1ELi0ELin1ELi1EEESE_EELin1ELi1ELb0EEEEEvRKT_NSA_10false_typeE, symObjAddr: 0x478B4, symBinAddr: 0x10004B4AC, symSize: 0x180 }
  - { offsetInCU: 0x4FB939, offset: 0x4FB939, size: 0x8, addend: 0x0, symName: __ZNK5Eigen19HouseholderSequenceINS_6MatrixIfLin1ELin1ELi0ELin1ELin1EEENS1_IfLin1ELi1ELi0ELin1ELi1EEELi1EE18applyThisOnTheLeftIS3_NS1_IfLi1ELi1ELi1ELi1ELi1EEEEEvRT_RT0_b, symObjAddr: 0x47A34, symBinAddr: 0x10004B62C, symSize: 0x174 }
  - { offsetInCU: 0x4FB94D, offset: 0x4FB94D, size: 0x8, addend: 0x0, symName: __ZN5Eigen8internal16stable_norm_implINS_13CwiseBinaryOpINS0_17scalar_product_opIffEEKNS_6MatrixIfLin1ELi1ELi0ELin1ELi1EEES7_EEEENT_10RealScalarERKS9_PNS0_9enable_ifIXsrS9_21IsVectorAtCompileTimeEvE4typeE.cold.1, symObjAddr: 0x63F98, symBinAddr: 0x10006837C, symSize: 0x24 }
  - { offsetInCU: 0x4FBCD3, offset: 0x4FBCD3, size: 0x8, addend: 0x0, symName: __ZN5Eigen3RefIKNS_6MatrixIfLin1ELi1ELi0ELi4096ELi1EEELi16ENS_11InnerStrideILi1EEEE9constructINS_5BlockIKNS_13CwiseBinaryOpINS_8internal17scalar_product_opIffEEKNS1_IfLin1ELi1ELi0ELin1ELi1EEESE_EELin1ELi1ELb0EEEEEvRKT_NSA_10false_typeE.cold.2, symObjAddr: 0x63FE0, symBinAddr: 0x1000683C4, symSize: 0x24 }
  - { offsetInCU: 0x4FBD59, offset: 0x4FBD59, size: 0x8, addend: 0x0, symName: __ZN5Eigen3RefIKNS_6MatrixIfLin1ELi1ELi0ELi4096ELi1EEELi16ENS_11InnerStrideILi1EEEE9constructINS_5BlockIKNS_13CwiseBinaryOpINS_8internal17scalar_product_opIffEEKNS1_IfLin1ELi1ELi0ELin1ELi1EEESE_EELin1ELi1ELb0EEEEEvRKT_NSA_10false_typeE.cold.1, symObjAddr: 0x63FBC, symBinAddr: 0x1000683A0, symSize: 0x24 }
  - { offsetInCU: 0x4FC1CD, offset: 0x4FC1CD, size: 0x8, addend: 0x0, symName: __ZN5Eigen10MatrixBaseINS_5BlockINS_6MatrixIfLin1ELi1ELi0ELin1ELi1EEELin1ELin1ELb0EEEE25applyHouseholderOnTheLeftINS1_IKNS2_IfLin1ELin1ELi0ELin1ELin1EEELin1ELi1ELb0EEEEEvRKT_RKfPf, symObjAddr: 0x47BA8, symBinAddr: 0x10004B7A0, symSize: 0x418 }
  - { offsetInCU: 0x4FD760, offset: 0x4FD760, size: 0x8, addend: 0x0, symName: __ZNK5Eigen19HouseholderSequenceINS_6MatrixIfLin1ELin1ELi0ELin1ELin1EEENS1_IfLin1ELi1ELi0ELin1ELi1EEELi1EE18applyThisOnTheLeftIS3_NS1_IfLi1ELi1ELi1ELi1ELi1EEEEEvRT_RT0_b.cold.2, symObjAddr: 0x64028, symBinAddr: 0x10006840C, symSize: 0x24 }
  - { offsetInCU: 0x4FD7B9, offset: 0x4FD7B9, size: 0x8, addend: 0x0, symName: __ZNK5Eigen19HouseholderSequenceINS_6MatrixIfLin1ELin1ELi0ELin1ELin1EEENS1_IfLin1ELi1ELi0ELin1ELi1EEELi1EE18applyThisOnTheLeftIS3_NS1_IfLi1ELi1ELi1ELi1ELi1EEEEEvRT_RT0_b.cold.4, symObjAddr: 0x64070, symBinAddr: 0x100068454, symSize: 0x24 }
  - { offsetInCU: 0x4FD826, offset: 0x4FD826, size: 0x8, addend: 0x0, symName: __ZNK5Eigen19HouseholderSequenceINS_6MatrixIfLin1ELin1ELi0ELin1ELin1EEENS1_IfLin1ELi1ELi0ELin1ELi1EEELi1EE18applyThisOnTheLeftIS3_NS1_IfLi1ELi1ELi1ELi1ELi1EEEEEvRT_RT0_b.cold.5, symObjAddr: 0x64094, symBinAddr: 0x100068478, symSize: 0x28 }
  - { offsetInCU: 0x4FD854, offset: 0x4FD854, size: 0x8, addend: 0x0, symName: __ZNK5Eigen19HouseholderSequenceINS_6MatrixIfLin1ELin1ELi0ELin1ELin1EEENS1_IfLin1ELi1ELi0ELin1ELi1EEELi1EE18applyThisOnTheLeftIS3_NS1_IfLi1ELi1ELi1ELi1ELi1EEEEEvRT_RT0_b.cold.1, symObjAddr: 0x64004, symBinAddr: 0x1000683E8, symSize: 0x24 }
  - { offsetInCU: 0x4FD903, offset: 0x4FD903, size: 0x8, addend: 0x0, symName: __ZNK5Eigen19HouseholderSequenceINS_6MatrixIfLin1ELin1ELi0ELin1ELin1EEENS1_IfLin1ELi1ELi0ELin1ELi1EEELi1EE18applyThisOnTheLeftIS3_NS1_IfLi1ELi1ELi1ELi1ELi1EEEEEvRT_RT0_b.cold.3, symObjAddr: 0x6404C, symBinAddr: 0x100068430, symSize: 0x24 }
  - { offsetInCU: 0x4FEFA5, offset: 0x4FEFA5, size: 0x8, addend: 0x0, symName: __ZNK5Eigen8internal17product_evaluatorINS_7ProductINS_9TransposeIKNS_5BlockIKNS_6MatrixIfLin1ELin1ELi0ELin1ELin1EEELin1ELi1ELb0EEEEENS4_INS4_INS5_IfLin1ELi1ELi0ELin1ELi1EEELin1ELin1ELb0EEELin1ELin1ELb0EEELi1EEELi3ENS_10DenseShapeESF_ffE5coeffEll, symObjAddr: 0x4828C, symBinAddr: 0x10004BE84, symSize: 0x198 }
  - { offsetInCU: 0x4FFBED, offset: 0x4FFBED, size: 0x8, addend: 0x0, symName: __ZN5Eigen8internal26call_dense_assignment_loopINS_5BlockINS2_INS_6MatrixIfLin1ELi1ELi0ELin1ELi1EEELin1ELin1ELb0EEELin1ELin1ELb0EEENS_7ProductINS_13CwiseBinaryOpINS0_17scalar_product_opIffEEKNS_14CwiseNullaryOpINS0_18scalar_constant_opIfEEKS4_EEKNS2_IKNS3_IfLin1ELin1ELi0ELin1ELin1EEELin1ELi1ELb0EEEEENS_3MapINS3_IfLi1ELin1ELi1ELi1ELi1EEELi0ENS_6StrideILi0ELi0EEEEELi1EEENS0_13sub_assign_opIffEEEEvRT_RKT0_RKT1_, symObjAddr: 0x48424, symBinAddr: 0x10004C01C, symSize: 0x204 }
  - { offsetInCU: 0x4FFBF8, offset: 0x4FFBF8, size: 0x8, addend: 0x0, symName: __ZN5Eigen10MatrixBaseINS_5BlockINS_6MatrixIfLin1ELi1ELi0ELin1ELi1EEELin1ELin1ELb0EEEE25applyHouseholderOnTheLeftINS1_IKNS2_IfLin1ELin1ELi0ELin1ELin1EEELin1ELi1ELb0EEEEEvRKT_RKfPf.cold.9, symObjAddr: 0x641DC, symBinAddr: 0x1000685C0, symSize: 0x24 }
  - { offsetInCU: 0x4FFCA7, offset: 0x4FFCA7, size: 0x8, addend: 0x0, symName: __ZN5Eigen10MatrixBaseINS_5BlockINS_6MatrixIfLin1ELi1ELi0ELin1ELi1EEELin1ELin1ELb0EEEE25applyHouseholderOnTheLeftINS1_IKNS2_IfLin1ELin1ELi0ELin1ELin1EEELin1ELi1ELb0EEEEEvRKT_RKfPf.cold.11, symObjAddr: 0x64224, symBinAddr: 0x100068608, symSize: 0x24 }
  - { offsetInCU: 0x4FFCEA, offset: 0x4FFCEA, size: 0x8, addend: 0x0, symName: __ZN5Eigen10MatrixBaseINS_5BlockINS_6MatrixIfLin1ELi1ELi0ELin1ELi1EEELin1ELin1ELb0EEEE25applyHouseholderOnTheLeftINS1_IKNS2_IfLin1ELin1ELi0ELin1ELin1EEELin1ELi1ELb0EEEEEvRKT_RKfPf.cold.4, symObjAddr: 0x64128, symBinAddr: 0x10006850C, symSize: 0x24 }
  - { offsetInCU: 0x4FFD43, offset: 0x4FFD43, size: 0x8, addend: 0x0, symName: __ZN5Eigen10MatrixBaseINS_5BlockINS_6MatrixIfLin1ELi1ELi0ELin1ELi1EEELin1ELin1ELb0EEEE25applyHouseholderOnTheLeftINS1_IKNS2_IfLin1ELin1ELi0ELin1ELin1EEELin1ELi1ELb0EEEEEvRKT_RKfPf.cold.6, symObjAddr: 0x64170, symBinAddr: 0x100068554, symSize: 0x24 }
  - { offsetInCU: 0x4FFD9C, offset: 0x4FFD9C, size: 0x8, addend: 0x0, symName: __ZN5Eigen10MatrixBaseINS_5BlockINS_6MatrixIfLin1ELi1ELi0ELin1ELi1EEELin1ELin1ELb0EEEE25applyHouseholderOnTheLeftINS1_IKNS2_IfLin1ELin1ELi0ELin1ELin1EEELin1ELi1ELb0EEEEEvRKT_RKfPf.cold.1, symObjAddr: 0x640BC, symBinAddr: 0x1000684A0, symSize: 0x24 }
  - { offsetInCU: 0x4FFE1F, offset: 0x4FFE1F, size: 0x8, addend: 0x0, symName: __ZN5Eigen10MatrixBaseINS_5BlockINS_6MatrixIfLin1ELi1ELi0ELin1ELi1EEELin1ELin1ELb0EEEE25applyHouseholderOnTheLeftINS1_IKNS2_IfLin1ELin1ELi0ELin1ELin1EEELin1ELi1ELb0EEEEEvRKT_RKfPf.cold.7, symObjAddr: 0x64194, symBinAddr: 0x100068578, symSize: 0x24 }
  - { offsetInCU: 0x4FFE78, offset: 0x4FFE78, size: 0x8, addend: 0x0, symName: __ZN5Eigen10MatrixBaseINS_5BlockINS_6MatrixIfLin1ELi1ELi0ELin1ELi1EEELin1ELin1ELb0EEEE25applyHouseholderOnTheLeftINS1_IKNS2_IfLin1ELin1ELi0ELin1ELin1EEELin1ELi1ELb0EEEEEvRKT_RKfPf.cold.2, symObjAddr: 0x640E0, symBinAddr: 0x1000684C4, symSize: 0x24 }
  - { offsetInCU: 0x4FFEE6, offset: 0x4FFEE6, size: 0x8, addend: 0x0, symName: __ZN5Eigen10MatrixBaseINS_5BlockINS_6MatrixIfLin1ELi1ELi0ELin1ELi1EEELin1ELin1ELb0EEEE25applyHouseholderOnTheLeftINS1_IKNS2_IfLin1ELin1ELi0ELin1ELin1EEELin1ELi1ELb0EEEEEvRKT_RKfPf.cold.3, symObjAddr: 0x64104, symBinAddr: 0x1000684E8, symSize: 0x24 }
  - { offsetInCU: 0x4FFF7F, offset: 0x4FFF7F, size: 0x8, addend: 0x0, symName: __ZN5Eigen10MatrixBaseINS_5BlockINS_6MatrixIfLin1ELi1ELi0ELin1ELi1EEELin1ELin1ELb0EEEE25applyHouseholderOnTheLeftINS1_IKNS2_IfLin1ELin1ELi0ELin1ELin1EEELin1ELi1ELb0EEEEEvRKT_RKfPf.cold.10, symObjAddr: 0x64200, symBinAddr: 0x1000685E4, symSize: 0x24 }
  - { offsetInCU: 0x4FFFD8, offset: 0x4FFFD8, size: 0x8, addend: 0x0, symName: __ZN5Eigen10MatrixBaseINS_5BlockINS_6MatrixIfLin1ELi1ELi0ELin1ELi1EEELin1ELin1ELb0EEEE25applyHouseholderOnTheLeftINS1_IKNS2_IfLin1ELin1ELi0ELin1ELin1EEELin1ELi1ELb0EEEEEvRKT_RKfPf.cold.8, symObjAddr: 0x641B8, symBinAddr: 0x10006859C, symSize: 0x24 }
  - { offsetInCU: 0x500073, offset: 0x500073, size: 0x8, addend: 0x0, symName: __ZN5Eigen10MatrixBaseINS_5BlockINS_6MatrixIfLin1ELi1ELi0ELin1ELi1EEELin1ELin1ELb0EEEE25applyHouseholderOnTheLeftINS1_IKNS2_IfLin1ELin1ELi0ELin1ELin1EEELin1ELi1ELb0EEEEEvRKT_RKfPf.cold.5, symObjAddr: 0x6414C, symBinAddr: 0x100068530, symSize: 0x24 }
  - { offsetInCU: 0x500AF8, offset: 0x500AF8, size: 0x8, addend: 0x0, symName: __ZNK5Eigen8internal17product_evaluatorINS_7ProductINS_9TransposeIKNS_5BlockIKNS_6MatrixIfLin1ELin1ELi0ELin1ELin1EEELin1ELi1ELb0EEEEENS4_INS4_INS5_IfLin1ELi1ELi0ELin1ELi1EEELin1ELin1ELb0EEELin1ELin1ELb0EEELi1EEELi3ENS_10DenseShapeESF_ffE5coeffEll.cold.3, symObjAddr: 0x64290, symBinAddr: 0x100068674, symSize: 0x24 }
  - { offsetInCU: 0x500B51, offset: 0x500B51, size: 0x8, addend: 0x0, symName: __ZNK5Eigen8internal17product_evaluatorINS_7ProductINS_9TransposeIKNS_5BlockIKNS_6MatrixIfLin1ELin1ELi0ELin1ELin1EEELin1ELi1ELb0EEEEENS4_INS4_INS5_IfLin1ELi1ELi0ELin1ELi1EEELin1ELin1ELb0EEELin1ELin1ELb0EEELi1EEELi3ENS_10DenseShapeESF_ffE5coeffEll.cold.6, symObjAddr: 0x642FC, symBinAddr: 0x1000686E0, symSize: 0x28 }
  - { offsetInCU: 0x500BFF, offset: 0x500BFF, size: 0x8, addend: 0x0, symName: __ZNK5Eigen8internal17product_evaluatorINS_7ProductINS_9TransposeIKNS_5BlockIKNS_6MatrixIfLin1ELin1ELi0ELin1ELin1EEELin1ELi1ELb0EEEEENS4_INS4_INS5_IfLin1ELi1ELi0ELin1ELi1EEELin1ELin1ELb0EEELin1ELin1ELb0EEELi1EEELi3ENS_10DenseShapeESF_ffE5coeffEll.cold.5, symObjAddr: 0x642D8, symBinAddr: 0x1000686BC, symSize: 0x24 }
  - { offsetInCU: 0x500C57, offset: 0x500C57, size: 0x8, addend: 0x0, symName: __ZNK5Eigen8internal17product_evaluatorINS_7ProductINS_9TransposeIKNS_5BlockIKNS_6MatrixIfLin1ELin1ELi0ELin1ELin1EEELin1ELi1ELb0EEEEENS4_INS4_INS5_IfLin1ELi1ELi0ELin1ELi1EEELin1ELin1ELb0EEELin1ELin1ELb0EEELi1EEELi3ENS_10DenseShapeESF_ffE5coeffEll.cold.4, symObjAddr: 0x642B4, symBinAddr: 0x100068698, symSize: 0x24 }
  - { offsetInCU: 0x500C9B, offset: 0x500C9B, size: 0x8, addend: 0x0, symName: __ZNK5Eigen8internal17product_evaluatorINS_7ProductINS_9TransposeIKNS_5BlockIKNS_6MatrixIfLin1ELin1ELi0ELin1ELin1EEELin1ELi1ELb0EEEEENS4_INS4_INS5_IfLin1ELi1ELi0ELin1ELi1EEELin1ELin1ELb0EEELin1ELin1ELb0EEELi1EEELi3ENS_10DenseShapeESF_ffE5coeffEll.cold.1, symObjAddr: 0x64248, symBinAddr: 0x10006862C, symSize: 0x24 }
  - { offsetInCU: 0x500D34, offset: 0x500D34, size: 0x8, addend: 0x0, symName: __ZNK5Eigen8internal17product_evaluatorINS_7ProductINS_9TransposeIKNS_5BlockIKNS_6MatrixIfLin1ELin1ELi0ELin1ELin1EEELin1ELi1ELb0EEEEENS4_INS4_INS5_IfLin1ELi1ELi0ELin1ELi1EEELin1ELin1ELb0EEELin1ELin1ELb0EEELi1EEELi3ENS_10DenseShapeESF_ffE5coeffEll.cold.2, symObjAddr: 0x6426C, symBinAddr: 0x100068650, symSize: 0x24 }
  - { offsetInCU: 0x5013AE, offset: 0x5013AE, size: 0x8, addend: 0x0, symName: __ZN5Eigen8internal26call_dense_assignment_loopINS_5BlockINS2_INS_6MatrixIfLin1ELi1ELi0ELin1ELi1EEELin1ELin1ELb0EEELin1ELin1ELb0EEENS_7ProductINS_13CwiseBinaryOpINS0_17scalar_product_opIffEEKNS_14CwiseNullaryOpINS0_18scalar_constant_opIfEEKS4_EEKNS2_IKNS3_IfLin1ELin1ELi0ELin1ELin1EEELin1ELi1ELb0EEEEENS_3MapINS3_IfLi1ELin1ELi1ELi1ELi1EEELi0ENS_6StrideILi0ELi0EEEEELi1EEENS0_13sub_assign_opIffEEEEvRT_RKT0_RKT1_.cold.1, symObjAddr: 0x64324, symBinAddr: 0x100068708, symSize: 0x24 }
  - { offsetInCU: 0x501B06, offset: 0x501B06, size: 0x8, addend: 0x0, symName: __ZN5Eigen8internal21dense_assignment_loopINS0_31generic_dense_assignment_kernelINS0_9evaluatorINS_5BlockINS4_INS_6MatrixIfLin1ELi1ELi0ELin1ELi1EEELin1ELin1ELb0EEELin1ELin1ELb0EEEEENS3_INS_7ProductINS_13CwiseBinaryOpINS0_17scalar_product_opIffEEKNS_14CwiseNullaryOpINS0_18scalar_constant_opIfEEKS6_EEKNS4_IKNS5_IfLin1ELin1ELi0ELin1ELin1EEELin1ELi1ELb0EEEEENS_3MapINS5_IfLi1ELin1ELi1ELi1ELi1EEELi0ENS_6StrideILi0ELi0EEEEELi1EEEEENS0_13sub_assign_opIffEELi0EEELi4ELi0EE3runERSY_.cold.5, symObjAddr: 0x643D8, symBinAddr: 0x1000687BC, symSize: 0x24 }
  - { offsetInCU: 0x501BB7, offset: 0x501BB7, size: 0x8, addend: 0x0, symName: __ZN5Eigen8internal21dense_assignment_loopINS0_31generic_dense_assignment_kernelINS0_9evaluatorINS_5BlockINS4_INS_6MatrixIfLin1ELi1ELi0ELin1ELi1EEELin1ELin1ELb0EEELin1ELin1ELb0EEEEENS3_INS_7ProductINS_13CwiseBinaryOpINS0_17scalar_product_opIffEEKNS_14CwiseNullaryOpINS0_18scalar_constant_opIfEEKS6_EEKNS4_IKNS5_IfLin1ELin1ELi0ELin1ELin1EEELin1ELi1ELb0EEEEENS_3MapINS5_IfLi1ELin1ELi1ELi1ELi1EEELi0ENS_6StrideILi0ELi0EEEEELi1EEEEENS0_13sub_assign_opIffEELi0EEELi4ELi0EE3runERSY_.cold.6, symObjAddr: 0x643FC, symBinAddr: 0x1000687E0, symSize: 0x24 }
  - { offsetInCU: 0x501C68, offset: 0x501C68, size: 0x8, addend: 0x0, symName: __ZN5Eigen8internal21dense_assignment_loopINS0_31generic_dense_assignment_kernelINS0_9evaluatorINS_5BlockINS4_INS_6MatrixIfLin1ELi1ELi0ELin1ELi1EEELin1ELin1ELb0EEELin1ELin1ELb0EEEEENS3_INS_7ProductINS_13CwiseBinaryOpINS0_17scalar_product_opIffEEKNS_14CwiseNullaryOpINS0_18scalar_constant_opIfEEKS6_EEKNS4_IKNS5_IfLin1ELin1ELi0ELin1ELin1EEELin1ELi1ELb0EEEEENS_3MapINS5_IfLi1ELin1ELi1ELi1ELi1EEELi0ENS_6StrideILi0ELi0EEEEELi1EEEEENS0_13sub_assign_opIffEELi0EEELi4ELi0EE3runERSY_.cold.2, symObjAddr: 0x6436C, symBinAddr: 0x100068750, symSize: 0x24 }
  - { offsetInCU: 0x501D03, offset: 0x501D03, size: 0x8, addend: 0x0, symName: __ZN5Eigen8internal21dense_assignment_loopINS0_31generic_dense_assignment_kernelINS0_9evaluatorINS_5BlockINS4_INS_6MatrixIfLin1ELi1ELi0ELin1ELi1EEELin1ELin1ELb0EEELin1ELin1ELb0EEEEENS3_INS_7ProductINS_13CwiseBinaryOpINS0_17scalar_product_opIffEEKNS_14CwiseNullaryOpINS0_18scalar_constant_opIfEEKS6_EEKNS4_IKNS5_IfLin1ELin1ELi0ELin1ELin1EEELin1ELi1ELb0EEEEENS_3MapINS5_IfLi1ELin1ELi1ELi1ELi1EEELi0ENS_6StrideILi0ELi0EEEEELi1EEEEENS0_13sub_assign_opIffEELi0EEELi4ELi0EE3runERSY_.cold.3, symObjAddr: 0x64390, symBinAddr: 0x100068774, symSize: 0x24 }
  - { offsetInCU: 0x501D9E, offset: 0x501D9E, size: 0x8, addend: 0x0, symName: __ZN5Eigen8internal21dense_assignment_loopINS0_31generic_dense_assignment_kernelINS0_9evaluatorINS_5BlockINS4_INS_6MatrixIfLin1ELi1ELi0ELin1ELi1EEELin1ELin1ELb0EEELin1ELin1ELb0EEEEENS3_INS_7ProductINS_13CwiseBinaryOpINS0_17scalar_product_opIffEEKNS_14CwiseNullaryOpINS0_18scalar_constant_opIfEEKS6_EEKNS4_IKNS5_IfLin1ELin1ELi0ELin1ELin1EEELin1ELi1ELb0EEEEENS_3MapINS5_IfLi1ELin1ELi1ELi1ELi1EEELi0ENS_6StrideILi0ELi0EEEEELi1EEEEENS0_13sub_assign_opIffEELi0EEELi4ELi0EE3runERSY_.cold.1, symObjAddr: 0x64348, symBinAddr: 0x10006872C, symSize: 0x24 }
  - { offsetInCU: 0x501E39, offset: 0x501E39, size: 0x8, addend: 0x0, symName: __ZN5Eigen8internal21dense_assignment_loopINS0_31generic_dense_assignment_kernelINS0_9evaluatorINS_5BlockINS4_INS_6MatrixIfLin1ELi1ELi0ELin1ELi1EEELin1ELin1ELb0EEELin1ELin1ELb0EEEEENS3_INS_7ProductINS_13CwiseBinaryOpINS0_17scalar_product_opIffEEKNS_14CwiseNullaryOpINS0_18scalar_constant_opIfEEKS6_EEKNS4_IKNS5_IfLin1ELin1ELi0ELin1ELin1EEELin1ELi1ELb0EEEEENS_3MapINS5_IfLi1ELin1ELi1ELi1ELi1EEELi0ENS_6StrideILi0ELi0EEEEELi1EEEEENS0_13sub_assign_opIffEELi0EEELi4ELi0EE3runERSY_.cold.4, symObjAddr: 0x643B4, symBinAddr: 0x100068798, symSize: 0x24 }
  - { offsetInCU: 0x5025AA, offset: 0x5025AA, size: 0x8, addend: 0x0, symName: __ZN5Eigen8internal26triangular_solver_selectorINS_9TransposeINS_5BlockINS_6MatrixIfLin1ELin1ELi0ELin1ELin1EEELin1ELin1ELb0EEEEENS3_INS4_IfLin1ELi1ELi0ELin1ELi1EEELin1ELi1ELb0EEELi1ELi2ELi0ELi1EE3runERKS7_RS9_, symObjAddr: 0x4AEFC, symBinAddr: 0x10004EAF4, symSize: 0x138 }
  - { offsetInCU: 0x5028A4, offset: 0x5028A4, size: 0x8, addend: 0x0, symName: __ZN5Eigen8internal26triangular_solver_selectorIKNS_5BlockIKNS_6MatrixIfLin1ELin1ELi0ELin1ELin1EEELin1ELin1ELb0EEENS2_INS3_IfLin1ELi1ELi0ELin1ELi1EEELin1ELi1ELb0EEELi1ELi2ELi0ELi1EE3runERS7_RS9_.cold.1, symObjAddr: 0x64420, symBinAddr: 0x100068804, symSize: 0x24 }
  - { offsetInCU: 0x502E02, offset: 0x502E02, size: 0x8, addend: 0x0, symName: __ZN5Eigen8internal23triangular_solve_vectorIfflLi1ELi2ELb0ELi0EE3runElPKflPf.cold.3, symObjAddr: 0x6448C, symBinAddr: 0x100068870, symSize: 0x24 }
  - { offsetInCU: 0x502E6F, offset: 0x502E6F, size: 0x8, addend: 0x0, symName: __ZN5Eigen8internal23triangular_solve_vectorIfflLi1ELi2ELb0ELi0EE3runElPKflPf.cold.2, symObjAddr: 0x64468, symBinAddr: 0x10006884C, symSize: 0x24 }
  - { offsetInCU: 0x502EC7, offset: 0x502EC7, size: 0x8, addend: 0x0, symName: __ZN5Eigen8internal23triangular_solve_vectorIfflLi1ELi2ELb0ELi0EE3runElPKflPf.cold.1, symObjAddr: 0x64444, symBinAddr: 0x100068828, symSize: 0x24 }
  - { offsetInCU: 0x5034A5, offset: 0x5034A5, size: 0x8, addend: 0x0, symName: __ZN5Eigen8internal26permutation_matrix_productINS_6MatrixIfLin1ELi1ELi0ELin1ELi1EEELi1ELb0ENS_10DenseShapeEE3runIS3_NS_17PermutationMatrixILin1ELin1EiEEEEvRT_RKT0_RKS3_.cold.3, symObjAddr: 0x644F8, symBinAddr: 0x1000688DC, symSize: 0x24 }
  - { offsetInCU: 0x5034E8, offset: 0x5034E8, size: 0x8, addend: 0x0, symName: __ZN5Eigen8internal26permutation_matrix_productINS_6MatrixIfLin1ELi1ELi0ELin1ELi1EEELi1ELb0ENS_10DenseShapeEE3runIS3_NS_17PermutationMatrixILin1ELin1EiEEEEvRT_RKT0_RKS3_.cold.1, symObjAddr: 0x644B0, symBinAddr: 0x100068894, symSize: 0x24 }
  - { offsetInCU: 0x503558, offset: 0x503558, size: 0x8, addend: 0x0, symName: __ZN5Eigen8internal26permutation_matrix_productINS_6MatrixIfLin1ELi1ELi0ELin1ELi1EEELi1ELb0ENS_10DenseShapeEE3runIS3_NS_17PermutationMatrixILin1ELin1EiEEEEvRT_RKT0_RKS3_.cold.2, symObjAddr: 0x644D4, symBinAddr: 0x1000688B8, symSize: 0x24 }
  - { offsetInCU: 0x503E92, offset: 0x503E92, size: 0x8, addend: 0x0, symName: __ZN5Eigen8internal26triangular_solver_selectorIKNS_9TransposeIKNS_5BlockIKNS_6MatrixIfLin1ELin1ELi0ELin1ELin1EEELin1ELin1ELb0EEEEENS4_IfLin1ELi1ELi0ELin1ELi1EEELi1ELi1ELi0ELi1EE3runERSA_RSB_.cold.1, symObjAddr: 0x6451C, symBinAddr: 0x100068900, symSize: 0x24 }
  - { offsetInCU: 0x50455C, offset: 0x50455C, size: 0x8, addend: 0x0, symName: __ZN5Eigen8internal23triangular_solve_vectorIfflLi1ELi1ELb0ELi1EE3runElPKflPf.cold.2, symObjAddr: 0x64564, symBinAddr: 0x100068948, symSize: 0x28 }
  - { offsetInCU: 0x504589, offset: 0x504589, size: 0x8, addend: 0x0, symName: __ZN5Eigen8internal23triangular_solve_vectorIfflLi1ELi1ELb0ELi1EE3runElPKflPf.cold.3, symObjAddr: 0x6458C, symBinAddr: 0x100068970, symSize: 0x24 }
  - { offsetInCU: 0x5045F6, offset: 0x5045F6, size: 0x8, addend: 0x0, symName: __ZN5Eigen8internal23triangular_solve_vectorIfflLi1ELi1ELb0ELi1EE3runElPKflPf.cold.4, symObjAddr: 0x645B0, symBinAddr: 0x100068994, symSize: 0x24 }
  - { offsetInCU: 0x50464E, offset: 0x50464E, size: 0x8, addend: 0x0, symName: __ZN5Eigen8internal23triangular_solve_vectorIfflLi1ELi1ELb0ELi1EE3runElPKflPf.cold.1, symObjAddr: 0x64540, symBinAddr: 0x100068924, symSize: 0x24 }
  - { offsetInCU: 0x5046C1, offset: 0x5046C1, size: 0x8, addend: 0x0, symName: __ZN5Eigen8internal26triangular_solver_selectorINS_9TransposeINS_5BlockINS_6MatrixIfLin1ELin1ELi0ELin1ELin1EEELin1ELin1ELb0EEEEENS3_INS4_IfLin1ELi1ELi0ELin1ELi1EEELin1ELi1ELb0EEELi1ELi2ELi0ELi1EE3runERKS7_RS9_.cold.1, symObjAddr: 0x645D4, symBinAddr: 0x1000689B8, symSize: 0x24 }
  - { offsetInCU: 0x5046F6, offset: 0x5046F6, size: 0x8, addend: 0x0, symName: __ZN5Eigen8internal23triangular_solve_vectorIfflLi1ELi2ELb0ELi1EE3runElPKflPf.cold.2, symObjAddr: 0x6461C, symBinAddr: 0x100068A00, symSize: 0x28 }
  - { offsetInCU: 0x504723, offset: 0x504723, size: 0x8, addend: 0x0, symName: __ZN5Eigen8internal23triangular_solve_vectorIfflLi1ELi2ELb0ELi1EE3runElPKflPf.cold.4, symObjAddr: 0x64668, symBinAddr: 0x100068A4C, symSize: 0x24 }
  - { offsetInCU: 0x504790, offset: 0x504790, size: 0x8, addend: 0x0, symName: __ZN5Eigen8internal23triangular_solve_vectorIfflLi1ELi2ELb0ELi1EE3runElPKflPf.cold.3, symObjAddr: 0x64644, symBinAddr: 0x100068A28, symSize: 0x24 }
  - { offsetInCU: 0x5047E8, offset: 0x5047E8, size: 0x8, addend: 0x0, symName: __ZN5Eigen8internal23triangular_solve_vectorIfflLi1ELi2ELb0ELi1EE3runElPKflPf.cold.1, symObjAddr: 0x645F8, symBinAddr: 0x1000689DC, symSize: 0x24 }
  - { offsetInCU: 0x504908, offset: 0x504908, size: 0x8, addend: 0x0, symName: __ZN5Eigen8internal10AssignmentINS_6MatrixIfLin1ELi1ELi0ELin1ELi1EEENS_7ProductINS_14TriangularViewINS2_IfLin1ELin1ELi0ELin1ELin1EEELj2EEENS4_INS_7InverseINS_17PermutationMatrixILin1ELin1EiEEEES3_Li2EEELi0EEENS0_9assign_opIffEENS0_11Dense2DenseEvE3runERS3_RKSD_RKSF_, symObjAddr: 0x4B46C, symBinAddr: 0x10004F064, symSize: 0xB8 }
  - { offsetInCU: 0x504DDB, offset: 0x504DDB, size: 0x8, addend: 0x0, symName: __ZN5Eigen8internal13trmv_selectorILi2ELi0EE3runINS_6MatrixIfLin1ELin1ELi0ELin1ELin1EEENS_7ProductINS_7InverseINS_17PermutationMatrixILin1ELin1EiEEEENS4_IfLin1ELi1ELi0ELin1ELi1EEELi2EEESB_EEvRKT_RKT0_RT1_RKNSJ_6ScalarE, symObjAddr: 0x4B524, symBinAddr: 0x10004F11C, symSize: 0x24C }
  - { offsetInCU: 0x504F4A, offset: 0x504F4A, size: 0x8, addend: 0x0, symName: __ZN5Eigen8internal10AssignmentINS_6MatrixIfLin1ELi1ELi0ELin1ELi1EEENS_7ProductINS_14TriangularViewINS2_IfLin1ELin1ELi0ELin1ELin1EEELj2EEENS4_INS_7InverseINS_17PermutationMatrixILin1ELin1EiEEEES3_Li2EEELi0EEENS0_9assign_opIffEENS0_11Dense2DenseEvE3runERS3_RKSD_RKSF_.cold.2, symObjAddr: 0x646B0, symBinAddr: 0x100068A94, symSize: 0x24 }
  - { offsetInCU: 0x504FB9, offset: 0x504FB9, size: 0x8, addend: 0x0, symName: __ZN5Eigen8internal10AssignmentINS_6MatrixIfLin1ELi1ELi0ELin1ELi1EEENS_7ProductINS_14TriangularViewINS2_IfLin1ELin1ELi0ELin1ELin1EEELj2EEENS4_INS_7InverseINS_17PermutationMatrixILin1ELin1EiEEEES3_Li2EEELi0EEENS0_9assign_opIffEENS0_11Dense2DenseEvE3runERS3_RKSD_RKSF_.cold.1, symObjAddr: 0x6468C, symBinAddr: 0x100068A70, symSize: 0x24 }
  - { offsetInCU: 0x505067, offset: 0x505067, size: 0x8, addend: 0x0, symName: __ZN5Eigen8internal10AssignmentINS_6MatrixIfLin1ELi1ELi0ELin1ELi1EEENS_7ProductINS_14TriangularViewINS2_IfLin1ELin1ELi0ELin1ELin1EEELj2EEENS4_INS_7InverseINS_17PermutationMatrixILin1ELin1EiEEEES3_Li2EEELi0EEENS0_9assign_opIffEENS0_11Dense2DenseEvE3runERS3_RKSD_RKSF_.cold.3, symObjAddr: 0x646D4, symBinAddr: 0x100068AB8, symSize: 0x24 }
  - { offsetInCU: 0x505254, offset: 0x505254, size: 0x8, addend: 0x0, symName: __ZN5Eigen8internal26permutation_matrix_productINS_6MatrixIfLin1ELi1ELi0ELin1ELi1EEELi1ELb1ENS_10DenseShapeEE3runIS3_NS_17PermutationMatrixILin1ELin1EiEEEEvRT_RKT0_RKS3_, symObjAddr: 0x4BCBC, symBinAddr: 0x10004F8B4, symSize: 0x238 }
  - { offsetInCU: 0x505EA6, offset: 0x505EA6, size: 0x8, addend: 0x0, symName: __ZN5Eigen8internal26permutation_matrix_productINS_6MatrixIfLin1ELi1ELi0ELin1ELi1EEELi1ELb1ENS_10DenseShapeEE3runIS3_NS_17PermutationMatrixILin1ELin1EiEEEEvRT_RKT0_RKS3_.cold.3, symObjAddr: 0x64740, symBinAddr: 0x100068B24, symSize: 0x24 }
  - { offsetInCU: 0x505EE9, offset: 0x505EE9, size: 0x8, addend: 0x0, symName: __ZN5Eigen8internal26permutation_matrix_productINS_6MatrixIfLin1ELi1ELi0ELin1ELi1EEELi1ELb1ENS_10DenseShapeEE3runIS3_NS_17PermutationMatrixILin1ELin1EiEEEEvRT_RKT0_RKS3_.cold.4, symObjAddr: 0x64764, symBinAddr: 0x100068B48, symSize: 0x24 }
  - { offsetInCU: 0x505F2C, offset: 0x505F2C, size: 0x8, addend: 0x0, symName: __ZN5Eigen8internal26permutation_matrix_productINS_6MatrixIfLin1ELi1ELi0ELin1ELi1EEELi1ELb1ENS_10DenseShapeEE3runIS3_NS_17PermutationMatrixILin1ELin1EiEEEEvRT_RKT0_RKS3_.cold.1, symObjAddr: 0x646F8, symBinAddr: 0x100068ADC, symSize: 0x24 }
  - { offsetInCU: 0x505F9C, offset: 0x505F9C, size: 0x8, addend: 0x0, symName: __ZN5Eigen8internal26permutation_matrix_productINS_6MatrixIfLin1ELi1ELi0ELin1ELi1EEELi1ELb1ENS_10DenseShapeEE3runIS3_NS_17PermutationMatrixILin1ELin1EiEEEEvRT_RKT0_RKS3_.cold.2, symObjAddr: 0x6471C, symBinAddr: 0x100068B00, symSize: 0x24 }
  - { offsetInCU: 0x506657, offset: 0x506657, size: 0x8, addend: 0x0, symName: __ZNSt3__114__split_bufferIPKN5Eigen6MatrixIfLin1ELi1ELi0ELin1ELi1EEENS_9allocatorIS5_EEE9push_backEOS5_, symObjAddr: 0x4CAD0, symBinAddr: 0x1000506C8, symSize: 0x190 }
  - { offsetInCU: 0x506AFB, offset: 0x506AFB, size: 0x8, addend: 0x0, symName: __ZNSt3__114__split_bufferIPKN5Eigen6MatrixIfLin1ELi1ELi0ELin1ELi1EEENS_9allocatorIS5_EEE10push_frontEOS5_, symObjAddr: 0x4CC60, symBinAddr: 0x100050858, symSize: 0x19C }
  - { offsetInCU: 0x506B06, offset: 0x506B06, size: 0x8, addend: 0x0, symName: __ZNSt3__114__split_bufferIPKN5Eigen6MatrixIfLin1ELi1ELi0ELin1ELi1EEENS_9allocatorIS5_EEE10push_frontEOS5_, symObjAddr: 0x4CC60, symBinAddr: 0x100050858, symSize: 0x19C }
  - { offsetInCU: 0x506F89, offset: 0x506F89, size: 0x8, addend: 0x0, symName: __ZNSt3__114__split_bufferIPKN5Eigen6MatrixIfLin1ELi1ELi0ELin1ELi1EEERNS_9allocatorIS5_EEE10push_frontERKS5_, symObjAddr: 0x4CDFC, symBinAddr: 0x1000509F4, symSize: 0x19C }
  - { offsetInCU: 0x506F94, offset: 0x506F94, size: 0x8, addend: 0x0, symName: __ZNSt3__114__split_bufferIPKN5Eigen6MatrixIfLin1ELi1ELi0ELin1ELi1EEERNS_9allocatorIS5_EEE10push_frontERKS5_, symObjAddr: 0x4CDFC, symBinAddr: 0x1000509F4, symSize: 0x19C }
  - { offsetInCU: 0x5073FC, offset: 0x5073FC, size: 0x8, addend: 0x0, symName: __ZN5Eigen15PlainObjectBaseINS_6MatrixIfLin1ELi1ELi0ELin1ELi1EEEEC2INS_12CwiseUnaryOpINS_8internal13scalar_cos_opIfEEKNS_12ArrayWrapperIS2_EEEEEERKNS_9DenseBaseIT_EE, symObjAddr: 0x4CF98, symBinAddr: 0x100050B90, symSize: 0x1D0 }
  - { offsetInCU: 0x509039, offset: 0x509039, size: 0x8, addend: 0x0, symName: __ZNSt3__112__hash_tableINS_17__hash_value_typeINS_12basic_stringIcNS_11char_traitsIcEENS_9allocatorIcEEEEN5Eigen6MatrixIfLin1ELi1ELi0ELin1ELi1EEEEENS_22__unordered_map_hasherIS7_SB_NS_4hashIS7_EENS_8equal_toIS7_EELb1EEENS_21__unordered_map_equalIS7_SB_SG_SE_Lb1EEENS5_ISB_EEE21__construct_node_hashIRKNS_21piecewise_construct_tEJNS_5tupleIJRKS7_EEENSQ_IJEEEEEENS_10unique_ptrINS_11__hash_nodeISB_PvEENS_22__hash_node_destructorINS5_ISY_EEEEEEmOT_DpOT0_, symObjAddr: 0x4EDF0, symBinAddr: 0x1000529E8, symSize: 0xE4 }
  - { offsetInCU: 0x50A24B, offset: 0x50A24B, size: 0x8, addend: 0x0, symName: __ZN5Board2GBEmRmRKNSt3__16vectorIfNS1_9allocatorIfEEEE, symObjAddr: 0x4FC50, symBinAddr: 0x100053848, symSize: 0x184 }
  - { offsetInCU: 0x50A4D1, offset: 0x50A4D1, size: 0x8, addend: 0x0, symName: __ZNKSt3__16vectorINS_4pairIiiEENS_9allocatorIS2_EEE20__throw_length_errorB8ue170006Ev, symObjAddr: 0x4FDD4, symBinAddr: 0x1000539CC, symSize: 0x14 }
  - { offsetInCU: 0x50A4FA, offset: 0x50A4FA, size: 0x8, addend: 0x0, symName: __ZNSt3__16vectorIfNS_9allocatorIfEEE18__insert_with_sizeB8ue170006INS_11__wrap_iterIPfEES7_EES7_NS5_IPKfEET_T0_l, symObjAddr: 0x4FDE8, symBinAddr: 0x1000539E0, symSize: 0x3BC }
  - { offsetInCU: 0x50A785, offset: 0x50A785, size: 0x8, addend: 0x0, symName: __ZNKSt3__16vectorINS_4pairINS0_IfNS_9allocatorIfEEEEfEENS2_IS5_EEE20__throw_length_errorB8ue170006Ev, symObjAddr: 0x50268, symBinAddr: 0x100053E60, symSize: 0x14 }
  - { offsetInCU: 0x50A7AE, offset: 0x50A7AE, size: 0x8, addend: 0x0, symName: __ZNSt3__16vectorINS_4pairINS0_IfNS_9allocatorIfEEEEfEENS2_IS5_EEE21__push_back_slow_pathIS5_EEvOT_, symObjAddr: 0x5027C, symBinAddr: 0x100053E74, symSize: 0x160 }
  - { offsetInCU: 0x50B079, offset: 0x50B079, size: 0x8, addend: 0x0, symName: __ZN5boost9unordered6detail3foa10table_coreINS2_14flat_map_typesINSt3__112basic_stringIcNS5_11char_traitsIcEENS5_9allocatorIcEEEENS0_19concurrent_flat_mapIffNS_4hashIfEENS5_8equal_toIfEENS9_INS5_4pairIKffEEEEEEEENS2_7group15INS2_15atomic_integralEEENS2_23concurrent_table_arraysENS2_19atomic_size_controlENSD_ISB_EENSF_ISB_EENS9_INSH_IKSB_SL_EEEEE13delete_arraysERNSQ_ISV_SP_NS2_16pow2_size_policyESW_EE, symObjAddr: 0x515FC, symBinAddr: 0x1000551F4, symSize: 0x40 }
  - { offsetInCU: 0x50B273, offset: 0x50B273, size: 0x8, addend: 0x0, symName: __ZN5boost9unordered19concurrent_flat_mapIffNS_4hashIfEENSt3__18equal_toIfEENS4_9allocatorINS4_4pairIKffEEEEED1Ev, symObjAddr: 0x5163C, symBinAddr: 0x100055234, symSize: 0x3C }
  - { offsetInCU: 0x50B4FF, offset: 0x50B4FF, size: 0x8, addend: 0x0, symName: __ZN5boost9unordered6detail3foa10table_coreINS2_14flat_map_typesIffEENS2_7group15INS2_15atomic_integralEEENS2_23concurrent_table_arraysENS2_19atomic_size_controlENS_4hashIfEENSt3__18equal_toIfEENSD_9allocatorINSD_4pairIKffEEEEE13delete_arraysERNS9_ISJ_S8_NS2_16pow2_size_policyESK_EE, symObjAddr: 0x51678, symBinAddr: 0x100055270, symSize: 0x40 }
  - { offsetInCU: 0x50B6F9, offset: 0x50B6F9, size: 0x8, addend: 0x0, symName: __ZN5boost9unordered6detail3foa10table_coreINS2_14flat_map_typesINSt3__112basic_stringIcNS5_11char_traitsIcEENS5_9allocatorIcEEEEfEENS2_7group15INS2_15atomic_integralEEENS2_23concurrent_table_arraysENS2_19atomic_size_controlENS_4hashISB_EENS5_8equal_toISB_EENS9_INS5_4pairIKSB_fEEEEE13delete_arraysERNSG_ISO_SF_NS2_16pow2_size_policyESP_EE, symObjAddr: 0x516B8, symBinAddr: 0x1000552B0, symSize: 0x40 }
  - { offsetInCU: 0x50B99B, offset: 0x50B99B, size: 0x8, addend: 0x0, symName: __ZNK5Eigen8internal15unary_evaluatorINS_12CwiseUnaryOpINS0_14scalar_abs2_opINS_14AutoDiffScalarINS_6MatrixIfLin1ELi1ELi0ELin1ELi1EEEEEEEKNS_13CwiseBinaryOpINS0_20scalar_difference_opIfS7_EEKS6_KNS5_IS7_Lin1ELi1ELi0ELin1ELi1EEEEEEENS0_10IndexBasedES7_E5coeffEll, symObjAddr: 0x51C04, symBinAddr: 0x1000557FC, symSize: 0x2A0 }
  - { offsetInCU: 0x50C84D, offset: 0x50C84D, size: 0x8, addend: 0x0, symName: __ZN5Eigen8internal10redux_implINS0_13scalar_sum_opINS_14AutoDiffScalarINS_6MatrixIfLin1ELi1ELi0ELin1ELi1EEEEES6_EENS0_15redux_evaluatorINS_12CwiseUnaryOpINS0_14scalar_abs2_opIS6_EEKNS_13CwiseBinaryOpINS0_20scalar_difference_opIfS6_EEKS5_KNS4_IS6_Lin1ELi1ELi0ELin1ELi1EEEEEEEEELi0ELi0EE3runISK_EES6_RKSL_RKS7_RKT_.cold.1, symObjAddr: 0x64788, symBinAddr: 0x100068B6C, symSize: 0x28 }
  - { offsetInCU: 0x50C948, offset: 0x50C948, size: 0x8, addend: 0x0, symName: __ZNK5Eigen8internal15unary_evaluatorINS_12CwiseUnaryOpINS0_14scalar_abs2_opINS_14AutoDiffScalarINS_6MatrixIfLin1ELi1ELi0ELin1ELi1EEEEEEEKNS_13CwiseBinaryOpINS0_20scalar_difference_opIfS7_EEKS6_KNS5_IS7_Lin1ELi1ELi0ELin1ELi1EEEEEEENS0_10IndexBasedES7_E5coeffEll.cold.1, symObjAddr: 0x647B0, symBinAddr: 0x100068B94, symSize: 0x24 }
  - { offsetInCU: 0x50D2C3, offset: 0x50D2C3, size: 0x8, addend: 0x0, symName: __ZNKSt3__16vectorINS_4pairIidEENS_9allocatorIS2_EEE20__throw_length_errorB8ue170006Ev, symObjAddr: 0x524E4, symBinAddr: 0x1000560DC, symSize: 0x14 }
  - { offsetInCU: 0x50D2EC, offset: 0x50D2EC, size: 0x8, addend: 0x0, symName: __ZNSt3__127__tree_balance_after_insertB8ue170006IPNS_16__tree_node_baseIPvEEEEvT_S5_, symObjAddr: 0x524F8, symBinAddr: 0x1000560F0, symSize: 0x1A0 }
  - { offsetInCU: 0x50D2F7, offset: 0x50D2F7, size: 0x8, addend: 0x0, symName: '__ZNSt3__110unique_ptrINS_5tupleIJNS0_INS_15__thread_structENS_14default_deleteIS2_EEEEZ18SimulatedAnnealingRKN5Eigen6MatrixIfLin1ELin1ELi0ELin1ELin1EEEiNS_12basic_stringIcNS_11char_traitsIcEENS_9allocatorIcEEEESG_iRKSG_bdiPKciE3$_3EEENS3_ISM_EEED1B8ue170006Ev', symObjAddr: 0x5249C, symBinAddr: 0x100056094, symSize: 0x48 }
  - { offsetInCU: 0x50D913, offset: 0x50D913, size: 0x8, addend: 0x0, symName: '__ZNSt3__110unique_ptrINS_5tupleIJNS0_INS_15__thread_structENS_14default_deleteIS2_EEEEZ2GPRKN5Eigen6MatrixIfLin1ELin1ELi0ELin1ELin1EEEiNS_12basic_stringIcNS_11char_traitsIcEENS_9allocatorIcEEEESG_iRKSG_bdiPKciE3$_8EEENS3_ISM_EEED1B8ue170006Ev', symObjAddr: 0x52C14, symBinAddr: 0x10005680C, symSize: 0x48 }
  - { offsetInCU: 0x50DBF8, offset: 0x50DBF8, size: 0x8, addend: 0x0, symName: '__ZNSt3__110unique_ptrINS_5tupleIJNS0_INS_15__thread_structENS_14default_deleteIS2_EEEEZ3PSORKN5Eigen6MatrixIfLin1ELin1ELi0ELin1ELin1EEEiNS_12basic_stringIcNS_11char_traitsIcEENS_9allocatorIcEEEESG_iRKSG_bdiPKciE3$_9EEENS3_ISM_EEED1B8ue170006Ev', symObjAddr: 0x52EE0, symBinAddr: 0x100056AD8, symSize: 0x48 }
  - { offsetInCU: 0x50E1F5, offset: 0x50E1F5, size: 0x8, addend: 0x0, symName: __ZNSt3__112__hash_tableINS_17__hash_value_typeIifEENS_22__unordered_map_hasherIiS2_NS_4hashIiEENS_8equal_toIiEELb1EEENS_21__unordered_map_equalIiS2_S7_S5_Lb1EEENS_9allocatorIS2_EEE11__do_rehashILb1EEEvm, symObjAddr: 0x531E8, symBinAddr: 0x100056DE0, symSize: 0x15C }
  - { offsetInCU: 0x50E669, offset: 0x50E669, size: 0x8, addend: 0x0, symName: __ZNSt3__112__hash_tableINS_17__hash_value_typeIfNS_13unordered_mapIiiNS_4hashIiEENS_8equal_toIiEENS_9allocatorINS_4pairIKiiEEEEEEEENS_22__unordered_map_hasherIfSD_NS3_IfEENS5_IfEELb1EEENS_21__unordered_map_equalIfSD_SG_SF_Lb1EEENS7_ISD_EEE25__emplace_unique_key_argsIfJRKNS_21piecewise_construct_tENS_5tupleIJRKfEEENSQ_IJEEEEEENS8_INS_15__hash_iteratorIPNS_11__hash_nodeISD_PvEEEEbEERKT_DpOT0_, symObjAddr: 0x53344, symBinAddr: 0x100056F3C, symSize: 0x308 }
  - { offsetInCU: 0x50EDA4, offset: 0x50EDA4, size: 0x8, addend: 0x0, symName: __ZNSt3__112__hash_tableINS_17__hash_value_typeIfNS_13unordered_mapIiiNS_4hashIiEENS_8equal_toIiEENS_9allocatorINS_4pairIKiiEEEEEEEENS_22__unordered_map_hasherIfSD_NS3_IfEENS5_IfEELb1EEENS_21__unordered_map_equalIfSD_SG_SF_Lb1EEENS7_ISD_EEE11__do_rehashILb1EEEvm, symObjAddr: 0x536B8, symBinAddr: 0x1000572B0, symSize: 0x15C }
  - { offsetInCU: 0x50F218, offset: 0x50F218, size: 0x8, addend: 0x0, symName: __ZNSt3__112__hash_tableINS_17__hash_value_typeIiiEENS_22__unordered_map_hasherIiS2_NS_4hashIiEENS_8equal_toIiEELb1EEENS_21__unordered_map_equalIiS2_S7_S5_Lb1EEENS_9allocatorIS2_EEE25__emplace_unique_key_argsIiJRKNS_21piecewise_construct_tENS_5tupleIJRKiEEENSI_IJEEEEEENS_4pairINS_15__hash_iteratorIPNS_11__hash_nodeIS2_PvEEEEbEERKT_DpOT0_, symObjAddr: 0x53814, symBinAddr: 0x10005740C, symSize: 0x2C0 }
  - { offsetInCU: 0x50F22D, offset: 0x50F22D, size: 0x8, addend: 0x0, symName: __ZNSt3__110unique_ptrINS_11__hash_nodeINS_17__hash_value_typeIfNS_13unordered_mapIiiNS_4hashIiEENS_8equal_toIiEENS_9allocatorINS_4pairIKiiEEEEEEEEPvEENS_22__hash_node_destructorINS8_ISG_EEEEED1B8ue170006Ev, symObjAddr: 0x5364C, symBinAddr: 0x100057244, symSize: 0x6C }
  - { offsetInCU: 0x50FC03, offset: 0x50FC03, size: 0x8, addend: 0x0, symName: __ZNSt3__112__hash_tableINS_17__hash_value_typeIiiEENS_22__unordered_map_hasherIiS2_NS_4hashIiEENS_8equal_toIiEELb1EEENS_21__unordered_map_equalIiS2_S7_S5_Lb1EEENS_9allocatorIS2_EEE11__do_rehashILb1EEEvm, symObjAddr: 0x53AD4, symBinAddr: 0x1000576CC, symSize: 0x15C }
  - { offsetInCU: 0x510077, offset: 0x510077, size: 0x8, addend: 0x0, symName: __ZNSt3__112__hash_tableINS_17__hash_value_typeIfNS_13unordered_mapIifNS_4hashIiEENS_8equal_toIiEENS_9allocatorINS_4pairIKifEEEEEEEENS_22__unordered_map_hasherIfSD_NS3_IfEENS5_IfEELb1EEENS_21__unordered_map_equalIfSD_SG_SF_Lb1EEENS7_ISD_EEE25__emplace_unique_key_argsIfJRKNS_21piecewise_construct_tENS_5tupleIJRKfEEENSQ_IJEEEEEENS8_INS_15__hash_iteratorIPNS_11__hash_nodeISD_PvEEEEbEERKT_DpOT0_, symObjAddr: 0x53C30, symBinAddr: 0x100057828, symSize: 0x308 }
  - { offsetInCU: 0x510620, offset: 0x510620, size: 0x8, addend: 0x0, symName: __ZNSt3__112__hash_tableINS_17__hash_value_typeIfNS_13unordered_mapIifNS_4hashIiEENS_8equal_toIiEENS_9allocatorINS_4pairIKifEEEEEEEENS_22__unordered_map_hasherIfSD_NS3_IfEENS5_IfEELb1EEENS_21__unordered_map_equalIfSD_SG_SF_Lb1EEENS7_ISD_EEE11__do_rehashILb1EEEvm, symObjAddr: 0x53FA4, symBinAddr: 0x100057B9C, symSize: 0x15C }
  - { offsetInCU: 0x510A94, offset: 0x510A94, size: 0x8, addend: 0x0, symName: __ZNSt3__16__treeINS_12__value_typeIiNS_6vectorIfNS_9allocatorIfEEEEEENS_19__map_value_compareIiS6_NS_4lessIiEELb1EEENS3_IS6_EEE7destroyEPNS_11__tree_nodeIS6_PvEE, symObjAddr: 0x54100, symBinAddr: 0x100057CF8, symSize: 0x50 }
  - { offsetInCU: 0x510AA9, offset: 0x510AA9, size: 0x8, addend: 0x0, symName: __ZNSt3__110unique_ptrINS_11__hash_nodeINS_17__hash_value_typeIfNS_13unordered_mapIifNS_4hashIiEENS_8equal_toIiEENS_9allocatorINS_4pairIKifEEEEEEEEPvEENS_22__hash_node_destructorINS8_ISG_EEEEED1B8ue170006Ev, symObjAddr: 0x53F38, symBinAddr: 0x100057B30, symSize: 0x6C }
  - { offsetInCU: 0x5112DA, offset: 0x5112DA, size: 0x8, addend: 0x0, symName: __ZN5boost9unordered6detail3foa23concurrent_table_arraysINSt3__14pairIKNS4_12basic_stringIcNS4_11char_traitsIcEENS4_9allocatorIcEEEEfEENS2_7group15INS2_15atomic_integralEEENS2_16pow2_size_policyENS9_ISD_EEE4new_ENS9_INS2_12group_accessEEEm, symObjAddr: 0x54150, symBinAddr: 0x100057D48, symSize: 0x14C }
  - { offsetInCU: 0x511AAE, offset: 0x511AAE, size: 0x8, addend: 0x0, symName: __ZN5boost9unordered6detail3foa23concurrent_table_arraysINSt3__14pairIKNS4_12basic_stringIcNS4_11char_traitsIcEENS4_9allocatorIcEEEENS0_19concurrent_flat_mapIffNS_4hashIfEENS4_8equal_toIfEENS9_INS5_IKffEEEEEEEENS2_7group15INS2_15atomic_integralEEENS2_16pow2_size_policyENS9_ISM_EEE4new_ENS9_INS2_12group_accessEEEm, symObjAddr: 0x5429C, symBinAddr: 0x100057E94, symSize: 0x174 }
  - { offsetInCU: 0x512518, offset: 0x512518, size: 0x8, addend: 0x0, symName: __ZNKSt3__16vectorINS_4pairImfEENS_9allocatorIS2_EEE20__throw_length_errorB8ue170006Ev, symObjAddr: 0x546C8, symBinAddr: 0x1000582C0, symSize: 0x14 }
  - { offsetInCU: 0x512541, offset: 0x512541, size: 0x8, addend: 0x0, symName: '__ZNSt3__114__thread_proxyB8ue170006INS_5tupleIJNS_10unique_ptrINS_15__thread_structENS_14default_deleteIS3_EEEEZ4MCTSRKN5Eigen6MatrixIfLin1ELin1ELi0ELin1ELin1EEEiNS_12basic_stringIcNS_11char_traitsIcEENS_9allocatorIcEEEESH_iRKSH_bdiPKcijE4$_11EEEEEPvSO_', symObjAddr: 0x546DC, symBinAddr: 0x1000582D4, symSize: 0x78 }
  - { offsetInCU: 0x51254C, offset: 0x51254C, size: 0x8, addend: 0x0, symName: '__ZNSt3__110unique_ptrINS_5tupleIJNS0_INS_15__thread_structENS_14default_deleteIS2_EEEEZ4MCTSRKN5Eigen6MatrixIfLin1ELin1ELi0ELin1ELin1EEEiNS_12basic_stringIcNS_11char_traitsIcEENS_9allocatorIcEEEESG_iRKSG_bdiPKcijE4$_10EEENS3_ISM_EEED1B8ue170006Ev', symObjAddr: 0x54680, symBinAddr: 0x100058278, symSize: 0x48 }
  - { offsetInCU: 0x512811, offset: 0x512811, size: 0x8, addend: 0x0, symName: '__ZNSt3__110unique_ptrINS_5tupleIJNS0_INS_15__thread_structENS_14default_deleteIS2_EEEEZ4MCTSRKN5Eigen6MatrixIfLin1ELin1ELi0ELin1ELin1EEEiNS_12basic_stringIcNS_11char_traitsIcEENS_9allocatorIcEEEESG_iRKSG_bdiPKcijE4$_11EEENS3_ISM_EEED1B8ue170006Ev', symObjAddr: 0x54754, symBinAddr: 0x10005834C, symSize: 0x48 }
  - { offsetInCU: 0x5187E1, offset: 0x5187E1, size: 0x8, addend: 0x0, symName: __ZNSt3__16vectorINS_4pairINS_12basic_stringIcNS_11char_traitsIcEENS_9allocatorIcEEEEfEENS5_IS8_EEE7reserveEm, symObjAddr: 0x5A3E4, symBinAddr: 0x10005DFDC, symSize: 0x104 }
  - { offsetInCU: 0x518DBC, offset: 0x518DBC, size: 0x8, addend: 0x0, symName: __ZNSt3__133__libcpp_thread_poll_with_backoffB8ue170006IRZNKS_5latch4waitB8ue170006EvEUlvE_RNS_33__libcpp_atomic_wait_backoff_implINS_17__cxx_atomic_implIlNS_22__cxx_atomic_base_implIlEEEES2_EEEEbOT_OT0_NS_6chrono8durationIxNS_5ratioILl1ELl1000000000EEEEE, symObjAddr: 0x5A4E8, symBinAddr: 0x10005E0E0, symSize: 0xD0 }
  - { offsetInCU: 0x518DCE, offset: 0x518DCE, size: 0x8, addend: 0x0, symName: __ZNSt3__16vectorINS_4pairINS_12basic_stringIcNS_11char_traitsIcEENS_9allocatorIcEEEEfEENS5_IS8_EEE21__push_back_slow_pathIS8_EEvOT_, symObjAddr: 0x5A5CC, symBinAddr: 0x10005E1C4, symSize: 0x150 }
  - { offsetInCU: 0x5194FC, offset: 0x5194FC, size: 0x8, addend: 0x0, symName: __ZN5boost4mp116detail16tuple_apply_implINS_9unordered6detail3foa16concurrent_tableINS5_14flat_map_typesINSt3__112basic_stringIcNS8_11char_traitsIcEENS8_9allocatorIcEEEEfEENS_4hashISE_EENS8_8equal_toISE_EENSC_INS8_4pairIKSE_fEEEEE26call_emplace_or_visit_implENS8_5tupleIJPSO_NS8_17integral_constantIbLb1EEEOZNS3_19concurrent_flat_mapISE_fSH_SJ_SN_E16insert_or_assignIfEEbRSL_OT_EUlRSM_E_ONS5_18try_emplace_args_tESX_OfEEEJLm0ELm1ELm2ELm3ELm4ELm5EEEEDTclclsr3stdE7forwardISY_Efp_Espcl3getIXT1_EEclsr3stdE7forwardIT0_Efp0_EEEESZ_OS17_NS0_16integer_sequenceImJXspT1_EEEE, symObjAddr: 0x5A71C, symBinAddr: 0x10005E314, symSize: 0x724 }
  - { offsetInCU: 0x519510, offset: 0x519510, size: 0x8, addend: 0x0, symName: __ZN5boost9unordered19concurrent_flat_mapIffNS_4hashIfEENSt3__18equal_toIfEENS4_9allocatorINS4_4pairIKffEEEEE6insertIPKSA_EEvT_SG_, symObjAddr: 0x5E25C, symBinAddr: 0x100061E54, symSize: 0x60C }
  - { offsetInCU: 0x51B232, offset: 0x51B232, size: 0x8, addend: 0x0, symName: __ZNKSt3__16vectorINS_4pairINS_12basic_stringIcNS_11char_traitsIcEENS_9allocatorIcEEEEfEENS5_IS8_EEE20__throw_length_errorB8ue170006Ev, symObjAddr: 0x5A5B8, symBinAddr: 0x10005E1B0, symSize: 0x14 }
  - { offsetInCU: 0x51B25B, offset: 0x51B25B, size: 0x8, addend: 0x0, symName: __ZNSt3__16vectorINS_4pairINS_12basic_stringIcNS_11char_traitsIcEENS_9allocatorIcEEEEfEENS5_IS8_EEE21__push_back_slow_pathIS8_EEvOT_, symObjAddr: 0x5A5CC, symBinAddr: 0x10005E1C4, symSize: 0x150 }
  - { offsetInCU: 0x51BC00, offset: 0x51BC00, size: 0x8, addend: 0x0, symName: __ZN5boost9unordered6detail3foa16concurrent_tableINS2_14flat_map_typesINSt3__112basic_stringIcNS5_11char_traitsIcEENS5_9allocatorIcEEEEfEENS_4hashISB_EENS5_8equal_toISB_EENS9_INS5_4pairIKSB_fEEEEE14rehash_if_fullEv, symObjAddr: 0x5AE40, symBinAddr: 0x10005EA38, symSize: 0x18C }
  - { offsetInCU: 0x51C3F2, offset: 0x51C3F2, size: 0x8, addend: 0x0, symName: __ZN5boost4mp116detail16tuple_apply_implINS_9unordered6detail3foa16concurrent_tableINS5_14flat_map_typesINSt3__112basic_stringIcNS8_11char_traitsIcEENS8_9allocatorIcEEEEfEENS_4hashISE_EENS8_8equal_toISE_EENSC_INS8_4pairIKSE_fEEEEE26call_emplace_or_visit_implENS8_5tupleIJPSO_NS8_17integral_constantIbLb1EEEOZNS3_19concurrent_flat_mapISE_fSH_SJ_SN_E16insert_or_assignIfEEbRSL_OT_EUlRSM_E_ONS5_18try_emplace_args_tESX_OfEEEJLm0ELm1ELm2ELm3ELm4ELm5EEEEDTclclsr3stdE7forwardISY_Efp_Espcl3getIXT1_EEclsr3stdE7forwardIT0_Efp0_EEEESZ_OS17_NS0_16integer_sequenceImJXspT1_EEEE.cold.1, symObjAddr: 0x647D4, symBinAddr: 0x100068BB8, symSize: 0x24 }
  - { offsetInCU: 0x51C4A1, offset: 0x51C4A1, size: 0x8, addend: 0x0, symName: __ZN5boost9unordered6detail3foa16concurrent_tableINS2_14flat_map_typesINSt3__112basic_stringIcNS5_11char_traitsIcEENS5_9allocatorIcEEEEfEENS_4hashISB_EENS5_8equal_toISB_EENS9_INS5_4pairIKSB_fEEEEE12reserve_slotD1Ev, symObjAddr: 0x5AFCC, symBinAddr: 0x10005EBC4, symSize: 0x5C }
  - { offsetInCU: 0x51C56E, offset: 0x51C56E, size: 0x8, addend: 0x0, symName: __ZN5boost9unordered6detail3foa10table_coreINS2_14flat_map_typesINSt3__112basic_stringIcNS5_11char_traitsIcEENS5_9allocatorIcEEEEfEENS2_7group15INS2_15atomic_integralEEENS2_23concurrent_table_arraysENS2_19atomic_size_controlENS_4hashISB_EENS5_8equal_toISB_EENS9_INS5_4pairIKSB_fEEEEE27unchecked_rehash_for_growthEv, symObjAddr: 0x5B028, symBinAddr: 0x10005EC20, symSize: 0x80 }
  - { offsetInCU: 0x51C715, offset: 0x51C715, size: 0x8, addend: 0x0, symName: __ZN5boost9unordered6detail3foa16concurrent_tableINS2_14flat_map_typesINSt3__112basic_stringIcNS5_11char_traitsIcEENS5_9allocatorIcEEEEfEENS_4hashISB_EENS5_8equal_toISB_EENS9_INS5_4pairIKSB_fEEEEE14rehash_if_fullEv.cold.1, symObjAddr: 0x647F8, symBinAddr: 0x100068BDC, symSize: 0x24 }
  - { offsetInCU: 0x51C7C4, offset: 0x51C7C4, size: 0x8, addend: 0x0, symName: __ZN5boost9unordered6detail3foa10table_coreINS2_14flat_map_typesINSt3__112basic_stringIcNS5_11char_traitsIcEENS5_9allocatorIcEEEEfEENS2_7group15INS2_15atomic_integralEEENS2_23concurrent_table_arraysENS2_19atomic_size_controlENS_4hashISB_EENS5_8equal_toISB_EENS9_INS5_4pairIKSB_fEEEEE16unchecked_rehashERNSG_ISO_SF_NS2_16pow2_size_policyESP_EE, symObjAddr: 0x5B0A8, symBinAddr: 0x10005ECA0, symSize: 0x2C0 }
  - { offsetInCU: 0x51D7A3, offset: 0x51D7A3, size: 0x8, addend: 0x0, symName: __ZN5boost9unordered6detail3foa10table_coreINS2_14flat_map_typesINSt3__112basic_stringIcNS5_11char_traitsIcEENS5_9allocatorIcEEEEfEENS2_7group15INS2_15atomic_integralEEENS2_23concurrent_table_arraysENS2_19atomic_size_controlENS_4hashISB_EENS5_8equal_toISB_EENS9_INS5_4pairIKSB_fEEEEE23nosize_transfer_elementEPSO_RKNSG_ISO_SF_NS2_16pow2_size_policyESP_EERm, symObjAddr: 0x5B548, symBinAddr: 0x10005F140, symSize: 0x198 }
  - { offsetInCU: 0x51E0E4, offset: 0x51E0E4, size: 0x8, addend: 0x0, symName: __ZNK5boost9unordered6detail3foa10table_coreINS2_14flat_map_typesINSt3__112basic_stringIcNS5_11char_traitsIcEENS5_9allocatorIcEEEEfEENS2_7group15INS2_15atomic_integralEEENS2_23concurrent_table_arraysENS2_19atomic_size_controlENS_4hashISB_EENS5_8equal_toISB_EENS9_INS5_4pairIKSB_fEEEEE22for_all_elements_whileIZNSQ_16unchecked_rehashERNSG_ISO_SF_NS2_16pow2_size_policyESP_EEEUlPSF_jPSO_E_EEbT_, symObjAddr: 0x5B368, symBinAddr: 0x10005EF60, symSize: 0xF0 }
  - { offsetInCU: 0x51E119, offset: 0x51E119, size: 0x8, addend: 0x0, symName: __ZNK5boost9unordered6detail3foa10table_coreINS2_14flat_map_typesINSt3__112basic_stringIcNS5_11char_traitsIcEENS5_9allocatorIcEEEEfEENS2_7group15INS2_15atomic_integralEEENS2_23concurrent_table_arraysENS2_19atomic_size_controlENS_4hashISB_EENS5_8equal_toISB_EENS9_INS5_4pairIKSB_fEEEEE22for_all_elements_whileIZNSQ_16unchecked_rehashERNSG_ISO_SF_NS2_16pow2_size_policyESP_EEEUlPSF_jPSO_E_EEbT_, symObjAddr: 0x5B368, symBinAddr: 0x10005EF60, symSize: 0xF0 }
  - { offsetInCU: 0x51E149, offset: 0x51E149, size: 0x8, addend: 0x0, symName: __ZNK5boost9unordered6detail3foa10table_coreINS2_14flat_map_typesINSt3__112basic_stringIcNS5_11char_traitsIcEENS5_9allocatorIcEEEEfEENS2_7group15INS2_15atomic_integralEEENS2_23concurrent_table_arraysENS2_19atomic_size_controlENS_4hashISB_EENS5_8equal_toISB_EENS9_INS5_4pairIKSB_fEEEEE22for_all_elements_whileIZNSQ_16unchecked_rehashERNSG_ISO_SF_NS2_16pow2_size_policyESP_EEEUlPSF_jPSO_E_EEbT_, symObjAddr: 0x5B368, symBinAddr: 0x10005EF60, symSize: 0xF0 }
  - { offsetInCU: 0x51E58C, offset: 0x51E58C, size: 0x8, addend: 0x0, symName: __ZN5boost9unordered6detail3foa10table_coreINS2_14flat_map_typesINSt3__112basic_stringIcNS5_11char_traitsIcEENS5_9allocatorIcEEEEfEENS2_7group15INS2_15atomic_integralEEENS2_23concurrent_table_arraysENS2_19atomic_size_controlENS_4hashISB_EENS5_8equal_toISB_EENS9_INS5_4pairIKSB_fEEEEE16for_all_elementsIZNSQ_16unchecked_rehashERNSG_ISO_SF_NS2_16pow2_size_policyESP_EEEUlPSO_E0_EEDTcmclfp0_LDnEEcvv_EERKST_T_, symObjAddr: 0x5B458, symBinAddr: 0x10005F050, symSize: 0xF0 }
  - { offsetInCU: 0x51F763, offset: 0x51F763, size: 0x8, addend: 0x0, symName: __ZN5boost9unordered6detail3foa16concurrent_tableINS2_14flat_map_typesIffEENS_4hashIfEENSt3__18equal_toIfEENS8_9allocatorINS8_4pairIKffEEEEE14rehash_if_fullEv, symObjAddr: 0x5BC98, symBinAddr: 0x10005F890, symSize: 0x18C }
  - { offsetInCU: 0x51FF55, offset: 0x51FF55, size: 0x8, addend: 0x0, symName: __ZN5boost4mp116detail16tuple_apply_implINS_9unordered6detail3foa16concurrent_tableINS5_14flat_map_typesIffEENS_4hashIfEENSt3__18equal_toIfEENSB_9allocatorINSB_4pairIKffEEEEE26call_emplace_or_visit_implENSB_5tupleIJPSJ_NSB_17integral_constantIbLb1EEEOZNS3_19concurrent_flat_mapIffSA_SD_SI_E16insert_or_assignIfEEbRSG_OT_EUlRSH_E_ONS5_18try_emplace_args_tESS_OfEEEJLm0ELm1ELm2ELm3ELm4ELm5EEEEDTclclsr3stdE7forwardIST_Efp_Espcl3getIXT1_EEclsr3stdE7forwardIT0_Efp0_EEEESU_OS12_NS0_16integer_sequenceImJXspT1_EEEE.cold.1, symObjAddr: 0x6481C, symBinAddr: 0x100068C00, symSize: 0x24 }
  - { offsetInCU: 0x52001A, offset: 0x52001A, size: 0x8, addend: 0x0, symName: __ZN5boost9unordered6detail3foa10table_coreINS2_14flat_map_typesIffEENS2_7group15INS2_15atomic_integralEEENS2_23concurrent_table_arraysENS2_19atomic_size_controlENS_4hashIfEENSt3__18equal_toIfEENSD_9allocatorINSD_4pairIKffEEEEE27unchecked_rehash_for_growthEv, symObjAddr: 0x5BE24, symBinAddr: 0x10005FA1C, symSize: 0x80 }
  - { offsetInCU: 0x5201C1, offset: 0x5201C1, size: 0x8, addend: 0x0, symName: __ZN5boost9unordered6detail3foa16concurrent_tableINS2_14flat_map_typesIffEENS_4hashIfEENSt3__18equal_toIfEENS8_9allocatorINS8_4pairIKffEEEEE14rehash_if_fullEv.cold.1, symObjAddr: 0x64840, symBinAddr: 0x100068C24, symSize: 0x24 }
  - { offsetInCU: 0x52026F, offset: 0x52026F, size: 0x8, addend: 0x0, symName: __ZN5boost9unordered6detail3foa23concurrent_table_arraysINSt3__14pairIKffEENS2_7group15INS2_15atomic_integralEEENS2_16pow2_size_policyENS4_9allocatorIS7_EEE4new_ENSC_INS2_12group_accessEEEm, symObjAddr: 0x5BFD0, symBinAddr: 0x10005FBC8, symSize: 0x150 }
  - { offsetInCU: 0x52088A, offset: 0x52088A, size: 0x8, addend: 0x0, symName: __ZN5boost9unordered6detail3foa10table_coreINS2_14flat_map_typesIffEENS2_7group15INS2_15atomic_integralEEENS2_23concurrent_table_arraysENS2_19atomic_size_controlENS_4hashIfEENSt3__18equal_toIfEENSD_9allocatorINSD_4pairIKffEEEEE16unchecked_rehashERNS9_ISJ_S8_NS2_16pow2_size_policyESK_EE, symObjAddr: 0x5BEA4, symBinAddr: 0x10005FA9C, symSize: 0x12C }
  - { offsetInCU: 0x520EF5, offset: 0x520EF5, size: 0x8, addend: 0x0, symName: __ZN5boost9unordered6detail3foa10table_coreINS2_14flat_map_typesIffEENS2_7group15INS2_15atomic_integralEEENS2_23concurrent_table_arraysENS2_19atomic_size_controlENS_4hashIfEENSt3__18equal_toIfEENSD_9allocatorINSD_4pairIKffEEEEE22for_all_elements_whileIZNSL_22for_all_elements_whileIZNSL_16for_all_elementsIZNSL_16unchecked_rehashERNS9_ISJ_S8_NS2_16pow2_size_policyESK_EEEUlPSJ_E_EEDTcmclfp0_LDnEEcvv_EERKSQ_T_EUlSS_E_EESU_SW_SX_EUlPS8_jSS_E_EEDTcmclfp0_LDnELi0ELDnEEcvv_EESW_SX_, symObjAddr: 0x5C210, symBinAddr: 0x10005FE08, symSize: 0x1BC }
  - { offsetInCU: 0x5215A0, offset: 0x5215A0, size: 0x8, addend: 0x0, symName: __ZN5boost4mp116detail16tuple_apply_implINS_9unordered6detail3foa16concurrent_tableINS5_14flat_map_typesINSt3__112basic_stringIcNS8_11char_traitsIcEENS8_9allocatorIcEEEENS3_19concurrent_flat_mapIffNS_4hashIfEENS8_8equal_toIfEENSC_INS8_4pairIKffEEEEEEEENSG_ISE_EENSI_ISE_EENSC_INSK_IKSE_SO_EEEEE26call_emplace_or_visit_implENS8_5tupleIJPSV_NS8_17integral_constantIbLb1EEEOZNSF_ISE_SO_SQ_SR_SU_E16insert_or_assignISO_EEbRSS_OT_EUlRST_E_ONS5_18try_emplace_args_tES13_OSO_EEEJLm0ELm1ELm2ELm3ELm4ELm5EEEEDTclclsr3stdE7forwardIS14_Efp_Espcl3getIXT1_EEclsr3stdE7forwardIT0_Efp0_EEEES15_OS1D_NS0_16integer_sequenceImJXspT1_EEEE, symObjAddr: 0x5C3CC, symBinAddr: 0x10005FFC4, symSize: 0x6CC }
  - { offsetInCU: 0x5215B4, offset: 0x5215B4, size: 0x8, addend: 0x0, symName: __ZNK5boost9unordered6detail3foa10table_coreINS2_14flat_map_typesIffEENS2_7group15INS2_15atomic_integralEEENS2_23concurrent_table_arraysENS2_19atomic_size_controlENS_4hashIfEENSt3__18equal_toIfEENSD_9allocatorINSD_4pairIKffEEEEE22for_all_elements_whileIZNSL_16unchecked_rehashERNS9_ISJ_S8_NS2_16pow2_size_policyESK_EEEUlPS8_jPSJ_E_EEbT_, symObjAddr: 0x5C120, symBinAddr: 0x10005FD18, symSize: 0xF0 }
  - { offsetInCU: 0x5215E9, offset: 0x5215E9, size: 0x8, addend: 0x0, symName: __ZNK5boost9unordered6detail3foa10table_coreINS2_14flat_map_typesIffEENS2_7group15INS2_15atomic_integralEEENS2_23concurrent_table_arraysENS2_19atomic_size_controlENS_4hashIfEENSt3__18equal_toIfEENSD_9allocatorINSD_4pairIKffEEEEE22for_all_elements_whileIZNSL_16unchecked_rehashERNS9_ISJ_S8_NS2_16pow2_size_policyESK_EEEUlPS8_jPSJ_E_EEbT_, symObjAddr: 0x5C120, symBinAddr: 0x10005FD18, symSize: 0xF0 }
  - { offsetInCU: 0x521619, offset: 0x521619, size: 0x8, addend: 0x0, symName: __ZNK5boost9unordered6detail3foa10table_coreINS2_14flat_map_typesIffEENS2_7group15INS2_15atomic_integralEEENS2_23concurrent_table_arraysENS2_19atomic_size_controlENS_4hashIfEENSt3__18equal_toIfEENSD_9allocatorINSD_4pairIKffEEEEE22for_all_elements_whileIZNSL_16unchecked_rehashERNS9_ISJ_S8_NS2_16pow2_size_policyESK_EEEUlPS8_jPSJ_E_EEbT_, symObjAddr: 0x5C120, symBinAddr: 0x10005FD18, symSize: 0xF0 }
  - { offsetInCU: 0x522043, offset: 0x522043, size: 0x8, addend: 0x0, symName: __ZN5boost9unordered6detail3foa10table_coreINS2_14flat_map_typesIffEENS2_7group15INS2_15atomic_integralEEENS2_23concurrent_table_arraysENS2_19atomic_size_controlENS_4hashIfEENSt3__18equal_toIfEENSD_9allocatorINSD_4pairIKffEEEEE22for_all_elements_whileIZNSL_22for_all_elements_whileIZNSL_16for_all_elementsIZNSL_16unchecked_rehashERNS9_ISJ_S8_NS2_16pow2_size_policyESK_EEEUlPSJ_E_EEDTcmclfp0_LDnEEcvv_EERKSQ_T_EUlSS_E_EESU_SW_SX_EUlPS8_jSS_E_EEDTcmclfp0_LDnELi0ELDnEEcvv_EESW_SX_.cold.1, symObjAddr: 0x64864, symBinAddr: 0x100068C48, symSize: 0x24 }
  - { offsetInCU: 0x522856, offset: 0x522856, size: 0x8, addend: 0x0, symName: __ZN5boost9unordered6detail3foa16concurrent_tableINS2_14flat_map_typesIffEENS_4hashIfEENSt3__18equal_toIfEENS8_9allocatorINS8_4pairIKffEEEEEaSEOSG_, symObjAddr: 0x5CC80, symBinAddr: 0x100060878, symSize: 0xE0 }
  - { offsetInCU: 0x522C5B, offset: 0x522C5B, size: 0x8, addend: 0x0, symName: __ZN5boost9unordered6detail3foa16concurrent_tableINS2_14flat_map_typesINSt3__112basic_stringIcNS5_11char_traitsIcEENS5_9allocatorIcEEEENS0_19concurrent_flat_mapIffNS_4hashIfEENS5_8equal_toIfEENS9_INS5_4pairIKffEEEEEEEENSD_ISB_EENSF_ISB_EENS9_INSH_IKSB_SL_EEEEE14rehash_if_fullEv, symObjAddr: 0x5CA98, symBinAddr: 0x100060690, symSize: 0x18C }
  - { offsetInCU: 0x52344D, offset: 0x52344D, size: 0x8, addend: 0x0, symName: __ZNSt3__14pairIKNS_12basic_stringIcNS_11char_traitsIcEENS_9allocatorIcEEEEN5boost9unordered19concurrent_flat_mapIffNS8_4hashIfEENS_8equal_toIfEENS4_INS0_IKffEEEEEEEC1B8ue170006IJRS7_EJOSI_EEENS_21piecewise_construct_tENS_5tupleIJDpT_EEENSO_IJDpT0_EEE, symObjAddr: 0x5D0B8, symBinAddr: 0x100060CB0, symSize: 0xCC }
  - { offsetInCU: 0x5239C8, offset: 0x5239C8, size: 0x8, addend: 0x0, symName: __ZN5boost4mp116detail16tuple_apply_implINS_9unordered6detail3foa16concurrent_tableINS5_14flat_map_typesINSt3__112basic_stringIcNS8_11char_traitsIcEENS8_9allocatorIcEEEENS3_19concurrent_flat_mapIffNS_4hashIfEENS8_8equal_toIfEENSC_INS8_4pairIKffEEEEEEEENSG_ISE_EENSI_ISE_EENSC_INSK_IKSE_SO_EEEEE26call_emplace_or_visit_implENS8_5tupleIJPSV_NS8_17integral_constantIbLb1EEEOZNSF_ISE_SO_SQ_SR_SU_E16insert_or_assignISO_EEbRSS_OT_EUlRST_E_ONS5_18try_emplace_args_tES13_OSO_EEEJLm0ELm1ELm2ELm3ELm4ELm5EEEEDTclclsr3stdE7forwardIS14_Efp_Espcl3getIXT1_EEclsr3stdE7forwardIT0_Efp0_EEEES15_OS1D_NS0_16integer_sequenceImJXspT1_EEEE.cold.1, symObjAddr: 0x64888, symBinAddr: 0x100068C6C, symSize: 0x24 }
  - { offsetInCU: 0x523A77, offset: 0x523A77, size: 0x8, addend: 0x0, symName: __ZN5boost9unordered6detail3foa16concurrent_tableINS2_14flat_map_typesINSt3__112basic_stringIcNS5_11char_traitsIcEENS5_9allocatorIcEEEENS0_19concurrent_flat_mapIffNS_4hashIfEENS5_8equal_toIfEENS9_INS5_4pairIKffEEEEEEEENSD_ISB_EENSF_ISB_EENS9_INSH_IKSB_SL_EEEEE12reserve_slotD1Ev, symObjAddr: 0x5CC24, symBinAddr: 0x10006081C, symSize: 0x5C }
  - { offsetInCU: 0x523B44, offset: 0x523B44, size: 0x8, addend: 0x0, symName: __ZN5boost9unordered6detail3foa10table_coreINS2_14flat_map_typesINSt3__112basic_stringIcNS5_11char_traitsIcEENS5_9allocatorIcEEEENS0_19concurrent_flat_mapIffNS_4hashIfEENS5_8equal_toIfEENS9_INS5_4pairIKffEEEEEEEENS2_7group15INS2_15atomic_integralEEENS2_23concurrent_table_arraysENS2_19atomic_size_controlENSD_ISB_EENSF_ISB_EENS9_INSH_IKSB_SL_EEEEE27unchecked_rehash_for_growthEv, symObjAddr: 0x5D35C, symBinAddr: 0x100060F54, symSize: 0x80 }
  - { offsetInCU: 0x523CEB, offset: 0x523CEB, size: 0x8, addend: 0x0, symName: __ZN5boost9unordered6detail3foa16concurrent_tableINS2_14flat_map_typesINSt3__112basic_stringIcNS5_11char_traitsIcEENS5_9allocatorIcEEEENS0_19concurrent_flat_mapIffNS_4hashIfEENS5_8equal_toIfEENS9_INS5_4pairIKffEEEEEEEENSD_ISB_EENSF_ISB_EENS9_INSH_IKSB_SL_EEEEE14rehash_if_fullEv.cold.1, symObjAddr: 0x648AC, symBinAddr: 0x100068C90, symSize: 0x24 }
  - { offsetInCU: 0x523E5F, offset: 0x523E5F, size: 0x8, addend: 0x0, symName: __ZN5boost9unordered6detail3foa20reentrancy_bicheckedINS2_13scoped_bilockINS2_10multimutexINS2_11rw_spinlockELm128EEEEEEC2IJRS7_SB_EEEPKvSD_DpOT_, symObjAddr: 0x5CE88, symBinAddr: 0x100060A80, symSize: 0xF0 }
  - { offsetInCU: 0x5240F4, offset: 0x5240F4, size: 0x8, addend: 0x0, symName: __ZN5boost9unordered6detail3foa13scoped_bilockINS2_10multimutexINS2_11rw_spinlockELm128EEEEC2ERS6_S8_, symObjAddr: 0x5CF78, symBinAddr: 0x100060B70, symSize: 0x140 }
  - { offsetInCU: 0x524592, offset: 0x524592, size: 0x8, addend: 0x0, symName: __ZN5boost9unordered6detail3foa20reentrancy_bicheckedINS2_13scoped_bilockINS2_10multimutexINS2_11rw_spinlockELm128EEEEEEC2IJRS7_SB_EEEPKvSD_DpOT_.cold.1, symObjAddr: 0x648D0, symBinAddr: 0x100068CB4, symSize: 0x24 }
  - { offsetInCU: 0x524724, offset: 0x524724, size: 0x8, addend: 0x0, symName: __ZN5boost9unordered6detail3foa16concurrent_tableINS2_14flat_map_typesIffEENS_4hashIfEENSt3__18equal_toIfEENS8_9allocatorINS8_4pairIKffEEEEEC1EOSG_, symObjAddr: 0x5D184, symBinAddr: 0x100060D7C, symSize: 0x1D8 }
  - { offsetInCU: 0x52529D, offset: 0x52529D, size: 0x8, addend: 0x0, symName: __ZN5boost9unordered6detail3foa10table_coreINS2_14flat_map_typesINSt3__112basic_stringIcNS5_11char_traitsIcEENS5_9allocatorIcEEEENS0_19concurrent_flat_mapIffNS_4hashIfEENS5_8equal_toIfEENS9_INS5_4pairIKffEEEEEEEENS2_7group15INS2_15atomic_integralEEENS2_23concurrent_table_arraysENS2_19atomic_size_controlENSD_ISB_EENSF_ISB_EENS9_INSH_IKSB_SL_EEEEE27unchecked_rehash_for_growthEv, symObjAddr: 0x5D35C, symBinAddr: 0x100060F54, symSize: 0x80 }
  - { offsetInCU: 0x52548B, offset: 0x52548B, size: 0x8, addend: 0x0, symName: __ZN5boost9unordered6detail3foa16concurrent_tableINS2_14flat_map_typesIffEENS_4hashIfEENSt3__18equal_toIfEENS8_9allocatorINS8_4pairIKffEEEEEC1EOSG_.cold.1, symObjAddr: 0x648F4, symBinAddr: 0x100068CD8, symSize: 0x24 }
  - { offsetInCU: 0x52553A, offset: 0x52553A, size: 0x8, addend: 0x0, symName: __ZN5boost9unordered6detail3foa10table_coreINS2_14flat_map_typesINSt3__112basic_stringIcNS5_11char_traitsIcEENS5_9allocatorIcEEEENS0_19concurrent_flat_mapIffNS_4hashIfEENS5_8equal_toIfEENS9_INS5_4pairIKffEEEEEEEENS2_7group15INS2_15atomic_integralEEENS2_23concurrent_table_arraysENS2_19atomic_size_controlENSD_ISB_EENSF_ISB_EENS9_INSH_IKSB_SL_EEEEE16unchecked_rehashERNSQ_ISV_SP_NS2_16pow2_size_policyESW_EE, symObjAddr: 0x5D3DC, symBinAddr: 0x100060FD4, symSize: 0x250 }
  - { offsetInCU: 0x5264A8, offset: 0x5264A8, size: 0x8, addend: 0x0, symName: __ZN5boost9unordered6detail3foa10table_coreINS2_14flat_map_typesINSt3__112basic_stringIcNS5_11char_traitsIcEENS5_9allocatorIcEEEENS0_19concurrent_flat_mapIffNS_4hashIfEENS5_8equal_toIfEENS9_INS5_4pairIKffEEEEEEEENS2_7group15INS2_15atomic_integralEEENS2_23concurrent_table_arraysENS2_19atomic_size_controlENSD_ISB_EENSF_ISB_EENS9_INSH_IKSB_SL_EEEEE22for_all_elements_whileIZNSX_22for_all_elements_whileIZNSX_16for_all_elementsIZNSX_16unchecked_rehashERNSQ_ISV_SP_NS2_16pow2_size_policyESW_EEEUlPSV_E_EEDTcmclfp0_LDnEEcvv_EERKS12_T_EUlS14_E_EES16_S18_S19_EUlPSP_jS14_E_EEDTcmclfp0_LDnELi0ELDnEEcvv_EES18_S19_, symObjAddr: 0x5D844, symBinAddr: 0x10006143C, symSize: 0x208 }
  - { offsetInCU: 0x526BFE, offset: 0x526BFE, size: 0x8, addend: 0x0, symName: __ZNSt3__14pairIKNS_12basic_stringIcNS_11char_traitsIcEENS_9allocatorIcEEEEN5boost9unordered19concurrent_flat_mapIffNS8_4hashIfEENS_8equal_toIfEENS4_INS0_IKffEEEEEEEC2B8ue170006ERKSJ_, symObjAddr: 0x5DA4C, symBinAddr: 0x100061644, symSize: 0xE8 }
  - { offsetInCU: 0x526C12, offset: 0x526C12, size: 0x8, addend: 0x0, symName: __ZNK5boost9unordered6detail3foa10table_coreINS2_14flat_map_typesINSt3__112basic_stringIcNS5_11char_traitsIcEENS5_9allocatorIcEEEENS0_19concurrent_flat_mapIffNS_4hashIfEENS5_8equal_toIfEENS9_INS5_4pairIKffEEEEEEEENS2_7group15INS2_15atomic_integralEEENS2_23concurrent_table_arraysENS2_19atomic_size_controlENSD_ISB_EENSF_ISB_EENS9_INSH_IKSB_SL_EEEEE22for_all_elements_whileIZNSX_16unchecked_rehashERNSQ_ISV_SP_NS2_16pow2_size_policyESW_EEEUlPSP_jPSV_E_EEbT_, symObjAddr: 0x5D62C, symBinAddr: 0x100061224, symSize: 0xF0 }
  - { offsetInCU: 0x526C47, offset: 0x526C47, size: 0x8, addend: 0x0, symName: __ZNK5boost9unordered6detail3foa10table_coreINS2_14flat_map_typesINSt3__112basic_stringIcNS5_11char_traitsIcEENS5_9allocatorIcEEEENS0_19concurrent_flat_mapIffNS_4hashIfEENS5_8equal_toIfEENS9_INS5_4pairIKffEEEEEEEENS2_7group15INS2_15atomic_integralEEENS2_23concurrent_table_arraysENS2_19atomic_size_controlENSD_ISB_EENSF_ISB_EENS9_INSH_IKSB_SL_EEEEE22for_all_elements_whileIZNSX_16unchecked_rehashERNSQ_ISV_SP_NS2_16pow2_size_policyESW_EEEUlPSP_jPSV_E_EEbT_, symObjAddr: 0x5D62C, symBinAddr: 0x100061224, symSize: 0xF0 }
  - { offsetInCU: 0x526C77, offset: 0x526C77, size: 0x8, addend: 0x0, symName: __ZNK5boost9unordered6detail3foa10table_coreINS2_14flat_map_typesINSt3__112basic_stringIcNS5_11char_traitsIcEENS5_9allocatorIcEEEENS0_19concurrent_flat_mapIffNS_4hashIfEENS5_8equal_toIfEENS9_INS5_4pairIKffEEEEEEEENS2_7group15INS2_15atomic_integralEEENS2_23concurrent_table_arraysENS2_19atomic_size_controlENSD_ISB_EENSF_ISB_EENS9_INSH_IKSB_SL_EEEEE22for_all_elements_whileIZNSX_16unchecked_rehashERNSQ_ISV_SP_NS2_16pow2_size_policyESW_EEEUlPSP_jPSV_E_EEbT_, symObjAddr: 0x5D62C, symBinAddr: 0x100061224, symSize: 0xF0 }
  - { offsetInCU: 0x5270BA, offset: 0x5270BA, size: 0x8, addend: 0x0, symName: __ZN5boost9unordered6detail3foa10table_coreINS2_14flat_map_typesINSt3__112basic_stringIcNS5_11char_traitsIcEENS5_9allocatorIcEEEENS0_19concurrent_flat_mapIffNS_4hashIfEENS5_8equal_toIfEENS9_INS5_4pairIKffEEEEEEEENS2_7group15INS2_15atomic_integralEEENS2_23concurrent_table_arraysENS2_19atomic_size_controlENSD_ISB_EENSF_ISB_EENS9_INSH_IKSB_SL_EEEEE16for_all_elementsIZNSX_16unchecked_rehashERNSQ_ISV_SP_NS2_16pow2_size_policyESW_EEEUlPSV_E0_EEDTcmclfp0_LDnEEcvv_EERKS10_T_, symObjAddr: 0x5D71C, symBinAddr: 0x100061314, symSize: 0x128 }
  - { offsetInCU: 0x527C84, offset: 0x527C84, size: 0x8, addend: 0x0, symName: __ZNSt3__14pairIKNS_12basic_stringIcNS_11char_traitsIcEENS_9allocatorIcEEEEN5boost9unordered19concurrent_flat_mapIffNS8_4hashIfEENS_8equal_toIfEENS4_INS0_IKffEEEEEEEC2B8ue170006ERKSJ_, symObjAddr: 0x5DA4C, symBinAddr: 0x100061644, symSize: 0xE8 }
  - { offsetInCU: 0x5281E4, offset: 0x5281E4, size: 0x8, addend: 0x0, symName: __ZN5boost9unordered6detail3foa10table_coreINS2_14flat_map_typesINSt3__112basic_stringIcNS5_11char_traitsIcEENS5_9allocatorIcEEEENS0_19concurrent_flat_mapIffNS_4hashIfEENS5_8equal_toIfEENS9_INS5_4pairIKffEEEEEEEENS2_7group15INS2_15atomic_integralEEENS2_23concurrent_table_arraysENS2_19atomic_size_controlENSD_ISB_EENSF_ISB_EENS9_INSH_IKSB_SL_EEEEE22for_all_elements_whileIZNSX_22for_all_elements_whileIZNSX_16for_all_elementsIZNSX_16unchecked_rehashERNSQ_ISV_SP_NS2_16pow2_size_policyESW_EEEUlPSV_E_EEDTcmclfp0_LDnEEcvv_EERKS12_T_EUlS14_E_EES16_S18_S19_EUlPSP_jS14_E_EEDTcmclfp0_LDnELi0ELDnEEcvv_EES18_S19_.cold.1, symObjAddr: 0x64918, symBinAddr: 0x100068CFC, symSize: 0x24 }
  - { offsetInCU: 0x5282F6, offset: 0x5282F6, size: 0x8, addend: 0x0, symName: __ZNK5boost9unordered6detail3foa16concurrent_tableINS2_14flat_map_typesIffEENS_4hashIfEENSt3__18equal_toIfEENS8_9allocatorINS8_4pairIKffEEEEE13get_allocatorEv, symObjAddr: 0x5DCC0, symBinAddr: 0x1000618B8, symSize: 0x1B0 }
  - { offsetInCU: 0x528759, offset: 0x528759, size: 0x8, addend: 0x0, symName: __ZN5boost9unordered6detail3foa16concurrent_tableINS2_14flat_map_typesIffEENS_4hashIfEENSt3__18equal_toIfEENS8_9allocatorINS8_4pairIKffEEEEEC1ERKSG_RKSF_, symObjAddr: 0x5DB34, symBinAddr: 0x10006172C, symSize: 0x18C }
  - { offsetInCU: 0x528EC2, offset: 0x528EC2, size: 0x8, addend: 0x0, symName: __ZN5boost9unordered6detail3foa16concurrent_tableINS2_14flat_map_typesIffEENS_4hashIfEENSt3__18equal_toIfEENS8_9allocatorINS8_4pairIKffEEEEEC1ERKSG_RKSF_NS2_18reentrancy_checkedINS2_10lock_guardINS2_10multimutexINS2_11rw_spinlockELm128EEEEEEE, symObjAddr: 0x5DE70, symBinAddr: 0x100061A68, symSize: 0x104 }
  - { offsetInCU: 0x529421, offset: 0x529421, size: 0x8, addend: 0x0, symName: __ZN5boost9unordered6detail3foa16concurrent_tableINS2_14flat_map_typesIffEENS_4hashIfEENSt3__18equal_toIfEENS8_9allocatorINS8_4pairIKffEEEEEC1ERKSG_RKSF_.cold.1, symObjAddr: 0x6493C, symBinAddr: 0x100068D20, symSize: 0x24 }
  - { offsetInCU: 0x529510, offset: 0x529510, size: 0x8, addend: 0x0, symName: __ZN5boost9unordered6detail3foa10table_coreINS2_14flat_map_typesIffEENS2_7group15INS2_15atomic_integralEEENS2_23concurrent_table_arraysENS2_19atomic_size_controlENS_4hashIfEENSt3__18equal_toIfEENSD_9allocatorINSD_4pairIKffEEEEE18copy_elements_fromERKSL_, symObjAddr: 0x5DF74, symBinAddr: 0x100061B6C, symSize: 0x1C8 }
  - { offsetInCU: 0x529D86, offset: 0x529D86, size: 0x8, addend: 0x0, symName: __ZN5boost9unordered6detail3foa10table_coreINS2_14flat_map_typesIffEENS2_7group15INS2_15atomic_integralEEENS2_23concurrent_table_arraysENS2_19atomic_size_controlENS_4hashIfEENSt3__18equal_toIfEENSD_9allocatorINSD_4pairIKffEEEEE23fast_copy_elements_fromERKSL_, symObjAddr: 0x5E13C, symBinAddr: 0x100061D34, symSize: 0x120 }
  - { offsetInCU: 0x529D91, offset: 0x529D91, size: 0x8, addend: 0x0, symName: __ZN5boost9unordered6detail3foa16concurrent_tableINS2_14flat_map_typesIffEENS_4hashIfEENSt3__18equal_toIfEENS8_9allocatorINS8_4pairIKffEEEEEC1ERKSG_RKSF_NS2_18reentrancy_checkedINS2_10lock_guardINS2_10multimutexINS2_11rw_spinlockELm128EEEEEEE.cold.1, symObjAddr: 0x64960, symBinAddr: 0x100068D44, symSize: 0x38 }
  - { offsetInCU: 0x52A37F, offset: 0x52A37F, size: 0x8, addend: 0x0, symName: __ZN5boost9unordered6detail3foa10table_coreINS2_14flat_map_typesIffEENS2_7group15INS2_15atomic_integralEEENS2_23concurrent_table_arraysENS2_19atomic_size_controlENS_4hashIfEENSt3__18equal_toIfEENSD_9allocatorINSD_4pairIKffEEEEE23fast_copy_elements_fromERKSL_, symObjAddr: 0x5E13C, symBinAddr: 0x100061D34, symSize: 0x120 }
  - { offsetInCU: 0x52A731, offset: 0x52A731, size: 0x8, addend: 0x0, symName: __ZN5boost9unordered6detail3foa10table_coreINS2_14flat_map_typesIffEENS2_7group15INS2_15atomic_integralEEENS2_23concurrent_table_arraysENS2_19atomic_size_controlENS_4hashIfEENSt3__18equal_toIfEENSD_9allocatorINSD_4pairIKffEEEEE18copy_elements_fromERKSL_.cold.2, symObjAddr: 0x649C0, symBinAddr: 0x100068DA4, symSize: 0x24 }
  - { offsetInCU: 0x52A83B, offset: 0x52A83B, size: 0x8, addend: 0x0, symName: __ZN5boost9unordered6detail3foa10table_coreINS2_14flat_map_typesIffEENS2_7group15INS2_15atomic_integralEEENS2_23concurrent_table_arraysENS2_19atomic_size_controlENS_4hashIfEENSt3__18equal_toIfEENSD_9allocatorINSD_4pairIKffEEEEE18copy_elements_fromERKSL_.cold.3, symObjAddr: 0x649E4, symBinAddr: 0x100068DC8, symSize: 0x28 }
  - { offsetInCU: 0x52A853, offset: 0x52A853, size: 0x8, addend: 0x0, symName: __ZN5boost9unordered6detail3foa10table_coreINS2_14flat_map_typesIffEENS2_7group15INS2_15atomic_integralEEENS2_23concurrent_table_arraysENS2_19atomic_size_controlENS_4hashIfEENSt3__18equal_toIfEENSD_9allocatorINSD_4pairIKffEEEEE18copy_elements_fromERKSL_.cold.1, symObjAddr: 0x64998, symBinAddr: 0x100068D7C, symSize: 0x28 }
  - { offsetInCU: 0x52AE43, offset: 0x52AE43, size: 0x8, addend: 0x0, symName: __ZN5boost9unordered6detail3foa18reentrancy_checkedINS2_11shared_lockINS2_11rw_spinlockEEEE6unlockEv, symObjAddr: 0x5E868, symBinAddr: 0x100062460, symSize: 0x54 }
  - { offsetInCU: 0x52AF2A, offset: 0x52AF2A, size: 0x8, addend: 0x0, symName: __ZN5boost9unordered6detail3foa16concurrent_tableINS2_14flat_map_typesIffEENS_4hashIfEENSt3__18equal_toIfEENS8_9allocatorINS8_4pairIKffEEEEE25noinline_emplace_or_visitINS8_17integral_constantIbLb0EEEZNSG_21construct_and_emplaceIJRKSE_EEEbDpOT_EUlSM_E_JNSC_IOfSR_EEEEEbT_OT0_DpOT1_, symObjAddr: 0x5E8BC, symBinAddr: 0x1000624B4, symSize: 0x5B4 }
  - { offsetInCU: 0x52AF35, offset: 0x52AF35, size: 0x8, addend: 0x0, symName: __ZN5boost9unordered6detail3foa16concurrent_tableINS2_14flat_map_typesIffEENS_4hashIfEENSt3__18equal_toIfEENS8_9allocatorINS8_4pairIKffEEEEE25noinline_emplace_or_visitINS8_17integral_constantIbLb0EEEZNSG_21construct_and_emplaceIJRKSE_EEEbDpOT_EUlSM_E_JNSC_IOfSR_EEEEEbT_OT0_DpOT1_, symObjAddr: 0x5E8BC, symBinAddr: 0x1000624B4, symSize: 0x5B4 }
  - { offsetInCU: 0x52C923, offset: 0x52C923, size: 0x8, addend: 0x0, symName: __ZN5boost9unordered19concurrent_flat_mapIffNS_4hashIfEENSt3__18equal_toIfEENS4_9allocatorINS4_4pairIKffEEEEE6insertIPKSA_EEvT_SG_.cold.1, symObjAddr: 0x64A0C, symBinAddr: 0x100068DF0, symSize: 0x24 }
  - { offsetInCU: 0x52C9FE, offset: 0x52C9FE, size: 0x8, addend: 0x0, symName: __ZN5boost9unordered6detail3foa18reentrancy_checkedINS2_11shared_lockINS2_11rw_spinlockEEEE6unlockEv.cold.1, symObjAddr: 0x64A30, symBinAddr: 0x100068E14, symSize: 0x28 }
  - { offsetInCU: 0x52D1D4, offset: 0x52D1D4, size: 0x8, addend: 0x0, symName: __ZN5boost4mp116detail16tuple_apply_implINS_9unordered6detail3foa16concurrent_tableINS5_14flat_map_typesIffEENS_4hashIfEENSt3__18equal_toIfEENSB_9allocatorINSB_4pairIKffEEEEE26call_emplace_or_visit_implENSB_5tupleIJPSJ_NSB_17integral_constantIbLb1EEEOZNS3_19concurrent_flat_mapIffSA_SD_SI_E16insert_or_assignIRSG_EEbSS_OT_EUlRSH_E_ONS5_18try_emplace_args_tESS_SS_EEEJLm0ELm1ELm2ELm3ELm4ELm5EEEEDTclclsr3stdE7forwardIST_Efp_Espcl3getIXT1_EEclsr3stdE7forwardIT0_Efp0_EEEESU_OS11_NS0_16integer_sequenceImJXspT1_EEEE.cold.1, symObjAddr: 0x64A58, symBinAddr: 0x100068E3C, symSize: 0x24 }
  - { offsetInCU: 0x52D977, offset: 0x52D977, size: 0x8, addend: 0x0, symName: __ZN5boost4mp116detail16tuple_apply_implINS_9unordered6detail3foa16concurrent_tableINS5_14flat_map_typesIffEENS_4hashIfEENSt3__18equal_toIfEENSB_9allocatorINSB_4pairIKffEEEEE26call_emplace_or_visit_implENSB_5tupleIJPSJ_NSB_17integral_constantIbLb1EEEOZNS3_19concurrent_flat_mapIffSA_SD_SI_E16insert_or_assignIRfEEbRSG_OT_EUlRSH_E_ONS5_18try_emplace_args_tEST_SS_EEEJLm0ELm1ELm2ELm3ELm4ELm5EEEEDTclclsr3stdE7forwardISU_Efp_Espcl3getIXT1_EEclsr3stdE7forwardIT0_Efp0_EEEESV_OS12_NS0_16integer_sequenceImJXspT1_EEEE.cold.1, symObjAddr: 0x64A7C, symBinAddr: 0x100068E60, symSize: 0x24 }
  - { offsetInCU: 0x52DB90, offset: 0x52DB90, size: 0x8, addend: 0x0, symName: '__ZNSt3__110unique_ptrINS_5tupleIJNS0_INS_15__thread_structENS_14default_deleteIS2_EEEEZ12RandomSearchRKN5Eigen6MatrixIfLin1ELin1ELi0ELin1ELin1EEEiNS_12basic_stringIcNS_11char_traitsIcEENS_9allocatorIcEEEESG_iRKSG_bdiPKcijE4$_12EEENS3_ISM_EEED1B8ue170006Ev', symObjAddr: 0x5FE20, symBinAddr: 0x100063A18, symSize: 0x48 }
  - { offsetInCU: 0x52DF74, offset: 0x52DF74, size: 0x8, addend: 0x0, symName: '__ZNSt3__110unique_ptrINS_5tupleIJNS0_INS_15__thread_structENS_14default_deleteIS2_EEEEZ12RandomSearchRKN5Eigen6MatrixIfLin1ELin1ELi0ELin1ELin1EEEiNS_12basic_stringIcNS_11char_traitsIcEENS_9allocatorIcEEEESG_iRKSG_bdiPKcijE4$_13EEENS3_ISM_EEED1B8ue170006Ev', symObjAddr: 0x6063C, symBinAddr: 0x100064234, symSize: 0x48 }
  - { offsetInCU: 0x52E11D, offset: 0x52E11D, size: 0x8, addend: 0x0, symName: _OUTLINED_FUNCTION_0, symObjAddr: 0x64AA0, symBinAddr: 0x10006427C, symSize: 0x8 }
  - { offsetInCU: 0x52E135, offset: 0x52E135, size: 0x8, addend: 0x0, symName: _OUTLINED_FUNCTION_1, symObjAddr: 0x64AA8, symBinAddr: 0x100064284, symSize: 0x8 }
  - { offsetInCU: 0x52E14D, offset: 0x52E14D, size: 0x8, addend: 0x0, symName: _OUTLINED_FUNCTION_2, symObjAddr: 0x64AB0, symBinAddr: 0x10006428C, symSize: 0x8 }
  - { offsetInCU: 0x52E165, offset: 0x52E165, size: 0x8, addend: 0x0, symName: _OUTLINED_FUNCTION_3, symObjAddr: 0x64AB8, symBinAddr: 0x100064294, symSize: 0x8 }
  - { offsetInCU: 0x52E17D, offset: 0x52E17D, size: 0x8, addend: 0x0, symName: _OUTLINED_FUNCTION_4, symObjAddr: 0x64AC0, symBinAddr: 0x10006429C, symSize: 0x8 }
  - { offsetInCU: 0x52E195, offset: 0x52E195, size: 0x8, addend: 0x0, symName: _OUTLINED_FUNCTION_5, symObjAddr: 0x64AC8, symBinAddr: 0x1000642A4, symSize: 0x8 }
  - { offsetInCU: 0x52E1AD, offset: 0x52E1AD, size: 0x8, addend: 0x0, symName: _OUTLINED_FUNCTION_6, symObjAddr: 0x64AD0, symBinAddr: 0x1000642AC, symSize: 0x8 }
  - { offsetInCU: 0x52E1C5, offset: 0x52E1C5, size: 0x8, addend: 0x0, symName: _OUTLINED_FUNCTION_7, symObjAddr: 0x64AD8, symBinAddr: 0x1000642B4, symSize: 0x8 }
  - { offsetInCU: 0x52E1DD, offset: 0x52E1DD, size: 0x8, addend: 0x0, symName: _OUTLINED_FUNCTION_8, symObjAddr: 0x64AE0, symBinAddr: 0x1000642BC, symSize: 0x8 }
  - { offsetInCU: 0x52E1F5, offset: 0x52E1F5, size: 0x8, addend: 0x0, symName: _OUTLINED_FUNCTION_9, symObjAddr: 0x64AE8, symBinAddr: 0x1000642C4, symSize: 0x8 }
  - { offsetInCU: 0x52E20D, offset: 0x52E20D, size: 0x8, addend: 0x0, symName: _OUTLINED_FUNCTION_10, symObjAddr: 0x64AF0, symBinAddr: 0x1000642CC, symSize: 0x8 }
  - { offsetInCU: 0x52E225, offset: 0x52E225, size: 0x8, addend: 0x0, symName: _OUTLINED_FUNCTION_11, symObjAddr: 0x64AF8, symBinAddr: 0x1000642D4, symSize: 0x8 }
  - { offsetInCU: 0x52E23D, offset: 0x52E23D, size: 0x8, addend: 0x0, symName: _OUTLINED_FUNCTION_12, symObjAddr: 0x64B00, symBinAddr: 0x1000642DC, symSize: 0x8 }
  - { offsetInCU: 0x52E255, offset: 0x52E255, size: 0x8, addend: 0x0, symName: _OUTLINED_FUNCTION_13, symObjAddr: 0x64B08, symBinAddr: 0x1000642E4, symSize: 0x8 }
  - { offsetInCU: 0x52E26D, offset: 0x52E26D, size: 0x8, addend: 0x0, symName: _OUTLINED_FUNCTION_14, symObjAddr: 0x64B10, symBinAddr: 0x1000642EC, symSize: 0x8 }
  - { offsetInCU: 0x52E285, offset: 0x52E285, size: 0x8, addend: 0x0, symName: _OUTLINED_FUNCTION_15, symObjAddr: 0x64B18, symBinAddr: 0x1000642F4, symSize: 0x8 }
  - { offsetInCU: 0x52E29D, offset: 0x52E29D, size: 0x8, addend: 0x0, symName: _OUTLINED_FUNCTION_16, symObjAddr: 0x64B20, symBinAddr: 0x1000642FC, symSize: 0x8 }
  - { offsetInCU: 0x52E2B5, offset: 0x52E2B5, size: 0x8, addend: 0x0, symName: _OUTLINED_FUNCTION_17, symObjAddr: 0x64B28, symBinAddr: 0x100064304, symSize: 0x8 }
  - { offsetInCU: 0x52E2CD, offset: 0x52E2CD, size: 0x8, addend: 0x0, symName: _OUTLINED_FUNCTION_18, symObjAddr: 0x64B30, symBinAddr: 0x10006430C, symSize: 0x8 }
  - { offsetInCU: 0x52E2E5, offset: 0x52E2E5, size: 0x8, addend: 0x0, symName: _OUTLINED_FUNCTION_19, symObjAddr: 0x64B38, symBinAddr: 0x100064314, symSize: 0x8 }
  - { offsetInCU: 0x52E2FD, offset: 0x52E2FD, size: 0x8, addend: 0x0, symName: _OUTLINED_FUNCTION_20, symObjAddr: 0x64B40, symBinAddr: 0x10006431C, symSize: 0x8 }
...
