---
triple:          'arm64-apple-darwin'
binary-path:     PrefixPostfixMultiThreadDiffSimplifyComplexSR_Corrected
relocations:
  - { offset: 0x44, size: 0x8, addend: 0x0, symName: __ZN5EigenL4lastE, symObjAddr: 0x6BE20F, symBinAddr: 0x1000A8241, symSize: 0x0 }
  - { offset: 0x77BC, size: 0x8, addend: 0x0, symName: __ZN5Eigen8internal31conditional_aligned_delete_autoINSt3__17complexIfEELb1EEEvPT_m, symObjAddr: 0x6CFC, symBinAddr: 0x1000093E0, symSize: 0x28 }
  - { offset: 0x7808, size: 0x8, addend: 0x0, symName: __ZN5Eigen8internal24conditional_aligned_freeILb1EEEvPv, symObjAddr: 0x6D24, symBinAddr: 0x100009408, symSize: 0x24 }
  - { offset: 0x783C, size: 0x8, addend: 0x0, symName: __ZN5Eigen8internal12aligned_freeEPv, symObjAddr: 0x6D48, symBinAddr: 0x10000942C, symSize: 0x24 }
  - { offset: 0x78C8, size: 0x8, addend: 0x0, symName: __ZN5Eigen8internal19throw_std_bad_allocEv, symObjAddr: 0x1E4E4, symBinAddr: 0x100020BC8, symSize: 0x34 }
  - { offset: 0x7904, size: 0x8, addend: 0x0, symName: __ZN5Eigen8internal28conditional_aligned_new_autoINSt3__17complexIfEELb1EEEPT_m, symObjAddr: 0x1E518, symBinAddr: 0x100020BFC, symSize: 0x84 }
  - { offset: 0x7972, size: 0x8, addend: 0x0, symName: __ZN5Eigen8internal26conditional_aligned_mallocILb1EEEPvm, symObjAddr: 0x1E59C, symBinAddr: 0x100020C80, symSize: 0x24 }
  - { offset: 0x79A8, size: 0x8, addend: 0x0, symName: __ZN5Eigen8internal14aligned_mallocEm, symObjAddr: 0x1E5C0, symBinAddr: 0x100020CA4, symSize: 0xDC }
  - { offset: 0x79E9, size: 0x8, addend: 0x0, symName: __ZN5Eigen8internal28check_that_malloc_is_allowedEv, symObjAddr: 0x1E69C, symBinAddr: 0x100020D80, symSize: 0x4 }
  - { offset: 0x7F0C, size: 0x8, addend: 0x0, symName: __ZN5Eigen8internal22ignore_unused_variableIlEEvRKT_, symObjAddr: 0x1FC78, symBinAddr: 0x10002235C, symSize: 0x10 }
  - { offset: 0x7F65, size: 0x8, addend: 0x0, symName: __ZN5Eigen8internal4pmaxILi0EfEET0_RKS2_S4_, symObjAddr: 0x1FF0C, symBinAddr: 0x1000225F0, symSize: 0x34 }
  - { offset: 0x7FFC, size: 0x8, addend: 0x0, symName: __ZN5Eigen8internal4pmaxIfEET_RKS2_S4_, symObjAddr: 0x1FF74, symBinAddr: 0x100022658, symSize: 0x40 }
  - { offset: 0x8A3C, size: 0x8, addend: 0x0, symName: __ZN5Eigen8internal15call_assignmentINS_6MatrixINSt3__17complexIfEELin1ELin1ELi0ELin1ELin1EEES6_EEvRT_RKT0_, symObjAddr: 0x3093C, symBinAddr: 0x100033020, symSize: 0x50 }
  - { offset: 0x8A87, size: 0x8, addend: 0x0, symName: __ZN5Eigen8internal15call_assignmentINS_6MatrixINSt3__17complexIfEELin1ELin1ELi0ELin1ELin1EEES6_NS0_9assign_opIS5_S5_EEEEvRT_RKT0_RKT1_NS0_9enable_ifIXntsr25evaluator_assume_aliasingISB_EE5valueEPvE4typeE, symObjAddr: 0x3098C, symBinAddr: 0x100033070, symSize: 0x38 }
  - { offset: 0x8AF5, size: 0x8, addend: 0x0, symName: __ZN5Eigen8internal24call_assignment_no_aliasINS_6MatrixINSt3__17complexIfEELin1ELin1ELi0ELin1ELin1EEES6_NS0_9assign_opIS5_S5_EEEEvRT_RKT0_RKT1_, symObjAddr: 0x309F0, symBinAddr: 0x1000330D4, symSize: 0x3C }
  - { offset: 0x8BCD, size: 0x8, addend: 0x0, symName: __ZN5Eigen8internal18check_for_aliasingINS_6MatrixINSt3__17complexIfEELin1ELin1ELi0ELin1ELin1EEES6_EEvRKT_RKT0_, symObjAddr: 0x30A6C, symBinAddr: 0x100033150, symSize: 0x60 }
  - { offset: 0x8C18, size: 0x8, addend: 0x0, symName: __ZN5Eigen8internal26call_dense_assignment_loopINS_6MatrixINSt3__17complexIfEELin1ELin1ELi0ELin1ELin1EEES6_NS0_9assign_opIS5_S5_EEEEvRT_RKT0_RKT1_, symObjAddr: 0x30ACC, symBinAddr: 0x1000331B0, symSize: 0xE0 }
  - { offset: 0x8D0A, size: 0x8, addend: 0x0, symName: __ZN5Eigen8internal17resize_if_allowedINS_6MatrixINSt3__17complexIfEELin1ELin1ELi0ELin1ELin1EEES6_S5_S5_EEvRT_RKT0_RKNS0_9assign_opIT1_T2_EE, symObjAddr: 0x30BC0, symBinAddr: 0x1000332A4, symSize: 0xF8 }
  - { offset: 0x909B, size: 0x8, addend: 0x0, symName: __ZN5Eigen8internal6pstoreINSt3__17complexIfEENS0_9Packet2cfEEEvPT_RKT0_, symObjAddr: 0x31004, symBinAddr: 0x1000336E8, symSize: 0x2C }
  - { offset: 0x90E3, size: 0x8, addend: 0x0, symName: __ZN5Eigen8internal6pstoreIf19__simd128_float32_tEEvPT_RKT0_, symObjAddr: 0x31030, symBinAddr: 0x100033714, symSize: 0x2C }
  - { offset: 0x914B, size: 0x8, addend: 0x0, symName: __ZN5Eigen8internal5ploadINS0_9Packet2cfEEET_PKNS0_15unpacket_traitsIS3_E4typeE, symObjAddr: 0x3105C, symBinAddr: 0x100033740, symSize: 0x38 }
  - { offset: 0x9180, size: 0x8, addend: 0x0, symName: __ZN5Eigen8internal5ploadI19__simd128_float32_tEET_PKNS0_15unpacket_traitsIS3_E4typeE, symObjAddr: 0x31094, symBinAddr: 0x100033778, symSize: 0x28 }
  - { offset: 0x91FE, size: 0x8, addend: 0x0, symName: __ZN5Eigen8internal22ignore_unused_variableIbEEvRKT_, symObjAddr: 0x3128C, symBinAddr: 0x100033970, symSize: 0x10 }
  - { offset: 0x9257, size: 0x8, addend: 0x0, symName: __ZN5Eigen8internal15call_assignmentINS_6MatrixINSt3__17complexIfEELin1ELi1ELi0ELin1ELi1EEENS_5BlockINS2_IS5_Lin1ELin1ELi0ELin1ELin1EEELi1ELin1ELb0EEEEEvRT_RKT0_, symObjAddr: 0x34B64, symBinAddr: 0x100037248, symSize: 0x50 }
  - { offset: 0x92A2, size: 0x8, addend: 0x0, symName: __ZN5Eigen8internal15call_assignmentINS_6MatrixINSt3__17complexIfEELin1ELi1ELi0ELin1ELi1EEENS_5BlockINS2_IS5_Lin1ELin1ELi0ELin1ELin1EEELi1ELin1ELb0EEENS0_9assign_opIS5_S5_EEEEvRT_RKT0_RKT1_NS0_9enable_ifIXntsr25evaluator_assume_aliasingISE_EE5valueEPvE4typeE, symObjAddr: 0x34BC8, symBinAddr: 0x1000372AC, symSize: 0x38 }
  - { offset: 0x9310, size: 0x8, addend: 0x0, symName: __ZN5Eigen8internal24call_assignment_no_aliasINS_6MatrixINSt3__17complexIfEELin1ELi1ELi0ELin1ELi1EEENS_5BlockINS2_IS5_Lin1ELin1ELi0ELin1ELin1EEELi1ELin1ELb0EEENS0_9assign_opIS5_S5_EEEEvRT_RKT0_RKT1_, symObjAddr: 0x34C00, symBinAddr: 0x1000372E4, symSize: 0x44 }
  - { offset: 0x93DE, size: 0x8, addend: 0x0, symName: __ZN5Eigen8internal18check_for_aliasingINS_9TransposeINS_6MatrixINSt3__17complexIfEELin1ELi1ELi0ELin1ELi1EEEEENS_5BlockINS3_IS6_Lin1ELin1ELi0ELin1ELin1EEELi1ELin1ELb0EEEEEvRKT_RKT0_, symObjAddr: 0x34D5C, symBinAddr: 0x100037440, symSize: 0x14 }
  - { offset: 0x9429, size: 0x8, addend: 0x0, symName: __ZN5Eigen8internal26call_dense_assignment_loopINS_9TransposeINS_6MatrixINSt3__17complexIfEELin1ELi1ELi0ELin1ELi1EEEEENS_5BlockINS3_IS6_Lin1ELin1ELi0ELin1ELin1EEELi1ELin1ELb0EEENS0_9assign_opIS6_S6_EEEEvRT_RKT0_RKT1_, symObjAddr: 0x34D70, symBinAddr: 0x100037454, symSize: 0xE0 }
  - { offset: 0x958D, size: 0x8, addend: 0x0, symName: __ZN5Eigen8internal17resize_if_allowedINS_9TransposeINS_6MatrixINSt3__17complexIfEELin1ELi1ELi0ELin1ELi1EEEEENS_5BlockINS3_IS6_Lin1ELin1ELi0ELin1ELin1EEELi1ELin1ELb0EEES6_S6_EEvRT_RKT0_RKNS0_9assign_opIT1_T2_EE, symObjAddr: 0x34E84, symBinAddr: 0x100037568, symSize: 0xF8 }
  - { offset: 0x99E8, size: 0x8, addend: 0x0, symName: __ZN5Eigen8internal15call_assignmentINS_6MatrixINSt3__17complexIfEELin1ELi1ELi0ELin1ELi1EEES6_EEvRT_RKT0_, symObjAddr: 0x480AC, symBinAddr: 0x10004A790, symSize: 0x50 }
  - { offset: 0x9A33, size: 0x8, addend: 0x0, symName: __ZN5Eigen8internal15call_assignmentINS_6MatrixINSt3__17complexIfEELin1ELi1ELi0ELin1ELi1EEES6_NS0_9assign_opIS5_S5_EEEEvRT_RKT0_RKT1_NS0_9enable_ifIXntsr25evaluator_assume_aliasingISB_EE5valueEPvE4typeE, symObjAddr: 0x480FC, symBinAddr: 0x10004A7E0, symSize: 0x38 }
  - { offset: 0x9AA1, size: 0x8, addend: 0x0, symName: __ZN5Eigen8internal24call_assignment_no_aliasINS_6MatrixINSt3__17complexIfEELin1ELi1ELi0ELin1ELi1EEES6_NS0_9assign_opIS5_S5_EEEEvRT_RKT0_RKT1_, symObjAddr: 0x48134, symBinAddr: 0x10004A818, symSize: 0x3C }
  - { offset: 0x9B6F, size: 0x8, addend: 0x0, symName: __ZN5Eigen8internal18check_for_aliasingINS_6MatrixINSt3__17complexIfEELin1ELi1ELi0ELin1ELi1EEES6_EEvRKT_RKT0_, symObjAddr: 0x481B0, symBinAddr: 0x10004A894, symSize: 0x14 }
  - { offset: 0x9BBA, size: 0x8, addend: 0x0, symName: __ZN5Eigen8internal26call_dense_assignment_loopINS_6MatrixINSt3__17complexIfEELin1ELi1ELi0ELin1ELi1EEES6_NS0_9assign_opIS5_S5_EEEEvRT_RKT0_RKT1_, symObjAddr: 0x481C4, symBinAddr: 0x10004A8A8, symSize: 0xE0 }
  - { offset: 0x9C6E, size: 0x8, addend: 0x0, symName: __ZN5Eigen8internal17resize_if_allowedINS_6MatrixINSt3__17complexIfEELin1ELi1ELi0ELin1ELi1EEES6_S5_S5_EEvRT_RKT0_RKNS0_9assign_opIT1_T2_EE, symObjAddr: 0x482A4, symBinAddr: 0x10004A988, symSize: 0xF8 }
  - { offset: 0x9CF4, size: 0x8, addend: 0x0, symName: __ZN5Eigen8internal15call_assignmentINS_6MatrixINSt3__17complexIfEELin1ELi1ELi0ELin1ELi1EEENS_14CwiseNullaryOpINS0_18scalar_constant_opIS5_EES6_EEEEvRT_RKT0_, symObjAddr: 0x48990, symBinAddr: 0x10004B074, symSize: 0x50 }
  - { offset: 0x9D3F, size: 0x8, addend: 0x0, symName: __ZN5Eigen8internal15call_assignmentINS_6MatrixINSt3__17complexIfEELin1ELi1ELi0ELin1ELi1EEENS_14CwiseNullaryOpINS0_18scalar_constant_opIS5_EES6_EENS0_9assign_opIS5_S5_EEEEvRT_RKT0_RKT1_NS0_9enable_ifIXntsr25evaluator_assume_aliasingISF_EE5valueEPvE4typeE, symObjAddr: 0x489F4, symBinAddr: 0x10004B0D8, symSize: 0x38 }
  - { offset: 0x9DAD, size: 0x8, addend: 0x0, symName: __ZN5Eigen8internal24call_assignment_no_aliasINS_6MatrixINSt3__17complexIfEELin1ELi1ELi0ELin1ELi1EEENS_14CwiseNullaryOpINS0_18scalar_constant_opIS5_EES6_EENS0_9assign_opIS5_S5_EEEEvRT_RKT0_RKT1_, symObjAddr: 0x48A2C, symBinAddr: 0x10004B110, symSize: 0x3C }
  - { offset: 0x9E7B, size: 0x8, addend: 0x0, symName: __ZN5Eigen8internal18check_for_aliasingINS_6MatrixINSt3__17complexIfEELin1ELi1ELi0ELin1ELi1EEENS_14CwiseNullaryOpINS0_18scalar_constant_opIS5_EES6_EEEEvRKT_RKT0_, symObjAddr: 0x48AA8, symBinAddr: 0x10004B18C, symSize: 0x14 }
  - { offset: 0x9EC6, size: 0x8, addend: 0x0, symName: __ZN5Eigen8internal26call_dense_assignment_loopINS_6MatrixINSt3__17complexIfEELin1ELi1ELi0ELin1ELi1EEEEEvRT_RKNS_14CwiseNullaryOpINS0_18scalar_constant_opINS7_6ScalarEEES7_EERKNS0_9assign_opISB_SB_EE, symObjAddr: 0x48ABC, symBinAddr: 0x10004B1A0, symSize: 0x70 }
  - { offset: 0x9F17, size: 0x8, addend: 0x0, symName: __ZN5Eigen8internal17resize_if_allowedINS_6MatrixINSt3__17complexIfEELin1ELi1ELi0ELin1ELi1EEENS_14CwiseNullaryOpINS0_18scalar_constant_opIS5_EES6_EES5_S5_EEvRT_RKT0_RKNS0_9assign_opIT1_T2_EE, symObjAddr: 0x48B2C, symBinAddr: 0x10004B210, symSize: 0xF8 }
  - { offset: 0x9F9D, size: 0x8, addend: 0x0, symName: __ZN5Eigen8internal10smart_copyINSt3__17complexIfEEEEvPKT_S7_PS5_, symObjAddr: 0x49C0C, symBinAddr: 0x10004C2F0, symSize: 0x34 }
  - { offset: 0xA028, size: 0x8, addend: 0x0, symName: __ZN5Eigen8internal24call_assignment_no_aliasINS_6MatrixINSt3__17complexIfEELin1ELi1ELi0ELin1ELi1EEENS_12CwiseUnaryOpINS0_13scalar_cos_opIS5_EEKNS_12ArrayWrapperIS6_EEEENS0_9assign_opIS5_S5_EEEEvRT_RKT0_RKT1_, symObjAddr: 0x52890, symBinAddr: 0x100054F74, symSize: 0x3C }
  - { offset: 0xA0F6, size: 0x8, addend: 0x0, symName: __ZN5Eigen8internal18check_for_aliasingINS_6MatrixINSt3__17complexIfEELin1ELi1ELi0ELin1ELi1EEENS_12CwiseUnaryOpINS0_13scalar_cos_opIS5_EEKNS_12ArrayWrapperIS6_EEEEEEvRKT_RKT0_, symObjAddr: 0x5290C, symBinAddr: 0x100054FF0, symSize: 0x14 }
  - { offset: 0xA141, size: 0x8, addend: 0x0, symName: __ZN5Eigen8internal26call_dense_assignment_loopINS_6MatrixINSt3__17complexIfEELin1ELi1ELi0ELin1ELi1EEENS_12CwiseUnaryOpINS0_13scalar_cos_opIS5_EEKNS_12ArrayWrapperIS6_EEEENS0_9assign_opIS5_S5_EEEEvRT_RKT0_RKT1_, symObjAddr: 0x52920, symBinAddr: 0x100055004, symSize: 0xD8 }
  - { offset: 0xA38B, size: 0x8, addend: 0x0, symName: __ZN5Eigen8internal17resize_if_allowedINS_6MatrixINSt3__17complexIfEELin1ELi1ELi0ELin1ELi1EEENS_12CwiseUnaryOpINS0_13scalar_cos_opIS5_EEKNS_12ArrayWrapperIS6_EEEES5_S5_EEvRT_RKT0_RKNS0_9assign_opIT1_T2_EE, symObjAddr: 0x52A2C, symBinAddr: 0x100055110, symSize: 0xF8 }
  - { offset: 0xA663, size: 0x8, addend: 0x0, symName: __ZN5Eigen8internal24call_assignment_no_aliasINS_6MatrixINSt3__17complexIfEELin1ELi1ELi0ELin1ELi1EEENS_12CwiseUnaryOpINS0_13scalar_exp_opIS5_EEKNS_12ArrayWrapperIS6_EEEENS0_9assign_opIS5_S5_EEEEvRT_RKT0_RKT1_, symObjAddr: 0x539E0, symBinAddr: 0x1000560C4, symSize: 0x3C }
  - { offset: 0xA731, size: 0x8, addend: 0x0, symName: __ZN5Eigen8internal18check_for_aliasingINS_6MatrixINSt3__17complexIfEELin1ELi1ELi0ELin1ELi1EEENS_12CwiseUnaryOpINS0_13scalar_exp_opIS5_EEKNS_12ArrayWrapperIS6_EEEEEEvRKT_RKT0_, symObjAddr: 0x53A5C, symBinAddr: 0x100056140, symSize: 0x14 }
  - { offset: 0xA77C, size: 0x8, addend: 0x0, symName: __ZN5Eigen8internal26call_dense_assignment_loopINS_6MatrixINSt3__17complexIfEELin1ELi1ELi0ELin1ELi1EEENS_12CwiseUnaryOpINS0_13scalar_exp_opIS5_EEKNS_12ArrayWrapperIS6_EEEENS0_9assign_opIS5_S5_EEEEvRT_RKT0_RKT1_, symObjAddr: 0x53A70, symBinAddr: 0x100056154, symSize: 0xD8 }
  - { offset: 0xA9C6, size: 0x8, addend: 0x0, symName: __ZN5Eigen8internal17resize_if_allowedINS_6MatrixINSt3__17complexIfEELin1ELi1ELi0ELin1ELi1EEENS_12CwiseUnaryOpINS0_13scalar_exp_opIS5_EEKNS_12ArrayWrapperIS6_EEEES5_S5_EEvRT_RKT0_RKNS0_9assign_opIT1_T2_EE, symObjAddr: 0x53B7C, symBinAddr: 0x100056260, symSize: 0xF8 }
  - { offset: 0xAC9E, size: 0x8, addend: 0x0, symName: __ZN5Eigen8internal24call_assignment_no_aliasINS_6MatrixINSt3__17complexIfEELin1ELi1ELi0ELin1ELi1EEENS_12CwiseUnaryOpINS0_14scalar_sqrt_opIS5_EEKNS_12ArrayWrapperIS6_EEEENS0_9assign_opIS5_S5_EEEEvRT_RKT0_RKT1_, symObjAddr: 0x54784, symBinAddr: 0x100056E68, symSize: 0x3C }
  - { offset: 0xAD6C, size: 0x8, addend: 0x0, symName: __ZN5Eigen8internal18check_for_aliasingINS_6MatrixINSt3__17complexIfEELin1ELi1ELi0ELin1ELi1EEENS_12CwiseUnaryOpINS0_14scalar_sqrt_opIS5_EEKNS_12ArrayWrapperIS6_EEEEEEvRKT_RKT0_, symObjAddr: 0x54800, symBinAddr: 0x100056EE4, symSize: 0x14 }
  - { offset: 0xADB7, size: 0x8, addend: 0x0, symName: __ZN5Eigen8internal26call_dense_assignment_loopINS_6MatrixINSt3__17complexIfEELin1ELi1ELi0ELin1ELi1EEENS_12CwiseUnaryOpINS0_14scalar_sqrt_opIS5_EEKNS_12ArrayWrapperIS6_EEEENS0_9assign_opIS5_S5_EEEEvRT_RKT0_RKT1_, symObjAddr: 0x54814, symBinAddr: 0x100056EF8, symSize: 0xD8 }
  - { offset: 0xB001, size: 0x8, addend: 0x0, symName: __ZN5Eigen8internal17resize_if_allowedINS_6MatrixINSt3__17complexIfEELin1ELi1ELi0ELin1ELi1EEENS_12CwiseUnaryOpINS0_14scalar_sqrt_opIS5_EEKNS_12ArrayWrapperIS6_EEEES5_S5_EEvRT_RKT0_RKNS0_9assign_opIT1_T2_EE, symObjAddr: 0x54920, symBinAddr: 0x100057004, symSize: 0xF8 }
  - { offset: 0xB36D, size: 0x8, addend: 0x0, symName: __ZN5Eigen8internal12complex_sqrtIfEENSt3__17complexIT_EERKS5_, symObjAddr: 0x54E1C, symBinAddr: 0x100057500, symSize: 0x1E0 }
  - { offset: 0xB502, size: 0x8, addend: 0x0, symName: __ZN5Eigen8internal19positive_real_hypotIfEET_RKS2_S4_, symObjAddr: 0x551A8, symBinAddr: 0x10005788C, symSize: 0x11C }
  - { offset: 0xB5B2, size: 0x8, addend: 0x0, symName: __ZN5Eigen8internal10isnan_implIfEENS0_9enable_ifIXaantsr8internal11is_integralIT_EE5valuentsr9NumTraitsIS3_EE9IsComplexEbE4typeERKS3_, symObjAddr: 0x55300, symBinAddr: 0x1000579E4, symSize: 0x2C }
  - { offset: 0xB5E9, size: 0x8, addend: 0x0, symName: __ZN5Eigen8internal10isinf_implIfEENS0_9enable_ifIXaantsr8internal11is_integralIT_EE5valuentsr9NumTraitsIS3_EE9IsComplexEbE4typeERKS3_, symObjAddr: 0x55368, symBinAddr: 0x100057A4C, symSize: 0x2C }
  - { offset: 0xB620, size: 0x8, addend: 0x0, symName: __ZN5Eigen8internal24call_assignment_no_aliasINS_6MatrixINSt3__17complexIfEELin1ELi1ELi0ELin1ELi1EEENS_12CwiseUnaryOpINS0_13scalar_sin_opIS5_EEKNS_12ArrayWrapperIS6_EEEENS0_9assign_opIS5_S5_EEEEvRT_RKT0_RKT1_, symObjAddr: 0x55908, symBinAddr: 0x100057FEC, symSize: 0x3C }
  - { offset: 0xB6EE, size: 0x8, addend: 0x0, symName: __ZN5Eigen8internal18check_for_aliasingINS_6MatrixINSt3__17complexIfEELin1ELi1ELi0ELin1ELi1EEENS_12CwiseUnaryOpINS0_13scalar_sin_opIS5_EEKNS_12ArrayWrapperIS6_EEEEEEvRKT_RKT0_, symObjAddr: 0x55984, symBinAddr: 0x100058068, symSize: 0x14 }
  - { offset: 0xB739, size: 0x8, addend: 0x0, symName: __ZN5Eigen8internal26call_dense_assignment_loopINS_6MatrixINSt3__17complexIfEELin1ELi1ELi0ELin1ELi1EEENS_12CwiseUnaryOpINS0_13scalar_sin_opIS5_EEKNS_12ArrayWrapperIS6_EEEENS0_9assign_opIS5_S5_EEEEvRT_RKT0_RKT1_, symObjAddr: 0x55998, symBinAddr: 0x10005807C, symSize: 0xD8 }
  - { offset: 0xB983, size: 0x8, addend: 0x0, symName: __ZN5Eigen8internal17resize_if_allowedINS_6MatrixINSt3__17complexIfEELin1ELi1ELi0ELin1ELi1EEENS_12CwiseUnaryOpINS0_13scalar_sin_opIS5_EEKNS_12ArrayWrapperIS6_EEEES5_S5_EEvRT_RKT0_RKNS0_9assign_opIT1_T2_EE, symObjAddr: 0x55AA4, symBinAddr: 0x100058188, symSize: 0xF8 }
  - { offset: 0xBC5B, size: 0x8, addend: 0x0, symName: __ZN5Eigen8internal24call_assignment_no_aliasINS_6MatrixINSt3__17complexIfEELin1ELi1ELi0ELin1ELi1EEENS_12CwiseUnaryOpINS0_14scalar_asin_opIS5_EEKNS_12ArrayWrapperIS6_EEEENS0_9assign_opIS5_S5_EEEEvRT_RKT0_RKT1_, symObjAddr: 0x56690, symBinAddr: 0x100058D74, symSize: 0x3C }
  - { offset: 0xBD29, size: 0x8, addend: 0x0, symName: __ZN5Eigen8internal18check_for_aliasingINS_6MatrixINSt3__17complexIfEELin1ELi1ELi0ELin1ELi1EEENS_12CwiseUnaryOpINS0_14scalar_asin_opIS5_EEKNS_12ArrayWrapperIS6_EEEEEEvRKT_RKT0_, symObjAddr: 0x5670C, symBinAddr: 0x100058DF0, symSize: 0x14 }
  - { offset: 0xBD74, size: 0x8, addend: 0x0, symName: __ZN5Eigen8internal26call_dense_assignment_loopINS_6MatrixINSt3__17complexIfEELin1ELi1ELi0ELin1ELi1EEENS_12CwiseUnaryOpINS0_14scalar_asin_opIS5_EEKNS_12ArrayWrapperIS6_EEEENS0_9assign_opIS5_S5_EEEEvRT_RKT0_RKT1_, symObjAddr: 0x56720, symBinAddr: 0x100058E04, symSize: 0xD8 }
  - { offset: 0xBFBE, size: 0x8, addend: 0x0, symName: __ZN5Eigen8internal17resize_if_allowedINS_6MatrixINSt3__17complexIfEELin1ELi1ELi0ELin1ELi1EEENS_12CwiseUnaryOpINS0_14scalar_asin_opIS5_EEKNS_12ArrayWrapperIS6_EEEES5_S5_EEvRT_RKT0_RKNS0_9assign_opIT1_T2_EE, symObjAddr: 0x5682C, symBinAddr: 0x100058F10, symSize: 0xF8 }
  - { offset: 0xC296, size: 0x8, addend: 0x0, symName: __ZN5Eigen8internal24call_assignment_no_aliasINS_6MatrixINSt3__17complexIfEELin1ELi1ELi0ELin1ELi1EEENS_12CwiseUnaryOpINS0_13scalar_log_opIS5_EEKNS_12ArrayWrapperIS6_EEEENS0_9assign_opIS5_S5_EEEEvRT_RKT0_RKT1_, symObjAddr: 0x57BC0, symBinAddr: 0x10005A2A4, symSize: 0x3C }
  - { offset: 0xC364, size: 0x8, addend: 0x0, symName: __ZN5Eigen8internal18check_for_aliasingINS_6MatrixINSt3__17complexIfEELin1ELi1ELi0ELin1ELi1EEENS_12CwiseUnaryOpINS0_13scalar_log_opIS5_EEKNS_12ArrayWrapperIS6_EEEEEEvRKT_RKT0_, symObjAddr: 0x57C3C, symBinAddr: 0x10005A320, symSize: 0x14 }
  - { offset: 0xC3AF, size: 0x8, addend: 0x0, symName: __ZN5Eigen8internal26call_dense_assignment_loopINS_6MatrixINSt3__17complexIfEELin1ELi1ELi0ELin1ELi1EEENS_12CwiseUnaryOpINS0_13scalar_log_opIS5_EEKNS_12ArrayWrapperIS6_EEEENS0_9assign_opIS5_S5_EEEEvRT_RKT0_RKT1_, symObjAddr: 0x57C50, symBinAddr: 0x10005A334, symSize: 0xD8 }
  - { offset: 0xC5F9, size: 0x8, addend: 0x0, symName: __ZN5Eigen8internal17resize_if_allowedINS_6MatrixINSt3__17complexIfEELin1ELi1ELi0ELin1ELi1EEENS_12CwiseUnaryOpINS0_13scalar_log_opIS5_EEKNS_12ArrayWrapperIS6_EEEES5_S5_EEvRT_RKT0_RKNS0_9assign_opIT1_T2_EE, symObjAddr: 0x57D5C, symBinAddr: 0x10005A440, symSize: 0xF8 }
  - { offset: 0xC8FB, size: 0x8, addend: 0x0, symName: __ZN5Eigen8internal11complex_logIfEENSt3__17complexIT_EERKS5_, symObjAddr: 0x58274, symBinAddr: 0x10005A958, symSize: 0x80 }
  - { offset: 0xC9B8, size: 0x8, addend: 0x0, symName: __ZN5Eigen8internal24call_assignment_no_aliasINS_6MatrixINSt3__17complexIfEELin1ELi1ELi0ELin1ELi1EEENS_12CwiseUnaryOpINS0_14scalar_tanh_opIS5_EEKNS_12ArrayWrapperIS6_EEEENS0_9assign_opIS5_S5_EEEEvRT_RKT0_RKT1_, symObjAddr: 0x58848, symBinAddr: 0x10005AF2C, symSize: 0x3C }
  - { offset: 0xCA86, size: 0x8, addend: 0x0, symName: __ZN5Eigen8internal18check_for_aliasingINS_6MatrixINSt3__17complexIfEELin1ELi1ELi0ELin1ELi1EEENS_12CwiseUnaryOpINS0_14scalar_tanh_opIS5_EEKNS_12ArrayWrapperIS6_EEEEEEvRKT_RKT0_, symObjAddr: 0x588C4, symBinAddr: 0x10005AFA8, symSize: 0x14 }
  - { offset: 0xCAD1, size: 0x8, addend: 0x0, symName: __ZN5Eigen8internal26call_dense_assignment_loopINS_6MatrixINSt3__17complexIfEELin1ELi1ELi0ELin1ELi1EEENS_12CwiseUnaryOpINS0_14scalar_tanh_opIS5_EEKNS_12ArrayWrapperIS6_EEEENS0_9assign_opIS5_S5_EEEEvRT_RKT0_RKT1_, symObjAddr: 0x588D8, symBinAddr: 0x10005AFBC, symSize: 0xD8 }
  - { offset: 0xCD1B, size: 0x8, addend: 0x0, symName: __ZN5Eigen8internal17resize_if_allowedINS_6MatrixINSt3__17complexIfEELin1ELi1ELi0ELin1ELi1EEENS_12CwiseUnaryOpINS0_14scalar_tanh_opIS5_EEKNS_12ArrayWrapperIS6_EEEES5_S5_EEvRT_RKT0_RKNS0_9assign_opIT1_T2_EE, symObjAddr: 0x589E4, symBinAddr: 0x10005B0C8, symSize: 0xF8 }
  - { offset: 0xCFF3, size: 0x8, addend: 0x0, symName: __ZN5Eigen8internal24call_assignment_no_aliasINS_6MatrixINSt3__17complexIfEELin1ELi1ELi0ELin1ELi1EEENS_13CwiseBinaryOpINS0_18scalar_quotient_opIfS5_EEKNS_14CwiseNullaryOpINS0_18scalar_constant_opIfEEKNS_5ArrayIfLin1ELi1ELi0ELin1ELi1EEEEEKNS_12CwiseUnaryOpINS0_14scalar_cosh_opIS5_EEKNS_12ArrayWrapperIS6_EEEEEENS0_9assign_opIS5_S5_EEEEvRT_RKT0_RKT1_, symObjAddr: 0x59BF0, symBinAddr: 0x10005C2D4, symSize: 0x3C }
  - { offset: 0xD0C1, size: 0x8, addend: 0x0, symName: __ZN5Eigen8internal18check_for_aliasingINS_6MatrixINSt3__17complexIfEELin1ELi1ELi0ELin1ELi1EEENS_13CwiseBinaryOpINS0_18scalar_quotient_opIfS5_EEKNS_14CwiseNullaryOpINS0_18scalar_constant_opIfEEKNS_5ArrayIfLin1ELi1ELi0ELin1ELi1EEEEEKNS_12CwiseUnaryOpINS0_14scalar_cosh_opIS5_EEKNS_12ArrayWrapperIS6_EEEEEEEEvRKT_RKT0_, symObjAddr: 0x59C6C, symBinAddr: 0x10005C350, symSize: 0x14 }
  - { offset: 0xD10C, size: 0x8, addend: 0x0, symName: __ZN5Eigen8internal26call_dense_assignment_loopINS_6MatrixINSt3__17complexIfEELin1ELi1ELi0ELin1ELi1EEENS_13CwiseBinaryOpINS0_18scalar_quotient_opIfS5_EEKNS_14CwiseNullaryOpINS0_18scalar_constant_opIfEEKNS_5ArrayIfLin1ELi1ELi0ELin1ELi1EEEEEKNS_12CwiseUnaryOpINS0_14scalar_cosh_opIS5_EEKNS_12ArrayWrapperIS6_EEEEEENS0_9assign_opIS5_S5_EEEEvRT_RKT0_RKT1_, symObjAddr: 0x59C80, symBinAddr: 0x10005C364, symSize: 0xD8 }
  - { offset: 0xD6D9, size: 0x8, addend: 0x0, symName: __ZN5Eigen8internal17resize_if_allowedINS_6MatrixINSt3__17complexIfEELin1ELi1ELi0ELin1ELi1EEENS_13CwiseBinaryOpINS0_18scalar_quotient_opIfS5_EEKNS_14CwiseNullaryOpINS0_18scalar_constant_opIfEEKNS_5ArrayIfLin1ELi1ELi0ELin1ELi1EEEEEKNS_12CwiseUnaryOpINS0_14scalar_cosh_opIS5_EEKNS_12ArrayWrapperIS6_EEEEEES5_S5_EEvRT_RKT0_RKNS0_9assign_opIT1_T2_EE, symObjAddr: 0x59D8C, symBinAddr: 0x10005C470, symSize: 0xF8 }
  - { offset: 0xD9B1, size: 0x8, addend: 0x0, symName: __ZN5Eigen8internal24call_assignment_no_aliasINS_6MatrixINSt3__17complexIfEELin1ELi1ELi0ELin1ELi1EEENS_12CwiseUnaryOpINS0_14scalar_acos_opIS5_EEKNS_12ArrayWrapperIS6_EEEENS0_9assign_opIS5_S5_EEEEvRT_RKT0_RKT1_, symObjAddr: 0x5B374, symBinAddr: 0x10005DA58, symSize: 0x3C }
  - { offset: 0xDA7F, size: 0x8, addend: 0x0, symName: __ZN5Eigen8internal18check_for_aliasingINS_6MatrixINSt3__17complexIfEELin1ELi1ELi0ELin1ELi1EEENS_12CwiseUnaryOpINS0_14scalar_acos_opIS5_EEKNS_12ArrayWrapperIS6_EEEEEEvRKT_RKT0_, symObjAddr: 0x5B3F0, symBinAddr: 0x10005DAD4, symSize: 0x14 }
  - { offset: 0xDACA, size: 0x8, addend: 0x0, symName: __ZN5Eigen8internal26call_dense_assignment_loopINS_6MatrixINSt3__17complexIfEELin1ELi1ELi0ELin1ELi1EEENS_12CwiseUnaryOpINS0_14scalar_acos_opIS5_EEKNS_12ArrayWrapperIS6_EEEENS0_9assign_opIS5_S5_EEEEvRT_RKT0_RKT1_, symObjAddr: 0x5B404, symBinAddr: 0x10005DAE8, symSize: 0xD8 }
  - { offset: 0xDD14, size: 0x8, addend: 0x0, symName: __ZN5Eigen8internal17resize_if_allowedINS_6MatrixINSt3__17complexIfEELin1ELi1ELi0ELin1ELi1EEENS_12CwiseUnaryOpINS0_14scalar_acos_opIS5_EEKNS_12ArrayWrapperIS6_EEEES5_S5_EEvRT_RKT0_RKNS0_9assign_opIT1_T2_EE, symObjAddr: 0x5B510, symBinAddr: 0x10005DBF4, symSize: 0xF8 }
  - { offset: 0xDFEC, size: 0x8, addend: 0x0, symName: __ZN5Eigen8internal24call_assignment_no_aliasINS_6MatrixINSt3__17complexIfEELin1ELi1ELi0ELin1ELi1EEENS_12CwiseUnaryOpINS0_18scalar_opposite_opIS5_EEKNS_12ArrayWrapperIS6_EEEENS0_9assign_opIS5_S5_EEEEvRT_RKT0_RKT1_, symObjAddr: 0x5C378, symBinAddr: 0x10005EA5C, symSize: 0x3C }
  - { offset: 0xE0BA, size: 0x8, addend: 0x0, symName: __ZN5Eigen8internal18check_for_aliasingINS_6MatrixINSt3__17complexIfEELin1ELi1ELi0ELin1ELi1EEENS_12CwiseUnaryOpINS0_18scalar_opposite_opIS5_EEKNS_12ArrayWrapperIS6_EEEEEEvRKT_RKT0_, symObjAddr: 0x5C3F4, symBinAddr: 0x10005EAD8, symSize: 0x14 }
  - { offset: 0xE105, size: 0x8, addend: 0x0, symName: __ZN5Eigen8internal26call_dense_assignment_loopINS_6MatrixINSt3__17complexIfEELin1ELi1ELi0ELin1ELi1EEENS_12CwiseUnaryOpINS0_18scalar_opposite_opIS5_EEKNS_12ArrayWrapperIS6_EEEENS0_9assign_opIS5_S5_EEEEvRT_RKT0_RKT1_, symObjAddr: 0x5C408, symBinAddr: 0x10005EAEC, symSize: 0xD8 }
  - { offset: 0xE1B9, size: 0x8, addend: 0x0, symName: __ZN5Eigen8internal17resize_if_allowedINS_6MatrixINSt3__17complexIfEELin1ELi1ELi0ELin1ELi1EEENS_12CwiseUnaryOpINS0_18scalar_opposite_opIS5_EEKNS_12ArrayWrapperIS6_EEEES5_S5_EEvRT_RKT0_RKNS0_9assign_opIT1_T2_EE, symObjAddr: 0x5C514, symBinAddr: 0x10005EBF8, symSize: 0xF8 }
  - { offset: 0xE23F, size: 0x8, addend: 0x0, symName: __ZN5Eigen8internal7pnegateINS0_9Packet2cfEEET_RKS3_, symObjAddr: 0x5CAC4, symBinAddr: 0x10005F1A8, symSize: 0x38 }
  - { offset: 0xE274, size: 0x8, addend: 0x0, symName: __ZN5Eigen8internal7pnegateI19__simd128_float32_tEET_RKS3_, symObjAddr: 0x5CAFC, symBinAddr: 0x10005F1E0, symSize: 0x2C }
  - { offset: 0xE2AB, size: 0x8, addend: 0x0, symName: __ZN5Eigen8internal24call_assignment_no_aliasINS_6MatrixINSt3__17complexIfEELin1ELi1ELi0ELin1ELi1EEENS_12CwiseUnaryOpINS0_19scalar_conjugate_opIS5_EEKNS_12ArrayWrapperIS6_EEEENS0_9assign_opIS5_S5_EEEEvRT_RKT0_RKT1_, symObjAddr: 0x5D1A0, symBinAddr: 0x10005F884, symSize: 0x3C }
  - { offset: 0xE379, size: 0x8, addend: 0x0, symName: __ZN5Eigen8internal18check_for_aliasingINS_6MatrixINSt3__17complexIfEELin1ELi1ELi0ELin1ELi1EEENS_12CwiseUnaryOpINS0_19scalar_conjugate_opIS5_EEKNS_12ArrayWrapperIS6_EEEEEEvRKT_RKT0_, symObjAddr: 0x5D21C, symBinAddr: 0x10005F900, symSize: 0x14 }
  - { offset: 0xE3C4, size: 0x8, addend: 0x0, symName: __ZN5Eigen8internal26call_dense_assignment_loopINS_6MatrixINSt3__17complexIfEELin1ELi1ELi0ELin1ELi1EEENS_12CwiseUnaryOpINS0_19scalar_conjugate_opIS5_EEKNS_12ArrayWrapperIS6_EEEENS0_9assign_opIS5_S5_EEEEvRT_RKT0_RKT1_, symObjAddr: 0x5D230, symBinAddr: 0x10005F914, symSize: 0xD8 }
  - { offset: 0xE478, size: 0x8, addend: 0x0, symName: __ZN5Eigen8internal17resize_if_allowedINS_6MatrixINSt3__17complexIfEELin1ELi1ELi0ELin1ELi1EEENS_12CwiseUnaryOpINS0_19scalar_conjugate_opIS5_EEKNS_12ArrayWrapperIS6_EEEES5_S5_EEvRT_RKT0_RKNS0_9assign_opIT1_T2_EE, symObjAddr: 0x5D33C, symBinAddr: 0x10005FA20, symSize: 0xF8 }
  - { offset: 0xE4FE, size: 0x8, addend: 0x0, symName: __ZN5Eigen8internal5pconjINS0_9Packet2cfEEET_RKS3_, symObjAddr: 0x5D8B8, symBinAddr: 0x10005FF9C, symSize: 0x88 }
  - { offset: 0xE541, size: 0x8, addend: 0x0, symName: __ZN5Eigen8internal13p4ui_CONJ_XOREv, symObjAddr: 0x5D940, symBinAddr: 0x100060024, symSize: 0x1C }
  - { offset: 0xE5A0, size: 0x8, addend: 0x0, symName: __ZN5Eigen8internal24call_assignment_no_aliasINS_6MatrixINSt3__17complexIfEELin1ELi1ELi0ELin1ELi1EEENS_13CwiseBinaryOpINS0_13scalar_sum_opIS5_S5_EEKNS_12ArrayWrapperIS6_EESC_EENS0_9assign_opIS5_S5_EEEEvRT_RKT0_RKT1_, symObjAddr: 0x5E0EC, symBinAddr: 0x1000607D0, symSize: 0x3C }
  - { offset: 0xE66E, size: 0x8, addend: 0x0, symName: __ZN5Eigen8internal18check_for_aliasingINS_6MatrixINSt3__17complexIfEELin1ELi1ELi0ELin1ELi1EEENS_13CwiseBinaryOpINS0_13scalar_sum_opIS5_S5_EEKNS_12ArrayWrapperIS6_EESC_EEEEvRKT_RKT0_, symObjAddr: 0x5E168, symBinAddr: 0x10006084C, symSize: 0x14 }
  - { offset: 0xE6B9, size: 0x8, addend: 0x0, symName: __ZN5Eigen8internal26call_dense_assignment_loopINS_6MatrixINSt3__17complexIfEELin1ELi1ELi0ELin1ELi1EEENS_13CwiseBinaryOpINS0_13scalar_sum_opIS5_S5_EEKNS_12ArrayWrapperIS6_EESC_EENS0_9assign_opIS5_S5_EEEEvRT_RKT0_RKT1_, symObjAddr: 0x5E17C, symBinAddr: 0x100060860, symSize: 0xD8 }
  - { offset: 0xE76D, size: 0x8, addend: 0x0, symName: __ZN5Eigen8internal17resize_if_allowedINS_6MatrixINSt3__17complexIfEELin1ELi1ELi0ELin1ELi1EEENS_13CwiseBinaryOpINS0_13scalar_sum_opIS5_S5_EEKNS_12ArrayWrapperIS6_EESC_EES5_S5_EEvRT_RKT0_RKNS0_9assign_opIT1_T2_EE, symObjAddr: 0x5E288, symBinAddr: 0x10006096C, symSize: 0xF8 }
  - { offset: 0xE7F3, size: 0x8, addend: 0x0, symName: __ZN5Eigen8internal4paddINS0_9Packet2cfEEET_RKS3_S5_, symObjAddr: 0x5E88C, symBinAddr: 0x100060F70, symSize: 0x40 }
  - { offset: 0xE836, size: 0x8, addend: 0x0, symName: __ZN5Eigen8internal4paddI19__simd128_float32_tEET_RKS3_S5_, symObjAddr: 0x5E8CC, symBinAddr: 0x100060FB0, symSize: 0x40 }
  - { offset: 0xE87C, size: 0x8, addend: 0x0, symName: __ZN5Eigen8internal24call_assignment_no_aliasINS_6MatrixINSt3__17complexIfEELin1ELi1ELi0ELin1ELi1EEENS_13CwiseBinaryOpINS0_20scalar_difference_opIS5_S5_EEKNS_12ArrayWrapperIS6_EESC_EENS0_9assign_opIS5_S5_EEEEvRT_RKT0_RKT1_, symObjAddr: 0x5EF88, symBinAddr: 0x10006166C, symSize: 0x3C }
  - { offset: 0xE94A, size: 0x8, addend: 0x0, symName: __ZN5Eigen8internal18check_for_aliasingINS_6MatrixINSt3__17complexIfEELin1ELi1ELi0ELin1ELi1EEENS_13CwiseBinaryOpINS0_20scalar_difference_opIS5_S5_EEKNS_12ArrayWrapperIS6_EESC_EEEEvRKT_RKT0_, symObjAddr: 0x5F004, symBinAddr: 0x1000616E8, symSize: 0x14 }
  - { offset: 0xE995, size: 0x8, addend: 0x0, symName: __ZN5Eigen8internal26call_dense_assignment_loopINS_6MatrixINSt3__17complexIfEELin1ELi1ELi0ELin1ELi1EEENS_13CwiseBinaryOpINS0_20scalar_difference_opIS5_S5_EEKNS_12ArrayWrapperIS6_EESC_EENS0_9assign_opIS5_S5_EEEEvRT_RKT0_RKT1_, symObjAddr: 0x5F018, symBinAddr: 0x1000616FC, symSize: 0xD8 }
  - { offset: 0xEA49, size: 0x8, addend: 0x0, symName: __ZN5Eigen8internal17resize_if_allowedINS_6MatrixINSt3__17complexIfEELin1ELi1ELi0ELin1ELi1EEENS_13CwiseBinaryOpINS0_20scalar_difference_opIS5_S5_EEKNS_12ArrayWrapperIS6_EESC_EES5_S5_EEvRT_RKT0_RKNS0_9assign_opIT1_T2_EE, symObjAddr: 0x5F124, symBinAddr: 0x100061808, symSize: 0xF8 }
  - { offset: 0xEACF, size: 0x8, addend: 0x0, symName: __ZN5Eigen8internal4psubINS0_9Packet2cfEEET_RKS3_S5_, symObjAddr: 0x5F728, symBinAddr: 0x100061E0C, symSize: 0x40 }
  - { offset: 0xEB12, size: 0x8, addend: 0x0, symName: __ZN5Eigen8internal4psubI19__simd128_float32_tEET_RKS3_S5_, symObjAddr: 0x5F768, symBinAddr: 0x100061E4C, symSize: 0x40 }
  - { offset: 0xEB58, size: 0x8, addend: 0x0, symName: __ZN5Eigen8internal24call_assignment_no_aliasINS_6MatrixINSt3__17complexIfEELin1ELi1ELi0ELin1ELi1EEENS_13CwiseBinaryOpINS0_17scalar_product_opIS5_S5_EEKNS_12ArrayWrapperIS6_EESC_EENS0_9assign_opIS5_S5_EEEEvRT_RKT0_RKT1_, symObjAddr: 0x5FE70, symBinAddr: 0x100062554, symSize: 0x3C }
  - { offset: 0xEC26, size: 0x8, addend: 0x0, symName: __ZN5Eigen8internal18check_for_aliasingINS_6MatrixINSt3__17complexIfEELin1ELi1ELi0ELin1ELi1EEENS_13CwiseBinaryOpINS0_17scalar_product_opIS5_S5_EEKNS_12ArrayWrapperIS6_EESC_EEEEvRKT_RKT0_, symObjAddr: 0x5FEEC, symBinAddr: 0x1000625D0, symSize: 0x14 }
  - { offset: 0xEC71, size: 0x8, addend: 0x0, symName: __ZN5Eigen8internal26call_dense_assignment_loopINS_6MatrixINSt3__17complexIfEELin1ELi1ELi0ELin1ELi1EEENS_13CwiseBinaryOpINS0_17scalar_product_opIS5_S5_EEKNS_12ArrayWrapperIS6_EESC_EENS0_9assign_opIS5_S5_EEEEvRT_RKT0_RKT1_, symObjAddr: 0x5FF00, symBinAddr: 0x1000625E4, symSize: 0xD8 }
  - { offset: 0xED25, size: 0x8, addend: 0x0, symName: __ZN5Eigen8internal17resize_if_allowedINS_6MatrixINSt3__17complexIfEELin1ELi1ELi0ELin1ELi1EEENS_13CwiseBinaryOpINS0_17scalar_product_opIS5_S5_EEKNS_12ArrayWrapperIS6_EESC_EES5_S5_EEvRT_RKT0_RKNS0_9assign_opIT1_T2_EE, symObjAddr: 0x6000C, symBinAddr: 0x1000626F0, symSize: 0xF8 }
  - { offset: 0xEDAB, size: 0x8, addend: 0x0, symName: __ZN5Eigen8internal4pmulINS0_9Packet2cfEEET_RKS3_S5_, symObjAddr: 0x60610, symBinAddr: 0x100062CF4, symSize: 0x2F4 }
  - { offset: 0xEF6C, size: 0x8, addend: 0x0, symName: __ZN5Eigen8internal24call_assignment_no_aliasINS_6MatrixINSt3__17complexIfEELin1ELi1ELi0ELin1ELi1EEENS_13CwiseBinaryOpINS0_18scalar_quotient_opIS5_S5_EEKNS_12ArrayWrapperIS6_EESC_EENS0_9assign_opIS5_S5_EEEEvRT_RKT0_RKT1_, symObjAddr: 0x613D4, symBinAddr: 0x100063AB8, symSize: 0x3C }
  - { offset: 0xF03A, size: 0x8, addend: 0x0, symName: __ZN5Eigen8internal18check_for_aliasingINS_6MatrixINSt3__17complexIfEELin1ELi1ELi0ELin1ELi1EEENS_13CwiseBinaryOpINS0_18scalar_quotient_opIS5_S5_EEKNS_12ArrayWrapperIS6_EESC_EEEEvRKT_RKT0_, symObjAddr: 0x61450, symBinAddr: 0x100063B34, symSize: 0x14 }
  - { offset: 0xF085, size: 0x8, addend: 0x0, symName: __ZN5Eigen8internal26call_dense_assignment_loopINS_6MatrixINSt3__17complexIfEELin1ELi1ELi0ELin1ELi1EEENS_13CwiseBinaryOpINS0_18scalar_quotient_opIS5_S5_EEKNS_12ArrayWrapperIS6_EESC_EENS0_9assign_opIS5_S5_EEEEvRT_RKT0_RKT1_, symObjAddr: 0x61464, symBinAddr: 0x100063B48, symSize: 0xD8 }
  - { offset: 0xF139, size: 0x8, addend: 0x0, symName: __ZN5Eigen8internal17resize_if_allowedINS_6MatrixINSt3__17complexIfEELin1ELi1ELi0ELin1ELi1EEENS_13CwiseBinaryOpINS0_18scalar_quotient_opIS5_S5_EEKNS_12ArrayWrapperIS6_EESC_EES5_S5_EEvRT_RKT0_RKNS0_9assign_opIT1_T2_EE, symObjAddr: 0x61570, symBinAddr: 0x100063C54, symSize: 0xF8 }
  - { offset: 0xF1BF, size: 0x8, addend: 0x0, symName: __ZN5Eigen8internal4pdivINS0_9Packet2cfEEET_RKS3_S5_, symObjAddr: 0x61B74, symBinAddr: 0x100064258, symSize: 0xE0 }
  - { offset: 0xF236, size: 0x8, addend: 0x0, symName: __ZN5Eigen8internal4pdivI19__simd128_float32_tEET_RKS3_S5_, symObjAddr: 0x61C54, symBinAddr: 0x100064338, symSize: 0x40 }
  - { offset: 0xF27C, size: 0x8, addend: 0x0, symName: __ZN5Eigen8internal24call_assignment_no_aliasINS_6MatrixINSt3__17complexIfEELin1ELi1ELi0ELin1ELi1EEENS_13CwiseBinaryOpINS0_13scalar_pow_opIS5_S5_EEKNS_12ArrayWrapperIS6_EESC_EENS0_9assign_opIS5_S5_EEEEvRT_RKT0_RKT1_, symObjAddr: 0x6239C, symBinAddr: 0x100064A80, symSize: 0x3C }
  - { offset: 0xF34A, size: 0x8, addend: 0x0, symName: __ZN5Eigen8internal18check_for_aliasingINS_6MatrixINSt3__17complexIfEELin1ELi1ELi0ELin1ELi1EEENS_13CwiseBinaryOpINS0_13scalar_pow_opIS5_S5_EEKNS_12ArrayWrapperIS6_EESC_EEEEvRKT_RKT0_, symObjAddr: 0x62418, symBinAddr: 0x100064AFC, symSize: 0x14 }
  - { offset: 0xF395, size: 0x8, addend: 0x0, symName: __ZN5Eigen8internal26call_dense_assignment_loopINS_6MatrixINSt3__17complexIfEELin1ELi1ELi0ELin1ELi1EEENS_13CwiseBinaryOpINS0_13scalar_pow_opIS5_S5_EEKNS_12ArrayWrapperIS6_EESC_EENS0_9assign_opIS5_S5_EEEEvRT_RKT0_RKT1_, symObjAddr: 0x6242C, symBinAddr: 0x100064B10, symSize: 0xD8 }
  - { offset: 0xF60C, size: 0x8, addend: 0x0, symName: __ZN5Eigen8internal17resize_if_allowedINS_6MatrixINSt3__17complexIfEELin1ELi1ELi0ELin1ELi1EEENS_13CwiseBinaryOpINS0_13scalar_pow_opIS5_S5_EEKNS_12ArrayWrapperIS6_EESC_EES5_S5_EEvRT_RKT0_RKNS0_9assign_opIT1_T2_EE, symObjAddr: 0x62538, symBinAddr: 0x100064C1C, symSize: 0xF8 }
  - { offset: 0xFACC, size: 0x8, addend: 0x0, symName: __ZN5EigenL6lastp1E, symObjAddr: 0x6BE210, symBinAddr: 0x1000A8242, symSize: 0x0 }
  - { offset: 0xFAE5, size: 0x8, addend: 0x0, symName: __ZN5EigenL3allE, symObjAddr: 0x6BE213, symBinAddr: 0x1000A8245, symSize: 0x0 }
  - { offset: 0x36831, size: 0x8, addend: 0x0, symName: __ZN5EigenL3fixILi1EEE, symObjAddr: 0x6BE212, symBinAddr: 0x1000A8244, symSize: 0x0 }
  - { offset: 0x46BAC, size: 0x8, addend: 0x0, symName: __ZN5Eigen6numext4realIfEENS_8internal11real_retvalINS2_36global_math_functions_filtering_baseIT_vE4typeEE4typeERKS5_, symObjAddr: 0x21AB0, symBinAddr: 0x100024194, symSize: 0x24 }
  - { offset: 0x46BE3, size: 0x8, addend: 0x0, symName: __ZN5Eigen6numext4abs2INSt3__17complexIfEEEENS_8internal11abs2_retvalINS5_36global_math_functions_filtering_baseIT_vE4typeEE4typeERKS8_, symObjAddr: 0x224FC, symBinAddr: 0x100024BE0, symSize: 0x24 }
  - { offset: 0x46C1A, size: 0x8, addend: 0x0, symName: __ZN5Eigen6numext4swapIPNSt3__17complexIfEEEEvRT_S7_, symObjAddr: 0x32CF4, symBinAddr: 0x1000353D8, symSize: 0x2C }
  - { offset: 0x46C5C, size: 0x8, addend: 0x0, symName: __ZN5Eigen6numext4swapIlEEvRT_S3_, symObjAddr: 0x32D20, symBinAddr: 0x100035404, symSize: 0x2C }
  - { offset: 0x46D79, size: 0x8, addend: 0x0, symName: __ZN5Eigen6numext4realINSt3__17complexIfEEEENS_8internal11real_retvalINS5_36global_math_functions_filtering_baseIT_vE4typeEE4typeERKS8_, symObjAddr: 0x54FFC, symBinAddr: 0x1000576E0, symSize: 0x24 }
  - { offset: 0x46DB0, size: 0x8, addend: 0x0, symName: __ZN5Eigen6numext4imagINSt3__17complexIfEEEENS_8internal11imag_retvalINS5_36global_math_functions_filtering_baseIT_vE4typeEE4typeERKS8_, symObjAddr: 0x55020, symBinAddr: 0x100057704, symSize: 0x24 }
  - { offset: 0x46DE7, size: 0x8, addend: 0x0, symName: __ZN5Eigen6numext5hypotIfEENS_8internal12hypot_retvalINS2_36global_math_functions_filtering_baseIT_vE4typeEE4typeERKS5_SB_, symObjAddr: 0x55044, symBinAddr: 0x100057728, symSize: 0x2C }
  - { offset: 0x46E2D, size: 0x8, addend: 0x0, symName: __ZN5Eigen6numext5isinfIfEEbRKT_, symObjAddr: 0x55070, symBinAddr: 0x100057754, symSize: 0x28 }
  - { offset: 0x46E97, size: 0x8, addend: 0x0, symName: __ZN5Eigen6numext5isnanIfEEbRKT_, symObjAddr: 0x552C4, symBinAddr: 0x1000579A8, symSize: 0x28 }
  - { offset: 0x47007, size: 0x8, addend: 0x0, symName: __ZN5Eigen6numext4conjINSt3__17complexIfEEEENS_8internal11conj_retvalINS5_36global_math_functions_filtering_baseIT_vE4typeEE4typeERKS8_, symObjAddr: 0x5DA58, symBinAddr: 0x10006013C, symSize: 0x34 }
  - { offset: 0x4703E, size: 0x8, addend: 0x0, symName: __ZN5Eigen6numext3powINSt3__17complexIfEES4_EENS_8internal8pow_implIT_T0_Xaasr9NumTraitsIS7_EE9IsIntegersr9NumTraitsIS8_EE9IsIntegerEE11result_typeERKS7_RKS8_, symObjAddr: 0x62A84, symBinAddr: 0x100065168, symSize: 0x3C }
  - { offset: 0x470C0, size: 0x8, addend: 0x0, symName: __ZN5EigendvIiEEKNS_13CwiseBinaryOpINS_8internal18scalar_quotient_opINS2_18promote_scalar_argINSt3__17complexIfEET_Xsr5Eigen8internal14has_ReturnTypeINS_20ScalarBinaryOpTraitsIS8_S7_NS3_IS8_S7_EEEEEE5valueEE4typeES7_EEKNS2_19plain_constant_typeINS_12CwiseUnaryOpINS2_14scalar_cosh_opIS7_EEKNS_12ArrayWrapperINS_6MatrixIS7_Lin1ELi1ELi0ELin1ELi1EEEEEEESD_E4typeEKSO_EERKS8_RKNS_9ArrayBaseISO_EE, symObjAddr: 0x4D820, symBinAddr: 0x10004FF04, symSize: 0xAC }
  - { offset: 0x660B3, size: 0x8, addend: 0x0, symName: __ZNSt3__119piecewise_constructE, symObjAddr: 0x97F10, symBinAddr: 0x10009A940, symSize: 0x0 }
  - { offset: 0x66129, size: 0x8, addend: 0x0, symName: __ZNSt3__16ranges5__cpo9iter_moveE, symObjAddr: 0x98050, symBinAddr: 0x10009AA80, symSize: 0x0 }
  - { offset: 0x66853, size: 0x8, addend: 0x0, symName: __ZNSt3__16chronomiB8ne180100IxNS_5ratioILl1ELl1000000000EEExS3_EENS_11common_typeIJNS0_8durationIT_T0_EENS5_IT1_T2_EEEE4typeERKS8_RKSB_, symObjAddr: 0x3FE38, symBinAddr: 0x10004251C, symSize: 0x6C }
  - { offset: 0x668C0, size: 0x8, addend: 0x0, symName: __ZNSt3__16chronossB8ne180100IxNS_5ratioILl1ELl1000000000EEExS3_EEDaRKNS0_8durationIT_T0_EERKNS5_IT1_T2_EE, symObjAddr: 0x3FB5C, symBinAddr: 0x100042240, symSize: 0x8C }
  - { offset: 0x6692D, size: 0x8, addend: 0x0, symName: __ZNSt3__16chronossB8ne180100IxNS_5ratioILl1ELl1000000000EEExNS2_ILl1ELl1000000EEEEEDaRKNS0_8durationIT_T0_EERKNS6_IT1_T2_EE, symObjAddr: 0x3FFBC, symBinAddr: 0x1000426A0, symSize: 0x90 }
  - { offset: 0x669E5, size: 0x8, addend: 0x0, symName: __ZNSt3__16chronomiB8ne180100INS0_12steady_clockENS0_8durationIxNS_5ratioILl1ELl1000000000EEEEES6_EENS_11common_typeIJT0_T1_EE4typeERKNS0_10time_pointIT_S8_EERKNSC_ISD_S9_EE, symObjAddr: 0x3FAAC, symBinAddr: 0x100042190, symSize: 0x58 }
  - { offset: 0x66A3A, size: 0x8, addend: 0x0, symName: __ZNSt3__16chronoeqB8ne180100IxNS_5ratioILl1ELl1000000000EEExS3_EEbRKNS0_8durationIT_T0_EERKNS4_IT1_T2_EE, symObjAddr: 0x3FB04, symBinAddr: 0x1000421E8, symSize: 0x34 }
  - { offset: 0x66AE4, size: 0x8, addend: 0x0, symName: __ZNSt3__16chrono13duration_castB8ne180100INS0_8durationIxNS_5ratioILl1ELl1000000000EEEEExNS3_ILl1ELl1000000EEELi0EEET_RKNS2_IT0_T1_EE, symObjAddr: 0x40114, symBinAddr: 0x1000427F8, symSize: 0x30 }
  - { offset: 0x66B71, size: 0x8, addend: 0x0, symName: __ZNSt3__16chrono13duration_castB8ne180100INS0_8durationIxNS_5ratioILl1ELl1000000000EEEEExS4_Li0EEET_RKNS2_IT0_T1_EE, symObjAddr: 0x70230, symBinAddr: 0x100072914, symSize: 0x30 }
  - { offset: 0x6C710, size: 0x8, addend: 0x0, symName: __ZNSt3__17advanceB8ne180100IPfllvEEvRT_T0_, symObjAddr: 0x17780, symBinAddr: 0x100019E64, symSize: 0x38 }
  - { offset: 0x6DD22, size: 0x8, addend: 0x0, symName: __ZNSt3__117__cxx_atomic_loadB8ne180100IfEET_PKNS_22__cxx_atomic_base_implIS1_EENS_12memory_orderE, symObjAddr: 0x29DD8, symBinAddr: 0x10002C4BC, symSize: 0x80 }
  - { offset: 0x6E6A2, size: 0x8, addend: 0x0, symName: __ZNSt3__17advanceB8ne180100IPKfllvEEvRT_T0_, symObjAddr: 0x2DB8C, symBinAddr: 0x100030270, symSize: 0x38 }
  - { offset: 0x6E712, size: 0x8, addend: 0x0, symName: __ZNSt3__16__math3powB8ne180100IiiLi0EEENS_9__promoteIT_T0_vE4typeES3_S4_, symObjAddr: 0x2D784, symBinAddr: 0x10002FE68, symSize: 0x44 }
  - { offset: 0x6E76F, size: 0x8, addend: 0x0, symName: __ZNSt3__16__math4ceilB8ne180100Ef, symObjAddr: 0x151EC, symBinAddr: 0x1000178D0, symSize: 0x18 }
  - { offset: 0x6E79B, size: 0x8, addend: 0x0, symName: __ZNSt3__16__math5hypotB8ne180100Eff, symObjAddr: 0x1FE2C, symBinAddr: 0x100022510, symSize: 0x2C }
  - { offset: 0x6E7D5, size: 0x8, addend: 0x0, symName: __ZNSt3__16__math3powB8ne180100IiEEddd, symObjAddr: 0x2DC14, symBinAddr: 0x1000302F8, symSize: 0x2C }
  - { offset: 0x6E814, size: 0x8, addend: 0x0, symName: __ZNSt3__16__math4coshB8ne180100Ef, symObjAddr: 0x53340, symBinAddr: 0x100055A24, symSize: 0x24 }
  - { offset: 0x6E840, size: 0x8, addend: 0x0, symName: __ZNSt3__16__math3cosB8ne180100Ef, symObjAddr: 0x53364, symBinAddr: 0x100055A48, symSize: 0x24 }
  - { offset: 0x6E86C, size: 0x8, addend: 0x0, symName: __ZNSt3__16__math4sinhB8ne180100Ef, symObjAddr: 0x53388, symBinAddr: 0x100055A6C, symSize: 0x24 }
  - { offset: 0x6E898, size: 0x8, addend: 0x0, symName: __ZNSt3__16__math3sinB8ne180100Ef, symObjAddr: 0x533AC, symBinAddr: 0x100055A90, symSize: 0x24 }
  - { offset: 0x6E8C4, size: 0x8, addend: 0x0, symName: __ZNSt3__16__math3expB8ne180100Ef, symObjAddr: 0x541E8, symBinAddr: 0x1000568CC, symSize: 0x24 }
  - { offset: 0x6E8F0, size: 0x8, addend: 0x0, symName: __ZNSt3__16__math8copysignB8ne180100Eff, symObjAddr: 0x5420C, symBinAddr: 0x1000568F0, symSize: 0x4C }
  - { offset: 0x6E92A, size: 0x8, addend: 0x0, symName: __ZNSt3__16__math4sqrtB8ne180100Ef, symObjAddr: 0x5513C, symBinAddr: 0x100057820, symSize: 0x18 }
  - { offset: 0x6E956, size: 0x8, addend: 0x0, symName: __ZNSt3__16__math5isnanB8ne180100Ef, symObjAddr: 0x5532C, symBinAddr: 0x100057A10, symSize: 0x1C }
  - { offset: 0x6E982, size: 0x8, addend: 0x0, symName: __ZNSt3__16__math5isinfB8ne180100Ef, symObjAddr: 0x55394, symBinAddr: 0x100057A78, symSize: 0x28 }
  - { offset: 0x6E9AE, size: 0x8, addend: 0x0, symName: __ZNSt3__16__math3logB8ne180100Ef, symObjAddr: 0x5739C, symBinAddr: 0x100059A80, symSize: 0x24 }
  - { offset: 0x6E9DA, size: 0x8, addend: 0x0, symName: __ZNSt3__16__math5atan2B8ne180100Eff, symObjAddr: 0x573FC, symBinAddr: 0x100059AE0, symSize: 0x2C }
  - { offset: 0x6EA14, size: 0x8, addend: 0x0, symName: __ZNSt3__16__math7signbitB8ne180100IfLi0EEEbT_, symObjAddr: 0x57648, symBinAddr: 0x100059D2C, symSize: 0x24 }
  - { offset: 0x6EA4F, size: 0x8, addend: 0x0, symName: __ZNSt3__16__math3powB8ne180100Eff, symObjAddr: 0x70740, symBinAddr: 0x100072E24, symSize: 0x2C }
  - { offset: 0x6EA89, size: 0x8, addend: 0x0, symName: __ZNSt3__16__math5roundB8ne180100Ef, symObjAddr: 0x7CC04, symBinAddr: 0x10007F2E8, symSize: 0x20 }
  - { offset: 0x6F316, size: 0x8, addend: 0x0, symName: __ZNSt3__17advanceB8ne180100IPN5Eigen6MatrixINS_7complexIfEELin1ELi1ELi0ELin1ELi1EEEllvEEvRT_T0_, symObjAddr: 0x3401C, symBinAddr: 0x100036700, symSize: 0x38 }
  - { offset: 0x6F596, size: 0x8, addend: 0x0, symName: __ZNSt3__17advanceB8ne180100INS_16reverse_iteratorIPN5Eigen6MatrixINS_7complexIfEELin1ELi1ELi0ELin1ELi1EEEEEllvEEvRT_T0_, symObjAddr: 0x343D4, symBinAddr: 0x100036AB8, symSize: 0x38 }
  - { offset: 0x6F601, size: 0x8, addend: 0x0, symName: __ZNSt3__117__cxx_atomic_loadB8ne180100IjEET_PKNS_22__cxx_atomic_base_implIS1_EENS_12memory_orderE, symObjAddr: 0x360C0, symBinAddr: 0x1000387A4, symSize: 0x80 }
  - { offset: 0x6F990, size: 0x8, addend: 0x0, symName: __ZNSt3__17advanceB8ne180100IPNS_12basic_stringIcNS_11char_traitsIcEENS_9allocatorIcEEEEllvEEvRT_T0_, symObjAddr: 0x377C0, symBinAddr: 0x100039EA4, symSize: 0x38 }
  - { offset: 0x6FC10, size: 0x8, addend: 0x0, symName: __ZNSt3__17advanceB8ne180100INS_16reverse_iteratorIPNS_12basic_stringIcNS_11char_traitsIcEENS_9allocatorIcEEEEEEllvEEvRT_T0_, symObjAddr: 0x37B80, symBinAddr: 0x10003A264, symSize: 0x38 }
  - { offset: 0x6FC7B, size: 0x8, addend: 0x0, symName: __ZNSt3__17advanceB8ne180100IPKNS_12basic_stringIcNS_11char_traitsIcEENS_9allocatorIcEEEEllvEEvRT_T0_, symObjAddr: 0x3869C, symBinAddr: 0x10003AD80, symSize: 0x38 }
  - { offset: 0x700F5, size: 0x8, addend: 0x0, symName: __ZNSt3__117__cxx_atomic_loadB8ne180100IlEET_PKNS_22__cxx_atomic_base_implIS1_EENS_12memory_orderE, symObjAddr: 0x3FDB8, symBinAddr: 0x10004249C, symSize: 0x80 }
  - { offset: 0x70219, size: 0x8, addend: 0x0, symName: __ZNSt3__117__cxx_atomic_loadB8ne180100IhEET_PKNS_22__cxx_atomic_base_implIS1_EENS_12memory_orderE, symObjAddr: 0x43FC0, symBinAddr: 0x1000466A4, symSize: 0x80 }
  - { offset: 0x70276, size: 0x8, addend: 0x0, symName: __ZNSt3__117__cxx_atomic_loadB8ne180100ImEET_PKNS_22__cxx_atomic_base_implIS1_EENS_12memory_orderE, symObjAddr: 0x452EC, symBinAddr: 0x1000479D0, symSize: 0x80 }
  - { offset: 0x72DB9, size: 0x8, addend: 0x0, symName: __ZNSt3__17advanceB8ne180100IPNS_6futureIvEEllvEEvRT_T0_, symObjAddr: 0x64328, symBinAddr: 0x100066A0C, symSize: 0x38 }
  - { offset: 0x73039, size: 0x8, addend: 0x0, symName: __ZNSt3__17advanceB8ne180100INS_16reverse_iteratorIPNS_6futureIvEEEEllvEEvRT_T0_, symObjAddr: 0x6472C, symBinAddr: 0x100066E10, symSize: 0x38 }
  - { offset: 0x748C1, size: 0x8, addend: 0x0, symName: __ZNSt3__16copy_nB8ne180100IPKcmPcLi0EEET1_T_T0_S4_, symObjAddr: 0x6F548, symBinAddr: 0x100071C2C, symSize: 0x44 }
  - { offset: 0x74CAC, size: 0x8, addend: 0x0, symName: __ZNSt3__17advanceB8ne180100IPNS_4pairIiiEEllvEEvRT_T0_, symObjAddr: 0x71954, symBinAddr: 0x100074038, symSize: 0x38 }
  - { offset: 0x74F2C, size: 0x8, addend: 0x0, symName: __ZNSt3__17advanceB8ne180100INS_16reverse_iteratorIPNS_4pairIiiEEEEllvEEvRT_T0_, symObjAddr: 0x71D0C, symBinAddr: 0x1000743F0, symSize: 0x38 }
  - { offset: 0x74F97, size: 0x8, addend: 0x0, symName: __ZNSt3__17advanceB8ne180100INS_11__wrap_iterIPfEEllvEEvRT_T0_, symObjAddr: 0x72608, symBinAddr: 0x100074CEC, symSize: 0x38 }
  - { offset: 0x7501E, size: 0x8, addend: 0x0, symName: __ZNSt3__124__put_character_sequenceB8ne180100IcNS_11char_traitsIcEEEERNS_13basic_ostreamIT_T0_EES7_PKS4_m, symObjAddr: 0x73878, symBinAddr: 0x100075F5C, symSize: 0x1EC }
  - { offset: 0x79864, size: 0x8, addend: 0x0, symName: __ZNSt3__17advanceB8ne180100IPNS_4pairINS_6vectorIfNS_9allocatorIfEEEEfEEllvEEvRT_T0_, symObjAddr: 0x776F4, symBinAddr: 0x100079DD8, symSize: 0x38 }
  - { offset: 0x79AE4, size: 0x8, addend: 0x0, symName: __ZNSt3__17advanceB8ne180100INS_16reverse_iteratorIPNS_4pairINS_6vectorIfNS_9allocatorIfEEEEfEEEEllvEEvRT_T0_, symObjAddr: 0x77AF8, symBinAddr: 0x10007A1DC, symSize: 0x38 }
  - { offset: 0x79B50, size: 0x8, addend: 0x0, symName: '__ZNSt3__111__introsortINS_17_ClassicAlgPolicyERZZ2GPPFNS_6vectorIfNS_9allocatorIfEEEER5BoardERKN5Eigen6MatrixINS_7complexIfEELin1ELin1ELi0ELin1ELin1EEEiNS_12basic_stringIcNS_11char_traitsIcEENS3_IcEEEESL_ibdjbfbENK3$_0clEvEUlRNS_4pairIS5_fEESP_E_PSO_Lb0EEEvT1_ST_T0_NS_15iterator_traitsIST_E15difference_typeEb', symObjAddr: 0x78660, symBinAddr: 0x10007AD44, symSize: 0x434 }
  - { offset: 0x79C7C, size: 0x8, addend: 0x0, symName: '__ZNSt3__126__insertion_sort_unguardedB8ne180100INS_17_ClassicAlgPolicyERZZ2GPPFNS_6vectorIfNS_9allocatorIfEEEER5BoardERKN5Eigen6MatrixINS_7complexIfEELin1ELin1ELi0ELin1ELin1EEEiNS_12basic_stringIcNS_11char_traitsIcEENS3_IcEEEESL_ibdjbfbENK3$_0clEvEUlRNS_4pairIS5_fEESP_E_PSO_EEvT1_ST_T0_', symObjAddr: 0x78D68, symBinAddr: 0x10007B44C, symSize: 0x158 }
  - { offset: 0x79D58, size: 0x8, addend: 0x0, symName: '__ZNSt3__111__sift_downB8ne180100INS_17_ClassicAlgPolicyERZZ2GPPFNS_6vectorIfNS_9allocatorIfEEEER5BoardERKN5Eigen6MatrixINS_7complexIfEELin1ELin1ELi0ELin1ELin1EEEiNS_12basic_stringIcNS_11char_traitsIcEENS3_IcEEEESL_ibdjbfbENK3$_0clEvEUlRNS_4pairIS5_fEESP_E_PSO_EEvT1_OT0_NS_15iterator_traitsIST_E15difference_typeEST_', symObjAddr: 0x7A10C, symBinAddr: 0x10007C7F0, symSize: 0x244 }
  - { offset: 0x79E06, size: 0x8, addend: 0x0, symName: '__ZNSt3__117__floyd_sift_downB8ne180100INS_17_ClassicAlgPolicyERZZ2GPPFNS_6vectorIfNS_9allocatorIfEEEER5BoardERKN5Eigen6MatrixINS_7complexIfEELin1ELin1ELi0ELin1ELin1EEEiNS_12basic_stringIcNS_11char_traitsIcEENS3_IcEEEESL_ibdjbfbENK3$_0clEvEUlRNS_4pairIS5_fEESP_E_PSO_EET1_ST_OT0_NS_15iterator_traitsIST_E15difference_typeE', symObjAddr: 0x7A530, symBinAddr: 0x10007CC14, symSize: 0x100 }
  - { offset: 0x79E9F, size: 0x8, addend: 0x0, symName: '__ZNSt3__131__partition_with_equals_on_leftB8ne180100INS_17_ClassicAlgPolicyEPNS_4pairINS_6vectorIfNS_9allocatorIfEEEEfEERZZ2GPPFS6_R5BoardERKN5Eigen6MatrixINS_7complexIfEELin1ELin1ELi0ELin1ELin1EEEiNS_12basic_stringIcNS_11char_traitsIcEENS4_IcEEEESO_ibdjbfbENK3$_0clEvEUlRS7_SQ_E_EET0_ST_ST_T1_', symObjAddr: 0x790CC, symBinAddr: 0x10007B7B0, symSize: 0x250 }
  - { offset: 0x79F5D, size: 0x8, addend: 0x0, symName: '__ZNSt3__118__bitset_partitionB8ne180100INS_17_ClassicAlgPolicyEPNS_4pairINS_6vectorIfNS_9allocatorIfEEEEfEERZZ2GPPFS6_R5BoardERKN5Eigen6MatrixINS_7complexIfEELin1ELin1ELi0ELin1ELin1EEEiNS_12basic_stringIcNS_11char_traitsIcEENS4_IcEEEESO_ibdjbfbENK3$_0clEvEUlRS7_SQ_E_EENS2_IT0_bEEST_ST_T1_', symObjAddr: 0x7931C, symBinAddr: 0x10007BA00, symSize: 0x37C }
  - { offset: 0x7A059, size: 0x8, addend: 0x0, symName: __ZNSt3__124__swap_bitmap_pos_withinB8ne180100INS_17_ClassicAlgPolicyEPNS_4pairINS_6vectorIfNS_9allocatorIfEEEEfEEEEvRT0_SA_RySB_, symObjAddr: 0x7ACB8, symBinAddr: 0x10007D39C, symSize: 0x1E0 }
  - { offset: 0x7A127, size: 0x8, addend: 0x0, symName: '__ZNSt3__132__partition_with_equals_on_rightB8ne180100INS_17_ClassicAlgPolicyEPNS_4pairINS_6vectorIfNS_9allocatorIfEEEEfEERZZ2GPPFS6_R5BoardERKN5Eigen6MatrixINS_7complexIfEELin1ELin1ELi0ELin1ELin1EEEiNS_12basic_stringIcNS_11char_traitsIcEENS4_IcEEEESO_ibdjbfbENK3$_0clEvEUlRS7_SQ_E_EENS2_IT0_bEEST_ST_T1_', symObjAddr: 0x79698, symBinAddr: 0x10007BD7C, symSize: 0x260 }
  - { offset: 0x7A1F2, size: 0x8, addend: 0x0, symName: '__ZNSt3__127__insertion_sort_incompleteB8ne180100INS_17_ClassicAlgPolicyERZZ2GPPFNS_6vectorIfNS_9allocatorIfEEEER5BoardERKN5Eigen6MatrixINS_7complexIfEELin1ELin1ELi0ELin1ELin1EEEiNS_12basic_stringIcNS_11char_traitsIcEENS3_IcEEEESL_ibdjbfbENK3$_0clEvEUlRNS_4pairIS5_fEESP_E_PSO_EEbT1_ST_T0_', symObjAddr: 0x798F8, symBinAddr: 0x10007BFDC, symSize: 0x360 }
  - { offset: 0x8691C, size: 0x8, addend: 0x0, symName: __ZNSt3__17advanceB8ne180100IPNS_4pairINS_12basic_stringIcNS_11char_traitsIcEENS_9allocatorIcEEEEfEEllvEEvRT_T0_, symObjAddr: 0x89074, symBinAddr: 0x10008B758, symSize: 0x38 }
  - { offset: 0x86B9C, size: 0x8, addend: 0x0, symName: __ZNSt3__17advanceB8ne180100INS_16reverse_iteratorIPNS_4pairINS_12basic_stringIcNS_11char_traitsIcEENS_9allocatorIcEEEEfEEEEllvEEvRT_T0_, symObjAddr: 0x89478, symBinAddr: 0x10008BB5C, symSize: 0x38 }
  - { offset: 0x8CD8C, size: 0x8, addend: 0x0, symName: __ZNSt3__1plB8ne180100IcNS_11char_traitsIcEENS_9allocatorIcEEEENS_12basic_stringIT_T0_T1_EEOS9_PKS6_, symObjAddr: 0x220, symBinAddr: 0x100002904, symSize: 0x40 }
  - { offset: 0x8CDE4, size: 0x8, addend: 0x0, symName: __ZNSt3__1plB8ne180100IcNS_11char_traitsIcEENS_9allocatorIcEEEENS_12basic_stringIT_T0_T1_EEOS9_SA_, symObjAddr: 0x260, symBinAddr: 0x100002944, symSize: 0x40 }
  - { offset: 0x8CE3C, size: 0x8, addend: 0x0, symName: __ZNSt3__1plB8ne180100IcNS_11char_traitsIcEENS_9allocatorIcEEEENS_12basic_stringIT_T0_T1_EEPKS6_OS9_, symObjAddr: 0x2A0, symBinAddr: 0x100002984, symSize: 0x44 }
  - { offset: 0x8CE94, size: 0x8, addend: 0x0, symName: __ZNSt3__1eqB8ne180100IcNS_11char_traitsIcEENS_9allocatorIcEEEEbRKNS_12basic_stringIT_T0_T1_EEPKS6_, symObjAddr: 0x2880, symBinAddr: 0x100004F64, symSize: 0x5C }
  - { offset: 0x8CEEC, size: 0x8, addend: 0x0, symName: __ZNSt3__1neB8ne180100IPfEEbRKNS_11__wrap_iterIT_EES6_, symObjAddr: 0x2AD4, symBinAddr: 0x1000051B8, symSize: 0x34 }
  - { offset: 0x8CF2F, size: 0x8, addend: 0x0, symName: __ZNSt3__1lsB8ne180100INS_11char_traitsIcEEEERNS_13basic_ostreamIcT_EES6_c, symObjAddr: 0x4E38, symBinAddr: 0x10000751C, symSize: 0x34 }
  - { offset: 0x8CF75, size: 0x8, addend: 0x0, symName: __ZNSt3__1lsB8ne180100INS_11char_traitsIcEEEERNS_13basic_ostreamIcT_EES6_PKc, symObjAddr: 0x4E6C, symBinAddr: 0x100007550, symSize: 0x48 }
  - { offset: 0x8CFBB, size: 0x8, addend: 0x0, symName: __ZNSt3__1lsB8ne180100IcNS_11char_traitsIcEENS_9allocatorIcEEEERNS_13basic_ostreamIT_T0_EES9_RKNS_12basic_stringIS6_S7_T1_EE, symObjAddr: 0x4F00, symBinAddr: 0x1000075E4, symSize: 0x4C }
  - { offset: 0x8D013, size: 0x8, addend: 0x0, symName: __ZNSt3__112__to_addressB8ne180100IKcEEPT_S3_, symObjAddr: 0x6B3C, symBinAddr: 0x100009220, symSize: 0x14 }
  - { offset: 0x8D07B, size: 0x8, addend: 0x0, symName: __ZNSt3__119__libcpp_deallocateB8ne180100EPvmm, symObjAddr: 0x7B0C, symBinAddr: 0x10000A1F0, symSize: 0x60 }
  - { offset: 0x8D0E0, size: 0x8, addend: 0x0, symName: __ZNSt3__124__is_overaligned_for_newB8ne180100Em, symObjAddr: 0x7B6C, symBinAddr: 0x10000A250, symSize: 0x20 }
  - { offset: 0x8D10E, size: 0x8, addend: 0x0, symName: __ZNSt3__127__do_deallocate_handle_sizeB8ne180100IJSt11align_val_tEEEvPvmDpT_, symObjAddr: 0x7B8C, symBinAddr: 0x10000A270, symSize: 0x30 }
  - { offset: 0x8D161, size: 0x8, addend: 0x0, symName: __ZNSt3__127__do_deallocate_handle_sizeB8ne180100IJEEEvPvmDpT_, symObjAddr: 0x7BBC, symBinAddr: 0x10000A2A0, symSize: 0x28 }
  - { offset: 0x8D19F, size: 0x8, addend: 0x0, symName: __ZNSt3__124__libcpp_operator_deleteB8ne180100IJPvSt11align_val_tEEEvDpT_, symObjAddr: 0x7BE4, symBinAddr: 0x10000A2C8, symSize: 0x2C }
  - { offset: 0x8D1E8, size: 0x8, addend: 0x0, symName: __ZNSt3__124__libcpp_operator_deleteB8ne180100IJPvEEEvDpT_, symObjAddr: 0x7C10, symBinAddr: 0x10000A2F4, symSize: 0x24 }
  - { offset: 0x8D21D, size: 0x8, addend: 0x0, symName: __ZNSt3__112__to_addressB8ne180100INS_12basic_stringIcNS_11char_traitsIcEENS_9allocatorIcEEEEEEPT_S8_, symObjAddr: 0x806C, symBinAddr: 0x10000A750, symSize: 0x14 }
  - { offset: 0x8D252, size: 0x8, addend: 0x0, symName: __ZNSt3__112__destroy_atB8ne180100INS_12basic_stringIcNS_11char_traitsIcEENS_9allocatorIcEEEELi0EEEvPT_, symObjAddr: 0x8080, symBinAddr: 0x10000A764, symSize: 0x24 }
  - { offset: 0x8D289, size: 0x8, addend: 0x0, symName: __ZNSt3__112__to_addressB8ne180100IfEEPT_S2_, symObjAddr: 0x8430, symBinAddr: 0x10000AB14, symSize: 0x14 }
  - { offset: 0x8D2BF, size: 0x8, addend: 0x0, symName: __ZNSt3__112__destroy_atB8ne180100IfLi0EEEvPT_, symObjAddr: 0x8444, symBinAddr: 0x10000AB28, symSize: 0x10 }
  - { offset: 0x8D2F6, size: 0x8, addend: 0x0, symName: __ZNSt3__112__to_addressB8ne180100IN5Eigen6MatrixINS_7complexIfEELin1ELi1ELi0ELin1ELi1EEEEEPT_S7_, symObjAddr: 0x91F8, symBinAddr: 0x10000B8DC, symSize: 0x14 }
  - { offset: 0x8D32B, size: 0x8, addend: 0x0, symName: __ZNSt3__112__destroy_atB8ne180100IN5Eigen6MatrixINS_7complexIfEELin1ELi1ELi0ELin1ELi1EEELi0EEEvPT_, symObjAddr: 0x920C, symBinAddr: 0x10000B8F0, symSize: 0x24 }
  - { offset: 0x8D362, size: 0x8, addend: 0x0, symName: __ZNSt3__112__destroy_atB8ne180100INS_11__hash_nodeINS_17__hash_value_typeINS_12basic_stringIcNS_11char_traitsIcEENS_9allocatorIcEEEEN5Eigen6MatrixINS_7complexIfEELin1ELi1ELi0ELin1ELi1EEEEEPvEELi0EEEvPT_, symObjAddr: 0x9568, symBinAddr: 0x10000BC4C, symSize: 0x24 }
  - { offset: 0x8D3CC, size: 0x8, addend: 0x0, symName: __ZNSt3__112__destroy_atB8ne180100INS_4pairIKNS_12basic_stringIcNS_11char_traitsIcEENS_9allocatorIcEEEEN5Eigen6MatrixINS_7complexIfEELin1ELi1ELi0ELin1ELi1EEEEELi0EEEvPT_, symObjAddr: 0x960C, symBinAddr: 0x10000BCF0, symSize: 0x24 }
  - { offset: 0x8D403, size: 0x8, addend: 0x0, symName: __ZNSt3__17launderB8ne180100INS_4pairIKNS_12basic_stringIcNS_11char_traitsIcEENS_9allocatorIcEEEEN5Eigen6MatrixINS_7complexIfEELin1ELi1ELi0ELin1ELi1EEEEEEEPT_SG_, symObjAddr: 0x9654, symBinAddr: 0x10000BD38, symSize: 0x24 }
  - { offset: 0x8D43A, size: 0x8, addend: 0x0, symName: __ZNSt3__19__launderB8ne180100INS_4pairIKNS_12basic_stringIcNS_11char_traitsIcEENS_9allocatorIcEEEEN5Eigen6MatrixINS_7complexIfEELin1ELi1ELi0ELin1ELi1EEEEEEEPT_SG_, symObjAddr: 0x9678, symBinAddr: 0x10000BD5C, symSize: 0x14 }
  - { offset: 0x8D471, size: 0x8, addend: 0x0, symName: __ZNSt3__13minB8ne180100ImEERKT_S3_S3_, symObjAddr: 0x9D04, symBinAddr: 0x10000C3E8, symSize: 0x2C }
  - { offset: 0x8D6A0, size: 0x8, addend: 0x0, symName: __ZNSt3__13minB8ne180100ImNS_6__lessIvvEEEERKT_S5_S5_T0_, symObjAddr: 0x9D94, symBinAddr: 0x10000C478, symSize: 0x54 }
  - { offset: 0x8D7D3, size: 0x8, addend: 0x0, symName: __ZNSt3__120__throw_length_errorB8ne180100EPKc, symObjAddr: 0x9E78, symBinAddr: 0x10000C55C, symSize: 0x64 }
  - { offset: 0x8D7FB, size: 0x8, addend: 0x0, symName: __ZNSt3__119__allocate_at_leastB8ne180100INS_9allocatorIfEEEENS_19__allocation_resultINS_16allocator_traitsIT_E7pointerEEERS5_m, symObjAddr: 0xA064, symBinAddr: 0x10000C748, symSize: 0x40 }
  - { offset: 0x8D83E, size: 0x8, addend: 0x0, symName: __ZNSt3__117__libcpp_allocateB8ne180100Emm, symObjAddr: 0xA1E8, symBinAddr: 0x10000C8CC, symSize: 0x60 }
  - { offset: 0x8D898, size: 0x8, addend: 0x0, symName: __ZNSt3__121__libcpp_operator_newB8ne180100IJmSt11align_val_tEEEPvDpT_, symObjAddr: 0xA248, symBinAddr: 0x10000C92C, symSize: 0x2C }
  - { offset: 0x8D8E5, size: 0x8, addend: 0x0, symName: __ZNSt3__121__libcpp_operator_newB8ne180100IJmEEEPvDpT_, symObjAddr: 0xA274, symBinAddr: 0x10000C958, symSize: 0x24 }
  - { offset: 0x8D91E, size: 0x8, addend: 0x0, symName: __ZNSt3__142__uninitialized_allocator_move_if_noexceptB8ne180100INS_9allocatorIfEENS_16reverse_iteratorIPfEES5_fvEET1_RT_T0_S9_S6_, symObjAddr: 0xA310, symBinAddr: 0x10000C9F4, symSize: 0x78 }
  - { offset: 0x8D99B, size: 0x8, addend: 0x0, symName: __ZNSt3__14swapB8ne180100IPfEENS_9enable_ifIXaasr21is_move_constructibleIT_EE5valuesr18is_move_assignableIS3_EE5valueEvE4typeERS3_S6_, symObjAddr: 0xA3D4, symBinAddr: 0x10000CAB8, symSize: 0x3C }
  - { offset: 0x8D9EC, size: 0x8, addend: 0x0, symName: __ZNSt3__14moveB8ne180100INS_16reverse_iteratorIPfEES3_EET0_T_S5_S4_, symObjAddr: 0xA44C, symBinAddr: 0x10000CB30, symSize: 0x78 }
  - { offset: 0x8DA46, size: 0x8, addend: 0x0, symName: __ZNSt3__16__moveB8ne180100INS_17_ClassicAlgPolicyENS_16reverse_iteratorIPfEES4_S4_EENS_4pairIT0_T2_EES6_T1_S7_, symObjAddr: 0xA4C4, symBinAddr: 0x10000CBA8, symSize: 0x64 }
  - { offset: 0x8DAB2, size: 0x8, addend: 0x0, symName: __ZNSt3__123__dispatch_copy_or_moveB8ne180100INS_17_ClassicAlgPolicyENS_11__move_loopIS1_EENS_14__move_trivialENS_16reverse_iteratorIPfEES7_S7_EENS_4pairIT2_T4_EES9_T3_SA_, symObjAddr: 0xA528, symBinAddr: 0x10000CC0C, symSize: 0x64 }
  - { offset: 0x8DB30, size: 0x8, addend: 0x0, symName: __ZNSt3__121__unwrap_and_dispatchB8ne180100INS_10__overloadINS_11__move_loopINS_17_ClassicAlgPolicyEEENS_14__move_trivialEEENS_16reverse_iteratorIPfEES9_S9_Li0EEENS_4pairIT0_T2_EESB_T1_SC_, symObjAddr: 0xA58C, symBinAddr: 0x10000CC70, symSize: 0x12C }
  - { offset: 0x8DBC0, size: 0x8, addend: 0x0, symName: __ZNSt3__114__unwrap_rangeB8ne180100INS_16reverse_iteratorIPfEES3_EEDaT_T0_, symObjAddr: 0xA6B8, symBinAddr: 0x10000CD9C, symSize: 0x4C }
  - { offset: 0x8DD7A, size: 0x8, addend: 0x0, symName: __ZNSt3__113__unwrap_iterB8ne180100INS_16reverse_iteratorIPfEENS_18__unwrap_iter_implIS3_Lb0EEELi0EEEDTclsrT0_8__unwrapclsr3stdE7declvalIT_EEEES7_, symObjAddr: 0xA7A4, symBinAddr: 0x10000CE88, symSize: 0x44 }
  - { offset: 0x8DDBE, size: 0x8, addend: 0x0, symName: __ZNSt3__19make_pairB8ne180100INS_16reverse_iteratorIPfEES3_EENS_4pairINS_18__unwrap_ref_decayIT_E4typeENS5_IT0_E4typeEEEOS6_OS9_, symObjAddr: 0xA7E8, symBinAddr: 0x10000CECC, symSize: 0x38 }
  - { offset: 0x8DE0D, size: 0x8, addend: 0x0, symName: __ZNSt3__114__rewrap_rangeB8ne180100INS_16reverse_iteratorIPfEES3_S3_EET0_S4_T1_, symObjAddr: 0xA820, symBinAddr: 0x10000CF04, symSize: 0x5C }
  - { offset: 0x8DE62, size: 0x8, addend: 0x0, symName: __ZNSt3__113__rewrap_iterB8ne180100INS_16reverse_iteratorIPfEES3_NS_18__unwrap_iter_implIS3_Lb0EEEEET_S6_T0_, symObjAddr: 0xA87C, symBinAddr: 0x10000CF60, symSize: 0x74 }
  - { offset: 0x8DF07, size: 0x8, addend: 0x0, symName: __ZNSt3__1neB8ne180100IPfS1_EEbRKNS_16reverse_iteratorIT_EERKNS2_IT0_EE, symObjAddr: 0xA9E4, symBinAddr: 0x10000D0C8, symSize: 0x48 }
  - { offset: 0x8E148, size: 0x8, addend: 0x0, symName: __ZNSt3__119__allocate_at_leastB8ne180100INS_9allocatorIiEEEENS_19__allocation_resultINS_16allocator_traitsIT_E7pointerEEERS5_m, symObjAddr: 0xB390, symBinAddr: 0x10000DA74, symSize: 0x40 }
  - { offset: 0x8E18B, size: 0x8, addend: 0x0, symName: __ZNSt3__142__uninitialized_allocator_move_if_noexceptB8ne180100INS_9allocatorIiEENS_16reverse_iteratorIPiEES5_ivEET1_RT_T0_S9_S6_, symObjAddr: 0xB568, symBinAddr: 0x10000DC4C, symSize: 0x78 }
  - { offset: 0x8E208, size: 0x8, addend: 0x0, symName: __ZNSt3__14swapB8ne180100IPiEENS_9enable_ifIXaasr21is_move_constructibleIT_EE5valuesr18is_move_assignableIS3_EE5valueEvE4typeERS3_S6_, symObjAddr: 0xB62C, symBinAddr: 0x10000DD10, symSize: 0x3C }
  - { offset: 0x8E259, size: 0x8, addend: 0x0, symName: __ZNSt3__14moveB8ne180100INS_16reverse_iteratorIPiEES3_EET0_T_S5_S4_, symObjAddr: 0xB6A4, symBinAddr: 0x10000DD88, symSize: 0x78 }
  - { offset: 0x8E2B3, size: 0x8, addend: 0x0, symName: __ZNSt3__16__moveB8ne180100INS_17_ClassicAlgPolicyENS_16reverse_iteratorIPiEES4_S4_EENS_4pairIT0_T2_EES6_T1_S7_, symObjAddr: 0xB71C, symBinAddr: 0x10000DE00, symSize: 0x64 }
  - { offset: 0x8E31F, size: 0x8, addend: 0x0, symName: __ZNSt3__123__dispatch_copy_or_moveB8ne180100INS_17_ClassicAlgPolicyENS_11__move_loopIS1_EENS_14__move_trivialENS_16reverse_iteratorIPiEES7_S7_EENS_4pairIT2_T4_EES9_T3_SA_, symObjAddr: 0xB780, symBinAddr: 0x10000DE64, symSize: 0x64 }
  - { offset: 0x8E39D, size: 0x8, addend: 0x0, symName: __ZNSt3__121__unwrap_and_dispatchB8ne180100INS_10__overloadINS_11__move_loopINS_17_ClassicAlgPolicyEEENS_14__move_trivialEEENS_16reverse_iteratorIPiEES9_S9_Li0EEENS_4pairIT0_T2_EESB_T1_SC_, symObjAddr: 0xB7E4, symBinAddr: 0x10000DEC8, symSize: 0x12C }
  - { offset: 0x8E42D, size: 0x8, addend: 0x0, symName: __ZNSt3__114__unwrap_rangeB8ne180100INS_16reverse_iteratorIPiEES3_EEDaT_T0_, symObjAddr: 0xB910, symBinAddr: 0x10000DFF4, symSize: 0x4C }
  - { offset: 0x8E54D, size: 0x8, addend: 0x0, symName: __ZNSt3__113__unwrap_iterB8ne180100INS_16reverse_iteratorIPiEENS_18__unwrap_iter_implIS3_Lb0EEELi0EEEDTclsrT0_8__unwrapclsr3stdE7declvalIT_EEEES7_, symObjAddr: 0xB9FC, symBinAddr: 0x10000E0E0, symSize: 0x44 }
  - { offset: 0x8E591, size: 0x8, addend: 0x0, symName: __ZNSt3__19make_pairB8ne180100INS_16reverse_iteratorIPiEES3_EENS_4pairINS_18__unwrap_ref_decayIT_E4typeENS5_IT0_E4typeEEEOS6_OS9_, symObjAddr: 0xBA40, symBinAddr: 0x10000E124, symSize: 0x38 }
  - { offset: 0x8E5E0, size: 0x8, addend: 0x0, symName: __ZNSt3__114__rewrap_rangeB8ne180100INS_16reverse_iteratorIPiEES3_S3_EET0_S4_T1_, symObjAddr: 0xBA78, symBinAddr: 0x10000E15C, symSize: 0x5C }
  - { offset: 0x8E635, size: 0x8, addend: 0x0, symName: __ZNSt3__113__rewrap_iterB8ne180100INS_16reverse_iteratorIPiEES3_NS_18__unwrap_iter_implIS3_Lb0EEEEET_S6_T0_, symObjAddr: 0xBAD4, symBinAddr: 0x10000E1B8, symSize: 0x74 }
  - { offset: 0x8E6DA, size: 0x8, addend: 0x0, symName: __ZNSt3__1neB8ne180100IPiS1_EEbRKNS_16reverse_iteratorIT_EERKNS2_IT0_EE, symObjAddr: 0xBC3C, symBinAddr: 0x10000E320, symSize: 0x48 }
  - { offset: 0x8E779, size: 0x8, addend: 0x0, symName: __ZNSt3__112__to_addressB8ne180100IiEEPT_S2_, symObjAddr: 0xBFEC, symBinAddr: 0x10000E6D0, symSize: 0x14 }
  - { offset: 0x8E7AF, size: 0x8, addend: 0x0, symName: __ZNSt3__112__destroy_atB8ne180100IiLi0EEEvPT_, symObjAddr: 0xC000, symBinAddr: 0x10000E6E4, symSize: 0x10 }
  - { offset: 0x8E7E6, size: 0x8, addend: 0x0, symName: __ZNSt3__1eqB8ne180100IcNS_11char_traitsIcEEEEbNS_17basic_string_viewIT_T0_EENS_13type_identityIS6_E4typeE, symObjAddr: 0xC09C, symBinAddr: 0x10000E780, symSize: 0xB0 }
  - { offset: 0x8E835, size: 0x8, addend: 0x0, symName: __ZNSt3__128__char_traits_length_checkedB8ne180100INS_11char_traitsIcEEEEmPKNT_9char_typeE, symObjAddr: 0xC41C, symBinAddr: 0x10000EB00, symSize: 0x24 }
  - { offset: 0x8E86C, size: 0x8, addend: 0x0, symName: __ZNSt3__118__constexpr_strlenB8ne180100EPKc, symObjAddr: 0xC474, symBinAddr: 0x10000EB58, symSize: 0x24 }
  - { offset: 0x8E898, size: 0x8, addend: 0x0, symName: __ZNSt3__114__construct_atB8ne180100IfJRKfEPfEEPT_S5_DpOT0_, symObjAddr: 0xC6EC, symBinAddr: 0x10000EDD0, symSize: 0x2C }
  - { offset: 0x8E8EB, size: 0x8, addend: 0x0, symName: __ZNSt3__112construct_atB8ne180100IfJRKfEPfEEPT_S5_DpOT0_, symObjAddr: 0xC718, symBinAddr: 0x10000EDFC, symSize: 0x24 }
  - { offset: 0x8E93E, size: 0x8, addend: 0x0, symName: __ZNSt3__13maxB8ne180100ImEERKT_S3_S3_, symObjAddr: 0xC810, symBinAddr: 0x10000EEF4, symSize: 0x2C }
  - { offset: 0x8E981, size: 0x8, addend: 0x0, symName: __ZNSt3__13maxB8ne180100ImNS_6__lessIvvEEEERKT_S5_S5_T0_, symObjAddr: 0xC83C, symBinAddr: 0x10000EF20, symSize: 0x54 }
  - { offset: 0x8E9DB, size: 0x8, addend: 0x0, symName: __ZNSt3__1eqB8ne180100INS_9allocatorIcEEEEbRKNS_12basic_stringIcNS_11char_traitsIcEET_EES9_, symObjAddr: 0x13C04, symBinAddr: 0x1000162E8, symSize: 0x148 }
  - { offset: 0x8EA4E, size: 0x8, addend: 0x0, symName: __ZNSt3__114__construct_atB8ne180100IiJiEPiEEPT_S3_DpOT0_, symObjAddr: 0x14218, symBinAddr: 0x1000168FC, symSize: 0x2C }
  - { offset: 0x8EAA1, size: 0x8, addend: 0x0, symName: __ZNSt3__112construct_atB8ne180100IiJiEPiEEPT_S3_DpOT0_, symObjAddr: 0x14244, symBinAddr: 0x100016928, symSize: 0x24 }
  - { offset: 0x8EAF4, size: 0x8, addend: 0x0, symName: __ZNSt3__14findB8ne180100INS_11__wrap_iterIPfEEfEET_S4_S4_RKT0_, symObjAddr: 0x14580, symBinAddr: 0x100016C64, symSize: 0x78 }
  - { offset: 0x8EB5C, size: 0x8, addend: 0x0, symName: __ZNSt3__113__rewrap_iterB8ne180100INS_11__wrap_iterIPfEES2_NS_18__unwrap_iter_implIS3_Lb1EEEEET_S6_T0_, symObjAddr: 0x145F8, symBinAddr: 0x100016CDC, symSize: 0x4C }
  - { offset: 0x8EBB1, size: 0x8, addend: 0x0, symName: __ZNSt3__111__find_implB8ne180100IPfS1_fNS_10__identityEEET_S3_T0_RKT1_RT2_, symObjAddr: 0x14644, symBinAddr: 0x100016D28, symSize: 0x88 }
  - { offset: 0x8EC2B, size: 0x8, addend: 0x0, symName: __ZNSt3__113__unwrap_iterB8ne180100INS_11__wrap_iterIPfEENS_18__unwrap_iter_implIS3_Lb1EEELi0EEEDTclsrT0_8__unwrapclsr3stdE7declvalIT_EEEES7_, symObjAddr: 0x146CC, symBinAddr: 0x100016DB0, symSize: 0x2C }
  - { offset: 0x8ECC2, size: 0x8, addend: 0x0, symName: __ZNSt3__112__to_addressB8ne180100INS_11__wrap_iterIPfEEvEEu7__decayIDTclsr19__to_address_helperIT_EE6__callclsr3stdE7declvalIRKS4_EEEEES6_, symObjAddr: 0x14754, symBinAddr: 0x100016E38, symSize: 0x24 }
  - { offset: 0x8ED60, size: 0x8, addend: 0x0, symName: __ZNSt3__18__invokeB8ne180100IRNS_10__identityEJRfEEEDTclclsr3stdE7declvalIT_EEspclsr3stdE7declvalIT0_EEEEOS4_DpOS5_, symObjAddr: 0x147EC, symBinAddr: 0x100016ED0, symSize: 0x2C }
  - { offset: 0x8EE15, size: 0x8, addend: 0x0, symName: __ZNSt3__116forward_as_tupleB8ne180100IJRKfEEENS_5tupleIJDpOT_EEES6_, symObjAddr: 0x14D40, symBinAddr: 0x100017424, symSize: 0x2C }
  - { offset: 0x8EE4E, size: 0x8, addend: 0x0, symName: __ZNSt3__116forward_as_tupleB8ne180100IJEEENS_5tupleIJDpOT_EEES4_, symObjAddr: 0x14D6C, symBinAddr: 0x100017450, symSize: 0x4 }
  - { offset: 0x8EE72, size: 0x8, addend: 0x0, symName: __ZNSt3__116__constrain_hashB8ne180100Emm, symObjAddr: 0x14E44, symBinAddr: 0x100017528, symSize: 0x98 }
  - { offset: 0x8EEAC, size: 0x8, addend: 0x0, symName: __ZNSt3__116__is_hash_power2B8ne180100Em, symObjAddr: 0x1519C, symBinAddr: 0x100017880, symSize: 0x50 }
  - { offset: 0x8EED8, size: 0x8, addend: 0x0, symName: __ZNSt3__17launderB8ne180100IKNS_4pairIKfNS_12basic_stringIcNS_11char_traitsIcEENS_9allocatorIcEEEEEEEEPT_SC_, symObjAddr: 0x155BC, symBinAddr: 0x100017CA0, symSize: 0x24 }
  - { offset: 0x8EF0F, size: 0x8, addend: 0x0, symName: __ZNSt3__19__launderB8ne180100IKNS_4pairIKfNS_12basic_stringIcNS_11char_traitsIcEENS_9allocatorIcEEEEEEEEPT_SC_, symObjAddr: 0x155E0, symBinAddr: 0x100017CC4, symSize: 0x14 }
  - { offset: 0x8EF97, size: 0x8, addend: 0x0, symName: __ZNSt3__114__construct_atB8ne180100INS_11__hash_nodeINS_17__hash_value_typeIfNS_12basic_stringIcNS_11char_traitsIcEENS_9allocatorIcEEEEEEPvEEJDnRmEPSB_EEPT_SF_DpOT0_, symObjAddr: 0x156E0, symBinAddr: 0x100017DC4, symSize: 0x34 }
  - { offset: 0x8EFFD, size: 0x8, addend: 0x0, symName: __ZNSt3__112construct_atB8ne180100INS_11__hash_nodeINS_17__hash_value_typeIfNS_12basic_stringIcNS_11char_traitsIcEENS_9allocatorIcEEEEEEPvEEJDnRmEPSB_EEPT_SF_DpOT0_, symObjAddr: 0x159CC, symBinAddr: 0x1000180B0, symSize: 0x40 }
  - { offset: 0x8F063, size: 0x8, addend: 0x0, symName: __ZNSt3__114__construct_atB8ne180100INS_4pairIKfNS_12basic_stringIcNS_11char_traitsIcEENS_9allocatorIcEEEEEEJRKNS_21piecewise_construct_tENS_5tupleIJRS2_EEENSD_IJEEEEPS9_EEPT_SJ_DpOT0_, symObjAddr: 0x15AE0, symBinAddr: 0x1000181C4, symSize: 0x3C }
  - { offset: 0x8F0DC, size: 0x8, addend: 0x0, symName: __ZNSt3__112construct_atB8ne180100INS_4pairIKfNS_12basic_stringIcNS_11char_traitsIcEENS_9allocatorIcEEEEEEJRKNS_21piecewise_construct_tENS_5tupleIJRS2_EEENSD_IJEEEEPS9_EEPT_SJ_DpOT0_, symObjAddr: 0x15B1C, symBinAddr: 0x100018200, symSize: 0x48 }
  - { offset: 0x8F161, size: 0x8, addend: 0x0, symName: __ZNSt3__13getB8ne180100ILm0EJRKfEEERNS_13tuple_elementIXT_ENS_5tupleIJDpT0_EEEE4typeERS7_, symObjAddr: 0x15C30, symBinAddr: 0x100018314, symSize: 0x24 }
  - { offset: 0x8F1A4, size: 0x8, addend: 0x0, symName: __ZNSt3__116__next_hash_pow2B8ne180100Em, symObjAddr: 0x16134, symBinAddr: 0x100018818, symSize: 0x6C }
  - { offset: 0x8F1D0, size: 0x8, addend: 0x0, symName: __ZNSt3__112__libcpp_clzB8ne180100Em, symObjAddr: 0x164CC, symBinAddr: 0x100018BB0, symSize: 0x1C }
  - { offset: 0x8F1FC, size: 0x8, addend: 0x0, symName: __ZNSt3__112__destroy_atB8ne180100INS_11__hash_nodeINS_17__hash_value_typeIfNS_12basic_stringIcNS_11char_traitsIcEENS_9allocatorIcEEEEEEPvEELi0EEEvPT_, symObjAddr: 0x166A8, symBinAddr: 0x100018D8C, symSize: 0x24 }
  - { offset: 0x8F233, size: 0x8, addend: 0x0, symName: __ZNSt3__112__destroy_atB8ne180100INS_4pairIKfNS_12basic_stringIcNS_11char_traitsIcEENS_9allocatorIcEEEEEELi0EEEvPT_, symObjAddr: 0x16700, symBinAddr: 0x100018DE4, symSize: 0x24 }
  - { offset: 0x8F2C1, size: 0x8, addend: 0x0, symName: __ZNSt3__17launderB8ne180100INS_4pairIKfNS_12basic_stringIcNS_11char_traitsIcEENS_9allocatorIcEEEEEEEEPT_SB_, symObjAddr: 0x16960, symBinAddr: 0x100019044, symSize: 0x24 }
  - { offset: 0x8F2F8, size: 0x8, addend: 0x0, symName: __ZNSt3__19__launderB8ne180100INS_4pairIKfNS_12basic_stringIcNS_11char_traitsIcEENS_9allocatorIcEEEEEEEEPT_SB_, symObjAddr: 0x16984, symBinAddr: 0x100019068, symSize: 0x14 }
  - { offset: 0x8F32F, size: 0x8, addend: 0x0, symName: __ZNSt3__1miB8ne180100IPKfPfEEDTmicldtfp_4baseEcldtfp0_4baseEERKNS_11__wrap_iterIT_EERKNS5_IT0_EE, symObjAddr: 0x169E4, symBinAddr: 0x1000190C8, symSize: 0x48 }
  - { offset: 0x8F37B, size: 0x8, addend: 0x0, symName: __ZNSt3__1neB8ne180100IPKfEEbRKNS_11__wrap_iterIT_EES7_, symObjAddr: 0x16A2C, symBinAddr: 0x100019110, symSize: 0x34 }
  - { offset: 0x8F3BE, size: 0x8, addend: 0x0, symName: __ZNSt3__14moveB8ne180100IPfS1_EET0_T_S3_S2_, symObjAddr: 0x16A60, symBinAddr: 0x100019144, symSize: 0x40 }
  - { offset: 0x8F418, size: 0x8, addend: 0x0, symName: __ZNSt3__1miB8ne180100IPKfS2_EEDTmicldtfp_4baseEcldtfp0_4baseEERKNS_11__wrap_iterIT_EERKNS4_IT0_EE, symObjAddr: 0x16AA0, symBinAddr: 0x100019184, symSize: 0x48 }
  - { offset: 0x8F464, size: 0x8, addend: 0x0, symName: __ZNSt3__1eqB8ne180100IPKfEEbRKNS_11__wrap_iterIT_EES7_, symObjAddr: 0x16B30, symBinAddr: 0x100019214, symSize: 0x48 }
  - { offset: 0x8F4A7, size: 0x8, addend: 0x0, symName: __ZNSt3__16__moveB8ne180100INS_17_ClassicAlgPolicyEPfS2_S2_EENS_4pairIT0_T2_EES4_T1_S5_, symObjAddr: 0x16B78, symBinAddr: 0x10001925C, symSize: 0x44 }
  - { offset: 0x8F513, size: 0x8, addend: 0x0, symName: __ZNSt3__123__dispatch_copy_or_moveB8ne180100INS_17_ClassicAlgPolicyENS_11__move_loopIS1_EENS_14__move_trivialEPfS5_S5_EENS_4pairIT2_T4_EES7_T3_S8_, symObjAddr: 0x16BBC, symBinAddr: 0x1000192A0, symSize: 0x44 }
  - { offset: 0x8F591, size: 0x8, addend: 0x0, symName: __ZNSt3__121__unwrap_and_dispatchB8ne180100INS_10__overloadINS_11__move_loopINS_17_ClassicAlgPolicyEEENS_14__move_trivialEEEPfS7_S7_Li0EEENS_4pairIT0_T2_EES9_T1_SA_, symObjAddr: 0x16C00, symBinAddr: 0x1000192E4, symSize: 0xB4 }
  - { offset: 0x8F61F, size: 0x8, addend: 0x0, symName: __ZNSt3__114__unwrap_rangeB8ne180100IPfS1_EEDaT_T0_, symObjAddr: 0x16CB4, symBinAddr: 0x100019398, symSize: 0x3C }
  - { offset: 0x8F85B, size: 0x8, addend: 0x0, symName: __ZNSt3__113__unwrap_iterB8ne180100IPfNS_18__unwrap_iter_implIS1_Lb1EEELi0EEEDTclsrT0_8__unwrapclsr3stdE7declvalIT_EEEES5_, symObjAddr: 0x16D38, symBinAddr: 0x10001941C, symSize: 0x24 }
  - { offset: 0x8F89F, size: 0x8, addend: 0x0, symName: __ZNSt3__19make_pairB8ne180100IPfS1_EENS_4pairINS_18__unwrap_ref_decayIT_E4typeENS3_IT0_E4typeEEEOS4_OS7_, symObjAddr: 0x16D5C, symBinAddr: 0x100019440, symSize: 0x38 }
  - { offset: 0x8F8EE, size: 0x8, addend: 0x0, symName: __ZNSt3__114__rewrap_rangeB8ne180100IPfS1_S1_EET0_S2_T1_, symObjAddr: 0x16D94, symBinAddr: 0x100019478, symSize: 0x2C }
  - { offset: 0x8F943, size: 0x8, addend: 0x0, symName: __ZNSt3__113__rewrap_iterB8ne180100IPfS1_NS_18__unwrap_iter_implIS1_Lb1EEEEET_S4_T0_, symObjAddr: 0x16DC0, symBinAddr: 0x1000194A4, symSize: 0x3C }
  - { offset: 0x8F9E8, size: 0x8, addend: 0x0, symName: __ZNSt3__119__copy_trivial_implB8ne180100IffEENS_4pairIPT_PT0_EES3_S3_S5_, symObjAddr: 0x16EC4, symBinAddr: 0x1000195A8, symSize: 0x80 }
  - { offset: 0x8FA50, size: 0x8, addend: 0x0, symName: __ZNSt3__119__constexpr_memmoveB8ne180100IffLi0EEEPT_S2_PT0_NS_15__element_countE, symObjAddr: 0x16F44, symBinAddr: 0x100019628, symSize: 0x64 }
  - { offset: 0x8FABE, size: 0x8, addend: 0x0, symName: __ZNSt3__19make_pairB8ne180100IRPfS1_EENS_4pairINS_18__unwrap_ref_decayIT_E4typeENS4_IT0_E4typeEEEOS5_OS8_, symObjAddr: 0x16FA8, symBinAddr: 0x10001968C, symSize: 0x38 }
  - { offset: 0x8FB60, size: 0x8, addend: 0x0, symName: __ZNSt3__1eqB8ne180100IPfEEbRKNS_11__wrap_iterIT_EES6_, symObjAddr: 0x17288, symBinAddr: 0x10001996C, symSize: 0x48 }
  - { offset: 0x8FBA3, size: 0x8, addend: 0x0, symName: __ZNSt3__18distanceB8ne180100IPfEENS_15iterator_traitsIT_E15difference_typeES3_S3_, symObjAddr: 0x174D0, symBinAddr: 0x100019BB4, symSize: 0x2C }
  - { offset: 0x8FBE6, size: 0x8, addend: 0x0, symName: __ZNSt3__14nextB8ne180100IPfLi0EEET_S2_NS_15iterator_traitsIS2_E15difference_typeE, symObjAddr: 0x174FC, symBinAddr: 0x100019BE0, symSize: 0x34 }
  - { offset: 0x8FC2F, size: 0x8, addend: 0x0, symName: __ZNSt3__14copyB8ne180100IPfS1_EET0_T_S3_S2_, symObjAddr: 0x17530, symBinAddr: 0x100019C14, symSize: 0x40 }
  - { offset: 0x8FC89, size: 0x8, addend: 0x0, symName: __ZNSt3__16__copyB8ne180100INS_17_ClassicAlgPolicyEPfS2_S2_EENS_4pairIT0_T2_EES4_T1_S5_, symObjAddr: 0x175FC, symBinAddr: 0x100019CE0, symSize: 0x44 }
  - { offset: 0x8FCF5, size: 0x8, addend: 0x0, symName: __ZNSt3__121__convert_to_integralB8ne180100El, symObjAddr: 0x177B8, symBinAddr: 0x100019E9C, symSize: 0x14 }
  - { offset: 0x8FD22, size: 0x8, addend: 0x0, symName: __ZNSt3__19__advanceB8ne180100IPfEEvRT_NS_15iterator_traitsIS2_E15difference_typeENS_26random_access_iterator_tagE, symObjAddr: 0x177CC, symBinAddr: 0x100019EB0, symSize: 0x28 }
  - { offset: 0x8FD6C, size: 0x8, addend: 0x0, symName: __ZNSt3__130__uninitialized_allocator_copyB8ne180100INS_9allocatorIfEEPfS3_S3_EET2_RT_T0_T1_S4_, symObjAddr: 0x177F4, symBinAddr: 0x100019ED8, symSize: 0x80 }
  - { offset: 0x8FE09, size: 0x8, addend: 0x0, symName: __ZNSt3__135__uninitialized_allocator_copy_implB8ne180100INS_9allocatorIfEEfffLPv0EEEPT2_RT_PT0_S9_S5_, symObjAddr: 0x17874, symBinAddr: 0x100019F58, symSize: 0x38 }
  - { offset: 0x8FE8A, size: 0x8, addend: 0x0, symName: __ZNSt3__123__dispatch_copy_or_moveB8ne180100INS_17_ClassicAlgPolicyENS_11__copy_loopIS1_EENS_14__copy_trivialEPfS5_S5_EENS_4pairIT2_T4_EES7_T3_S8_, symObjAddr: 0x178AC, symBinAddr: 0x100019F90, symSize: 0x44 }
  - { offset: 0x8FF08, size: 0x8, addend: 0x0, symName: __ZNSt3__121__unwrap_and_dispatchB8ne180100INS_10__overloadINS_11__copy_loopINS_17_ClassicAlgPolicyEEENS_14__copy_trivialEEEPfS7_S7_Li0EEENS_4pairIT0_T2_EES9_T1_SA_, symObjAddr: 0x178F0, symBinAddr: 0x100019FD4, symSize: 0xB4 }
  - { offset: 0x90054, size: 0x8, addend: 0x0, symName: __ZNSt3__110__distanceB8ne180100IPfEENS_15iterator_traitsIT_E15difference_typeES3_S3_NS_26random_access_iterator_tagE, symObjAddr: 0x179EC, symBinAddr: 0x10001A0D0, symSize: 0x28 }
  - { offset: 0x900A2, size: 0x8, addend: 0x0, symName: __ZNSt3__122__make_exception_guardB8ne180100INS_6vectorINS_6threadENS_9allocatorIS2_EEE16__destroy_vectorEEENS_28__exception_guard_exceptionsIT_EES8_, symObjAddr: 0x1C908, symBinAddr: 0x10001EFEC, symSize: 0x40 }
  - { offset: 0x900D7, size: 0x8, addend: 0x0, symName: __ZNSt3__119__allocate_at_leastB8ne180100INS_9allocatorINS_6threadEEEEENS_19__allocation_resultINS_16allocator_traitsIT_E7pointerEEERS6_m, symObjAddr: 0x1CCF4, symBinAddr: 0x10001F3D8, symSize: 0x40 }
  - { offset: 0x9011A, size: 0x8, addend: 0x0, symName: __ZNSt3__112__to_addressB8ne180100INS_6threadEEEPT_S3_, symObjAddr: 0x1CF4C, symBinAddr: 0x10001F630, symSize: 0x14 }
  - { offset: 0x9014F, size: 0x8, addend: 0x0, symName: __ZNSt3__114__construct_atB8ne180100INS_6threadEJEPS1_EEPT_S4_DpOT0_, symObjAddr: 0x1CFD0, symBinAddr: 0x10001F6B4, symSize: 0x24 }
  - { offset: 0x9018E, size: 0x8, addend: 0x0, symName: __ZNSt3__112construct_atB8ne180100INS_6threadEJEPS1_EEPT_S4_DpOT0_, symObjAddr: 0x1CFF4, symBinAddr: 0x10001F6D8, symSize: 0x2C }
  - { offset: 0x901CD, size: 0x8, addend: 0x0, symName: __ZNSt3__112__destroy_atB8ne180100INS_6threadELi0EEEvPT_, symObjAddr: 0x1D2C4, symBinAddr: 0x10001F9A8, symSize: 0x24 }
  - { offset: 0x90204, size: 0x8, addend: 0x0, symName: __ZNSt3__122__libcpp_thread_isnullB8ne180100EPKP17_opaque_pthread_t, symObjAddr: 0x1D6B0, symBinAddr: 0x10001FD94, symSize: 0x30 }
  - { offset: 0x90232, size: 0x8, addend: 0x0, symName: __ZNSt3__122__libcpp_thread_get_idB8ne180100EPKP17_opaque_pthread_t, symObjAddr: 0x1D6E0, symBinAddr: 0x10001FDC4, symSize: 0x18 }
  - { offset: 0x90260, size: 0x8, addend: 0x0, symName: __ZNSt3__122__make_exception_guardB8ne180100INS_6vectorIfNS_9allocatorIfEEE16__destroy_vectorEEENS_28__exception_guard_exceptionsIT_EES7_, symObjAddr: 0x1D858, symBinAddr: 0x10001FF3C, symSize: 0x40 }
  - { offset: 0x90295, size: 0x8, addend: 0x0, symName: __ZNSt3__130__uninitialized_allocator_copyB8ne180100INS_9allocatorIfEEPKfS4_PfEET2_RT_T0_T1_S6_, symObjAddr: 0x1DA14, symBinAddr: 0x1000200F8, symSize: 0x80 }
  - { offset: 0x90332, size: 0x8, addend: 0x0, symName: __ZNSt3__114__unwrap_rangeB8ne180100IPKfS2_EEDaT_T0_, symObjAddr: 0x1DA94, symBinAddr: 0x100020178, symSize: 0x3C }
  - { offset: 0x9037E, size: 0x8, addend: 0x0, symName: __ZNSt3__135__uninitialized_allocator_copy_implB8ne180100INS_9allocatorIfEEKfffLPv0EEEPT2_RT_PT0_SA_S6_, symObjAddr: 0x1DAD0, symBinAddr: 0x1000201B4, symSize: 0x38 }
  - { offset: 0x9051B, size: 0x8, addend: 0x0, symName: __ZNSt3__113__unwrap_iterB8ne180100IPKfNS_18__unwrap_iter_implIS2_Lb1EEELi0EEEDTclsrT0_8__unwrapclsr3stdE7declvalIT_EEEES6_, symObjAddr: 0x1DB60, symBinAddr: 0x100020244, symSize: 0x24 }
  - { offset: 0x905B2, size: 0x8, addend: 0x0, symName: __ZNSt3__112__to_addressB8ne180100IKfEEPT_S3_, symObjAddr: 0x1DBE4, symBinAddr: 0x1000202C8, symSize: 0x14 }
  - { offset: 0x905E7, size: 0x8, addend: 0x0, symName: __ZNSt3__14copyB8ne180100IPKfPfEET0_T_S5_S4_, symObjAddr: 0x1DC2C, symBinAddr: 0x100020310, symSize: 0x40 }
  - { offset: 0x90641, size: 0x8, addend: 0x0, symName: __ZNSt3__16__copyB8ne180100INS_17_ClassicAlgPolicyEPKfS3_PfEENS_4pairIT0_T2_EES6_T1_S7_, symObjAddr: 0x1DC6C, symBinAddr: 0x100020350, symSize: 0x44 }
  - { offset: 0x906AD, size: 0x8, addend: 0x0, symName: __ZNSt3__123__dispatch_copy_or_moveB8ne180100INS_17_ClassicAlgPolicyENS_11__copy_loopIS1_EENS_14__copy_trivialEPKfS6_PfEENS_4pairIT2_T4_EES9_T3_SA_, symObjAddr: 0x1DCB0, symBinAddr: 0x100020394, symSize: 0x44 }
  - { offset: 0x9072B, size: 0x8, addend: 0x0, symName: __ZNSt3__121__unwrap_and_dispatchB8ne180100INS_10__overloadINS_11__copy_loopINS_17_ClassicAlgPolicyEEENS_14__copy_trivialEEEPKfS8_PfLi0EEENS_4pairIT0_T2_EESB_T1_SC_, symObjAddr: 0x1DCF4, symBinAddr: 0x1000203D8, symSize: 0xB4 }
  - { offset: 0x908BC, size: 0x8, addend: 0x0, symName: __ZNSt3__19make_pairB8ne180100IPKfPfEENS_4pairINS_18__unwrap_ref_decayIT_E4typeENS5_IT0_E4typeEEEOS6_OS9_, symObjAddr: 0x1DDF0, symBinAddr: 0x1000204D4, symSize: 0x38 }
  - { offset: 0x9090B, size: 0x8, addend: 0x0, symName: __ZNSt3__114__rewrap_rangeB8ne180100IPKfS2_S2_EET0_S3_T1_, symObjAddr: 0x1DE28, symBinAddr: 0x10002050C, symSize: 0x2C }
  - { offset: 0x90960, size: 0x8, addend: 0x0, symName: __ZNSt3__119__copy_trivial_implB8ne180100IKffEENS_4pairIPT_PT0_EES4_S4_S6_, symObjAddr: 0x1DE54, symBinAddr: 0x100020538, symSize: 0x80 }
  - { offset: 0x909C8, size: 0x8, addend: 0x0, symName: __ZNSt3__119__constexpr_memmoveB8ne180100IfKfLi0EEEPT_S3_PT0_NS_15__element_countE, symObjAddr: 0x1DED4, symBinAddr: 0x1000205B8, symSize: 0x64 }
  - { offset: 0x90A36, size: 0x8, addend: 0x0, symName: __ZNSt3__19make_pairB8ne180100IRPKfPfEENS_4pairINS_18__unwrap_ref_decayIT_E4typeENS6_IT0_E4typeEEEOS7_OSA_, symObjAddr: 0x1DF38, symBinAddr: 0x10002061C, symSize: 0x38 }
  - { offset: 0x90A85, size: 0x8, addend: 0x0, symName: __ZNSt3__113__rewrap_iterB8ne180100IPKfS2_NS_18__unwrap_iter_implIS2_Lb1EEEEET_S5_T0_, symObjAddr: 0x1E07C, symBinAddr: 0x100020760, symSize: 0x3C }
  - { offset: 0x90ADA, size: 0x8, addend: 0x0, symName: __ZNSt3__118generate_canonicalB8ne180100IfLm24ENS_23mersenne_twister_engineIjLm32ELm624ELm397ELm31ELj2567483615ELm11ELj4294967295ELm7ELj2636928640ELm15ELj4022730752ELm18ELj1812433253EEEEET_RT1_, symObjAddr: 0x1EDA0, symBinAddr: 0x100021484, symSize: 0x118 }
  - { offset: 0x90BA0, size: 0x8, addend: 0x0, symName: __ZNSt3__13absB8ne180100IfEET_RKNS_7complexIS1_EE, symObjAddr: 0x1FDF0, symBinAddr: 0x1000224D4, symSize: 0x3C }
  - { offset: 0x90BD7, size: 0x8, addend: 0x0, symName: __ZNSt3__13maxB8ne180100IfEERKT_S3_S3_, symObjAddr: 0x1FFB4, symBinAddr: 0x100022698, symSize: 0x2C }
  - { offset: 0x90C1A, size: 0x8, addend: 0x0, symName: __ZNSt3__13maxB8ne180100IfNS_6__lessIvvEEEERKT_S5_S5_T0_, symObjAddr: 0x1FFE0, symBinAddr: 0x1000226C4, symSize: 0x54 }
  - { offset: 0x90C74, size: 0x8, addend: 0x0, symName: __ZNSt3__1miB8ne180100IfEENS_7complexIT_EERKS3_S5_, symObjAddr: 0x216DC, symBinAddr: 0x100023DC0, symSize: 0x40 }
  - { offset: 0x90D55, size: 0x8, addend: 0x0, symName: __ZNSt3__118__cxx_atomic_storeB8ne180100IhEEvPNS_22__cxx_atomic_base_implIT_EES2_NS_12memory_orderE, symObjAddr: 0x23390, symBinAddr: 0x100025A74, symSize: 0x84 }
  - { offset: 0x90E32, size: 0x8, addend: 0x0, symName: __ZNSt3__112__destroy_atB8ne180100INS_11__hash_nodeINS_17__hash_value_typeINS_12basic_stringIcNS_11char_traitsIcEENS_9allocatorIcEEEEfEEPvEELi0EEEvPT_, symObjAddr: 0x24CD8, symBinAddr: 0x1000273BC, symSize: 0x24 }
  - { offset: 0x90E9C, size: 0x8, addend: 0x0, symName: __ZNSt3__112__destroy_atB8ne180100INS_4pairIKNS_12basic_stringIcNS_11char_traitsIcEENS_9allocatorIcEEEEfEELi0EEEvPT_, symObjAddr: 0x24D7C, symBinAddr: 0x100027460, symSize: 0x24 }
  - { offset: 0x90ED3, size: 0x8, addend: 0x0, symName: __ZNSt3__17launderB8ne180100INS_4pairIKNS_12basic_stringIcNS_11char_traitsIcEENS_9allocatorIcEEEEfEEEEPT_SB_, symObjAddr: 0x24E1C, symBinAddr: 0x100027500, symSize: 0x24 }
  - { offset: 0x90F0A, size: 0x8, addend: 0x0, symName: __ZNSt3__19__launderB8ne180100INS_4pairIKNS_12basic_stringIcNS_11char_traitsIcEENS_9allocatorIcEEEEfEEEEPT_SB_, symObjAddr: 0x24E40, symBinAddr: 0x100027524, symSize: 0x14 }
  - { offset: 0x90F41, size: 0x8, addend: 0x0, symName: __ZNSt3__112__destroy_atB8ne180100INS_11__hash_nodeINS_17__hash_value_typeIbNS_13unordered_mapIbNS3_IbNS_6vectorIfNS_9allocatorIfEEEENS_4hashIbEENS_8equal_toIbEENS5_INS_4pairIKbS7_EEEEEES9_SB_NS5_INSC_ISD_SG_EEEEEEEEPvEELi0EEEvPT_, symObjAddr: 0x259D0, symBinAddr: 0x1000280B4, symSize: 0x24 }
  - { offset: 0x90FAB, size: 0x8, addend: 0x0, symName: __ZNSt3__112__destroy_atB8ne180100INS_4pairIKbNS_13unordered_mapIbNS3_IbNS_6vectorIfNS_9allocatorIfEEEENS_4hashIbEENS_8equal_toIbEENS5_INS1_IS2_S7_EEEEEES9_SB_NS5_INS1_IS2_SE_EEEEEEEELi0EEEvPT_, symObjAddr: 0x25A74, symBinAddr: 0x100028158, symSize: 0x24 }
  - { offset: 0x90FE2, size: 0x8, addend: 0x0, symName: __ZNSt3__112__destroy_atB8ne180100INS_11__hash_nodeINS_17__hash_value_typeIbNS_13unordered_mapIbNS_6vectorIfNS_9allocatorIfEEEENS_4hashIbEENS_8equal_toIbEENS5_INS_4pairIKbS7_EEEEEEEEPvEELi0EEEvPT_, symObjAddr: 0x25D80, symBinAddr: 0x100028464, symSize: 0x24 }
  - { offset: 0x9104C, size: 0x8, addend: 0x0, symName: __ZNSt3__112__destroy_atB8ne180100INS_4pairIKbNS_13unordered_mapIbNS_6vectorIfNS_9allocatorIfEEEENS_4hashIbEENS_8equal_toIbEENS5_INS1_IS2_S7_EEEEEEEELi0EEEvPT_, symObjAddr: 0x25E24, symBinAddr: 0x100028508, symSize: 0x24 }
  - { offset: 0x91083, size: 0x8, addend: 0x0, symName: __ZNSt3__112__destroy_atB8ne180100INS_11__hash_nodeINS_17__hash_value_typeIbNS_6vectorIfNS_9allocatorIfEEEEEEPvEELi0EEEvPT_, symObjAddr: 0x26130, symBinAddr: 0x100028814, symSize: 0x24 }
  - { offset: 0x910ED, size: 0x8, addend: 0x0, symName: __ZNSt3__112__destroy_atB8ne180100INS_4pairIKbNS_6vectorIfNS_9allocatorIfEEEEEELi0EEEvPT_, symObjAddr: 0x261D4, symBinAddr: 0x1000288B8, symSize: 0x24 }
  - { offset: 0x91124, size: 0x8, addend: 0x0, symName: __ZNSt3__17launderB8ne180100INS_4pairIKbNS_6vectorIfNS_9allocatorIfEEEEEEEEPT_S9_, symObjAddr: 0x26278, symBinAddr: 0x10002895C, symSize: 0x24 }
  - { offset: 0x9115B, size: 0x8, addend: 0x0, symName: __ZNSt3__19__launderB8ne180100INS_4pairIKbNS_6vectorIfNS_9allocatorIfEEEEEEEEPT_S9_, symObjAddr: 0x2629C, symBinAddr: 0x100028980, symSize: 0x14 }
  - { offset: 0x91192, size: 0x8, addend: 0x0, symName: __ZNSt3__17launderB8ne180100INS_4pairIKbNS_13unordered_mapIbNS_6vectorIfNS_9allocatorIfEEEENS_4hashIbEENS_8equal_toIbEENS5_INS1_IS2_S7_EEEEEEEEEEPT_SH_, symObjAddr: 0x265EC, symBinAddr: 0x100028CD0, symSize: 0x24 }
  - { offset: 0x911C9, size: 0x8, addend: 0x0, symName: __ZNSt3__19__launderB8ne180100INS_4pairIKbNS_13unordered_mapIbNS_6vectorIfNS_9allocatorIfEEEENS_4hashIbEENS_8equal_toIbEENS5_INS1_IS2_S7_EEEEEEEEEEPT_SH_, symObjAddr: 0x26610, symBinAddr: 0x100028CF4, symSize: 0x14 }
  - { offset: 0x91200, size: 0x8, addend: 0x0, symName: __ZNSt3__17launderB8ne180100INS_4pairIKbNS_13unordered_mapIbNS3_IbNS_6vectorIfNS_9allocatorIfEEEENS_4hashIbEENS_8equal_toIbEENS5_INS1_IS2_S7_EEEEEES9_SB_NS5_INS1_IS2_SE_EEEEEEEEEEPT_SK_, symObjAddr: 0x2695C, symBinAddr: 0x100029040, symSize: 0x24 }
  - { offset: 0x91237, size: 0x8, addend: 0x0, symName: __ZNSt3__19__launderB8ne180100INS_4pairIKbNS_13unordered_mapIbNS3_IbNS_6vectorIfNS_9allocatorIfEEEENS_4hashIbEENS_8equal_toIbEENS5_INS1_IS2_S7_EEEEEES9_SB_NS5_INS1_IS2_SE_EEEEEEEEEEPT_SK_, symObjAddr: 0x26980, symBinAddr: 0x100029064, symSize: 0x14 }
  - { offset: 0x9126E, size: 0x8, addend: 0x0, symName: __ZNSt3__116forward_as_tupleB8ne180100IJRKNS_12basic_stringIcNS_11char_traitsIcEENS_9allocatorIcEEEEEEENS_5tupleIJDpOT_EEESC_, symObjAddr: 0x27174, symBinAddr: 0x100029858, symSize: 0x2C }
  - { offset: 0x912A7, size: 0x8, addend: 0x0, symName: __ZNSt3__116__do_string_hashB8ne180100IPKcEEmT_S3_, symObjAddr: 0x276C0, symBinAddr: 0x100029DA4, symSize: 0x3C }
  - { offset: 0x912ED, size: 0x8, addend: 0x0, symName: __ZNSt3__110__loadwordB8ne180100ImEET_PKv, symObjAddr: 0x280BC, symBinAddr: 0x10002A7A0, symSize: 0x20 }
  - { offset: 0x91330, size: 0x8, addend: 0x0, symName: __ZNSt3__14swapB8ne180100ImEENS_9enable_ifIXaasr21is_move_constructibleIT_EE5valuesr18is_move_assignableIS2_EE5valueEvE4typeERS2_S5_, symObjAddr: 0x28278, symBinAddr: 0x10002A95C, symSize: 0x3C }
  - { offset: 0x91381, size: 0x8, addend: 0x0, symName: __ZNSt3__110__loadwordB8ne180100IjEET_PKv, symObjAddr: 0x28308, symBinAddr: 0x10002A9EC, symSize: 0x20 }
  - { offset: 0x913C4, size: 0x8, addend: 0x0, symName: __ZNSt3__17launderB8ne180100IKNS_4pairIKNS_12basic_stringIcNS_11char_traitsIcEENS_9allocatorIcEEEEfEEEEPT_SC_, symObjAddr: 0x285E4, symBinAddr: 0x10002ACC8, symSize: 0x24 }
  - { offset: 0x913FB, size: 0x8, addend: 0x0, symName: __ZNSt3__19__launderB8ne180100IKNS_4pairIKNS_12basic_stringIcNS_11char_traitsIcEENS_9allocatorIcEEEEfEEEEPT_SC_, symObjAddr: 0x28608, symBinAddr: 0x10002ACEC, symSize: 0x14 }
  - { offset: 0x91450, size: 0x8, addend: 0x0, symName: __ZNSt3__114__construct_atB8ne180100INS_11__hash_nodeINS_17__hash_value_typeINS_12basic_stringIcNS_11char_traitsIcEENS_9allocatorIcEEEEfEEPvEEJDnRmEPSB_EEPT_SF_DpOT0_, symObjAddr: 0x286CC, symBinAddr: 0x10002ADB0, symSize: 0x34 }
  - { offset: 0x914B6, size: 0x8, addend: 0x0, symName: __ZNSt3__112construct_atB8ne180100INS_11__hash_nodeINS_17__hash_value_typeINS_12basic_stringIcNS_11char_traitsIcEENS_9allocatorIcEEEEfEEPvEEJDnRmEPSB_EEPT_SF_DpOT0_, symObjAddr: 0x2895C, symBinAddr: 0x10002B040, symSize: 0x40 }
  - { offset: 0x9151C, size: 0x8, addend: 0x0, symName: __ZNSt3__114__construct_atB8ne180100INS_4pairIKNS_12basic_stringIcNS_11char_traitsIcEENS_9allocatorIcEEEEfEEJRKNS_21piecewise_construct_tENS_5tupleIJRS8_EEENSD_IJEEEEPS9_EEPT_SJ_DpOT0_, symObjAddr: 0x28A70, symBinAddr: 0x10002B154, symSize: 0x3C }
  - { offset: 0x91595, size: 0x8, addend: 0x0, symName: __ZNSt3__112construct_atB8ne180100INS_4pairIKNS_12basic_stringIcNS_11char_traitsIcEENS_9allocatorIcEEEEfEEJRKNS_21piecewise_construct_tENS_5tupleIJRS8_EEENSD_IJEEEEPS9_EEPT_SJ_DpOT0_, symObjAddr: 0x28AAC, symBinAddr: 0x10002B190, symSize: 0x48 }
  - { offset: 0x9160E, size: 0x8, addend: 0x0, symName: __ZNSt3__13getB8ne180100ILm0EJRKNS_12basic_stringIcNS_11char_traitsIcEENS_9allocatorIcEEEEEEERNS_13tuple_elementIXT_ENS_5tupleIJDpT0_EEEE4typeERSD_, symObjAddr: 0x28BB8, symBinAddr: 0x10002B29C, symSize: 0x24 }
  - { offset: 0x91699, size: 0x8, addend: 0x0, symName: __ZNSt3__116forward_as_tupleB8ne180100IJNS_12basic_stringIcNS_11char_traitsIcEENS_9allocatorIcEEEEEEENS_5tupleIJDpOT_EEESA_, symObjAddr: 0x2997C, symBinAddr: 0x10002C060, symSize: 0x2C }
  - { offset: 0x916D2, size: 0x8, addend: 0x0, symName: __ZNSt3__114__construct_atB8ne180100INS_4pairIKNS_12basic_stringIcNS_11char_traitsIcEENS_9allocatorIcEEEEfEEJRKNS_21piecewise_construct_tENS_5tupleIJOS7_EEENSD_IJEEEEPS9_EEPT_SJ_DpOT0_, symObjAddr: 0x29B30, symBinAddr: 0x10002C214, symSize: 0x3C }
  - { offset: 0x9174B, size: 0x8, addend: 0x0, symName: __ZNSt3__112construct_atB8ne180100INS_4pairIKNS_12basic_stringIcNS_11char_traitsIcEENS_9allocatorIcEEEEfEEJRKNS_21piecewise_construct_tENS_5tupleIJOS7_EEENSD_IJEEEEPS9_EEPT_SJ_DpOT0_, symObjAddr: 0x29B6C, symBinAddr: 0x10002C250, symSize: 0x48 }
  - { offset: 0x917C4, size: 0x8, addend: 0x0, symName: __ZNSt3__13getB8ne180100ILm0EJONS_12basic_stringIcNS_11char_traitsIcEENS_9allocatorIcEEEEEEERNS_13tuple_elementIXT_ENS_5tupleIJDpT0_EEEE4typeERSC_, symObjAddr: 0x29C80, symBinAddr: 0x10002C364, symSize: 0x24 }
  - { offset: 0x91C33, size: 0x8, addend: 0x0, symName: __ZNSt3__122__libcpp_thread_createB8ne180100EPP17_opaque_pthread_tPFPvS3_ES3_, symObjAddr: 0x2A044, symBinAddr: 0x10002C728, symSize: 0x38 }
  - { offset: 0x91C80, size: 0x8, addend: 0x0, symName: '__ZNSt3__114__thread_proxyB8ne180100INS_5tupleIJNS_10unique_ptrINS_15__thread_structENS_14default_deleteIS3_EEEEZ18SimulatedAnnealingPFNS_6vectorIfNS_9allocatorIfEEEER5BoardERKN5Eigen6MatrixINS_7complexIfEELin1ELin1ELi0ELin1ELin1EEEiNS_12basic_stringIcNS_11char_traitsIcEENS8_IcEEEESQ_ibdjbfbE3$_0EEEEEPvST_', symObjAddr: 0x2A07C, symBinAddr: 0x10002C760, symSize: 0x90 }
  - { offset: 0x91DC5, size: 0x8, addend: 0x0, symName: '__ZNSt3__13getB8ne180100ILm0EJNS_10unique_ptrINS_15__thread_structENS_14default_deleteIS2_EEEEZ18SimulatedAnnealingPFNS_6vectorIfNS_9allocatorIfEEEER5BoardERKN5Eigen6MatrixINS_7complexIfEELin1ELin1ELi0ELin1ELin1EEEiNS_12basic_stringIcNS_11char_traitsIcEENS7_IcEEEESP_ibdjbfbE3$_0EEERNS_13tuple_elementIXT_ENS_5tupleIJDpT0_EEEE4typeERSV_', symObjAddr: 0x2A744, symBinAddr: 0x10002CE28, symSize: 0x24 }
  - { offset: 0x91E0E, size: 0x8, addend: 0x0, symName: '__ZNSt3__116__thread_executeB8ne180100INS_10unique_ptrINS_15__thread_structENS_14default_deleteIS2_EEEEZ18SimulatedAnnealingPFNS_6vectorIfNS_9allocatorIfEEEER5BoardERKN5Eigen6MatrixINS_7complexIfEELin1ELin1ELi0ELin1ELin1EEEiNS_12basic_stringIcNS_11char_traitsIcEENS7_IcEEEESP_ibdjbfbE3$_0JEJEEEvRNS_5tupleIJT_T0_DpT1_EEENS_15__tuple_indicesIJXspT2_EEEE', symObjAddr: 0x2A768, symBinAddr: 0x10002CE4C, symSize: 0x28 }
  - { offset: 0x91E5D, size: 0x8, addend: 0x0, symName: __ZNSt3__116__libcpp_tls_setB8ne180100EmPv, symObjAddr: 0x2A790, symBinAddr: 0x10002CE74, symSize: 0x2C }
  - { offset: 0x91E9B, size: 0x8, addend: 0x0, symName: '__ZNSt3__18__invokeB8ne180100IZ18SimulatedAnnealingPFNS_6vectorIfNS_9allocatorIfEEEER5BoardERKN5Eigen6MatrixINS_7complexIfEELin1ELin1ELi0ELin1ELin1EEEiNS_12basic_stringIcNS_11char_traitsIcEENS2_IcEEEESK_ibdjbfbE3$_0JEEEDTclclsr3stdE7declvalIT_EEspclsr3stdE7declvalIT0_EEEEOSM_DpOSN_', symObjAddr: 0x2A7D0, symBinAddr: 0x10002CEB4, symSize: 0x24 }
  - { offset: 0x91ED4, size: 0x8, addend: 0x0, symName: '__ZNSt3__13getB8ne180100ILm1EJNS_10unique_ptrINS_15__thread_structENS_14default_deleteIS2_EEEEZ18SimulatedAnnealingPFNS_6vectorIfNS_9allocatorIfEEEER5BoardERKN5Eigen6MatrixINS_7complexIfEELin1ELin1ELi0ELin1ELin1EEEiNS_12basic_stringIcNS_11char_traitsIcEENS7_IcEEEESP_ibdjbfbE3$_0EEERNS_13tuple_elementIXT_ENS_5tupleIJDpT0_EEEE4typeERSV_', symObjAddr: 0x2A7F4, symBinAddr: 0x10002CED8, symSize: 0x28 }
  - { offset: 0x91F1C, size: 0x8, addend: 0x0, symName: __ZNSt3__13minB8ne180100IfEERKT_S3_S3_, symObjAddr: 0x2CF34, symBinAddr: 0x10002F618, symSize: 0x2C }
  - { offset: 0x91F5F, size: 0x8, addend: 0x0, symName: __ZNSt3__19call_onceB8ne180100IZN5BoardC1EPFNS_6vectorIfNS_9allocatorIfEEEERS1_EbiRKNS_12basic_stringIcNS_11char_traitsIcEENS3_IcEEEESD_iRKN5Eigen6MatrixINS_7complexIfEELin1ELin1ELi0ELin1ELin1EEEbbbfbEUlvE_JEEEvRNS_9once_flagEOT_DpOT0_, symObjAddr: 0x2D7C8, symBinAddr: 0x10002FEAC, symSize: 0x70 }
  - { offset: 0x91FD8, size: 0x8, addend: 0x0, symName: __ZNSt3__18distanceB8ne180100IPKfEENS_15iterator_traitsIT_E15difference_typeES4_S4_, symObjAddr: 0x2DB2C, symBinAddr: 0x100030210, symSize: 0x2C }
  - { offset: 0x9201B, size: 0x8, addend: 0x0, symName: __ZNSt3__14nextB8ne180100IPKfLi0EEET_S3_NS_15iterator_traitsIS3_E15difference_typeE, symObjAddr: 0x2DB58, symBinAddr: 0x10003023C, symSize: 0x34 }
  - { offset: 0x92065, size: 0x8, addend: 0x0, symName: __ZNSt3__19__advanceB8ne180100IPKfEEvRT_NS_15iterator_traitsIS3_E15difference_typeENS_26random_access_iterator_tagE, symObjAddr: 0x2DBC4, symBinAddr: 0x1000302A8, symSize: 0x28 }
  - { offset: 0x920AF, size: 0x8, addend: 0x0, symName: __ZNSt3__110__distanceB8ne180100IPKfEENS_15iterator_traitsIT_E15difference_typeES4_S4_NS_26random_access_iterator_tagE, symObjAddr: 0x2DBEC, symBinAddr: 0x1000302D0, symSize: 0x28 }
  - { offset: 0x920FD, size: 0x8, addend: 0x0, symName: __ZNSt3__121__libcpp_acquire_loadB8ne180100ImEET_PKS1_, symObjAddr: 0x2DC40, symBinAddr: 0x100030324, symSize: 0x20 }
  - { offset: 0x92132, size: 0x8, addend: 0x0, symName: __ZNSt3__117__call_once_proxyB8ne180100INS_5tupleIJOZN5BoardC1EPFNS_6vectorIfNS_9allocatorIfEEEERS2_EbiRKNS_12basic_stringIcNS_11char_traitsIcEENS4_IcEEEESE_iRKN5Eigen6MatrixINS_7complexIfEELin1ELin1ELi0ELin1ELin1EEEbbbfbEUlvE_EEEEEvPv, symObjAddr: 0x2DCC8, symBinAddr: 0x1000303AC, symSize: 0x2C }
  - { offset: 0x92186, size: 0x8, addend: 0x0, symName: __ZNSt3__18__invokeB8ne180100IZN5BoardC1EPFNS_6vectorIfNS_9allocatorIfEEEERS1_EbiRKNS_12basic_stringIcNS_11char_traitsIcEENS3_IcEEEESD_iRKN5Eigen6MatrixINS_7complexIfEELin1ELin1ELi0ELin1ELin1EEEbbbfbEUlvE_JEEEDTclclsr3stdE7declvalIT_EEspclsr3stdE7declvalIT0_EEEEOSO_DpOSP_, symObjAddr: 0x2DE20, symBinAddr: 0x100030504, symSize: 0x24 }
  - { offset: 0x921BE, size: 0x8, addend: 0x0, symName: __ZNSt3__13getB8ne180100ILm0EJOZN5BoardC1EPFNS_6vectorIfNS_9allocatorIfEEEERS1_EbiRKNS_12basic_stringIcNS_11char_traitsIcEENS3_IcEEEESD_iRKN5Eigen6MatrixINS_7complexIfEELin1ELin1ELi0ELin1ELin1EEEbbbfbEUlvE_EEEONS_13tuple_elementIXT_ENS_5tupleIJDpT0_EEEE4typeEOST_, symObjAddr: 0x2DE44, symBinAddr: 0x100030528, symSize: 0x24 }
  - { offset: 0x92201, size: 0x8, addend: 0x0, symName: __ZNSt3__1neB8ne180100IPNS_12basic_stringIcNS_11char_traitsIcEENS_9allocatorIcEEEEEEbRKNS_11__wrap_iterIT_EESC_, symObjAddr: 0x300F8, symBinAddr: 0x1000327DC, symSize: 0x34 }
  - { offset: 0x92244, size: 0x8, addend: 0x0, symName: __ZNSt3__16removeB8ne180100INS_11__wrap_iterIPfEEfEET_S4_S4_RKT0_, symObjAddr: 0x30510, symBinAddr: 0x100032BF4, symSize: 0x108 }
  - { offset: 0x922BA, size: 0x8, addend: 0x0, symName: __ZNSt3__17launderB8ne180100IKNS_4pairIKNS_12basic_stringIcNS_11char_traitsIcEENS_9allocatorIcEEEEN5Eigen6MatrixINS_7complexIfEELin1ELi1ELi0ELin1ELi1EEEEEEEPT_SH_, symObjAddr: 0x31E7C, symBinAddr: 0x100034560, symSize: 0x24 }
  - { offset: 0x922F1, size: 0x8, addend: 0x0, symName: __ZNSt3__19__launderB8ne180100IKNS_4pairIKNS_12basic_stringIcNS_11char_traitsIcEENS_9allocatorIcEEEEN5Eigen6MatrixINS_7complexIfEELin1ELi1ELi0ELin1ELi1EEEEEEEPT_SH_, symObjAddr: 0x31EA0, symBinAddr: 0x100034584, symSize: 0x14 }
  - { offset: 0x92346, size: 0x8, addend: 0x0, symName: __ZNSt3__114__construct_atB8ne180100INS_11__hash_nodeINS_17__hash_value_typeINS_12basic_stringIcNS_11char_traitsIcEENS_9allocatorIcEEEEN5Eigen6MatrixINS_7complexIfEELin1ELi1ELi0ELin1ELi1EEEEEPvEEJDnRmEPSG_EEPT_SK_DpOT0_, symObjAddr: 0x31F64, symBinAddr: 0x100034648, symSize: 0x34 }
  - { offset: 0x923AC, size: 0x8, addend: 0x0, symName: __ZNSt3__112construct_atB8ne180100INS_11__hash_nodeINS_17__hash_value_typeINS_12basic_stringIcNS_11char_traitsIcEENS_9allocatorIcEEEEN5Eigen6MatrixINS_7complexIfEELin1ELi1ELi0ELin1ELi1EEEEEPvEEJDnRmEPSG_EEPT_SK_DpOT0_, symObjAddr: 0x321F4, symBinAddr: 0x1000348D8, symSize: 0x40 }
  - { offset: 0x92412, size: 0x8, addend: 0x0, symName: __ZNSt3__114__construct_atB8ne180100INS_4pairIKNS_12basic_stringIcNS_11char_traitsIcEENS_9allocatorIcEEEEN5Eigen6MatrixINS_7complexIfEELin1ELi1ELi0ELin1ELi1EEEEEJRKNS_21piecewise_construct_tENS_5tupleIJOS7_EEENSI_IJEEEEPSE_EEPT_SO_DpOT0_, symObjAddr: 0x32308, symBinAddr: 0x1000349EC, symSize: 0x3C }
  - { offset: 0x9248B, size: 0x8, addend: 0x0, symName: __ZNSt3__112construct_atB8ne180100INS_4pairIKNS_12basic_stringIcNS_11char_traitsIcEENS_9allocatorIcEEEEN5Eigen6MatrixINS_7complexIfEELin1ELi1ELi0ELin1ELi1EEEEEJRKNS_21piecewise_construct_tENS_5tupleIJOS7_EEENSI_IJEEEEPSE_EEPT_SO_DpOT0_, symObjAddr: 0x32344, symBinAddr: 0x100034A28, symSize: 0x48 }
  - { offset: 0x92537, size: 0x8, addend: 0x0, symName: __ZNSt3__14swapB8ne180100IPNS_7complexIfEEEENS_9enable_ifIXaasr21is_move_constructibleIT_EE5valuesr18is_move_assignableIS5_EE5valueEvE4typeERS5_S8_, symObjAddr: 0x32D4C, symBinAddr: 0x100035430, symSize: 0x3C }
  - { offset: 0x92588, size: 0x8, addend: 0x0, symName: __ZNSt3__14swapB8ne180100IlEENS_9enable_ifIXaasr21is_move_constructibleIT_EE5valuesr18is_move_assignableIS2_EE5valueEvE4typeERS2_S5_, symObjAddr: 0x32D88, symBinAddr: 0x10003546C, symSize: 0x3C }
  - { offset: 0x925D9, size: 0x8, addend: 0x0, symName: __ZNSt3__114__construct_atB8ne180100IN5Eigen6MatrixINS_7complexIfEELin1ELi1ELi0ELin1ELi1EEEJEPS5_EEPT_S8_DpOT0_, symObjAddr: 0x334D4, symBinAddr: 0x100035BB8, symSize: 0x24 }
  - { offset: 0x92618, size: 0x8, addend: 0x0, symName: __ZNSt3__112construct_atB8ne180100IN5Eigen6MatrixINS_7complexIfEELin1ELi1ELi0ELin1ELi1EEEJEPS5_EEPT_S8_DpOT0_, symObjAddr: 0x334F8, symBinAddr: 0x100035BDC, symSize: 0x2C }
  - { offset: 0x92657, size: 0x8, addend: 0x0, symName: __ZNSt3__119__allocate_at_leastB8ne180100INS_9allocatorIN5Eigen6MatrixINS_7complexIfEELin1ELi1ELi0ELin1ELi1EEEEEEENS_19__allocation_resultINS_16allocator_traitsIT_E7pointerEEERSA_m, symObjAddr: 0x33758, symBinAddr: 0x100035E3C, symSize: 0x40 }
  - { offset: 0x9269A, size: 0x8, addend: 0x0, symName: __ZNSt3__142__uninitialized_allocator_move_if_noexceptB8ne180100INS_9allocatorIN5Eigen6MatrixINS_7complexIfEELin1ELi1ELi0ELin1ELi1EEEEENS_16reverse_iteratorIPS6_EESA_SA_EET2_RT_T0_T1_SB_, symObjAddr: 0x339D8, symBinAddr: 0x1000360BC, symSize: 0x12C }
  - { offset: 0x9273A, size: 0x8, addend: 0x0, symName: __ZNSt3__14swapB8ne180100IPN5Eigen6MatrixINS_7complexIfEELin1ELi1ELi0ELin1ELi1EEEEENS_9enable_ifIXaasr21is_move_constructibleIT_EE5valuesr18is_move_assignableIS8_EE5valueEvE4typeERS8_SB_, symObjAddr: 0x33B50, symBinAddr: 0x100036234, symSize: 0x3C }
  - { offset: 0x9278B, size: 0x8, addend: 0x0, symName: __ZNSt3__122__make_exception_guardB8ne180100INS_29_AllocatorDestroyRangeReverseINS_9allocatorIN5Eigen6MatrixINS_7complexIfEELin1ELi1ELi0ELin1ELi1EEEEENS_16reverse_iteratorIPS7_EEEEEENS_28__exception_guard_exceptionsIT_EESE_, symObjAddr: 0x33BA0, symBinAddr: 0x100036284, symSize: 0x4C }
  - { offset: 0x927C1, size: 0x8, addend: 0x0, symName: __ZNSt3__1neB8ne180100IPN5Eigen6MatrixINS_7complexIfEELin1ELi1ELi0ELin1ELi1EEES6_EEbRKNS_16reverse_iteratorIT_EERKNS7_IT0_EE, symObjAddr: 0x33C30, symBinAddr: 0x100036314, symSize: 0x48 }
  - { offset: 0x9280D, size: 0x8, addend: 0x0, symName: __ZNSt3__112__to_addressB8ne180100INS_16reverse_iteratorIPN5Eigen6MatrixINS_7complexIfEELin1ELi1ELi0ELin1ELi1EEEEEvEEu7__decayIDTclsr19__to_address_helperIT_EE6__callclsr3stdE7declvalIRKS9_EEEEESB_, symObjAddr: 0x33CA8, symBinAddr: 0x10003638C, symSize: 0x24 }
  - { offset: 0x92843, size: 0x8, addend: 0x0, symName: __ZNSt3__114__construct_atB8ne180100IN5Eigen6MatrixINS_7complexIfEELin1ELi1ELi0ELin1ELi1EEEJS5_EPS5_EEPT_S8_DpOT0_, symObjAddr: 0x33DF8, symBinAddr: 0x1000364DC, symSize: 0x2C }
  - { offset: 0x92896, size: 0x8, addend: 0x0, symName: __ZNSt3__112construct_atB8ne180100IN5Eigen6MatrixINS_7complexIfEELin1ELi1ELi0ELin1ELi1EEEJS5_EPS5_EEPT_S8_DpOT0_, symObjAddr: 0x33E24, symBinAddr: 0x100036508, symSize: 0x34 }
  - { offset: 0x92913, size: 0x8, addend: 0x0, symName: __ZNSt3__14prevB8ne180100IPN5Eigen6MatrixINS_7complexIfEELin1ELi1ELi0ELin1ELi1EEELi0EEET_S7_NS_15iterator_traitsIS7_E15difference_typeE, symObjAddr: 0x33FE0, symBinAddr: 0x1000366C4, symSize: 0x3C }
  - { offset: 0x9295D, size: 0x8, addend: 0x0, symName: __ZNSt3__19__advanceB8ne180100IPN5Eigen6MatrixINS_7complexIfEELin1ELi1ELi0ELin1ELi1EEEEEvRT_NS_15iterator_traitsIS7_E15difference_typeENS_26random_access_iterator_tagE, symObjAddr: 0x34054, symBinAddr: 0x100036738, symSize: 0x28 }
  - { offset: 0x929A7, size: 0x8, addend: 0x0, symName: __ZNSt3__119__allocator_destroyB8ne180100INS_9allocatorIN5Eigen6MatrixINS_7complexIfEELin1ELi1ELi0ELin1ELi1EEEEENS_16reverse_iteratorINS8_IPS6_EEEESB_EEvRT_T0_T1_, symObjAddr: 0x34180, symBinAddr: 0x100036864, symSize: 0x70 }
  - { offset: 0x92A0C, size: 0x8, addend: 0x0, symName: __ZNSt3__1neB8ne180100INS_16reverse_iteratorIPN5Eigen6MatrixINS_7complexIfEELin1ELi1ELi0ELin1ELi1EEEEES8_EEbRKNS1_IT_EERKNS1_IT0_EE, symObjAddr: 0x3422C, symBinAddr: 0x100036910, symSize: 0x60 }
  - { offset: 0x92A58, size: 0x8, addend: 0x0, symName: __ZNSt3__112__to_addressB8ne180100INS_16reverse_iteratorINS1_IPN5Eigen6MatrixINS_7complexIfEELin1ELi1ELi0ELin1ELi1EEEEEEEvEEu7__decayIDTclsr19__to_address_helperIT_EE6__callclsr3stdE7declvalIRKSA_EEEEESC_, symObjAddr: 0x3428C, symBinAddr: 0x100036970, symSize: 0x24 }
  - { offset: 0x92AB8, size: 0x8, addend: 0x0, symName: __ZNSt3__14prevB8ne180100INS_16reverse_iteratorIPN5Eigen6MatrixINS_7complexIfEELin1ELi1ELi0ELin1ELi1EEEEELi0EEET_S9_NS_15iterator_traitsIS9_E15difference_typeE, symObjAddr: 0x34388, symBinAddr: 0x100036A6C, symSize: 0x4C }
  - { offset: 0x92B01, size: 0x8, addend: 0x0, symName: __ZNSt3__19__advanceB8ne180100INS_16reverse_iteratorIPN5Eigen6MatrixINS_7complexIfEELin1ELi1ELi0ELin1ELi1EEEEEEEvRT_NS_15iterator_traitsIS9_E15difference_typeENS_26random_access_iterator_tagE, symObjAddr: 0x3440C, symBinAddr: 0x100036AF0, symSize: 0x2C }
  - { offset: 0x92B4B, size: 0x8, addend: 0x0, symName: __ZNSt3__134__cxx_atomic_compare_exchange_weakB8ne180100IjEEbPNS_22__cxx_atomic_base_implIT_EEPS2_S2_NS_12memory_orderES6_, symObjAddr: 0x36140, symBinAddr: 0x100038824, symSize: 0x640 }
  - { offset: 0x92BBE, size: 0x8, addend: 0x0, symName: __ZNSt3__118__to_failure_orderB8ne180100ENS_12memory_orderE, symObjAddr: 0x36794, symBinAddr: 0x100038E78, symSize: 0x6C }
  - { offset: 0x92BEC, size: 0x8, addend: 0x0, symName: __ZNSt3__118__cxx_atomic_storeB8ne180100ImEEvPNS_22__cxx_atomic_base_implIT_EES2_NS_12memory_orderE, symObjAddr: 0x369D8, symBinAddr: 0x1000390BC, symSize: 0x84 }
  - { offset: 0x92C3D, size: 0x8, addend: 0x0, symName: __ZNSt3__118__cxx_atomic_storeB8ne180100IjEEvPNS_22__cxx_atomic_base_implIT_EES2_NS_12memory_orderE, symObjAddr: 0x36BDC, symBinAddr: 0x1000392C0, symSize: 0x84 }
  - { offset: 0x92C8E, size: 0x8, addend: 0x0, symName: __ZNSt3__119__allocate_at_leastB8ne180100INS_9allocatorINS_12basic_stringIcNS_11char_traitsIcEENS1_IcEEEEEEEENS_19__allocation_resultINS_16allocator_traitsIT_E7pointerEEERSA_m, symObjAddr: 0x37090, symBinAddr: 0x100039774, symSize: 0x40 }
  - { offset: 0x92CD1, size: 0x8, addend: 0x0, symName: __ZNSt3__142__uninitialized_allocator_move_if_noexceptB8ne180100INS_9allocatorINS_12basic_stringIcNS_11char_traitsIcEENS1_IcEEEEEENS_16reverse_iteratorIPS6_EESA_SA_EET2_RT_T0_T1_SB_, symObjAddr: 0x37278, symBinAddr: 0x10003995C, symSize: 0x12C }
  - { offset: 0x92D71, size: 0x8, addend: 0x0, symName: __ZNSt3__14swapB8ne180100IPNS_12basic_stringIcNS_11char_traitsIcEENS_9allocatorIcEEEEEENS_9enable_ifIXaasr21is_move_constructibleIT_EE5valuesr18is_move_assignableIS9_EE5valueEvE4typeERS9_SC_, symObjAddr: 0x373F0, symBinAddr: 0x100039AD4, symSize: 0x3C }
  - { offset: 0x92DC2, size: 0x8, addend: 0x0, symName: __ZNSt3__122__make_exception_guardB8ne180100INS_29_AllocatorDestroyRangeReverseINS_9allocatorINS_12basic_stringIcNS_11char_traitsIcEENS2_IcEEEEEENS_16reverse_iteratorIPS7_EEEEEENS_28__exception_guard_exceptionsIT_EESE_, symObjAddr: 0x37468, symBinAddr: 0x100039B4C, symSize: 0x4C }
  - { offset: 0x92DF8, size: 0x8, addend: 0x0, symName: __ZNSt3__1neB8ne180100IPNS_12basic_stringIcNS_11char_traitsIcEENS_9allocatorIcEEEES7_EEbRKNS_16reverse_iteratorIT_EERKNS8_IT0_EE, symObjAddr: 0x374F8, symBinAddr: 0x100039BDC, symSize: 0x48 }
  - { offset: 0x92E44, size: 0x8, addend: 0x0, symName: __ZNSt3__112__to_addressB8ne180100INS_16reverse_iteratorIPNS_12basic_stringIcNS_11char_traitsIcEENS_9allocatorIcEEEEEEvEEu7__decayIDTclsr19__to_address_helperIT_EE6__callclsr3stdE7declvalIRKSA_EEEEESC_, symObjAddr: 0x37570, symBinAddr: 0x100039C54, symSize: 0x24 }
  - { offset: 0x92E7A, size: 0x8, addend: 0x0, symName: __ZNSt3__114__construct_atB8ne180100INS_12basic_stringIcNS_11char_traitsIcEENS_9allocatorIcEEEEJS6_EPS6_EEPT_S9_DpOT0_, symObjAddr: 0x376C0, symBinAddr: 0x100039DA4, symSize: 0x2C }
  - { offset: 0x92ECD, size: 0x8, addend: 0x0, symName: __ZNSt3__112construct_atB8ne180100INS_12basic_stringIcNS_11char_traitsIcEENS_9allocatorIcEEEEJS6_EPS6_EEPT_S9_DpOT0_, symObjAddr: 0x376EC, symBinAddr: 0x100039DD0, symSize: 0x34 }
  - { offset: 0x92F4A, size: 0x8, addend: 0x0, symName: __ZNSt3__14prevB8ne180100IPNS_12basic_stringIcNS_11char_traitsIcEENS_9allocatorIcEEEELi0EEET_S8_NS_15iterator_traitsIS8_E15difference_typeE, symObjAddr: 0x37784, symBinAddr: 0x100039E68, symSize: 0x3C }
  - { offset: 0x92F94, size: 0x8, addend: 0x0, symName: __ZNSt3__19__advanceB8ne180100IPNS_12basic_stringIcNS_11char_traitsIcEENS_9allocatorIcEEEEEEvRT_NS_15iterator_traitsIS8_E15difference_typeENS_26random_access_iterator_tagE, symObjAddr: 0x377F8, symBinAddr: 0x100039EDC, symSize: 0x30 }
  - { offset: 0x92FDE, size: 0x8, addend: 0x0, symName: __ZNSt3__119__allocator_destroyB8ne180100INS_9allocatorINS_12basic_stringIcNS_11char_traitsIcEENS1_IcEEEEEENS_16reverse_iteratorINS8_IPS6_EEEESB_EEvRT_T0_T1_, symObjAddr: 0x3792C, symBinAddr: 0x10003A010, symSize: 0x70 }
  - { offset: 0x93043, size: 0x8, addend: 0x0, symName: __ZNSt3__1neB8ne180100INS_16reverse_iteratorIPNS_12basic_stringIcNS_11char_traitsIcEENS_9allocatorIcEEEEEES9_EEbRKNS1_IT_EERKNS1_IT0_EE, symObjAddr: 0x379D8, symBinAddr: 0x10003A0BC, symSize: 0x60 }
  - { offset: 0x9308F, size: 0x8, addend: 0x0, symName: __ZNSt3__112__to_addressB8ne180100INS_16reverse_iteratorINS1_IPNS_12basic_stringIcNS_11char_traitsIcEENS_9allocatorIcEEEEEEEEvEEu7__decayIDTclsr19__to_address_helperIT_EE6__callclsr3stdE7declvalIRKSB_EEEEESD_, symObjAddr: 0x37A38, symBinAddr: 0x10003A11C, symSize: 0x24 }
  - { offset: 0x930EF, size: 0x8, addend: 0x0, symName: __ZNSt3__14prevB8ne180100INS_16reverse_iteratorIPNS_12basic_stringIcNS_11char_traitsIcEENS_9allocatorIcEEEEEELi0EEET_SA_NS_15iterator_traitsISA_E15difference_typeE, symObjAddr: 0x37B34, symBinAddr: 0x10003A218, symSize: 0x4C }
  - { offset: 0x93138, size: 0x8, addend: 0x0, symName: __ZNSt3__19__advanceB8ne180100INS_16reverse_iteratorIPNS_12basic_stringIcNS_11char_traitsIcEENS_9allocatorIcEEEEEEEEvRT_NS_15iterator_traitsISA_E15difference_typeENS_26random_access_iterator_tagE, symObjAddr: 0x37BB8, symBinAddr: 0x10003A29C, symSize: 0x2C }
  - { offset: 0x93182, size: 0x8, addend: 0x0, symName: __ZNSt3__18distanceB8ne180100IPKNS_12basic_stringIcNS_11char_traitsIcEENS_9allocatorIcEEEEEENS_15iterator_traitsIT_E15difference_typeESA_SA_, symObjAddr: 0x38398, symBinAddr: 0x10003AA7C, symSize: 0x2C }
  - { offset: 0x931C5, size: 0x8, addend: 0x0, symName: __ZNSt3__14nextB8ne180100IPKNS_12basic_stringIcNS_11char_traitsIcEENS_9allocatorIcEEEELi0EEET_S9_NS_15iterator_traitsIS9_E15difference_typeE, symObjAddr: 0x383C4, symBinAddr: 0x10003AAA8, symSize: 0x34 }
  - { offset: 0x9320E, size: 0x8, addend: 0x0, symName: __ZNSt3__14copyB8ne180100IPKNS_12basic_stringIcNS_11char_traitsIcEENS_9allocatorIcEEEEPS6_EET0_T_SB_SA_, symObjAddr: 0x383F8, symBinAddr: 0x10003AADC, symSize: 0x40 }
  - { offset: 0x93268, size: 0x8, addend: 0x0, symName: __ZNSt3__16__copyB8ne180100INS_17_ClassicAlgPolicyEPKNS_12basic_stringIcNS_11char_traitsIcEENS_9allocatorIcEEEES9_PS7_EENS_4pairIT0_T2_EESC_T1_SD_, symObjAddr: 0x384C4, symBinAddr: 0x10003ABA8, symSize: 0x44 }
  - { offset: 0x932D5, size: 0x8, addend: 0x0, symName: __ZNSt3__19__advanceB8ne180100IPKNS_12basic_stringIcNS_11char_traitsIcEENS_9allocatorIcEEEEEEvRT_NS_15iterator_traitsIS9_E15difference_typeENS_26random_access_iterator_tagE, symObjAddr: 0x386D4, symBinAddr: 0x10003ADB8, symSize: 0x30 }
  - { offset: 0x9331F, size: 0x8, addend: 0x0, symName: __ZNSt3__130__uninitialized_allocator_copyB8ne180100INS_9allocatorINS_12basic_stringIcNS_11char_traitsIcEENS1_IcEEEEEEPKS6_S9_PS6_EET2_RT_T0_T1_SB_, symObjAddr: 0x38704, symBinAddr: 0x10003ADE8, symSize: 0x80 }
  - { offset: 0x933BC, size: 0x8, addend: 0x0, symName: __ZNSt3__114__unwrap_rangeB8ne180100IPKNS_12basic_stringIcNS_11char_traitsIcEENS_9allocatorIcEEEES8_EEDaT_T0_, symObjAddr: 0x38784, symBinAddr: 0x10003AE68, symSize: 0x3C }
  - { offset: 0x93408, size: 0x8, addend: 0x0, symName: __ZNSt3__135__uninitialized_allocator_copy_implB8ne180100INS_9allocatorINS_12basic_stringIcNS_11char_traitsIcEENS1_IcEEEEEEPKS6_S9_PS6_EET2_RT_T0_T1_SB_, symObjAddr: 0x387C0, symBinAddr: 0x10003AEA4, symSize: 0xF4 }
  - { offset: 0x934A6, size: 0x8, addend: 0x0, symName: __ZNSt3__113__unwrap_iterB8ne180100IPNS_12basic_stringIcNS_11char_traitsIcEENS_9allocatorIcEEEENS_18__unwrap_iter_implIS7_Lb1EEELi0EEEDTclsrT0_8__unwrapclsr3stdE7declvalIT_EEEESB_, symObjAddr: 0x388B4, symBinAddr: 0x10003AF98, symSize: 0x24 }
  - { offset: 0x934EA, size: 0x8, addend: 0x0, symName: __ZNSt3__113__rewrap_iterB8ne180100IPNS_12basic_stringIcNS_11char_traitsIcEENS_9allocatorIcEEEES7_NS_18__unwrap_iter_implIS7_Lb1EEEEET_SA_T0_, symObjAddr: 0x388D8, symBinAddr: 0x10003AFBC, symSize: 0x3C }
  - { offset: 0x9365B, size: 0x8, addend: 0x0, symName: __ZNSt3__113__unwrap_iterB8ne180100IPKNS_12basic_stringIcNS_11char_traitsIcEENS_9allocatorIcEEEENS_18__unwrap_iter_implIS8_Lb1EEELi0EEEDTclsrT0_8__unwrapclsr3stdE7declvalIT_EEEESC_, symObjAddr: 0x3896C, symBinAddr: 0x10003B050, symSize: 0x24 }
  - { offset: 0x936F2, size: 0x8, addend: 0x0, symName: __ZNSt3__112__to_addressB8ne180100IKNS_12basic_stringIcNS_11char_traitsIcEENS_9allocatorIcEEEEEEPT_S9_, symObjAddr: 0x389F0, symBinAddr: 0x10003B0D4, symSize: 0x14 }
  - { offset: 0x93727, size: 0x8, addend: 0x0, symName: __ZNSt3__122__make_exception_guardB8ne180100INS_29_AllocatorDestroyRangeReverseINS_9allocatorINS_12basic_stringIcNS_11char_traitsIcEENS2_IcEEEEEEPS7_EEEENS_28__exception_guard_exceptionsIT_EESC_, symObjAddr: 0x38A38, symBinAddr: 0x10003B11C, symSize: 0x4C }
  - { offset: 0x9375D, size: 0x8, addend: 0x0, symName: __ZNSt3__114__construct_atB8ne180100INS_12basic_stringIcNS_11char_traitsIcEENS_9allocatorIcEEEEJRKS6_EPS6_EEPT_SB_DpOT0_, symObjAddr: 0x38BDC, symBinAddr: 0x10003B2C0, symSize: 0x2C }
  - { offset: 0x937B0, size: 0x8, addend: 0x0, symName: __ZNSt3__112construct_atB8ne180100INS_12basic_stringIcNS_11char_traitsIcEENS_9allocatorIcEEEEJRKS6_EPS6_EEPT_SB_DpOT0_, symObjAddr: 0x38C08, symBinAddr: 0x10003B2EC, symSize: 0x34 }
  - { offset: 0x93803, size: 0x8, addend: 0x0, symName: __ZNSt3__119__allocator_destroyB8ne180100INS_9allocatorINS_12basic_stringIcNS_11char_traitsIcEENS1_IcEEEEEENS_16reverse_iteratorIPS6_EESA_EEvRT_T0_T1_, symObjAddr: 0x38CF4, symBinAddr: 0x10003B3D8, symSize: 0x70 }
  - { offset: 0x938B9, size: 0x8, addend: 0x0, symName: __ZNSt3__123__dispatch_copy_or_moveB8ne180100INS_17_ClassicAlgPolicyENS_11__copy_loopIS1_EENS_14__copy_trivialEPKNS_12basic_stringIcNS_11char_traitsIcEENS_9allocatorIcEEEESC_PSA_EENS_4pairIT2_T4_EESF_T3_SG_, symObjAddr: 0x38DE0, symBinAddr: 0x10003B4C4, symSize: 0x44 }
  - { offset: 0x93937, size: 0x8, addend: 0x0, symName: __ZNSt3__121__unwrap_and_dispatchB8ne180100INS_10__overloadINS_11__copy_loopINS_17_ClassicAlgPolicyEEENS_14__copy_trivialEEEPKNS_12basic_stringIcNS_11char_traitsIcEENS_9allocatorIcEEEESE_PSC_Li0EEENS_4pairIT0_T2_EESH_T1_SI_, symObjAddr: 0x38E24, symBinAddr: 0x10003B508, symSize: 0xB4 }
  - { offset: 0x93B2A, size: 0x8, addend: 0x0, symName: __ZNSt3__19make_pairB8ne180100IPKNS_12basic_stringIcNS_11char_traitsIcEENS_9allocatorIcEEEEPS6_EENS_4pairINS_18__unwrap_ref_decayIT_E4typeENSB_IT0_E4typeEEEOSC_OSF_, symObjAddr: 0x38F60, symBinAddr: 0x10003B644, symSize: 0x38 }
  - { offset: 0x93B79, size: 0x8, addend: 0x0, symName: __ZNSt3__114__rewrap_rangeB8ne180100IPKNS_12basic_stringIcNS_11char_traitsIcEENS_9allocatorIcEEEES8_S8_EET0_S9_T1_, symObjAddr: 0x38F98, symBinAddr: 0x10003B67C, symSize: 0x2C }
  - { offset: 0x93BCE, size: 0x8, addend: 0x0, symName: __ZNSt3__113__rewrap_iterB8ne180100IPKNS_12basic_stringIcNS_11char_traitsIcEENS_9allocatorIcEEEES8_NS_18__unwrap_iter_implIS8_Lb1EEEEET_SB_T0_, symObjAddr: 0x39060, symBinAddr: 0x10003B744, symSize: 0x3C }
  - { offset: 0x93C23, size: 0x8, addend: 0x0, symName: __ZNSt3__110__distanceB8ne180100IPKNS_12basic_stringIcNS_11char_traitsIcEENS_9allocatorIcEEEEEENS_15iterator_traitsIT_E15difference_typeESA_SA_NS_26random_access_iterator_tagE, symObjAddr: 0x390F4, symBinAddr: 0x10003B7D8, symSize: 0x28 }
  - { offset: 0x93C71, size: 0x8, addend: 0x0, symName: __ZNSt3__1eqB8ne180100IPNS_12basic_stringIcNS_11char_traitsIcEENS_9allocatorIcEEEEEEbRKNS_11__wrap_iterIT_EESC_, symObjAddr: 0x391A0, symBinAddr: 0x10003B884, symSize: 0x48 }
  - { offset: 0x93CB4, size: 0x8, addend: 0x0, symName: __ZNSt3__18distanceB8ne180100IPNS_12basic_stringIcNS_11char_traitsIcEENS_9allocatorIcEEEEEENS_15iterator_traitsIT_E15difference_typeES9_S9_, symObjAddr: 0x39578, symBinAddr: 0x10003BC5C, symSize: 0x2C }
  - { offset: 0x93CF7, size: 0x8, addend: 0x0, symName: __ZNSt3__14nextB8ne180100IPNS_12basic_stringIcNS_11char_traitsIcEENS_9allocatorIcEEEELi0EEET_S8_NS_15iterator_traitsIS8_E15difference_typeE, symObjAddr: 0x395A4, symBinAddr: 0x10003BC88, symSize: 0x34 }
  - { offset: 0x93D40, size: 0x8, addend: 0x0, symName: __ZNSt3__14copyB8ne180100IPNS_12basic_stringIcNS_11char_traitsIcEENS_9allocatorIcEEEES7_EET0_T_S9_S8_, symObjAddr: 0x395D8, symBinAddr: 0x10003BCBC, symSize: 0x40 }
  - { offset: 0x93D9A, size: 0x8, addend: 0x0, symName: __ZNSt3__16__copyB8ne180100INS_17_ClassicAlgPolicyEPNS_12basic_stringIcNS_11char_traitsIcEENS_9allocatorIcEEEES8_S8_EENS_4pairIT0_T2_EESA_T1_SB_, symObjAddr: 0x396A4, symBinAddr: 0x10003BD88, symSize: 0x44 }
  - { offset: 0x93E06, size: 0x8, addend: 0x0, symName: __ZNSt3__130__uninitialized_allocator_copyB8ne180100INS_9allocatorINS_12basic_stringIcNS_11char_traitsIcEENS1_IcEEEEEEPS6_S8_S8_EET2_RT_T0_T1_S9_, symObjAddr: 0x396E8, symBinAddr: 0x10003BDCC, symSize: 0x80 }
  - { offset: 0x93EA3, size: 0x8, addend: 0x0, symName: __ZNSt3__114__unwrap_rangeB8ne180100IPNS_12basic_stringIcNS_11char_traitsIcEENS_9allocatorIcEEEES7_EEDaT_T0_, symObjAddr: 0x39768, symBinAddr: 0x10003BE4C, symSize: 0x3C }
  - { offset: 0x93EEF, size: 0x8, addend: 0x0, symName: __ZNSt3__135__uninitialized_allocator_copy_implB8ne180100INS_9allocatorINS_12basic_stringIcNS_11char_traitsIcEENS1_IcEEEEEEPS6_S8_S8_EET2_RT_T0_T1_S9_, symObjAddr: 0x397A4, symBinAddr: 0x10003BE88, symSize: 0xF4 }
  - { offset: 0x940B1, size: 0x8, addend: 0x0, symName: __ZNSt3__114__construct_atB8ne180100INS_12basic_stringIcNS_11char_traitsIcEENS_9allocatorIcEEEEJRS6_EPS6_EEPT_SA_DpOT0_, symObjAddr: 0x39990, symBinAddr: 0x10003C074, symSize: 0x2C }
  - { offset: 0x94104, size: 0x8, addend: 0x0, symName: __ZNSt3__112construct_atB8ne180100INS_12basic_stringIcNS_11char_traitsIcEENS_9allocatorIcEEEEJRS6_EPS6_EEPT_SA_DpOT0_, symObjAddr: 0x399BC, symBinAddr: 0x10003C0A0, symSize: 0x34 }
  - { offset: 0x94157, size: 0x8, addend: 0x0, symName: __ZNSt3__123__dispatch_copy_or_moveB8ne180100INS_17_ClassicAlgPolicyENS_11__copy_loopIS1_EENS_14__copy_trivialEPNS_12basic_stringIcNS_11char_traitsIcEENS_9allocatorIcEEEESB_SB_EENS_4pairIT2_T4_EESD_T3_SE_, symObjAddr: 0x399F0, symBinAddr: 0x10003C0D4, symSize: 0x44 }
  - { offset: 0x941D5, size: 0x8, addend: 0x0, symName: __ZNSt3__121__unwrap_and_dispatchB8ne180100INS_10__overloadINS_11__copy_loopINS_17_ClassicAlgPolicyEEENS_14__copy_trivialEEEPNS_12basic_stringIcNS_11char_traitsIcEENS_9allocatorIcEEEESD_SD_Li0EEENS_4pairIT0_T2_EESF_T1_SG_, symObjAddr: 0x39A34, symBinAddr: 0x10003C118, symSize: 0xB4 }
  - { offset: 0x94263, size: 0x8, addend: 0x0, symName: __ZNSt3__19make_pairB8ne180100IPNS_12basic_stringIcNS_11char_traitsIcEENS_9allocatorIcEEEES7_EENS_4pairINS_18__unwrap_ref_decayIT_E4typeENS9_IT0_E4typeEEEOSA_OSD_, symObjAddr: 0x39B70, symBinAddr: 0x10003C254, symSize: 0x38 }
  - { offset: 0x942B2, size: 0x8, addend: 0x0, symName: __ZNSt3__114__rewrap_rangeB8ne180100IPNS_12basic_stringIcNS_11char_traitsIcEENS_9allocatorIcEEEES7_S7_EET0_S8_T1_, symObjAddr: 0x39BA8, symBinAddr: 0x10003C28C, symSize: 0x2C }
  - { offset: 0x94307, size: 0x8, addend: 0x0, symName: __ZNSt3__110__distanceB8ne180100IPNS_12basic_stringIcNS_11char_traitsIcEENS_9allocatorIcEEEEEENS_15iterator_traitsIT_E15difference_typeES9_S9_NS_26random_access_iterator_tagE, symObjAddr: 0x39C00, symBinAddr: 0x10003C2E4, symSize: 0x28 }
  - { offset: 0x94355, size: 0x8, addend: 0x0, symName: __ZNSt3__114__construct_atB8ne180100IfJfEPfEEPT_S3_DpOT0_, symObjAddr: 0x39DD0, symBinAddr: 0x10003C4B4, symSize: 0x2C }
  - { offset: 0x943A8, size: 0x8, addend: 0x0, symName: __ZNSt3__112construct_atB8ne180100IfJfEPfEEPT_S3_DpOT0_, symObjAddr: 0x39DFC, symBinAddr: 0x10003C4E0, symSize: 0x24 }
  - { offset: 0x943FB, size: 0x8, addend: 0x0, symName: __ZNSt3__118__cxx_atomic_storeB8ne180100IfEEvPNS_22__cxx_atomic_base_implIT_EES2_NS_12memory_orderE, symObjAddr: 0x39E54, symBinAddr: 0x10003C538, symSize: 0x84 }
  - { offset: 0x9444C, size: 0x8, addend: 0x0, symName: __ZNSt3__116forward_as_tupleB8ne180100IJbEEENS_5tupleIJDpOT_EEES4_, symObjAddr: 0x3A3A4, symBinAddr: 0x10003CA88, symSize: 0x2C }
  - { offset: 0x94485, size: 0x8, addend: 0x0, symName: __ZNSt3__17launderB8ne180100IKNS_4pairIKbNS_13unordered_mapIbNS3_IbNS_6vectorIfNS_9allocatorIfEEEENS_4hashIbEENS_8equal_toIbEENS5_INS1_IS2_S7_EEEEEES9_SB_NS5_INS1_IS2_SE_EEEEEEEEEEPT_SL_, symObjAddr: 0x3AA30, symBinAddr: 0x10003D114, symSize: 0x24 }
  - { offset: 0x944BC, size: 0x8, addend: 0x0, symName: __ZNSt3__19__launderB8ne180100IKNS_4pairIKbNS_13unordered_mapIbNS3_IbNS_6vectorIfNS_9allocatorIfEEEENS_4hashIbEENS_8equal_toIbEENS5_INS1_IS2_S7_EEEEEES9_SB_NS5_INS1_IS2_SE_EEEEEEEEEEPT_SL_, symObjAddr: 0x3AA54, symBinAddr: 0x10003D138, symSize: 0x14 }
  - { offset: 0x94511, size: 0x8, addend: 0x0, symName: __ZNSt3__114__construct_atB8ne180100INS_11__hash_nodeINS_17__hash_value_typeIbNS_13unordered_mapIbNS3_IbNS_6vectorIfNS_9allocatorIfEEEENS_4hashIbEENS_8equal_toIbEENS5_INS_4pairIKbS7_EEEEEES9_SB_NS5_INSC_ISD_SG_EEEEEEEEPvEEJDnRmEPSM_EEPT_SQ_DpOT0_, symObjAddr: 0x3AB18, symBinAddr: 0x10003D1FC, symSize: 0x34 }
  - { offset: 0x94577, size: 0x8, addend: 0x0, symName: __ZNSt3__112construct_atB8ne180100INS_11__hash_nodeINS_17__hash_value_typeIbNS_13unordered_mapIbNS3_IbNS_6vectorIfNS_9allocatorIfEEEENS_4hashIbEENS_8equal_toIbEENS5_INS_4pairIKbS7_EEEEEES9_SB_NS5_INSC_ISD_SG_EEEEEEEEPvEEJDnRmEPSM_EEPT_SQ_DpOT0_, symObjAddr: 0x3ADA4, symBinAddr: 0x10003D488, symSize: 0x40 }
  - { offset: 0x945DD, size: 0x8, addend: 0x0, symName: __ZNSt3__114__construct_atB8ne180100INS_4pairIKbNS_13unordered_mapIbNS3_IbNS_6vectorIfNS_9allocatorIfEEEENS_4hashIbEENS_8equal_toIbEENS5_INS1_IS2_S7_EEEEEES9_SB_NS5_INS1_IS2_SE_EEEEEEEEJRKNS_21piecewise_construct_tENS_5tupleIJObEEENSM_IJEEEEPSI_EEPT_SS_DpOT0_, symObjAddr: 0x3AEB8, symBinAddr: 0x10003D59C, symSize: 0x3C }
  - { offset: 0x94656, size: 0x8, addend: 0x0, symName: __ZNSt3__112construct_atB8ne180100INS_4pairIKbNS_13unordered_mapIbNS3_IbNS_6vectorIfNS_9allocatorIfEEEENS_4hashIbEENS_8equal_toIbEENS5_INS1_IS2_S7_EEEEEES9_SB_NS5_INS1_IS2_SE_EEEEEEEEJRKNS_21piecewise_construct_tENS_5tupleIJObEEENSM_IJEEEEPSI_EEPT_SS_DpOT0_, symObjAddr: 0x3AEF4, symBinAddr: 0x10003D5D8, symSize: 0x48 }
  - { offset: 0x946CF, size: 0x8, addend: 0x0, symName: __ZNSt3__13getB8ne180100ILm0EJObEEERNS_13tuple_elementIXT_ENS_5tupleIJDpT0_EEEE4typeERS6_, symObjAddr: 0x3B00C, symBinAddr: 0x10003D6F0, symSize: 0x24 }
  - { offset: 0x9475A, size: 0x8, addend: 0x0, symName: __ZNSt3__17launderB8ne180100IKNS_4pairIKbNS_13unordered_mapIbNS_6vectorIfNS_9allocatorIfEEEENS_4hashIbEENS_8equal_toIbEENS5_INS1_IS2_S7_EEEEEEEEEEPT_SI_, symObjAddr: 0x3CA20, symBinAddr: 0x10003F104, symSize: 0x24 }
  - { offset: 0x94791, size: 0x8, addend: 0x0, symName: __ZNSt3__19__launderB8ne180100IKNS_4pairIKbNS_13unordered_mapIbNS_6vectorIfNS_9allocatorIfEEEENS_4hashIbEENS_8equal_toIbEENS5_INS1_IS2_S7_EEEEEEEEEEPT_SI_, symObjAddr: 0x3CA44, symBinAddr: 0x10003F128, symSize: 0x14 }
  - { offset: 0x947E6, size: 0x8, addend: 0x0, symName: __ZNSt3__114__construct_atB8ne180100INS_11__hash_nodeINS_17__hash_value_typeIbNS_13unordered_mapIbNS_6vectorIfNS_9allocatorIfEEEENS_4hashIbEENS_8equal_toIbEENS5_INS_4pairIKbS7_EEEEEEEEPvEEJDnRmEPSJ_EEPT_SN_DpOT0_, symObjAddr: 0x3CB08, symBinAddr: 0x10003F1EC, symSize: 0x34 }
  - { offset: 0x9484C, size: 0x8, addend: 0x0, symName: __ZNSt3__112construct_atB8ne180100INS_11__hash_nodeINS_17__hash_value_typeIbNS_13unordered_mapIbNS_6vectorIfNS_9allocatorIfEEEENS_4hashIbEENS_8equal_toIbEENS5_INS_4pairIKbS7_EEEEEEEEPvEEJDnRmEPSJ_EEPT_SN_DpOT0_, symObjAddr: 0x3CD94, symBinAddr: 0x10003F478, symSize: 0x40 }
  - { offset: 0x948B2, size: 0x8, addend: 0x0, symName: __ZNSt3__114__construct_atB8ne180100INS_4pairIKbNS_13unordered_mapIbNS_6vectorIfNS_9allocatorIfEEEENS_4hashIbEENS_8equal_toIbEENS5_INS1_IS2_S7_EEEEEEEEJRKNS_21piecewise_construct_tENS_5tupleIJObEEENSJ_IJEEEEPSF_EEPT_SP_DpOT0_, symObjAddr: 0x3CEA8, symBinAddr: 0x10003F58C, symSize: 0x3C }
  - { offset: 0x9492B, size: 0x8, addend: 0x0, symName: __ZNSt3__112construct_atB8ne180100INS_4pairIKbNS_13unordered_mapIbNS_6vectorIfNS_9allocatorIfEEEENS_4hashIbEENS_8equal_toIbEENS5_INS1_IS2_S7_EEEEEEEEJRKNS_21piecewise_construct_tENS_5tupleIJObEEENSJ_IJEEEEPSF_EEPT_SP_DpOT0_, symObjAddr: 0x3CEE4, symBinAddr: 0x10003F5C8, symSize: 0x48 }
  - { offset: 0x949D7, size: 0x8, addend: 0x0, symName: __ZNSt3__17launderB8ne180100IKNS_4pairIKbNS_6vectorIfNS_9allocatorIfEEEEEEEEPT_SA_, symObjAddr: 0x3E8E4, symBinAddr: 0x100040FC8, symSize: 0x24 }
  - { offset: 0x94A0E, size: 0x8, addend: 0x0, symName: __ZNSt3__19__launderB8ne180100IKNS_4pairIKbNS_6vectorIfNS_9allocatorIfEEEEEEEEPT_SA_, symObjAddr: 0x3E908, symBinAddr: 0x100040FEC, symSize: 0x14 }
  - { offset: 0x94A63, size: 0x8, addend: 0x0, symName: __ZNSt3__114__construct_atB8ne180100INS_11__hash_nodeINS_17__hash_value_typeIbNS_6vectorIfNS_9allocatorIfEEEEEEPvEEJDnRmEPS9_EEPT_SD_DpOT0_, symObjAddr: 0x3E9CC, symBinAddr: 0x1000410B0, symSize: 0x34 }
  - { offset: 0x94AC9, size: 0x8, addend: 0x0, symName: __ZNSt3__112construct_atB8ne180100INS_11__hash_nodeINS_17__hash_value_typeIbNS_6vectorIfNS_9allocatorIfEEEEEEPvEEJDnRmEPS9_EEPT_SD_DpOT0_, symObjAddr: 0x3EC5C, symBinAddr: 0x100041340, symSize: 0x40 }
  - { offset: 0x94B2F, size: 0x8, addend: 0x0, symName: __ZNSt3__114__construct_atB8ne180100INS_4pairIKbNS_6vectorIfNS_9allocatorIfEEEEEEJRKNS_21piecewise_construct_tENS_5tupleIJObEEENSB_IJEEEEPS7_EEPT_SH_DpOT0_, symObjAddr: 0x3ED70, symBinAddr: 0x100041454, symSize: 0x3C }
  - { offset: 0x94BA8, size: 0x8, addend: 0x0, symName: __ZNSt3__112construct_atB8ne180100INS_4pairIKbNS_6vectorIfNS_9allocatorIfEEEEEEJRKNS_21piecewise_construct_tENS_5tupleIJObEEENSB_IJEEEEPS7_EEPT_SH_DpOT0_, symObjAddr: 0x3EDAC, symBinAddr: 0x100041490, symSize: 0x48 }
  - { offset: 0x94C54, size: 0x8, addend: 0x0, symName: __ZNSt3__122__cxx_atomic_fetch_subB8ne180100IlEET_PNS_22__cxx_atomic_base_implIS1_EES1_NS_12memory_orderE, symObjAddr: 0x3F7AC, symBinAddr: 0x100041E90, symSize: 0xDC }
  - { offset: 0x94CA9, size: 0x8, addend: 0x0, symName: __ZNSt3__117__cxx_atomic_waitB8ne180100INS_17__cxx_atomic_implIlNS_22__cxx_atomic_base_implIlEEEEZNKS_5latch4waitB8ne180100EvEUlvE_EEbPT_OT0_, symObjAddr: 0x3F89C, symBinAddr: 0x100041F80, symSize: 0x64 }
  - { offset: 0x94D03, size: 0x8, addend: 0x0, symName: __ZNSt3__133__libcpp_thread_poll_with_backoffB8ne180100IRZNKS_5latch4waitB8ne180100EvEUlvE_RNS_33__libcpp_atomic_wait_backoff_implINS_17__cxx_atomic_implIlNS_22__cxx_atomic_base_implIlEEEES2_EEEEbOT_OT0_NS_6chrono8durationIxNS_5ratioILl1ELl1000000000EEEEE, symObjAddr: 0x3F900, symBinAddr: 0x100041FE4, symSize: 0x148 }
  - { offset: 0x94DA3, size: 0x8, addend: 0x0, symName: __ZNSt3__1ltB8ne180100ENS_15strong_orderingENS_20_CmpUnspecifiedParamE, symObjAddr: 0x3FB38, symBinAddr: 0x10004221C, symSize: 0x24 }
  - { offset: 0x94E44, size: 0x8, addend: 0x0, symName: __ZNSt3__1gtB8ne180100ENS_15strong_orderingENS_20_CmpUnspecifiedParamE, symObjAddr: 0x3FF98, symBinAddr: 0x10004267C, symSize: 0x24 }
  - { offset: 0x94E7C, size: 0x8, addend: 0x0, symName: __ZNSt3__121__libcpp_thread_yieldB8ne180100Ev, symObjAddr: 0x40080, symBinAddr: 0x100042764, symSize: 0x14 }
  - { offset: 0x94E96, size: 0x8, addend: 0x0, symName: __ZNSt3__13getB8ne180100ILm0EibEEONS_13tuple_elementIXT_ENS_4pairIT0_T1_EEE4typeEOS5_, symObjAddr: 0x412F8, symBinAddr: 0x1000439DC, symSize: 0x24 }
  - { offset: 0x94EE0, size: 0x8, addend: 0x0, symName: __ZNSt3__13getB8ne180100ILm1EibEEONS_13tuple_elementIXT_ENS_4pairIT0_T1_EEE4typeEOS5_, symObjAddr: 0x4131C, symBinAddr: 0x100043A00, symSize: 0x24 }
  - { offset: 0x94F2A, size: 0x8, addend: 0x0, symName: __ZNSt3__19make_pairB8ne180100IibEENS_4pairINS_18__unwrap_ref_decayIT_E4typeENS2_IT0_E4typeEEEOS3_OS6_, symObjAddr: 0x4278C, symBinAddr: 0x100044E70, symSize: 0x34 }
  - { offset: 0x94F79, size: 0x8, addend: 0x0, symName: __ZNSt3__13maxB8ne180100IiEERKT_S3_S3_, symObjAddr: 0x42830, symBinAddr: 0x100044F14, symSize: 0x2C }
  - { offset: 0x94FBC, size: 0x8, addend: 0x0, symName: __ZNSt3__17find_ifB8ne180100INS_16reverse_iteratorINS_11__wrap_iterIPiEEEEZN5Board10getPNdepthERKNS_6vectorIfNS_9allocatorIfEEEEmmbbbbbEUliE_EET_SE_SE_T0_, symObjAddr: 0x4285C, symBinAddr: 0x100044F40, symSize: 0x80 }
  - { offset: 0x95016, size: 0x8, addend: 0x0, symName: __ZNSt3__1miB8ne180100INS_11__wrap_iterIPiEES3_EEDTmicldtfp0_4baseEcldtfp_4baseEERKNS_16reverse_iteratorIT_EERKNS5_IT0_EE, symObjAddr: 0x42964, symBinAddr: 0x100045048, symSize: 0x50 }
  - { offset: 0x95065, size: 0x8, addend: 0x0, symName: __ZNSt3__13maxB8ne180100IiNS_6__lessIvvEEEERKT_S5_S5_T0_, symObjAddr: 0x42A74, symBinAddr: 0x100045158, symSize: 0x54 }
  - { offset: 0x950BF, size: 0x8, addend: 0x0, symName: __ZNSt3__1neB8ne180100INS_11__wrap_iterIPiEES3_EEbRKNS_16reverse_iteratorIT_EERKNS4_IT0_EE, symObjAddr: 0x42AFC, symBinAddr: 0x1000451E0, symSize: 0x54 }
  - { offset: 0x9510B, size: 0x8, addend: 0x0, symName: __ZNSt3__1neB8ne180100IPiEEbRKNS_11__wrap_iterIT_EES6_, symObjAddr: 0x42BD8, symBinAddr: 0x1000452BC, symSize: 0x34 }
  - { offset: 0x9514E, size: 0x8, addend: 0x0, symName: __ZNSt3__1eqB8ne180100IPiEEbRKNS_11__wrap_iterIT_EES6_, symObjAddr: 0x42C2C, symBinAddr: 0x100045310, symSize: 0x48 }
  - { offset: 0x95191, size: 0x8, addend: 0x0, symName: __ZNSt3__1miB8ne180100IPiS1_EEDTmicldtfp_4baseEcldtfp0_4baseEERKNS_11__wrap_iterIT_EERKNS3_IT0_EE, symObjAddr: 0x42E04, symBinAddr: 0x1000454E8, symSize: 0x48 }
  - { offset: 0x951DD, size: 0x8, addend: 0x0, symName: __ZNSt3__19make_pairB8ne180100IiRbEENS_4pairINS_18__unwrap_ref_decayIT_E4typeENS3_IT0_E4typeEEEOS4_OS7_, symObjAddr: 0x42E4C, symBinAddr: 0x100045530, symSize: 0x34 }
  - { offset: 0x9522C, size: 0x8, addend: 0x0, symName: __ZNSt3__19make_pairB8ne180100IRibEENS_4pairINS_18__unwrap_ref_decayIT_E4typeENS3_IT0_E4typeEEEOS4_OS7_, symObjAddr: 0x42E80, symBinAddr: 0x100045564, symSize: 0x34 }
  - { offset: 0x95345, size: 0x8, addend: 0x0, symName: __ZNSt3__122__cxx_atomic_fetch_addB8ne180100ImEET_PNS_22__cxx_atomic_base_implIS1_EES1_NS_12memory_orderE, symObjAddr: 0x4344C, symBinAddr: 0x100045B30, symSize: 0xC8 }
  - { offset: 0x9539A, size: 0x8, addend: 0x0, symName: __ZNSt3__122__cxx_atomic_fetch_subB8ne180100IjEET_PNS_22__cxx_atomic_base_implIS1_EES1_NS_12memory_orderE, symObjAddr: 0x44150, symBinAddr: 0x100046834, symSize: 0xDC }
  - { offset: 0x953EF, size: 0x8, addend: 0x0, symName: __ZNSt3__19tuple_catB8ne180100INS_5tupleIJPN5boost9unordered6detail3foa16concurrent_tableINS5_14flat_map_typesINS_12basic_stringIcNS_11char_traitsIcEENS_9allocatorIcEEEEN5Eigen6MatrixINS_7complexIfEELin1ELi1ELi0ELin1ELi1EEEEENS2_4hashISD_EENS_8equal_toISD_EENSB_INS_4pairIKSD_SI_EEEEEENS_17integral_constantIbLb1EEEEEEJNS1_IJOZNS3_19concurrent_flat_mapISD_SI_SL_SN_SR_E16insert_or_assignISI_EEbRSP_OT_EUlRSQ_E_ONS5_18try_emplace_args_tES10_OSI_EEEEEENS_18__tuple_cat_returnIJS11_DpT0_EE4typeES12_DpOS1B_, symObjAddr: 0x44320, symBinAddr: 0x100046A04, symSize: 0x48 }
  - { offset: 0x95440, size: 0x8, addend: 0x0, symName: __ZNSt3__110make_tupleB8ne180100IJPN5boost9unordered6detail3foa16concurrent_tableINS4_14flat_map_typesINS_12basic_stringIcNS_11char_traitsIcEENS_9allocatorIcEEEEN5Eigen6MatrixINS_7complexIfEELin1ELi1ELi0ELin1ELi1EEEEENS1_4hashISC_EENS_8equal_toISC_EENSA_INS_4pairIKSC_SH_EEEEEERNS_17integral_constantIbLb1EEEEEENS_5tupleIJDpNS_18__unwrap_ref_decayIT_E4typeEEEEDpOSY_, symObjAddr: 0x44368, symBinAddr: 0x100046A4C, symSize: 0x34 }
  - { offset: 0x9548D, size: 0x8, addend: 0x0, symName: __ZNSt3__116forward_as_tupleB8ne180100IJN5boost9unordered6detail3foa18try_emplace_args_tERKNS_12basic_stringIcNS_11char_traitsIcEENS_9allocatorIcEEEEN5Eigen6MatrixINS_7complexIfEELin1ELi1ELi0ELin1ELi1EEEZNS2_19concurrent_flat_mapISB_SI_NS1_4hashISB_EENS_8equal_toISB_EENS9_INS_4pairISC_SI_EEEEE16insert_or_assignISI_EEbSD_OT_EUlRSP_E_EEENS_5tupleIJDpOT_EEES10_, symObjAddr: 0x443C0, symBinAddr: 0x100046AA4, symSize: 0x48 }
  - { offset: 0x95502, size: 0x8, addend: 0x0, symName: __ZNSt3__13getB8ne180100ILm0EJPN5boost9unordered6detail3foa16concurrent_tableINS4_14flat_map_typesINS_12basic_stringIcNS_11char_traitsIcEENS_9allocatorIcEEEEN5Eigen6MatrixINS_7complexIfEELin1ELi1ELi0ELin1ELi1EEEEENS1_4hashISC_EENS_8equal_toISC_EENSA_INS_4pairIKSC_SH_EEEEEENS_17integral_constantIbLb1EEEOZNS2_19concurrent_flat_mapISC_SH_SK_SM_SQ_E16insert_or_assignISH_EEbRSO_OT_EUlRSP_E_ONS4_18try_emplace_args_tESY_OSH_EEEONS_13tuple_elementIXT_ENS_5tupleIJDpT0_EEEE4typeEOS1B_, symObjAddr: 0x44C04, symBinAddr: 0x1000472E8, symSize: 0x24 }
  - { offset: 0x9555E, size: 0x8, addend: 0x0, symName: __ZNSt3__13getB8ne180100ILm1EJPN5boost9unordered6detail3foa16concurrent_tableINS4_14flat_map_typesINS_12basic_stringIcNS_11char_traitsIcEENS_9allocatorIcEEEEN5Eigen6MatrixINS_7complexIfEELin1ELi1ELi0ELin1ELi1EEEEENS1_4hashISC_EENS_8equal_toISC_EENSA_INS_4pairIKSC_SH_EEEEEENS_17integral_constantIbLb1EEEOZNS2_19concurrent_flat_mapISC_SH_SK_SM_SQ_E16insert_or_assignISH_EEbRSO_OT_EUlRSP_E_ONS4_18try_emplace_args_tESY_OSH_EEEONS_13tuple_elementIXT_ENS_5tupleIJDpT0_EEEE4typeEOS1B_, symObjAddr: 0x44C28, symBinAddr: 0x10004730C, symSize: 0x24 }
  - { offset: 0x955BA, size: 0x8, addend: 0x0, symName: __ZNSt3__13getB8ne180100ILm2EJPN5boost9unordered6detail3foa16concurrent_tableINS4_14flat_map_typesINS_12basic_stringIcNS_11char_traitsIcEENS_9allocatorIcEEEEN5Eigen6MatrixINS_7complexIfEELin1ELi1ELi0ELin1ELi1EEEEENS1_4hashISC_EENS_8equal_toISC_EENSA_INS_4pairIKSC_SH_EEEEEENS_17integral_constantIbLb1EEEOZNS2_19concurrent_flat_mapISC_SH_SK_SM_SQ_E16insert_or_assignISH_EEbRSO_OT_EUlRSP_E_ONS4_18try_emplace_args_tESY_OSH_EEEONS_13tuple_elementIXT_ENS_5tupleIJDpT0_EEEE4typeEOS1B_, symObjAddr: 0x44C4C, symBinAddr: 0x100047330, symSize: 0x28 }
  - { offset: 0x95616, size: 0x8, addend: 0x0, symName: __ZNSt3__13getB8ne180100ILm3EJPN5boost9unordered6detail3foa16concurrent_tableINS4_14flat_map_typesINS_12basic_stringIcNS_11char_traitsIcEENS_9allocatorIcEEEEN5Eigen6MatrixINS_7complexIfEELin1ELi1ELi0ELin1ELi1EEEEENS1_4hashISC_EENS_8equal_toISC_EENSA_INS_4pairIKSC_SH_EEEEEENS_17integral_constantIbLb1EEEOZNS2_19concurrent_flat_mapISC_SH_SK_SM_SQ_E16insert_or_assignISH_EEbRSO_OT_EUlRSP_E_ONS4_18try_emplace_args_tESY_OSH_EEEONS_13tuple_elementIXT_ENS_5tupleIJDpT0_EEEE4typeEOS1B_, symObjAddr: 0x44C74, symBinAddr: 0x100047358, symSize: 0x28 }
  - { offset: 0x95672, size: 0x8, addend: 0x0, symName: __ZNSt3__13getB8ne180100ILm4EJPN5boost9unordered6detail3foa16concurrent_tableINS4_14flat_map_typesINS_12basic_stringIcNS_11char_traitsIcEENS_9allocatorIcEEEEN5Eigen6MatrixINS_7complexIfEELin1ELi1ELi0ELin1ELi1EEEEENS1_4hashISC_EENS_8equal_toISC_EENSA_INS_4pairIKSC_SH_EEEEEENS_17integral_constantIbLb1EEEOZNS2_19concurrent_flat_mapISC_SH_SK_SM_SQ_E16insert_or_assignISH_EEbRSO_OT_EUlRSP_E_ONS4_18try_emplace_args_tESY_OSH_EEEONS_13tuple_elementIXT_ENS_5tupleIJDpT0_EEEE4typeEOS1B_, symObjAddr: 0x44C9C, symBinAddr: 0x100047380, symSize: 0x28 }
  - { offset: 0x956CE, size: 0x8, addend: 0x0, symName: __ZNSt3__13getB8ne180100ILm5EJPN5boost9unordered6detail3foa16concurrent_tableINS4_14flat_map_typesINS_12basic_stringIcNS_11char_traitsIcEENS_9allocatorIcEEEEN5Eigen6MatrixINS_7complexIfEELin1ELi1ELi0ELin1ELi1EEEEENS1_4hashISC_EENS_8equal_toISC_EENSA_INS_4pairIKSC_SH_EEEEEENS_17integral_constantIbLb1EEEOZNS2_19concurrent_flat_mapISC_SH_SK_SM_SQ_E16insert_or_assignISH_EEbRSO_OT_EUlRSP_E_ONS4_18try_emplace_args_tESY_OSH_EEEONS_13tuple_elementIXT_ENS_5tupleIJDpT0_EEEE4typeEOS1B_, symObjAddr: 0x44CC4, symBinAddr: 0x1000473A8, symSize: 0x28 }
  - { offset: 0x9572A, size: 0x8, addend: 0x0, symName: __ZNSt3__122__cxx_atomic_fetch_addB8ne180100IjEET_PNS_22__cxx_atomic_base_implIS1_EES1_NS_12memory_orderE, symObjAddr: 0x4552C, symBinAddr: 0x100047C10, symSize: 0xC8 }
  - { offset: 0x9577F, size: 0x8, addend: 0x0, symName: __ZNSt3__116forward_as_tupleB8ne180100IJN5Eigen6MatrixINS_7complexIfEELin1ELi1ELi0ELin1ELi1EEEEEENS_5tupleIJDpOT_EEES9_, symObjAddr: 0x456C8, symBinAddr: 0x100047DAC, symSize: 0x2C }
  - { offset: 0x957B8, size: 0x8, addend: 0x0, symName: __ZNSt3__13getB8ne180100ILm0EJON5Eigen6MatrixINS_7complexIfEELin1ELi1ELi0ELin1ELi1EEEEEERNS_13tuple_elementIXT_ENS_5tupleIJDpT0_EEEE4typeERSB_, symObjAddr: 0x45824, symBinAddr: 0x100047F08, symSize: 0x24 }
  - { offset: 0x95810, size: 0x8, addend: 0x0, symName: __ZNSt3__121__cxx_atomic_fetch_orB8ne180100IhEET_PNS_22__cxx_atomic_base_implIS1_EES1_NS_12memory_orderE, symObjAddr: 0x45AAC, symBinAddr: 0x100048190, symSize: 0xC8 }
  - { offset: 0x95865, size: 0x8, addend: 0x0, symName: __ZNSt3__122__cxx_atomic_fetch_subB8ne180100ImEET_PNS_22__cxx_atomic_base_implIS1_EES1_NS_12memory_orderE, symObjAddr: 0x45C6C, symBinAddr: 0x100048350, symSize: 0xDC }
  - { offset: 0x9710F, size: 0x8, addend: 0x0, symName: __ZNSt3__116forward_as_tupleB8ne180100IJPN5boost9unordered6detail3foa16concurrent_tableINS4_14flat_map_typesINS_12basic_stringIcNS_11char_traitsIcEENS_9allocatorIcEEEEN5Eigen6MatrixINS_7complexIfEELin1ELi1ELi0ELin1ELi1EEEEENS1_4hashISC_EENS_8equal_toISC_EENSA_INS_4pairIKSC_SH_EEEEEENS_17integral_constantIbLb1EEEEEENS_5tupleIJDpOT_EEESY_, symObjAddr: 0x471A0, symBinAddr: 0x100049884, symSize: 0x38 }
  - { offset: 0x9715C, size: 0x8, addend: 0x0, symName: __ZNSt3__13getB8ne180100ILm0EJPN5boost9unordered6detail3foa16concurrent_tableINS4_14flat_map_typesINS_12basic_stringIcNS_11char_traitsIcEENS_9allocatorIcEEEEN5Eigen6MatrixINS_7complexIfEELin1ELi1ELi0ELin1ELi1EEEEENS1_4hashISC_EENS_8equal_toISC_EENSA_INS_4pairIKSC_SH_EEEEEENS_17integral_constantIbLb1EEEEEEONS_13tuple_elementIXT_ENS_5tupleIJDpT0_EEEE4typeEOSZ_, symObjAddr: 0x471D8, symBinAddr: 0x1000498BC, symSize: 0x24 }
  - { offset: 0x971A4, size: 0x8, addend: 0x0, symName: __ZNSt3__13getB8ne180100ILm1EJPN5boost9unordered6detail3foa16concurrent_tableINS4_14flat_map_typesINS_12basic_stringIcNS_11char_traitsIcEENS_9allocatorIcEEEEN5Eigen6MatrixINS_7complexIfEELin1ELi1ELi0ELin1ELi1EEEEENS1_4hashISC_EENS_8equal_toISC_EENSA_INS_4pairIKSC_SH_EEEEEENS_17integral_constantIbLb1EEEEEEONS_13tuple_elementIXT_ENS_5tupleIJDpT0_EEEE4typeEOSZ_, symObjAddr: 0x471FC, symBinAddr: 0x1000498E0, symSize: 0x24 }
  - { offset: 0x971EC, size: 0x8, addend: 0x0, symName: __ZNSt3__116forward_as_tupleB8ne180100IJPN5boost9unordered6detail3foa16concurrent_tableINS4_14flat_map_typesINS_12basic_stringIcNS_11char_traitsIcEENS_9allocatorIcEEEEN5Eigen6MatrixINS_7complexIfEELin1ELi1ELi0ELin1ELi1EEEEENS1_4hashISC_EENS_8equal_toISC_EENSA_INS_4pairIKSC_SH_EEEEEENS_17integral_constantIbLb1EEEZNS2_19concurrent_flat_mapISC_SH_SK_SM_SQ_E16insert_or_assignISH_EEbRSO_OT_EUlRSP_E_NS4_18try_emplace_args_tESY_SH_EEENS_5tupleIJDpOT_EEES17_, symObjAddr: 0x47220, symBinAddr: 0x100049904, symSize: 0x58 }
  - { offset: 0x97289, size: 0x8, addend: 0x0, symName: __ZNSt3__13getB8ne180100ILm0EJOPN5boost9unordered6detail3foa16concurrent_tableINS4_14flat_map_typesINS_12basic_stringIcNS_11char_traitsIcEENS_9allocatorIcEEEEN5Eigen6MatrixINS_7complexIfEELin1ELi1ELi0ELin1ELi1EEEEENS1_4hashISC_EENS_8equal_toISC_EENSA_INS_4pairIKSC_SH_EEEEEEONS_17integral_constantIbLb1EEEEEERNS_13tuple_elementIXT_ENS_5tupleIJDpT0_EEEE4typeERS11_, symObjAddr: 0x47278, symBinAddr: 0x10004995C, symSize: 0x24 }
  - { offset: 0x972D1, size: 0x8, addend: 0x0, symName: __ZNSt3__13getB8ne180100ILm1EJOPN5boost9unordered6detail3foa16concurrent_tableINS4_14flat_map_typesINS_12basic_stringIcNS_11char_traitsIcEENS_9allocatorIcEEEEN5Eigen6MatrixINS_7complexIfEELin1ELi1ELi0ELin1ELi1EEEEENS1_4hashISC_EENS_8equal_toISC_EENSA_INS_4pairIKSC_SH_EEEEEEONS_17integral_constantIbLb1EEEEEERNS_13tuple_elementIXT_ENS_5tupleIJDpT0_EEEE4typeERS11_, symObjAddr: 0x4729C, symBinAddr: 0x100049980, symSize: 0x28 }
  - { offset: 0x97319, size: 0x8, addend: 0x0, symName: __ZNSt3__13getB8ne180100ILm0EJOZN5boost9unordered19concurrent_flat_mapINS_12basic_stringIcNS_11char_traitsIcEENS_9allocatorIcEEEEN5Eigen6MatrixINS_7complexIfEELin1ELi1ELi0ELin1ELi1EEENS1_4hashIS9_EENS_8equal_toIS9_EENS7_INS_4pairIKS9_SE_EEEEE16insert_or_assignISE_EEbRSK_OT_EUlRSL_E_ONS2_6detail3foa18try_emplace_args_tESP_OSE_EEEONS_13tuple_elementIXT_ENS_5tupleIJDpT0_EEEE4typeEOS14_, symObjAddr: 0x472C4, symBinAddr: 0x1000499A8, symSize: 0x24 }
  - { offset: 0x9736B, size: 0x8, addend: 0x0, symName: __ZNSt3__13getB8ne180100ILm1EJOZN5boost9unordered19concurrent_flat_mapINS_12basic_stringIcNS_11char_traitsIcEENS_9allocatorIcEEEEN5Eigen6MatrixINS_7complexIfEELin1ELi1ELi0ELin1ELi1EEENS1_4hashIS9_EENS_8equal_toIS9_EENS7_INS_4pairIKS9_SE_EEEEE16insert_or_assignISE_EEbRSK_OT_EUlRSL_E_ONS2_6detail3foa18try_emplace_args_tESP_OSE_EEEONS_13tuple_elementIXT_ENS_5tupleIJDpT0_EEEE4typeEOS14_, symObjAddr: 0x472E8, symBinAddr: 0x1000499CC, symSize: 0x28 }
  - { offset: 0x973BD, size: 0x8, addend: 0x0, symName: __ZNSt3__13getB8ne180100ILm2EJOZN5boost9unordered19concurrent_flat_mapINS_12basic_stringIcNS_11char_traitsIcEENS_9allocatorIcEEEEN5Eigen6MatrixINS_7complexIfEELin1ELi1ELi0ELin1ELi1EEENS1_4hashIS9_EENS_8equal_toIS9_EENS7_INS_4pairIKS9_SE_EEEEE16insert_or_assignISE_EEbRSK_OT_EUlRSL_E_ONS2_6detail3foa18try_emplace_args_tESP_OSE_EEEONS_13tuple_elementIXT_ENS_5tupleIJDpT0_EEEE4typeEOS14_, symObjAddr: 0x47310, symBinAddr: 0x1000499F4, symSize: 0x28 }
  - { offset: 0x9740F, size: 0x8, addend: 0x0, symName: __ZNSt3__13getB8ne180100ILm3EJOZN5boost9unordered19concurrent_flat_mapINS_12basic_stringIcNS_11char_traitsIcEENS_9allocatorIcEEEEN5Eigen6MatrixINS_7complexIfEELin1ELi1ELi0ELin1ELi1EEENS1_4hashIS9_EENS_8equal_toIS9_EENS7_INS_4pairIKS9_SE_EEEEE16insert_or_assignISE_EEbRSK_OT_EUlRSL_E_ONS2_6detail3foa18try_emplace_args_tESP_OSE_EEEONS_13tuple_elementIXT_ENS_5tupleIJDpT0_EEEE4typeEOS14_, symObjAddr: 0x47338, symBinAddr: 0x100049A1C, symSize: 0x28 }
  - { offset: 0x974A9, size: 0x8, addend: 0x0, symName: __ZNSt3__13getB8ne180100ILm0EJOPN5boost9unordered6detail3foa16concurrent_tableINS4_14flat_map_typesINS_12basic_stringIcNS_11char_traitsIcEENS_9allocatorIcEEEEN5Eigen6MatrixINS_7complexIfEELin1ELi1ELi0ELin1ELi1EEEEENS1_4hashISC_EENS_8equal_toISC_EENSA_INS_4pairIKSC_SH_EEEEEEONS_17integral_constantIbLb1EEEOZNS2_19concurrent_flat_mapISC_SH_SK_SM_SQ_E16insert_or_assignISH_EEbRSO_OT_EUlRSP_E_ONS4_18try_emplace_args_tES10_OSH_EEERNS_13tuple_elementIXT_ENS_5tupleIJDpT0_EEEE4typeERS1D_, symObjAddr: 0x47874, symBinAddr: 0x100049F58, symSize: 0x24 }
  - { offset: 0x97506, size: 0x8, addend: 0x0, symName: __ZNSt3__13getB8ne180100ILm1EJOPN5boost9unordered6detail3foa16concurrent_tableINS4_14flat_map_typesINS_12basic_stringIcNS_11char_traitsIcEENS_9allocatorIcEEEEN5Eigen6MatrixINS_7complexIfEELin1ELi1ELi0ELin1ELi1EEEEENS1_4hashISC_EENS_8equal_toISC_EENSA_INS_4pairIKSC_SH_EEEEEEONS_17integral_constantIbLb1EEEOZNS2_19concurrent_flat_mapISC_SH_SK_SM_SQ_E16insert_or_assignISH_EEbRSO_OT_EUlRSP_E_ONS4_18try_emplace_args_tES10_OSH_EEERNS_13tuple_elementIXT_ENS_5tupleIJDpT0_EEEE4typeERS1D_, symObjAddr: 0x478BC, symBinAddr: 0x100049FA0, symSize: 0x28 }
  - { offset: 0x97563, size: 0x8, addend: 0x0, symName: __ZNSt3__13getB8ne180100ILm2EJOPN5boost9unordered6detail3foa16concurrent_tableINS4_14flat_map_typesINS_12basic_stringIcNS_11char_traitsIcEENS_9allocatorIcEEEEN5Eigen6MatrixINS_7complexIfEELin1ELi1ELi0ELin1ELi1EEEEENS1_4hashISC_EENS_8equal_toISC_EENSA_INS_4pairIKSC_SH_EEEEEEONS_17integral_constantIbLb1EEEOZNS2_19concurrent_flat_mapISC_SH_SK_SM_SQ_E16insert_or_assignISH_EEbRSO_OT_EUlRSP_E_ONS4_18try_emplace_args_tES10_OSH_EEERNS_13tuple_elementIXT_ENS_5tupleIJDpT0_EEEE4typeERS1D_, symObjAddr: 0x478FC, symBinAddr: 0x100049FE0, symSize: 0x28 }
  - { offset: 0x975C0, size: 0x8, addend: 0x0, symName: __ZNSt3__13getB8ne180100ILm3EJOPN5boost9unordered6detail3foa16concurrent_tableINS4_14flat_map_typesINS_12basic_stringIcNS_11char_traitsIcEENS_9allocatorIcEEEEN5Eigen6MatrixINS_7complexIfEELin1ELi1ELi0ELin1ELi1EEEEENS1_4hashISC_EENS_8equal_toISC_EENSA_INS_4pairIKSC_SH_EEEEEEONS_17integral_constantIbLb1EEEOZNS2_19concurrent_flat_mapISC_SH_SK_SM_SQ_E16insert_or_assignISH_EEbRSO_OT_EUlRSP_E_ONS4_18try_emplace_args_tES10_OSH_EEERNS_13tuple_elementIXT_ENS_5tupleIJDpT0_EEEE4typeERS1D_, symObjAddr: 0x47924, symBinAddr: 0x10004A008, symSize: 0x28 }
  - { offset: 0x9761D, size: 0x8, addend: 0x0, symName: __ZNSt3__13getB8ne180100ILm4EJOPN5boost9unordered6detail3foa16concurrent_tableINS4_14flat_map_typesINS_12basic_stringIcNS_11char_traitsIcEENS_9allocatorIcEEEEN5Eigen6MatrixINS_7complexIfEELin1ELi1ELi0ELin1ELi1EEEEENS1_4hashISC_EENS_8equal_toISC_EENSA_INS_4pairIKSC_SH_EEEEEEONS_17integral_constantIbLb1EEEOZNS2_19concurrent_flat_mapISC_SH_SK_SM_SQ_E16insert_or_assignISH_EEbRSO_OT_EUlRSP_E_ONS4_18try_emplace_args_tES10_OSH_EEERNS_13tuple_elementIXT_ENS_5tupleIJDpT0_EEEE4typeERS1D_, symObjAddr: 0x4794C, symBinAddr: 0x10004A030, symSize: 0x28 }
  - { offset: 0x9767A, size: 0x8, addend: 0x0, symName: __ZNSt3__13getB8ne180100ILm5EJOPN5boost9unordered6detail3foa16concurrent_tableINS4_14flat_map_typesINS_12basic_stringIcNS_11char_traitsIcEENS_9allocatorIcEEEEN5Eigen6MatrixINS_7complexIfEELin1ELi1ELi0ELin1ELi1EEEEENS1_4hashISC_EENS_8equal_toISC_EENSA_INS_4pairIKSC_SH_EEEEEEONS_17integral_constantIbLb1EEEOZNS2_19concurrent_flat_mapISC_SH_SK_SM_SQ_E16insert_or_assignISH_EEbRSO_OT_EUlRSP_E_ONS4_18try_emplace_args_tES10_OSH_EEERNS_13tuple_elementIXT_ENS_5tupleIJDpT0_EEEE4typeERS1D_, symObjAddr: 0x47974, symBinAddr: 0x10004A058, symSize: 0x28 }
  - { offset: 0x976F1, size: 0x8, addend: 0x0, symName: __ZNSt3__13getB8ne180100ILm3EJON5boost9unordered6detail3foa18try_emplace_args_tERKNS_12basic_stringIcNS_11char_traitsIcEENS_9allocatorIcEEEEON5Eigen6MatrixINS_7complexIfEELin1ELi1ELi0ELin1ELi1EEEOZNS2_19concurrent_flat_mapISC_SJ_NS1_4hashISC_EENS_8equal_toISC_EENSA_INS_4pairISD_SJ_EEEEE16insert_or_assignISJ_EEbSE_OT_EUlRSR_E_EEEONS_13tuple_elementIXT_ENS_5tupleIJDpT0_EEEE4typeEOS14_, symObjAddr: 0x47B10, symBinAddr: 0x10004A1F4, symSize: 0x28 }
  - { offset: 0x97743, size: 0x8, addend: 0x0, symName: __ZNSt3__13getB8ne180100ILm0EJON5boost9unordered6detail3foa18try_emplace_args_tERKNS_12basic_stringIcNS_11char_traitsIcEENS_9allocatorIcEEEEON5Eigen6MatrixINS_7complexIfEELin1ELi1ELi0ELin1ELi1EEEOZNS2_19concurrent_flat_mapISC_SJ_NS1_4hashISC_EENS_8equal_toISC_EENSA_INS_4pairISD_SJ_EEEEE16insert_or_assignISJ_EEbSE_OT_EUlRSR_E_EEEONS_13tuple_elementIXT_ENS_5tupleIJDpT0_EEEE4typeEOS14_, symObjAddr: 0x47B38, symBinAddr: 0x10004A21C, symSize: 0x24 }
  - { offset: 0x97795, size: 0x8, addend: 0x0, symName: __ZNSt3__13getB8ne180100ILm1EJON5boost9unordered6detail3foa18try_emplace_args_tERKNS_12basic_stringIcNS_11char_traitsIcEENS_9allocatorIcEEEEON5Eigen6MatrixINS_7complexIfEELin1ELi1ELi0ELin1ELi1EEEOZNS2_19concurrent_flat_mapISC_SJ_NS1_4hashISC_EENS_8equal_toISC_EENSA_INS_4pairISD_SJ_EEEEE16insert_or_assignISJ_EEbSE_OT_EUlRSR_E_EEEONS_13tuple_elementIXT_ENS_5tupleIJDpT0_EEEE4typeEOS14_, symObjAddr: 0x47B5C, symBinAddr: 0x10004A240, symSize: 0x28 }
  - { offset: 0x977E7, size: 0x8, addend: 0x0, symName: __ZNSt3__13getB8ne180100ILm2EJON5boost9unordered6detail3foa18try_emplace_args_tERKNS_12basic_stringIcNS_11char_traitsIcEENS_9allocatorIcEEEEON5Eigen6MatrixINS_7complexIfEELin1ELi1ELi0ELin1ELi1EEEOZNS2_19concurrent_flat_mapISC_SJ_NS1_4hashISC_EENS_8equal_toISC_EENSA_INS_4pairISD_SJ_EEEEE16insert_or_assignISJ_EEbSE_OT_EUlRSR_E_EEEONS_13tuple_elementIXT_ENS_5tupleIJDpT0_EEEE4typeEOS14_, symObjAddr: 0x47B84, symBinAddr: 0x10004A268, symSize: 0x28 }
  - { offset: 0x97ED0, size: 0x8, addend: 0x0, symName: __ZNSt3__16fill_nB8ne180100IPNS_7complexIfEElS2_EET_S4_T0_RKT1_, symObjAddr: 0x48C24, symBinAddr: 0x10004B308, symSize: 0x44 }
  - { offset: 0x97F33, size: 0x8, addend: 0x0, symName: __ZNSt3__18__fill_nB8ne180100IPNS_7complexIfEElS2_EET_S4_T0_RKT1_, symObjAddr: 0x48CE8, symBinAddr: 0x10004B3CC, symSize: 0x64 }
  - { offset: 0x97F96, size: 0x8, addend: 0x0, symName: __ZNSt3__19tuple_catB8ne180100INS_5tupleIJPN5boost9unordered6detail3foa16concurrent_tableINS5_14flat_map_typesINS_12basic_stringIcNS_11char_traitsIcEENS_9allocatorIcEEEEN5Eigen6MatrixINS_7complexIfEELin1ELi1ELi0ELin1ELi1EEEEENS2_4hashISD_EENS_8equal_toISD_EENSB_INS_4pairIKSD_SI_EEEEEENS_17integral_constantIbLb1EEEEEEJNS1_IJOZNS3_19concurrent_flat_mapISD_SI_SL_SN_SR_E16insert_or_assignIRSI_EEbRSP_OT_EUlRSQ_E_ONS5_18try_emplace_args_tES11_S10_EEEEEENS_18__tuple_cat_returnIJS12_DpT0_EE4typeES13_DpOS1B_, symObjAddr: 0x48DFC, symBinAddr: 0x10004B4E0, symSize: 0x48 }
  - { offset: 0x97FE7, size: 0x8, addend: 0x0, symName: __ZNSt3__116forward_as_tupleB8ne180100IJN5boost9unordered6detail3foa18try_emplace_args_tERKNS_12basic_stringIcNS_11char_traitsIcEENS_9allocatorIcEEEERN5Eigen6MatrixINS_7complexIfEELin1ELi1ELi0ELin1ELi1EEEZNS2_19concurrent_flat_mapISB_SI_NS1_4hashISB_EENS_8equal_toISB_EENS9_INS_4pairISC_SI_EEEEE16insert_or_assignISJ_EEbSD_OT_EUlRSQ_E_EEENS_5tupleIJDpOT_EEES11_, symObjAddr: 0x48E68, symBinAddr: 0x10004B54C, symSize: 0x48 }
  - { offset: 0x9805C, size: 0x8, addend: 0x0, symName: __ZNSt3__13getB8ne180100ILm0EJPN5boost9unordered6detail3foa16concurrent_tableINS4_14flat_map_typesINS_12basic_stringIcNS_11char_traitsIcEENS_9allocatorIcEEEEN5Eigen6MatrixINS_7complexIfEELin1ELi1ELi0ELin1ELi1EEEEENS1_4hashISC_EENS_8equal_toISC_EENSA_INS_4pairIKSC_SH_EEEEEENS_17integral_constantIbLb1EEEOZNS2_19concurrent_flat_mapISC_SH_SK_SM_SQ_E16insert_or_assignIRSH_EEbRSO_OT_EUlRSP_E_ONS4_18try_emplace_args_tESZ_SY_EEEONS_13tuple_elementIXT_ENS_5tupleIJDpT0_EEEE4typeEOS1B_, symObjAddr: 0x49698, symBinAddr: 0x10004BD7C, symSize: 0x24 }
  - { offset: 0x980B8, size: 0x8, addend: 0x0, symName: __ZNSt3__13getB8ne180100ILm1EJPN5boost9unordered6detail3foa16concurrent_tableINS4_14flat_map_typesINS_12basic_stringIcNS_11char_traitsIcEENS_9allocatorIcEEEEN5Eigen6MatrixINS_7complexIfEELin1ELi1ELi0ELin1ELi1EEEEENS1_4hashISC_EENS_8equal_toISC_EENSA_INS_4pairIKSC_SH_EEEEEENS_17integral_constantIbLb1EEEOZNS2_19concurrent_flat_mapISC_SH_SK_SM_SQ_E16insert_or_assignIRSH_EEbRSO_OT_EUlRSP_E_ONS4_18try_emplace_args_tESZ_SY_EEEONS_13tuple_elementIXT_ENS_5tupleIJDpT0_EEEE4typeEOS1B_, symObjAddr: 0x496BC, symBinAddr: 0x10004BDA0, symSize: 0x24 }
  - { offset: 0x98114, size: 0x8, addend: 0x0, symName: __ZNSt3__13getB8ne180100ILm2EJPN5boost9unordered6detail3foa16concurrent_tableINS4_14flat_map_typesINS_12basic_stringIcNS_11char_traitsIcEENS_9allocatorIcEEEEN5Eigen6MatrixINS_7complexIfEELin1ELi1ELi0ELin1ELi1EEEEENS1_4hashISC_EENS_8equal_toISC_EENSA_INS_4pairIKSC_SH_EEEEEENS_17integral_constantIbLb1EEEOZNS2_19concurrent_flat_mapISC_SH_SK_SM_SQ_E16insert_or_assignIRSH_EEbRSO_OT_EUlRSP_E_ONS4_18try_emplace_args_tESZ_SY_EEEONS_13tuple_elementIXT_ENS_5tupleIJDpT0_EEEE4typeEOS1B_, symObjAddr: 0x496E0, symBinAddr: 0x10004BDC4, symSize: 0x28 }
  - { offset: 0x98170, size: 0x8, addend: 0x0, symName: __ZNSt3__13getB8ne180100ILm3EJPN5boost9unordered6detail3foa16concurrent_tableINS4_14flat_map_typesINS_12basic_stringIcNS_11char_traitsIcEENS_9allocatorIcEEEEN5Eigen6MatrixINS_7complexIfEELin1ELi1ELi0ELin1ELi1EEEEENS1_4hashISC_EENS_8equal_toISC_EENSA_INS_4pairIKSC_SH_EEEEEENS_17integral_constantIbLb1EEEOZNS2_19concurrent_flat_mapISC_SH_SK_SM_SQ_E16insert_or_assignIRSH_EEbRSO_OT_EUlRSP_E_ONS4_18try_emplace_args_tESZ_SY_EEEONS_13tuple_elementIXT_ENS_5tupleIJDpT0_EEEE4typeEOS1B_, symObjAddr: 0x49708, symBinAddr: 0x10004BDEC, symSize: 0x28 }
  - { offset: 0x981CC, size: 0x8, addend: 0x0, symName: __ZNSt3__13getB8ne180100ILm4EJPN5boost9unordered6detail3foa16concurrent_tableINS4_14flat_map_typesINS_12basic_stringIcNS_11char_traitsIcEENS_9allocatorIcEEEEN5Eigen6MatrixINS_7complexIfEELin1ELi1ELi0ELin1ELi1EEEEENS1_4hashISC_EENS_8equal_toISC_EENSA_INS_4pairIKSC_SH_EEEEEENS_17integral_constantIbLb1EEEOZNS2_19concurrent_flat_mapISC_SH_SK_SM_SQ_E16insert_or_assignIRSH_EEbRSO_OT_EUlRSP_E_ONS4_18try_emplace_args_tESZ_SY_EEEONS_13tuple_elementIXT_ENS_5tupleIJDpT0_EEEE4typeEOS1B_, symObjAddr: 0x49730, symBinAddr: 0x10004BE14, symSize: 0x28 }
  - { offset: 0x98228, size: 0x8, addend: 0x0, symName: __ZNSt3__13getB8ne180100ILm5EJPN5boost9unordered6detail3foa16concurrent_tableINS4_14flat_map_typesINS_12basic_stringIcNS_11char_traitsIcEENS_9allocatorIcEEEEN5Eigen6MatrixINS_7complexIfEELin1ELi1ELi0ELin1ELi1EEEEENS1_4hashISC_EENS_8equal_toISC_EENSA_INS_4pairIKSC_SH_EEEEEENS_17integral_constantIbLb1EEEOZNS2_19concurrent_flat_mapISC_SH_SK_SM_SQ_E16insert_or_assignIRSH_EEbRSO_OT_EUlRSP_E_ONS4_18try_emplace_args_tESZ_SY_EEEONS_13tuple_elementIXT_ENS_5tupleIJDpT0_EEEE4typeEOS1B_, symObjAddr: 0x49758, symBinAddr: 0x10004BE3C, symSize: 0x28 }
  - { offset: 0x98284, size: 0x8, addend: 0x0, symName: __ZNSt3__116forward_as_tupleB8ne180100IJRN5Eigen6MatrixINS_7complexIfEELin1ELi1ELi0ELin1ELi1EEEEEENS_5tupleIJDpOT_EEESA_, symObjAddr: 0x498FC, symBinAddr: 0x10004BFE0, symSize: 0x2C }
  - { offset: 0x982BD, size: 0x8, addend: 0x0, symName: __ZNSt3__13getB8ne180100ILm0EJRN5Eigen6MatrixINS_7complexIfEELin1ELi1ELi0ELin1ELi1EEEEEERNS_13tuple_elementIXT_ENS_5tupleIJDpT0_EEEE4typeERSB_, symObjAddr: 0x49A80, symBinAddr: 0x10004C164, symSize: 0x24 }
  - { offset: 0x98E05, size: 0x8, addend: 0x0, symName: __ZNSt3__116forward_as_tupleB8ne180100IJPN5boost9unordered6detail3foa16concurrent_tableINS4_14flat_map_typesINS_12basic_stringIcNS_11char_traitsIcEENS_9allocatorIcEEEEN5Eigen6MatrixINS_7complexIfEELin1ELi1ELi0ELin1ELi1EEEEENS1_4hashISC_EENS_8equal_toISC_EENSA_INS_4pairIKSC_SH_EEEEEENS_17integral_constantIbLb1EEEZNS2_19concurrent_flat_mapISC_SH_SK_SM_SQ_E16insert_or_assignIRSH_EEbRSO_OT_EUlRSP_E_NS4_18try_emplace_args_tESZ_SY_EEENS_5tupleIJDpOT_EEES18_, symObjAddr: 0x49EF8, symBinAddr: 0x10004C5DC, symSize: 0x58 }
  - { offset: 0x98EA2, size: 0x8, addend: 0x0, symName: __ZNSt3__13getB8ne180100ILm0EJOZN5boost9unordered19concurrent_flat_mapINS_12basic_stringIcNS_11char_traitsIcEENS_9allocatorIcEEEEN5Eigen6MatrixINS_7complexIfEELin1ELi1ELi0ELin1ELi1EEENS1_4hashIS9_EENS_8equal_toIS9_EENS7_INS_4pairIKS9_SE_EEEEE16insert_or_assignIRSE_EEbRSK_OT_EUlRSL_E_ONS2_6detail3foa18try_emplace_args_tESQ_SP_EEEONS_13tuple_elementIXT_ENS_5tupleIJDpT0_EEEE4typeEOS14_, symObjAddr: 0x49F50, symBinAddr: 0x10004C634, symSize: 0x24 }
  - { offset: 0x98EF4, size: 0x8, addend: 0x0, symName: __ZNSt3__13getB8ne180100ILm1EJOZN5boost9unordered19concurrent_flat_mapINS_12basic_stringIcNS_11char_traitsIcEENS_9allocatorIcEEEEN5Eigen6MatrixINS_7complexIfEELin1ELi1ELi0ELin1ELi1EEENS1_4hashIS9_EENS_8equal_toIS9_EENS7_INS_4pairIKS9_SE_EEEEE16insert_or_assignIRSE_EEbRSK_OT_EUlRSL_E_ONS2_6detail3foa18try_emplace_args_tESQ_SP_EEEONS_13tuple_elementIXT_ENS_5tupleIJDpT0_EEEE4typeEOS14_, symObjAddr: 0x49F74, symBinAddr: 0x10004C658, symSize: 0x28 }
  - { offset: 0x98F46, size: 0x8, addend: 0x0, symName: __ZNSt3__13getB8ne180100ILm2EJOZN5boost9unordered19concurrent_flat_mapINS_12basic_stringIcNS_11char_traitsIcEENS_9allocatorIcEEEEN5Eigen6MatrixINS_7complexIfEELin1ELi1ELi0ELin1ELi1EEENS1_4hashIS9_EENS_8equal_toIS9_EENS7_INS_4pairIKS9_SE_EEEEE16insert_or_assignIRSE_EEbRSK_OT_EUlRSL_E_ONS2_6detail3foa18try_emplace_args_tESQ_SP_EEEONS_13tuple_elementIXT_ENS_5tupleIJDpT0_EEEE4typeEOS14_, symObjAddr: 0x49F9C, symBinAddr: 0x10004C680, symSize: 0x28 }
  - { offset: 0x98F98, size: 0x8, addend: 0x0, symName: __ZNSt3__13getB8ne180100ILm3EJOZN5boost9unordered19concurrent_flat_mapINS_12basic_stringIcNS_11char_traitsIcEENS_9allocatorIcEEEEN5Eigen6MatrixINS_7complexIfEELin1ELi1ELi0ELin1ELi1EEENS1_4hashIS9_EENS_8equal_toIS9_EENS7_INS_4pairIKS9_SE_EEEEE16insert_or_assignIRSE_EEbRSK_OT_EUlRSL_E_ONS2_6detail3foa18try_emplace_args_tESQ_SP_EEEONS_13tuple_elementIXT_ENS_5tupleIJDpT0_EEEE4typeEOS14_, symObjAddr: 0x49FC4, symBinAddr: 0x10004C6A8, symSize: 0x28 }
  - { offset: 0x99018, size: 0x8, addend: 0x0, symName: __ZNSt3__13getB8ne180100ILm0EJOPN5boost9unordered6detail3foa16concurrent_tableINS4_14flat_map_typesINS_12basic_stringIcNS_11char_traitsIcEENS_9allocatorIcEEEEN5Eigen6MatrixINS_7complexIfEELin1ELi1ELi0ELin1ELi1EEEEENS1_4hashISC_EENS_8equal_toISC_EENSA_INS_4pairIKSC_SH_EEEEEEONS_17integral_constantIbLb1EEEOZNS2_19concurrent_flat_mapISC_SH_SK_SM_SQ_E16insert_or_assignIRSH_EEbRSO_OT_EUlRSP_E_ONS4_18try_emplace_args_tES11_S10_EEERNS_13tuple_elementIXT_ENS_5tupleIJDpT0_EEEE4typeERS1D_, symObjAddr: 0x4A324, symBinAddr: 0x10004CA08, symSize: 0x24 }
  - { offset: 0x99075, size: 0x8, addend: 0x0, symName: __ZNSt3__13getB8ne180100ILm1EJOPN5boost9unordered6detail3foa16concurrent_tableINS4_14flat_map_typesINS_12basic_stringIcNS_11char_traitsIcEENS_9allocatorIcEEEEN5Eigen6MatrixINS_7complexIfEELin1ELi1ELi0ELin1ELi1EEEEENS1_4hashISC_EENS_8equal_toISC_EENSA_INS_4pairIKSC_SH_EEEEEEONS_17integral_constantIbLb1EEEOZNS2_19concurrent_flat_mapISC_SH_SK_SM_SQ_E16insert_or_assignIRSH_EEbRSO_OT_EUlRSP_E_ONS4_18try_emplace_args_tES11_S10_EEERNS_13tuple_elementIXT_ENS_5tupleIJDpT0_EEEE4typeERS1D_, symObjAddr: 0x4A348, symBinAddr: 0x10004CA2C, symSize: 0x28 }
  - { offset: 0x990D2, size: 0x8, addend: 0x0, symName: __ZNSt3__13getB8ne180100ILm2EJOPN5boost9unordered6detail3foa16concurrent_tableINS4_14flat_map_typesINS_12basic_stringIcNS_11char_traitsIcEENS_9allocatorIcEEEEN5Eigen6MatrixINS_7complexIfEELin1ELi1ELi0ELin1ELi1EEEEENS1_4hashISC_EENS_8equal_toISC_EENSA_INS_4pairIKSC_SH_EEEEEEONS_17integral_constantIbLb1EEEOZNS2_19concurrent_flat_mapISC_SH_SK_SM_SQ_E16insert_or_assignIRSH_EEbRSO_OT_EUlRSP_E_ONS4_18try_emplace_args_tES11_S10_EEERNS_13tuple_elementIXT_ENS_5tupleIJDpT0_EEEE4typeERS1D_, symObjAddr: 0x4A370, symBinAddr: 0x10004CA54, symSize: 0x28 }
  - { offset: 0x9912F, size: 0x8, addend: 0x0, symName: __ZNSt3__13getB8ne180100ILm3EJOPN5boost9unordered6detail3foa16concurrent_tableINS4_14flat_map_typesINS_12basic_stringIcNS_11char_traitsIcEENS_9allocatorIcEEEEN5Eigen6MatrixINS_7complexIfEELin1ELi1ELi0ELin1ELi1EEEEENS1_4hashISC_EENS_8equal_toISC_EENSA_INS_4pairIKSC_SH_EEEEEEONS_17integral_constantIbLb1EEEOZNS2_19concurrent_flat_mapISC_SH_SK_SM_SQ_E16insert_or_assignIRSH_EEbRSO_OT_EUlRSP_E_ONS4_18try_emplace_args_tES11_S10_EEERNS_13tuple_elementIXT_ENS_5tupleIJDpT0_EEEE4typeERS1D_, symObjAddr: 0x4A398, symBinAddr: 0x10004CA7C, symSize: 0x28 }
  - { offset: 0x9918C, size: 0x8, addend: 0x0, symName: __ZNSt3__13getB8ne180100ILm4EJOPN5boost9unordered6detail3foa16concurrent_tableINS4_14flat_map_typesINS_12basic_stringIcNS_11char_traitsIcEENS_9allocatorIcEEEEN5Eigen6MatrixINS_7complexIfEELin1ELi1ELi0ELin1ELi1EEEEENS1_4hashISC_EENS_8equal_toISC_EENSA_INS_4pairIKSC_SH_EEEEEEONS_17integral_constantIbLb1EEEOZNS2_19concurrent_flat_mapISC_SH_SK_SM_SQ_E16insert_or_assignIRSH_EEbRSO_OT_EUlRSP_E_ONS4_18try_emplace_args_tES11_S10_EEERNS_13tuple_elementIXT_ENS_5tupleIJDpT0_EEEE4typeERS1D_, symObjAddr: 0x4A3C0, symBinAddr: 0x10004CAA4, symSize: 0x28 }
  - { offset: 0x991E9, size: 0x8, addend: 0x0, symName: __ZNSt3__13getB8ne180100ILm5EJOPN5boost9unordered6detail3foa16concurrent_tableINS4_14flat_map_typesINS_12basic_stringIcNS_11char_traitsIcEENS_9allocatorIcEEEEN5Eigen6MatrixINS_7complexIfEELin1ELi1ELi0ELin1ELi1EEEEENS1_4hashISC_EENS_8equal_toISC_EENSA_INS_4pairIKSC_SH_EEEEEEONS_17integral_constantIbLb1EEEOZNS2_19concurrent_flat_mapISC_SH_SK_SM_SQ_E16insert_or_assignIRSH_EEbRSO_OT_EUlRSP_E_ONS4_18try_emplace_args_tES11_S10_EEERNS_13tuple_elementIXT_ENS_5tupleIJDpT0_EEEE4typeERS1D_, symObjAddr: 0x4A3E8, symBinAddr: 0x10004CACC, symSize: 0x28 }
  - { offset: 0x99246, size: 0x8, addend: 0x0, symName: __ZNSt3__13getB8ne180100ILm3EJON5boost9unordered6detail3foa18try_emplace_args_tERKNS_12basic_stringIcNS_11char_traitsIcEENS_9allocatorIcEEEERN5Eigen6MatrixINS_7complexIfEELin1ELi1ELi0ELin1ELi1EEEOZNS2_19concurrent_flat_mapISC_SJ_NS1_4hashISC_EENS_8equal_toISC_EENSA_INS_4pairISD_SJ_EEEEE16insert_or_assignISK_EEbSE_OT_EUlRSR_E_EEEONS_13tuple_elementIXT_ENS_5tupleIJDpT0_EEEE4typeEOS14_, symObjAddr: 0x4A474, symBinAddr: 0x10004CB58, symSize: 0x28 }
  - { offset: 0x99298, size: 0x8, addend: 0x0, symName: __ZNSt3__13getB8ne180100ILm0EJON5boost9unordered6detail3foa18try_emplace_args_tERKNS_12basic_stringIcNS_11char_traitsIcEENS_9allocatorIcEEEERN5Eigen6MatrixINS_7complexIfEELin1ELi1ELi0ELin1ELi1EEEOZNS2_19concurrent_flat_mapISC_SJ_NS1_4hashISC_EENS_8equal_toISC_EENSA_INS_4pairISD_SJ_EEEEE16insert_or_assignISK_EEbSE_OT_EUlRSR_E_EEEONS_13tuple_elementIXT_ENS_5tupleIJDpT0_EEEE4typeEOS14_, symObjAddr: 0x4A49C, symBinAddr: 0x10004CB80, symSize: 0x24 }
  - { offset: 0x992EA, size: 0x8, addend: 0x0, symName: __ZNSt3__13getB8ne180100ILm1EJON5boost9unordered6detail3foa18try_emplace_args_tERKNS_12basic_stringIcNS_11char_traitsIcEENS_9allocatorIcEEEERN5Eigen6MatrixINS_7complexIfEELin1ELi1ELi0ELin1ELi1EEEOZNS2_19concurrent_flat_mapISC_SJ_NS1_4hashISC_EENS_8equal_toISC_EENSA_INS_4pairISD_SJ_EEEEE16insert_or_assignISK_EEbSE_OT_EUlRSR_E_EEEONS_13tuple_elementIXT_ENS_5tupleIJDpT0_EEEE4typeEOS14_, symObjAddr: 0x4A4C0, symBinAddr: 0x10004CBA4, symSize: 0x28 }
  - { offset: 0x9933C, size: 0x8, addend: 0x0, symName: __ZNSt3__13getB8ne180100ILm2EJON5boost9unordered6detail3foa18try_emplace_args_tERKNS_12basic_stringIcNS_11char_traitsIcEENS_9allocatorIcEEEERN5Eigen6MatrixINS_7complexIfEELin1ELi1ELi0ELin1ELi1EEEOZNS2_19concurrent_flat_mapISC_SJ_NS1_4hashISC_EENS_8equal_toISC_EENSA_INS_4pairISD_SJ_EEEEE16insert_or_assignISK_EEbSE_OT_EUlRSR_E_EEEONS_13tuple_elementIXT_ENS_5tupleIJDpT0_EEEE4typeEOS14_, symObjAddr: 0x4A4E8, symBinAddr: 0x10004CBCC, symSize: 0x28 }
  - { offset: 0x99E31, size: 0x8, addend: 0x0, symName: __ZNSt3__14swapB8ne180100IPPKN5Eigen6MatrixINS_7complexIfEELin1ELi1ELi0ELin1ELi1EEEEENS_9enable_ifIXaasr21is_move_constructibleIT_EE5valuesr18is_move_assignableISA_EE5valueEvE4typeERSA_SD_, symObjAddr: 0x4F988, symBinAddr: 0x10005206C, symSize: 0x3C }
  - { offset: 0x99E82, size: 0x8, addend: 0x0, symName: __ZNSt3__14moveB8ne180100IPPKN5Eigen6MatrixINS_7complexIfEELin1ELi1ELi0ELin1ELi1EEES8_EET0_T_SA_S9_, symObjAddr: 0x4FAB8, symBinAddr: 0x10005219C, symSize: 0x40 }
  - { offset: 0x99EDC, size: 0x8, addend: 0x0, symName: __ZNSt3__112__to_addressB8ne180100IPKN5Eigen6MatrixINS_7complexIfEELin1ELi1ELi0ELin1ELi1EEEEEPT_S9_, symObjAddr: 0x4FBBC, symBinAddr: 0x1000522A0, symSize: 0x14 }
  - { offset: 0x99F11, size: 0x8, addend: 0x0, symName: __ZNSt3__16__moveB8ne180100INS_17_ClassicAlgPolicyEPPKN5Eigen6MatrixINS_7complexIfEELin1ELi1ELi0ELin1ELi1EEES9_S9_EENS_4pairIT0_T2_EESB_T1_SC_, symObjAddr: 0x4FBD0, symBinAddr: 0x1000522B4, symSize: 0x44 }
  - { offset: 0x99F7D, size: 0x8, addend: 0x0, symName: __ZNSt3__123__dispatch_copy_or_moveB8ne180100INS_17_ClassicAlgPolicyENS_11__move_loopIS1_EENS_14__move_trivialEPPKN5Eigen6MatrixINS_7complexIfEELin1ELi1ELi0ELin1ELi1EEESC_SC_EENS_4pairIT2_T4_EESE_T3_SF_, symObjAddr: 0x4FC14, symBinAddr: 0x1000522F8, symSize: 0x44 }
  - { offset: 0x99FFB, size: 0x8, addend: 0x0, symName: __ZNSt3__121__unwrap_and_dispatchB8ne180100INS_10__overloadINS_11__move_loopINS_17_ClassicAlgPolicyEEENS_14__move_trivialEEEPPKN5Eigen6MatrixINS_7complexIfEELin1ELi1ELi0ELin1ELi1EEESE_SE_Li0EEENS_4pairIT0_T2_EESG_T1_SH_, symObjAddr: 0x4FC58, symBinAddr: 0x10005233C, symSize: 0xB4 }
  - { offset: 0x9A089, size: 0x8, addend: 0x0, symName: __ZNSt3__114__unwrap_rangeB8ne180100IPPKN5Eigen6MatrixINS_7complexIfEELin1ELi1ELi0ELin1ELi1EEES8_EEDaT_T0_, symObjAddr: 0x4FD0C, symBinAddr: 0x1000523F0, symSize: 0x3C }
  - { offset: 0x9A207, size: 0x8, addend: 0x0, symName: __ZNSt3__113__unwrap_iterB8ne180100IPPKN5Eigen6MatrixINS_7complexIfEELin1ELi1ELi0ELin1ELi1EEENS_18__unwrap_iter_implIS8_Lb1EEELi0EEEDTclsrT0_8__unwrapclsr3stdE7declvalIT_EEEESC_, symObjAddr: 0x4FD90, symBinAddr: 0x100052474, symSize: 0x24 }
  - { offset: 0x9A24B, size: 0x8, addend: 0x0, symName: __ZNSt3__19make_pairB8ne180100IPPKN5Eigen6MatrixINS_7complexIfEELin1ELi1ELi0ELin1ELi1EEES8_EENS_4pairINS_18__unwrap_ref_decayIT_E4typeENSA_IT0_E4typeEEEOSB_OSE_, symObjAddr: 0x4FDB4, symBinAddr: 0x100052498, symSize: 0x38 }
  - { offset: 0x9A29A, size: 0x8, addend: 0x0, symName: __ZNSt3__114__rewrap_rangeB8ne180100IPPKN5Eigen6MatrixINS_7complexIfEELin1ELi1ELi0ELin1ELi1EEES8_S8_EET0_S9_T1_, symObjAddr: 0x4FDEC, symBinAddr: 0x1000524D0, symSize: 0x2C }
  - { offset: 0x9A2EF, size: 0x8, addend: 0x0, symName: __ZNSt3__113__rewrap_iterB8ne180100IPPKN5Eigen6MatrixINS_7complexIfEELin1ELi1ELi0ELin1ELi1EEES8_NS_18__unwrap_iter_implIS8_Lb1EEEEET_SB_T0_, symObjAddr: 0x4FE18, symBinAddr: 0x1000524FC, symSize: 0x3C }
  - { offset: 0x9A394, size: 0x8, addend: 0x0, symName: __ZNSt3__119__copy_trivial_implB8ne180100IPKN5Eigen6MatrixINS_7complexIfEELin1ELi1ELi0ELin1ELi1EEES7_EENS_4pairIPT_PT0_EESA_SA_SC_, symObjAddr: 0x4FF1C, symBinAddr: 0x100052600, symSize: 0x80 }
  - { offset: 0x9A3FC, size: 0x8, addend: 0x0, symName: __ZNSt3__119__constexpr_memmoveB8ne180100IPKN5Eigen6MatrixINS_7complexIfEELin1ELi1ELi0ELin1ELi1EEES7_Li0EEEPT_S9_PT0_NS_15__element_countE, symObjAddr: 0x4FF9C, symBinAddr: 0x100052680, symSize: 0x64 }
  - { offset: 0x9A46A, size: 0x8, addend: 0x0, symName: __ZNSt3__19make_pairB8ne180100IRPPKN5Eigen6MatrixINS_7complexIfEELin1ELi1ELi0ELin1ELi1EEES8_EENS_4pairINS_18__unwrap_ref_decayIT_E4typeENSB_IT0_E4typeEEEOSC_OSF_, symObjAddr: 0x50000, symBinAddr: 0x1000526E4, symSize: 0x38 }
  - { offset: 0x9A50C, size: 0x8, addend: 0x0, symName: __ZNSt3__18distanceB8ne180100INS_13move_iteratorIPPKN5Eigen6MatrixINS_7complexIfEELin1ELi1ELi0ELin1ELi1EEEEEEENS_15iterator_traitsIT_E15difference_typeESC_SC_, symObjAddr: 0x50224, symBinAddr: 0x100052908, symSize: 0x3C }
  - { offset: 0x9A54F, size: 0x8, addend: 0x0, symName: __ZNSt3__114__construct_atB8ne180100IPKN5Eigen6MatrixINS_7complexIfEELin1ELi1ELi0ELin1ELi1EEEJS7_EPS7_EEPT_SA_DpOT0_, symObjAddr: 0x503B0, symBinAddr: 0x100052A94, symSize: 0x2C }
  - { offset: 0x9A5A2, size: 0x8, addend: 0x0, symName: __ZNSt3__112construct_atB8ne180100IPKN5Eigen6MatrixINS_7complexIfEELin1ELi1ELi0ELin1ELi1EEEJS7_EPS7_EEPT_SA_DpOT0_, symObjAddr: 0x503DC, symBinAddr: 0x100052AC0, symSize: 0x24 }
  - { offset: 0x9A5F5, size: 0x8, addend: 0x0, symName: __ZNSt3__110__distanceB8ne180100INS_13move_iteratorIPPKN5Eigen6MatrixINS_7complexIfEELin1ELi1ELi0ELin1ELi1EEEEEEENS_15iterator_traitsIT_E15difference_typeESC_SC_NS_26random_access_iterator_tagE, symObjAddr: 0x5047C, symBinAddr: 0x100052B60, symSize: 0x30 }
  - { offset: 0x9A643, size: 0x8, addend: 0x0, symName: __ZNSt3__1miB8ne180100IPPKN5Eigen6MatrixINS_7complexIfEELin1ELi1ELi0ELin1ELi1EEES8_EEDTmicldtfp_4baseEcldtfp0_4baseEERKNS_13move_iteratorIT_EERKNSA_IT0_EE, symObjAddr: 0x504AC, symBinAddr: 0x100052B90, symSize: 0x4C }
  - { offset: 0x9A692, size: 0x8, addend: 0x0, symName: __ZNSt3__114__construct_atB8ne180100IPKN5Eigen6MatrixINS_7complexIfEELin1ELi1ELi0ELin1ELi1EEEJRKS7_EPS7_EEPT_SC_DpOT0_, symObjAddr: 0x5052C, symBinAddr: 0x100052C10, symSize: 0x2C }
  - { offset: 0x9A6E5, size: 0x8, addend: 0x0, symName: __ZNSt3__112construct_atB8ne180100IPKN5Eigen6MatrixINS_7complexIfEELin1ELi1ELi0ELin1ELi1EEEJRKS7_EPS7_EEPT_SC_DpOT0_, symObjAddr: 0x50558, symBinAddr: 0x100052C3C, symSize: 0x24 }
  - { offset: 0x9A738, size: 0x8, addend: 0x0, symName: __ZNSt3__113move_backwardB8ne180100IPPKN5Eigen6MatrixINS_7complexIfEELin1ELi1ELi0ELin1ELi1EEES8_EET0_T_SA_S9_, symObjAddr: 0x5065C, symBinAddr: 0x100052D40, symSize: 0x40 }
  - { offset: 0x9A792, size: 0x8, addend: 0x0, symName: __ZNSt3__115__move_backwardB8ne180100INS_17_ClassicAlgPolicyEPPKN5Eigen6MatrixINS_7complexIfEELin1ELi1ELi0ELin1ELi1EEES9_S9_EENS_4pairIT0_T2_EESB_T1_SC_, symObjAddr: 0x5069C, symBinAddr: 0x100052D80, symSize: 0x44 }
  - { offset: 0x9A7FE, size: 0x8, addend: 0x0, symName: __ZNSt3__123__dispatch_copy_or_moveB8ne180100INS_17_ClassicAlgPolicyENS_20__move_backward_loopIS1_EENS_23__move_backward_trivialEPPKN5Eigen6MatrixINS_7complexIfEELin1ELi1ELi0ELin1ELi1EEESC_SC_EENS_4pairIT2_T4_EESE_T3_SF_, symObjAddr: 0x506E0, symBinAddr: 0x100052DC4, symSize: 0x44 }
  - { offset: 0x9A87C, size: 0x8, addend: 0x0, symName: __ZNSt3__121__unwrap_and_dispatchB8ne180100INS_10__overloadINS_20__move_backward_loopINS_17_ClassicAlgPolicyEEENS_23__move_backward_trivialEEEPPKN5Eigen6MatrixINS_7complexIfEELin1ELi1ELi0ELin1ELi1EEESE_SE_Li0EEENS_4pairIT0_T2_EESG_T1_SH_, symObjAddr: 0x50724, symBinAddr: 0x100052E08, symSize: 0xB4 }
  - { offset: 0x9A9C8, size: 0x8, addend: 0x0, symName: __ZNSt3__128__copy_backward_trivial_implB8ne180100IPKN5Eigen6MatrixINS_7complexIfEELin1ELi1ELi0ELin1ELi1EEES7_EENS_4pairIPT_PT0_EESA_SA_SC_, symObjAddr: 0x50820, symBinAddr: 0x100052F04, symSize: 0x90 }
  - { offset: 0x9AA30, size: 0x8, addend: 0x0, symName: __ZNSt3__19make_pairB8ne180100IRPPKN5Eigen6MatrixINS_7complexIfEELin1ELi1ELi0ELin1ELi1EEES9_EENS_4pairINS_18__unwrap_ref_decayIT_E4typeENSB_IT0_E4typeEEEOSC_OSF_, symObjAddr: 0x508B0, symBinAddr: 0x100052F94, symSize: 0x38 }
  - { offset: 0x9AA7F, size: 0x8, addend: 0x0, symName: __ZNSt3__119__allocate_at_leastB8ne180100INS_9allocatorIPKN5Eigen6MatrixINS_7complexIfEELin1ELi1ELi0ELin1ELi1EEEEEEENS_19__allocation_resultINS_16allocator_traitsIT_E7pointerEEERSC_m, symObjAddr: 0x50AA0, symBinAddr: 0x100053184, symSize: 0x40 }
  - { offset: 0x9AAC3, size: 0x8, addend: 0x0, symName: __ZNSt3__112__destroy_atB8ne180100IPKN5Eigen6MatrixINS_7complexIfEELin1ELi1ELi0ELin1ELi1EEELi0EEEvPT_, symObjAddr: 0x5115C, symBinAddr: 0x100053840, symSize: 0x10 }
  - { offset: 0x9AAFA, size: 0x8, addend: 0x0, symName: __ZNSt3__114__construct_atB8ne180100IKN5Eigen6MatrixINS_7complexIfEELin1ELi1ELi0ELin1ELi1EEEJS6_EPS6_EEPT_S9_DpOT0_, symObjAddr: 0x511F8, symBinAddr: 0x1000538DC, symSize: 0x2C }
  - { offset: 0x9AB4D, size: 0x8, addend: 0x0, symName: __ZNSt3__112construct_atB8ne180100IKN5Eigen6MatrixINS_7complexIfEELin1ELi1ELi0ELin1ELi1EEEJS6_EPS6_EEPT_S9_DpOT0_, symObjAddr: 0x51224, symBinAddr: 0x100053908, symSize: 0x34 }
  - { offset: 0x9ABA0, size: 0x8, addend: 0x0, symName: __ZNSt3__114__construct_atB8ne180100IKN5Eigen6MatrixINS_7complexIfEELin1ELi1ELi0ELin1ELi1EEEJRS6_EPS6_EEPT_SA_DpOT0_, symObjAddr: 0x516BC, symBinAddr: 0x100053DA0, symSize: 0x2C }
  - { offset: 0x9ABF3, size: 0x8, addend: 0x0, symName: __ZNSt3__112construct_atB8ne180100IKN5Eigen6MatrixINS_7complexIfEELin1ELi1ELi0ELin1ELi1EEEJRS6_EPS6_EEPT_SA_DpOT0_, symObjAddr: 0x516E8, symBinAddr: 0x100053DCC, symSize: 0x34 }
  - { offset: 0x9AC46, size: 0x8, addend: 0x0, symName: __ZNSt3__114__construct_atB8ne180100INS_4pairIKNS_12basic_stringIcNS_11char_traitsIcEENS_9allocatorIcEEEEN5Eigen6MatrixINS_7complexIfEELin1ELi1ELi0ELin1ELi1EEEEEJRKNS_21piecewise_construct_tENS_5tupleIJRS8_EEENSI_IJEEEEPSE_EEPT_SO_DpOT0_, symObjAddr: 0x51DD4, symBinAddr: 0x1000544B8, symSize: 0x3C }
  - { offset: 0x9ACBF, size: 0x8, addend: 0x0, symName: __ZNSt3__112construct_atB8ne180100INS_4pairIKNS_12basic_stringIcNS_11char_traitsIcEENS_9allocatorIcEEEEN5Eigen6MatrixINS_7complexIfEELin1ELi1ELi0ELin1ELi1EEEEEJRKNS_21piecewise_construct_tENS_5tupleIJRS8_EEENSI_IJEEEEPSE_EEPT_SO_DpOT0_, symObjAddr: 0x51E10, symBinAddr: 0x1000544F4, symSize: 0x48 }
  - { offset: 0x9AD38, size: 0x8, addend: 0x0, symName: __ZNSt3__112__to_addressB8ne180100IKN5Eigen6MatrixINS_7complexIfEELin1ELi1ELi0ELin1ELi1EEEEEPT_S8_, symObjAddr: 0x520B8, symBinAddr: 0x10005479C, symSize: 0x14 }
  - { offset: 0x9AD6D, size: 0x8, addend: 0x0, symName: __ZNSt3__112__destroy_atB8ne180100IKN5Eigen6MatrixINS_7complexIfEELin1ELi1ELi0ELin1ELi1EEELi0EEEvPT_, symObjAddr: 0x521CC, symBinAddr: 0x1000548B0, symSize: 0x24 }
  - { offset: 0x9ADA4, size: 0x8, addend: 0x0, symName: __ZNSt3__13cosB8ne180100IfEENS_7complexIT_EERKS3_, symObjAddr: 0x530BC, symBinAddr: 0x1000557A0, symSize: 0x60 }
  - { offset: 0x9ADDB, size: 0x8, addend: 0x0, symName: __ZNSt3__14coshB8ne180100IfEENS_7complexIT_EERKS3_, symObjAddr: 0x5311C, symBinAddr: 0x100055800, symSize: 0x1C0 }
  - { offset: 0x9AE12, size: 0x8, addend: 0x0, symName: __ZNSt3__117__constexpr_isinfB8ne180100IfLi0EEEbT_, symObjAddr: 0x532DC, symBinAddr: 0x1000559C0, symSize: 0x28 }
  - { offset: 0x9AE4F, size: 0x8, addend: 0x0, symName: __ZNSt3__120__constexpr_isfiniteB8ne180100IfLi0EEEbT_, symObjAddr: 0x53304, symBinAddr: 0x1000559E8, symSize: 0x24 }
  - { offset: 0x9AE8C, size: 0x8, addend: 0x0, symName: __ZNSt3__13expB8ne180100IfEENS_7complexIT_EERKS3_, symObjAddr: 0x54060, symBinAddr: 0x100056744, symSize: 0x188 }
  - { offset: 0x9AEE1, size: 0x8, addend: 0x0, symName: __ZNSt3__14realB8ne180100IfEET_RKNS_7complexIS1_EE, symObjAddr: 0x550D0, symBinAddr: 0x1000577B4, symSize: 0x24 }
  - { offset: 0x9AF18, size: 0x8, addend: 0x0, symName: __ZNSt3__14imagB8ne180100IfEET_RKNS_7complexIS1_EE, symObjAddr: 0x55118, symBinAddr: 0x1000577FC, symSize: 0x24 }
  - { offset: 0x9B35F, size: 0x8, addend: 0x0, symName: __ZNSt3__13sinB8ne180100IfEENS_7complexIT_EERKS3_, symObjAddr: 0x55F88, symBinAddr: 0x10005866C, symSize: 0x8C }
  - { offset: 0x9B3A5, size: 0x8, addend: 0x0, symName: __ZNSt3__14sinhB8ne180100IfEENS_7complexIT_EERKS3_, symObjAddr: 0x56014, symBinAddr: 0x1000586F8, symSize: 0x150 }
  - { offset: 0x9B3DC, size: 0x8, addend: 0x0, symName: __ZNSt3__14asinB8ne180100IfEENS_7complexIT_EERKS3_, symObjAddr: 0x56D10, symBinAddr: 0x1000593F4, symSize: 0x8C }
  - { offset: 0x9B422, size: 0x8, addend: 0x0, symName: __ZNSt3__15asinhB8ne180100IfEENS_7complexIT_EERKS3_, symObjAddr: 0x56D9C, symBinAddr: 0x100059480, symSize: 0x2D4 }
  - { offset: 0x9B477, size: 0x8, addend: 0x0, symName: __ZNSt3__117__constexpr_isnanB8ne180100IfLi0EEEbT_, symObjAddr: 0x57070, symBinAddr: 0x100059754, symSize: 0x1C }
  - { offset: 0x9B4B4, size: 0x8, addend: 0x0, symName: __ZNSt3__13logB8ne180100IfEENS_7complexIT_EERKS3_, symObjAddr: 0x5708C, symBinAddr: 0x100059770, symSize: 0x4C }
  - { offset: 0x9B4EB, size: 0x8, addend: 0x0, symName: __ZNSt3__1plB8ne180100IfEENS_7complexIT_EERKS3_S5_, symObjAddr: 0x570D8, symBinAddr: 0x1000597BC, symSize: 0x40 }
  - { offset: 0x9B540, size: 0x8, addend: 0x0, symName: __ZNSt3__14sqrtB8ne180100IfEENS_7complexIT_EERKS3_, symObjAddr: 0x57118, symBinAddr: 0x1000597FC, symSize: 0x194 }
  - { offset: 0x9B577, size: 0x8, addend: 0x0, symName: __ZNSt3__1plB8ne180100IfEENS_7complexIT_EERKS3_RKS2_, symObjAddr: 0x572AC, symBinAddr: 0x100059990, symSize: 0x44 }
  - { offset: 0x9B5CC, size: 0x8, addend: 0x0, symName: __ZNSt3__15__sqrB8ne180100IfEENS_7complexIT_EERKS3_, symObjAddr: 0x572F0, symBinAddr: 0x1000599D4, symSize: 0xAC }
  - { offset: 0x9B603, size: 0x8, addend: 0x0, symName: __ZNSt3__13argB8ne180100IfEET_RKNS_7complexIS1_EE, symObjAddr: 0x573C0, symBinAddr: 0x100059AA4, symSize: 0x3C }
  - { offset: 0x9B63A, size: 0x8, addend: 0x0, symName: __ZNSt3__15polarB8ne180100IfEENS_7complexIT_EERKS2_S5_, symObjAddr: 0x57488, symBinAddr: 0x100059B6C, symSize: 0x1C0 }
  - { offset: 0x9B69E, size: 0x8, addend: 0x0, symName: __ZNSt3__14tanhB8ne180100IfEENS_7complexIT_EERKS3_, symObjAddr: 0x58EC8, symBinAddr: 0x10005B5AC, symSize: 0x200 }
  - { offset: 0x9B711, size: 0x8, addend: 0x0, symName: __ZNSt3__1dvB8ne180100IfEENS_7complexIT_EERKS2_RKS3_, symObjAddr: 0x5A700, symBinAddr: 0x10005CDE4, symSize: 0x4C }
  - { offset: 0x9B766, size: 0x8, addend: 0x0, symName: __ZNSt3__1dvB8ne180100IfEENS_7complexIT_EERKS3_S5_, symObjAddr: 0x5A7BC, symBinAddr: 0x10005CEA0, symSize: 0x3DC }
  - { offset: 0x9B833, size: 0x8, addend: 0x0, symName: __ZNSt3__116__constexpr_logbB8ne180100IfEET_S1_, symObjAddr: 0x5AB98, symBinAddr: 0x10005D27C, symSize: 0x2C }
  - { offset: 0x9B86A, size: 0x8, addend: 0x0, symName: __ZNSt3__116__constexpr_fmaxB8ne180100Eff, symObjAddr: 0x5ABC4, symBinAddr: 0x10005D2A8, symSize: 0x20 }
  - { offset: 0x9B8A7, size: 0x8, addend: 0x0, symName: __ZNSt3__116__constexpr_fabsB8ne180100Ef, symObjAddr: 0x5ABE4, symBinAddr: 0x10005D2C8, symSize: 0x18 }
  - { offset: 0x9B8D5, size: 0x8, addend: 0x0, symName: __ZNSt3__118__constexpr_scalbnB8ne180100IfEET_S1_i, symObjAddr: 0x5ABFC, symBinAddr: 0x10005D2E0, symSize: 0x34 }
  - { offset: 0x9B91B, size: 0x8, addend: 0x0, symName: __ZNSt3__120__constexpr_copysignB8ne180100Eff, symObjAddr: 0x5AC30, symBinAddr: 0x10005D314, symSize: 0x4C }
  - { offset: 0x9B958, size: 0x8, addend: 0x0, symName: __ZNSt3__14acosB8ne180100IfEENS_7complexIT_EERKS3_, symObjAddr: 0x5B9F4, symBinAddr: 0x10005E0D8, symSize: 0x3EC }
  - { offset: 0x9B9AD, size: 0x8, addend: 0x0, symName: __ZNSt3__1miB8ne180100IfEENS_7complexIT_EERKS3_RKS2_, symObjAddr: 0x5BDE0, symBinAddr: 0x10005E4C4, symSize: 0x44 }
  - { offset: 0x9BA02, size: 0x8, addend: 0x0, symName: __ZNSt3__1ngB8ne180100IfEENS_7complexIT_EERKS3_, symObjAddr: 0x5CC24, symBinAddr: 0x10005F308, symSize: 0x50 }
  - { offset: 0x9BA39, size: 0x8, addend: 0x0, symName: __ZNSt3__14conjB8ne180100IfEENS_7complexIT_EERKS3_, symObjAddr: 0x5DAC0, symBinAddr: 0x1000601A4, symSize: 0x4C }
  - { offset: 0x9BA70, size: 0x8, addend: 0x0, symName: __ZNSt3__1mlB8ne180100IfEENS_7complexIT_EERKS3_S5_, symObjAddr: 0x60A20, symBinAddr: 0x100063104, symSize: 0x3C8 }
  - { offset: 0x9BB67, size: 0x8, addend: 0x0, symName: __ZNSt3__13powB8ne180100IfEENS_7complexIT_EERKS3_S5_, symObjAddr: 0x62AFC, symBinAddr: 0x1000651E0, symSize: 0x64 }
  - { offset: 0x9BBAD, size: 0x8, addend: 0x0, symName: __ZNSt3__1neB8ne180100ERKNS_16__deque_iteratorIKN5Eigen6MatrixINS_7complexIfEELin1ELi1ELi0ELin1ELi1EEEPS6_RS6_PS7_lLl256EEESC_, symObjAddr: 0x62F78, symBinAddr: 0x10006565C, symSize: 0x34 }
  - { offset: 0x9BBEA, size: 0x8, addend: 0x0, symName: __ZNSt3__1eqB8ne180100ERKNS_16__deque_iteratorIKN5Eigen6MatrixINS_7complexIfEELin1ELi1ELi0ELin1ELi1EEEPS6_RS6_PS7_lLl256EEESC_, symObjAddr: 0x6301C, symBinAddr: 0x100065700, symSize: 0x30 }
  - { offset: 0x9BC27, size: 0x8, addend: 0x0, symName: __ZNSt3__15asyncB8ne180100IRZN5Board8AsyncPSOEvEUliE_JRiEEENS_6futureINS_11__invoke_ofIu7__decayIT_EJDpu7__decayIT0_EEE4typeEEENS_6launchEOS7_DpOS9_, symObjAddr: 0x632D8, symBinAddr: 0x1000659BC, symSize: 0x198 }
  - { offset: 0x9BC87, size: 0x8, addend: 0x0, symName: __ZNSt3__1orB8ne180100ENS_6launchES0_, symObjAddr: 0x63470, symBinAddr: 0x100065B54, symSize: 0x20 }
  - { offset: 0x9BCC4, size: 0x8, addend: 0x0, symName: __ZNSt3__1neB8ne180100IPNS_6futureIvEEEEbRKNS_11__wrap_iterIT_EES8_, symObjAddr: 0x634F0, symBinAddr: 0x100065BD4, symSize: 0x34 }
  - { offset: 0x9BD07, size: 0x8, addend: 0x0, symName: __ZNSt3__119__allocate_at_leastB8ne180100INS_9allocatorINS_6futureIvEEEEEENS_19__allocation_resultINS_16allocator_traitsIT_E7pointerEEERS7_m, symObjAddr: 0x63B94, symBinAddr: 0x100066278, symSize: 0x40 }
  - { offset: 0x9BD4A, size: 0x8, addend: 0x0, symName: __ZNSt3__142__uninitialized_allocator_move_if_noexceptB8ne180100INS_9allocatorINS_6futureIvEEEENS_16reverse_iteratorIPS3_EES7_S7_EET2_RT_T0_T1_S8_, symObjAddr: 0x63D6C, symBinAddr: 0x100066450, symSize: 0x12C }
  - { offset: 0x9BDEA, size: 0x8, addend: 0x0, symName: __ZNSt3__14swapB8ne180100IPNS_6futureIvEEEENS_9enable_ifIXaasr21is_move_constructibleIT_EE5valuesr18is_move_assignableIS5_EE5valueEvE4typeERS5_S8_, symObjAddr: 0x63EE4, symBinAddr: 0x1000665C8, symSize: 0x3C }
  - { offset: 0x9BE3B, size: 0x8, addend: 0x0, symName: __ZNSt3__122__make_exception_guardB8ne180100INS_29_AllocatorDestroyRangeReverseINS_9allocatorINS_6futureIvEEEENS_16reverse_iteratorIPS4_EEEEEENS_28__exception_guard_exceptionsIT_EESB_, symObjAddr: 0x63F5C, symBinAddr: 0x100066640, symSize: 0x4C }
  - { offset: 0x9BE71, size: 0x8, addend: 0x0, symName: __ZNSt3__1neB8ne180100IPNS_6futureIvEES3_EEbRKNS_16reverse_iteratorIT_EERKNS4_IT0_EE, symObjAddr: 0x63FEC, symBinAddr: 0x1000666D0, symSize: 0x48 }
  - { offset: 0x9BEBD, size: 0x8, addend: 0x0, symName: __ZNSt3__112__to_addressB8ne180100INS_16reverse_iteratorIPNS_6futureIvEEEEvEEu7__decayIDTclsr19__to_address_helperIT_EE6__callclsr3stdE7declvalIRKS6_EEEEES8_, symObjAddr: 0x64064, symBinAddr: 0x100066748, symSize: 0x24 }
  - { offset: 0x9BEF3, size: 0x8, addend: 0x0, symName: __ZNSt3__114__construct_atB8ne180100INS_6futureIvEEJS2_EPS2_EEPT_S5_DpOT0_, symObjAddr: 0x641B4, symBinAddr: 0x100066898, symSize: 0x2C }
  - { offset: 0x9BF46, size: 0x8, addend: 0x0, symName: __ZNSt3__112construct_atB8ne180100INS_6futureIvEEJS2_EPS2_EEPT_S5_DpOT0_, symObjAddr: 0x641E0, symBinAddr: 0x1000668C4, symSize: 0x34 }
  - { offset: 0x9BFC3, size: 0x8, addend: 0x0, symName: __ZNSt3__112__to_addressB8ne180100INS_6futureIvEEEEPT_S4_, symObjAddr: 0x642AC, symBinAddr: 0x100066990, symSize: 0x14 }
  - { offset: 0x9BFF8, size: 0x8, addend: 0x0, symName: __ZNSt3__14prevB8ne180100IPNS_6futureIvEELi0EEET_S4_NS_15iterator_traitsIS4_E15difference_typeE, symObjAddr: 0x642EC, symBinAddr: 0x1000669D0, symSize: 0x3C }
  - { offset: 0x9C042, size: 0x8, addend: 0x0, symName: __ZNSt3__19__advanceB8ne180100IPNS_6futureIvEEEEvRT_NS_15iterator_traitsIS4_E15difference_typeENS_26random_access_iterator_tagE, symObjAddr: 0x64360, symBinAddr: 0x100066A44, symSize: 0x28 }
  - { offset: 0x9C08C, size: 0x8, addend: 0x0, symName: __ZNSt3__119__allocator_destroyB8ne180100INS_9allocatorINS_6futureIvEEEENS_16reverse_iteratorINS5_IPS3_EEEES8_EEvRT_T0_T1_, symObjAddr: 0x6448C, symBinAddr: 0x100066B70, symSize: 0x70 }
  - { offset: 0x9C0F1, size: 0x8, addend: 0x0, symName: __ZNSt3__1neB8ne180100INS_16reverse_iteratorIPNS_6futureIvEEEES5_EEbRKNS1_IT_EERKNS1_IT0_EE, symObjAddr: 0x64538, symBinAddr: 0x100066C1C, symSize: 0x60 }
  - { offset: 0x9C13D, size: 0x8, addend: 0x0, symName: __ZNSt3__112__to_addressB8ne180100INS_16reverse_iteratorINS1_IPNS_6futureIvEEEEEEvEEu7__decayIDTclsr19__to_address_helperIT_EE6__callclsr3stdE7declvalIRKS7_EEEEES9_, symObjAddr: 0x645C0, symBinAddr: 0x100066CA4, symSize: 0x24 }
  - { offset: 0x9C173, size: 0x8, addend: 0x0, symName: __ZNSt3__112__destroy_atB8ne180100INS_6futureIvEELi0EEEvPT_, symObjAddr: 0x64638, symBinAddr: 0x100066D1C, symSize: 0x24 }
  - { offset: 0x9C1D4, size: 0x8, addend: 0x0, symName: __ZNSt3__14prevB8ne180100INS_16reverse_iteratorIPNS_6futureIvEEEELi0EEET_S6_NS_15iterator_traitsIS6_E15difference_typeE, symObjAddr: 0x646E0, symBinAddr: 0x100066DC4, symSize: 0x4C }
  - { offset: 0x9C21D, size: 0x8, addend: 0x0, symName: __ZNSt3__19__advanceB8ne180100INS_16reverse_iteratorIPNS_6futureIvEEEEEEvRT_NS_15iterator_traitsIS6_E15difference_typeENS_26random_access_iterator_tagE, symObjAddr: 0x64764, symBinAddr: 0x100066E48, symSize: 0x2C }
  - { offset: 0x9C267, size: 0x8, addend: 0x0, symName: __ZNSt3__121__does_policy_containB8ne180100ENS_6launchES0_, symObjAddr: 0x64DB0, symBinAddr: 0x100067494, symSize: 0x28 }
  - { offset: 0x9C2A4, size: 0x8, addend: 0x0, symName: __ZNSt3__124__make_async_assoc_stateB8ne180100IvNS_12__async_funcIZN5Board8AsyncPSOEvEUliE_JiEEEEENS_6futureIT_EEOT0_, symObjAddr: 0x64DD8, symBinAddr: 0x1000674BC, symSize: 0x110 }
  - { offset: 0x9C2EF, size: 0x8, addend: 0x0, symName: __ZNSt3__127__make_deferred_assoc_stateB8ne180100IvNS_12__async_funcIZN5Board8AsyncPSOEvEUliE_JiEEEEENS_6futureIT_EEOT0_, symObjAddr: 0x64F24, symBinAddr: 0x100067608, symSize: 0xA8 }
  - { offset: 0x9C72E, size: 0x8, addend: 0x0, symName: __ZNSt3__18__invokeB8ne180100IZN5Board8AsyncPSOEvEUliE_JiEEEDTclclsr3stdE7declvalIT_EEspclsr3stdE7declvalIT0_EEEEOS3_DpOS4_, symObjAddr: 0x655C8, symBinAddr: 0x100067CAC, symSize: 0x30 }
  - { offset: 0x9C77B, size: 0x8, addend: 0x0, symName: __ZNSt3__13getB8ne180100ILm0EJZN5Board8AsyncPSOEvEUliE_iEEERNS_13tuple_elementIXT_ENS_5tupleIJDpT0_EEEE4typeERS7_, symObjAddr: 0x655F8, symBinAddr: 0x100067CDC, symSize: 0x24 }
  - { offset: 0x9C7C3, size: 0x8, addend: 0x0, symName: __ZNSt3__13getB8ne180100ILm1EJZN5Board8AsyncPSOEvEUliE_iEEERNS_13tuple_elementIXT_ENS_5tupleIJDpT0_EEEE4typeERS7_, symObjAddr: 0x6561C, symBinAddr: 0x100067D00, symSize: 0x28 }
  - { offset: 0x9CC00, size: 0x8, addend: 0x0, symName: __ZNSt3__114__thread_proxyB8ne180100INS_5tupleIJNS_10unique_ptrINS_15__thread_structENS_14default_deleteIS3_EEEEMNS_19__async_assoc_stateIvNS_12__async_funcIZN5Board8AsyncPSOEvEUliE_JiEEEEEFvvEPSC_EEEEEPvSH_, symObjAddr: 0x6609C, symBinAddr: 0x100068780, symSize: 0x90 }
  - { offset: 0x9CC62, size: 0x8, addend: 0x0, symName: __ZNSt3__13getB8ne180100ILm0EJNS_10unique_ptrINS_15__thread_structENS_14default_deleteIS2_EEEEMNS_19__async_assoc_stateIvNS_12__async_funcIZN5Board8AsyncPSOEvEUliE_JiEEEEEFvvEPSB_EEERNS_13tuple_elementIXT_ENS_5tupleIJDpT0_EEEE4typeERSJ_, symObjAddr: 0x663F0, symBinAddr: 0x100068AD4, symSize: 0x24 }
  - { offset: 0x9CCAF, size: 0x8, addend: 0x0, symName: __ZNSt3__116__thread_executeB8ne180100INS_10unique_ptrINS_15__thread_structENS_14default_deleteIS2_EEEEMNS_19__async_assoc_stateIvNS_12__async_funcIZN5Board8AsyncPSOEvEUliE_JiEEEEEFvvEJPSB_EJLm2EEEEvRNS_5tupleIJT_T0_DpT1_EEENS_15__tuple_indicesIJXspT2_EEEE, symObjAddr: 0x66414, symBinAddr: 0x100068AF8, symSize: 0x3C }
  - { offset: 0x9CD0B, size: 0x8, addend: 0x0, symName: __ZNSt3__18__invokeB8ne180100IMNS_19__async_assoc_stateIvNS_12__async_funcIZN5Board8AsyncPSOEvEUliE_JiEEEEEFvvEPS6_JEvEEDTcldsdeclsr3stdE7declvalIT0_EEclsr3stdE7declvalIT_EEspclsr3stdE7declvalIT1_EEEEOSB_OSA_DpOSC_, symObjAddr: 0x66450, symBinAddr: 0x100068B34, symSize: 0x90 }
  - { offset: 0x9CD5C, size: 0x8, addend: 0x0, symName: __ZNSt3__13getB8ne180100ILm1EJNS_10unique_ptrINS_15__thread_structENS_14default_deleteIS2_EEEEMNS_19__async_assoc_stateIvNS_12__async_funcIZN5Board8AsyncPSOEvEUliE_JiEEEEEFvvEPSB_EEERNS_13tuple_elementIXT_ENS_5tupleIJDpT0_EEEE4typeERSJ_, symObjAddr: 0x664E0, symBinAddr: 0x100068BC4, symSize: 0x28 }
  - { offset: 0x9CDA9, size: 0x8, addend: 0x0, symName: __ZNSt3__13getB8ne180100ILm2EJNS_10unique_ptrINS_15__thread_structENS_14default_deleteIS2_EEEEMNS_19__async_assoc_stateIvNS_12__async_funcIZN5Board8AsyncPSOEvEUliE_JiEEEEEFvvEPSB_EEERNS_13tuple_elementIXT_ENS_5tupleIJDpT0_EEEE4typeERSJ_, symObjAddr: 0x66508, symBinAddr: 0x100068BEC, symSize: 0x28 }
  - { offset: 0x9CDF6, size: 0x8, addend: 0x0, symName: __ZNSt3__134__libcpp_atomic_refcount_decrementB8ne180100IlEET_RS1_, symObjAddr: 0x66994, symBinAddr: 0x100069078, symSize: 0x30 }
  - { offset: 0x9D1DC, size: 0x8, addend: 0x0, symName: __ZNSt3__1eqB8ne180100IPNS_6futureIvEEEEbRKNS_11__wrap_iterIT_EES8_, symObjAddr: 0x670AC, symBinAddr: 0x100069790, symSize: 0x48 }
  - { offset: 0x9D21F, size: 0x8, addend: 0x0, symName: __ZNSt3__116forward_as_tupleB8ne180100IJRKbEEENS_5tupleIJDpOT_EEES6_, symObjAddr: 0x67E00, symBinAddr: 0x10006A4E4, symSize: 0x2C }
  - { offset: 0x9D258, size: 0x8, addend: 0x0, symName: __ZNSt3__114__construct_atB8ne180100INS_4pairIKbNS_13unordered_mapIbNS3_IbNS_6vectorIfNS_9allocatorIfEEEENS_4hashIbEENS_8equal_toIbEENS5_INS1_IS2_S7_EEEEEES9_SB_NS5_INS1_IS2_SE_EEEEEEEEJRKNS_21piecewise_construct_tENS_5tupleIJRS2_EEENSM_IJEEEEPSI_EEPT_SS_DpOT0_, symObjAddr: 0x67FB4, symBinAddr: 0x10006A698, symSize: 0x3C }
  - { offset: 0x9D2D1, size: 0x8, addend: 0x0, symName: __ZNSt3__112construct_atB8ne180100INS_4pairIKbNS_13unordered_mapIbNS3_IbNS_6vectorIfNS_9allocatorIfEEEENS_4hashIbEENS_8equal_toIbEENS5_INS1_IS2_S7_EEEEEES9_SB_NS5_INS1_IS2_SE_EEEEEEEEJRKNS_21piecewise_construct_tENS_5tupleIJRS2_EEENSM_IJEEEEPSI_EEPT_SS_DpOT0_, symObjAddr: 0x67FF0, symBinAddr: 0x10006A6D4, symSize: 0x48 }
  - { offset: 0x9D34A, size: 0x8, addend: 0x0, symName: __ZNSt3__13getB8ne180100ILm0EJRKbEEERNS_13tuple_elementIXT_ENS_5tupleIJDpT0_EEEE4typeERS7_, symObjAddr: 0x68108, symBinAddr: 0x10006A7EC, symSize: 0x24 }
  - { offset: 0x9D3A2, size: 0x8, addend: 0x0, symName: __ZNSt3__114__construct_atB8ne180100INS_4pairIKbNS_13unordered_mapIbNS_6vectorIfNS_9allocatorIfEEEENS_4hashIbEENS_8equal_toIbEENS5_INS1_IS2_S7_EEEEEEEEJRKNS_21piecewise_construct_tENS_5tupleIJRS2_EEENSJ_IJEEEEPSF_EEPT_SP_DpOT0_, symObjAddr: 0x6886C, symBinAddr: 0x10006AF50, symSize: 0x3C }
  - { offset: 0x9D41B, size: 0x8, addend: 0x0, symName: __ZNSt3__112construct_atB8ne180100INS_4pairIKbNS_13unordered_mapIbNS_6vectorIfNS_9allocatorIfEEEENS_4hashIbEENS_8equal_toIbEENS5_INS1_IS2_S7_EEEEEEEEJRKNS_21piecewise_construct_tENS_5tupleIJRS2_EEENSJ_IJEEEEPSF_EEPT_SP_DpOT0_, symObjAddr: 0x688A8, symBinAddr: 0x10006AF8C, symSize: 0x48 }
  - { offset: 0x9D494, size: 0x8, addend: 0x0, symName: __ZNSt3__114__construct_atB8ne180100INS_4pairIKbNS_6vectorIfNS_9allocatorIfEEEEEEJRKNS_21piecewise_construct_tENS_5tupleIJRS2_EEENSB_IJEEEEPS7_EEPT_SH_DpOT0_, symObjAddr: 0x68FF8, symBinAddr: 0x10006B6DC, symSize: 0x3C }
  - { offset: 0x9D50D, size: 0x8, addend: 0x0, symName: __ZNSt3__112construct_atB8ne180100INS_4pairIKbNS_6vectorIfNS_9allocatorIfEEEEEEJRKNS_21piecewise_construct_tENS_5tupleIJRS2_EEENSB_IJEEEEPS7_EEPT_SH_DpOT0_, symObjAddr: 0x69034, symBinAddr: 0x10006B718, symSize: 0x48 }
  - { offset: 0x9D586, size: 0x8, addend: 0x0, symName: __ZNSt3__113__countl_zeroB8ne180100IjEEiT_, symObjAddr: 0x6945C, symBinAddr: 0x10006BB40, symSize: 0x54 }
  - { offset: 0x9D5BB, size: 0x8, addend: 0x0, symName: __ZNSt3__112__libcpp_clzB8ne180100Ej, symObjAddr: 0x6972C, symBinAddr: 0x10006BE10, symSize: 0x18 }
  - { offset: 0x9D84C, size: 0x8, addend: 0x0, symName: __ZNSt3__1plB8ne180100IcNS_11char_traitsIcEENS_9allocatorIcEEEENS_12basic_stringIT_T0_T1_EEOS9_RKS9_, symObjAddr: 0x6B8D4, symBinAddr: 0x10006DFB8, symSize: 0x40 }
  - { offset: 0x9D8A4, size: 0x8, addend: 0x0, symName: __ZNSt3__1plB8ne180100IcNS_11char_traitsIcEENS_9allocatorIcEEEENS_12basic_stringIT_T0_T1_EERKS9_PKS6_, symObjAddr: 0x6B914, symBinAddr: 0x10006DFF8, symSize: 0x11C }
  - { offset: 0x9DCE2, size: 0x8, addend: 0x0, symName: __ZNSt3__14swapB8ne180100IPPNS_12basic_stringIcNS_11char_traitsIcEENS_9allocatorIcEEEEEENS_9enable_ifIXaasr21is_move_constructibleIT_EE5valuesr18is_move_assignableISA_EE5valueEvE4typeERSA_SD_, symObjAddr: 0x6D2C4, symBinAddr: 0x10006F9A8, symSize: 0x3C }
  - { offset: 0x9DD33, size: 0x8, addend: 0x0, symName: __ZNSt3__14moveB8ne180100IPPNS_12basic_stringIcNS_11char_traitsIcEENS_9allocatorIcEEEES8_EET0_T_SA_S9_, symObjAddr: 0x6D3F4, symBinAddr: 0x10006FAD8, symSize: 0x40 }
  - { offset: 0x9DD8D, size: 0x8, addend: 0x0, symName: __ZNSt3__112__to_addressB8ne180100IPNS_12basic_stringIcNS_11char_traitsIcEENS_9allocatorIcEEEEEEPT_S9_, symObjAddr: 0x6D4F8, symBinAddr: 0x10006FBDC, symSize: 0x14 }
  - { offset: 0x9DDC2, size: 0x8, addend: 0x0, symName: __ZNSt3__16__moveB8ne180100INS_17_ClassicAlgPolicyEPPNS_12basic_stringIcNS_11char_traitsIcEENS_9allocatorIcEEEES9_S9_EENS_4pairIT0_T2_EESB_T1_SC_, symObjAddr: 0x6D50C, symBinAddr: 0x10006FBF0, symSize: 0x44 }
  - { offset: 0x9DE2E, size: 0x8, addend: 0x0, symName: __ZNSt3__123__dispatch_copy_or_moveB8ne180100INS_17_ClassicAlgPolicyENS_11__move_loopIS1_EENS_14__move_trivialEPPNS_12basic_stringIcNS_11char_traitsIcEENS_9allocatorIcEEEESC_SC_EENS_4pairIT2_T4_EESE_T3_SF_, symObjAddr: 0x6D550, symBinAddr: 0x10006FC34, symSize: 0x44 }
  - { offset: 0x9DEAC, size: 0x8, addend: 0x0, symName: __ZNSt3__121__unwrap_and_dispatchB8ne180100INS_10__overloadINS_11__move_loopINS_17_ClassicAlgPolicyEEENS_14__move_trivialEEEPPNS_12basic_stringIcNS_11char_traitsIcEENS_9allocatorIcEEEESE_SE_Li0EEENS_4pairIT0_T2_EESG_T1_SH_, symObjAddr: 0x6D594, symBinAddr: 0x10006FC78, symSize: 0xB4 }
  - { offset: 0x9DF3A, size: 0x8, addend: 0x0, symName: __ZNSt3__114__unwrap_rangeB8ne180100IPPNS_12basic_stringIcNS_11char_traitsIcEENS_9allocatorIcEEEES8_EEDaT_T0_, symObjAddr: 0x6D648, symBinAddr: 0x10006FD2C, symSize: 0x3C }
  - { offset: 0x9E0B8, size: 0x8, addend: 0x0, symName: __ZNSt3__113__unwrap_iterB8ne180100IPPNS_12basic_stringIcNS_11char_traitsIcEENS_9allocatorIcEEEENS_18__unwrap_iter_implIS8_Lb1EEELi0EEEDTclsrT0_8__unwrapclsr3stdE7declvalIT_EEEESC_, symObjAddr: 0x6D6CC, symBinAddr: 0x10006FDB0, symSize: 0x24 }
  - { offset: 0x9E0FC, size: 0x8, addend: 0x0, symName: __ZNSt3__19make_pairB8ne180100IPPNS_12basic_stringIcNS_11char_traitsIcEENS_9allocatorIcEEEES8_EENS_4pairINS_18__unwrap_ref_decayIT_E4typeENSA_IT0_E4typeEEEOSB_OSE_, symObjAddr: 0x6D6F0, symBinAddr: 0x10006FDD4, symSize: 0x38 }
  - { offset: 0x9E14B, size: 0x8, addend: 0x0, symName: __ZNSt3__114__rewrap_rangeB8ne180100IPPNS_12basic_stringIcNS_11char_traitsIcEENS_9allocatorIcEEEES8_S8_EET0_S9_T1_, symObjAddr: 0x6D728, symBinAddr: 0x10006FE0C, symSize: 0x2C }
  - { offset: 0x9E1A0, size: 0x8, addend: 0x0, symName: __ZNSt3__113__rewrap_iterB8ne180100IPPNS_12basic_stringIcNS_11char_traitsIcEENS_9allocatorIcEEEES8_NS_18__unwrap_iter_implIS8_Lb1EEEEET_SB_T0_, symObjAddr: 0x6D754, symBinAddr: 0x10006FE38, symSize: 0x3C }
  - { offset: 0x9E245, size: 0x8, addend: 0x0, symName: __ZNSt3__119__copy_trivial_implB8ne180100IPNS_12basic_stringIcNS_11char_traitsIcEENS_9allocatorIcEEEES7_EENS_4pairIPT_PT0_EESA_SA_SC_, symObjAddr: 0x6D858, symBinAddr: 0x10006FF3C, symSize: 0x80 }
  - { offset: 0x9E2AD, size: 0x8, addend: 0x0, symName: __ZNSt3__119__constexpr_memmoveB8ne180100IPNS_12basic_stringIcNS_11char_traitsIcEENS_9allocatorIcEEEES7_Li0EEEPT_S9_PT0_NS_15__element_countE, symObjAddr: 0x6D8D8, symBinAddr: 0x10006FFBC, symSize: 0x64 }
  - { offset: 0x9E31B, size: 0x8, addend: 0x0, symName: __ZNSt3__19make_pairB8ne180100IRPPNS_12basic_stringIcNS_11char_traitsIcEENS_9allocatorIcEEEES8_EENS_4pairINS_18__unwrap_ref_decayIT_E4typeENSB_IT0_E4typeEEEOSC_OSF_, symObjAddr: 0x6D93C, symBinAddr: 0x100070020, symSize: 0x38 }
  - { offset: 0x9E3BD, size: 0x8, addend: 0x0, symName: __ZNSt3__18distanceB8ne180100INS_13move_iteratorIPPNS_12basic_stringIcNS_11char_traitsIcEENS_9allocatorIcEEEEEEEENS_15iterator_traitsIT_E15difference_typeESC_SC_, symObjAddr: 0x6DB60, symBinAddr: 0x100070244, symSize: 0x3C }
  - { offset: 0x9E400, size: 0x8, addend: 0x0, symName: __ZNSt3__114__construct_atB8ne180100IPNS_12basic_stringIcNS_11char_traitsIcEENS_9allocatorIcEEEEJS7_EPS7_EEPT_SA_DpOT0_, symObjAddr: 0x6DCEC, symBinAddr: 0x1000703D0, symSize: 0x2C }
  - { offset: 0x9E453, size: 0x8, addend: 0x0, symName: __ZNSt3__112construct_atB8ne180100IPNS_12basic_stringIcNS_11char_traitsIcEENS_9allocatorIcEEEEJS7_EPS7_EEPT_SA_DpOT0_, symObjAddr: 0x6DD18, symBinAddr: 0x1000703FC, symSize: 0x24 }
  - { offset: 0x9E4A6, size: 0x8, addend: 0x0, symName: __ZNSt3__110__distanceB8ne180100INS_13move_iteratorIPPNS_12basic_stringIcNS_11char_traitsIcEENS_9allocatorIcEEEEEEEENS_15iterator_traitsIT_E15difference_typeESC_SC_NS_26random_access_iterator_tagE, symObjAddr: 0x6DDB8, symBinAddr: 0x10007049C, symSize: 0x30 }
  - { offset: 0x9E4F4, size: 0x8, addend: 0x0, symName: __ZNSt3__1miB8ne180100IPPNS_12basic_stringIcNS_11char_traitsIcEENS_9allocatorIcEEEES8_EEDTmicldtfp_4baseEcldtfp0_4baseEERKNS_13move_iteratorIT_EERKNSA_IT0_EE, symObjAddr: 0x6DDE8, symBinAddr: 0x1000704CC, symSize: 0x4C }
  - { offset: 0x9E543, size: 0x8, addend: 0x0, symName: __ZNSt3__114__construct_atB8ne180100IPNS_12basic_stringIcNS_11char_traitsIcEENS_9allocatorIcEEEEJRKS7_EPS7_EEPT_SC_DpOT0_, symObjAddr: 0x6DE68, symBinAddr: 0x10007054C, symSize: 0x2C }
  - { offset: 0x9E596, size: 0x8, addend: 0x0, symName: __ZNSt3__112construct_atB8ne180100IPNS_12basic_stringIcNS_11char_traitsIcEENS_9allocatorIcEEEEJRKS7_EPS7_EEPT_SC_DpOT0_, symObjAddr: 0x6DE94, symBinAddr: 0x100070578, symSize: 0x24 }
  - { offset: 0x9E5E9, size: 0x8, addend: 0x0, symName: __ZNSt3__113move_backwardB8ne180100IPPNS_12basic_stringIcNS_11char_traitsIcEENS_9allocatorIcEEEES8_EET0_T_SA_S9_, symObjAddr: 0x6DF18, symBinAddr: 0x1000705FC, symSize: 0x40 }
  - { offset: 0x9E643, size: 0x8, addend: 0x0, symName: __ZNSt3__115__move_backwardB8ne180100INS_17_ClassicAlgPolicyEPPNS_12basic_stringIcNS_11char_traitsIcEENS_9allocatorIcEEEES9_S9_EENS_4pairIT0_T2_EESB_T1_SC_, symObjAddr: 0x6DF58, symBinAddr: 0x10007063C, symSize: 0x44 }
  - { offset: 0x9E6AF, size: 0x8, addend: 0x0, symName: __ZNSt3__123__dispatch_copy_or_moveB8ne180100INS_17_ClassicAlgPolicyENS_20__move_backward_loopIS1_EENS_23__move_backward_trivialEPPNS_12basic_stringIcNS_11char_traitsIcEENS_9allocatorIcEEEESC_SC_EENS_4pairIT2_T4_EESE_T3_SF_, symObjAddr: 0x6DF9C, symBinAddr: 0x100070680, symSize: 0x44 }
  - { offset: 0x9E72D, size: 0x8, addend: 0x0, symName: __ZNSt3__121__unwrap_and_dispatchB8ne180100INS_10__overloadINS_20__move_backward_loopINS_17_ClassicAlgPolicyEEENS_23__move_backward_trivialEEEPPNS_12basic_stringIcNS_11char_traitsIcEENS_9allocatorIcEEEESE_SE_Li0EEENS_4pairIT0_T2_EESG_T1_SH_, symObjAddr: 0x6DFE0, symBinAddr: 0x1000706C4, symSize: 0xB4 }
  - { offset: 0x9E7BB, size: 0x8, addend: 0x0, symName: __ZNSt3__128__copy_backward_trivial_implB8ne180100IPNS_12basic_stringIcNS_11char_traitsIcEENS_9allocatorIcEEEES7_EENS_4pairIPT_PT0_EESA_SA_SC_, symObjAddr: 0x6E0DC, symBinAddr: 0x1000707C0, symSize: 0x90 }
  - { offset: 0x9E823, size: 0x8, addend: 0x0, symName: __ZNSt3__19make_pairB8ne180100IRPPNS_12basic_stringIcNS_11char_traitsIcEENS_9allocatorIcEEEES9_EENS_4pairINS_18__unwrap_ref_decayIT_E4typeENSB_IT0_E4typeEEEOSC_OSF_, symObjAddr: 0x6E16C, symBinAddr: 0x100070850, symSize: 0x38 }
  - { offset: 0x9E872, size: 0x8, addend: 0x0, symName: __ZNSt3__119__allocate_at_leastB8ne180100INS_9allocatorIPNS_12basic_stringIcNS_11char_traitsIcEENS1_IcEEEEEEEENS_19__allocation_resultINS_16allocator_traitsIT_E7pointerEEERSB_m, symObjAddr: 0x6E35C, symBinAddr: 0x100070A40, symSize: 0x40 }
  - { offset: 0x9E8B6, size: 0x8, addend: 0x0, symName: __ZNSt3__112__destroy_atB8ne180100IPNS_12basic_stringIcNS_11char_traitsIcEENS_9allocatorIcEEEELi0EEEvPT_, symObjAddr: 0x6E97C, symBinAddr: 0x100071060, symSize: 0x10 }
  - { offset: 0x9E8ED, size: 0x8, addend: 0x0, symName: __ZNSt3__112__to_addressB8ne180100IcEEPT_S2_, symObjAddr: 0x6EF60, symBinAddr: 0x100071644, symSize: 0x14 }
  - { offset: 0x9E922, size: 0x8, addend: 0x0, symName: __ZNSt3__14copyB8ne180100IPKcPcEET0_T_S5_S4_, symObjAddr: 0x6F58C, symBinAddr: 0x100071C70, symSize: 0x40 }
  - { offset: 0x9E97C, size: 0x8, addend: 0x0, symName: __ZNSt3__16__copyB8ne180100INS_17_ClassicAlgPolicyEPKcS3_PcEENS_4pairIT0_T2_EES6_T1_S7_, symObjAddr: 0x6F5CC, symBinAddr: 0x100071CB0, symSize: 0x44 }
  - { offset: 0x9E9E8, size: 0x8, addend: 0x0, symName: __ZNSt3__123__dispatch_copy_or_moveB8ne180100INS_17_ClassicAlgPolicyENS_11__copy_loopIS1_EENS_14__copy_trivialEPKcS6_PcEENS_4pairIT2_T4_EES9_T3_SA_, symObjAddr: 0x6F610, symBinAddr: 0x100071CF4, symSize: 0x44 }
  - { offset: 0x9EA66, size: 0x8, addend: 0x0, symName: __ZNSt3__121__unwrap_and_dispatchB8ne180100INS_10__overloadINS_11__copy_loopINS_17_ClassicAlgPolicyEEENS_14__copy_trivialEEEPKcS8_PcLi0EEENS_4pairIT0_T2_EESB_T1_SC_, symObjAddr: 0x6F654, symBinAddr: 0x100071D38, symSize: 0xB4 }
  - { offset: 0x9EAF4, size: 0x8, addend: 0x0, symName: __ZNSt3__114__unwrap_rangeB8ne180100IPKcS2_EEDaT_T0_, symObjAddr: 0x6F708, symBinAddr: 0x100071DEC, symSize: 0x3C }
  - { offset: 0x9EC43, size: 0x8, addend: 0x0, symName: __ZNSt3__113__unwrap_iterB8ne180100IPcNS_18__unwrap_iter_implIS1_Lb1EEELi0EEEDTclsrT0_8__unwrapclsr3stdE7declvalIT_EEEES5_, symObjAddr: 0x6F78C, symBinAddr: 0x100071E70, symSize: 0x24 }
  - { offset: 0x9EC87, size: 0x8, addend: 0x0, symName: __ZNSt3__19make_pairB8ne180100IPKcPcEENS_4pairINS_18__unwrap_ref_decayIT_E4typeENS5_IT0_E4typeEEEOS6_OS9_, symObjAddr: 0x6F7B0, symBinAddr: 0x100071E94, symSize: 0x38 }
  - { offset: 0x9ECD6, size: 0x8, addend: 0x0, symName: __ZNSt3__114__rewrap_rangeB8ne180100IPKcS2_S2_EET0_S3_T1_, symObjAddr: 0x6F7E8, symBinAddr: 0x100071ECC, symSize: 0x2C }
  - { offset: 0x9ED2B, size: 0x8, addend: 0x0, symName: __ZNSt3__113__rewrap_iterB8ne180100IPcS1_NS_18__unwrap_iter_implIS1_Lb1EEEEET_S4_T0_, symObjAddr: 0x6F814, symBinAddr: 0x100071EF8, symSize: 0x3C }
  - { offset: 0x9EE9C, size: 0x8, addend: 0x0, symName: __ZNSt3__113__unwrap_iterB8ne180100IPKcNS_18__unwrap_iter_implIS2_Lb1EEELi0EEEDTclsrT0_8__unwrapclsr3stdE7declvalIT_EEEES6_, symObjAddr: 0x6F8A8, symBinAddr: 0x100071F8C, symSize: 0x24 }
  - { offset: 0x9EF33, size: 0x8, addend: 0x0, symName: __ZNSt3__119__copy_trivial_implB8ne180100IKccEENS_4pairIPT_PT0_EES4_S4_S6_, symObjAddr: 0x6F960, symBinAddr: 0x100072044, symSize: 0x78 }
  - { offset: 0x9EF9B, size: 0x8, addend: 0x0, symName: __ZNSt3__119__constexpr_memmoveB8ne180100IcKcLi0EEEPT_S3_PT0_NS_15__element_countE, symObjAddr: 0x6F9D8, symBinAddr: 0x1000720BC, symSize: 0x64 }
  - { offset: 0x9F009, size: 0x8, addend: 0x0, symName: __ZNSt3__19make_pairB8ne180100IRPKcPcEENS_4pairINS_18__unwrap_ref_decayIT_E4typeENS6_IT0_E4typeEEEOS7_OSA_, symObjAddr: 0x6FA3C, symBinAddr: 0x100072120, symSize: 0x38 }
  - { offset: 0x9F0AB, size: 0x8, addend: 0x0, symName: __ZNSt3__113__rewrap_iterB8ne180100IPKcS2_NS_18__unwrap_iter_implIS2_Lb1EEEEET_S5_T0_, symObjAddr: 0x6FBA4, symBinAddr: 0x100072288, symSize: 0x3C }
  - { offset: 0x9F100, size: 0x8, addend: 0x0, symName: __ZNSt3__16fill_nB8ne180100IPcmcEET_S2_T0_RKT1_, symObjAddr: 0x6FC70, symBinAddr: 0x100072354, symSize: 0x44 }
  - { offset: 0x9F163, size: 0x8, addend: 0x0, symName: __ZNSt3__18__fill_nB8ne180100IPcmcEET_S2_T0_RKT1_, symObjAddr: 0x6FCB4, symBinAddr: 0x100072398, symSize: 0x64 }
  - { offset: 0x9F1C6, size: 0x8, addend: 0x0, symName: __ZNSt3__121__convert_to_integralB8ne180100Em, symObjAddr: 0x6FD18, symBinAddr: 0x1000723FC, symSize: 0x14 }
  - { offset: 0x9F1F2, size: 0x8, addend: 0x0, symName: __ZNSt3__1neB8ne180100ERKNS_16__deque_iteratorINS_12basic_stringIcNS_11char_traitsIcEENS_9allocatorIcEEEEPS6_RS6_PS7_lLl170EEESC_, symObjAddr: 0x70084, symBinAddr: 0x100072768, symSize: 0x34 }
  - { offset: 0x9F22F, size: 0x8, addend: 0x0, symName: __ZNSt3__1eqB8ne180100ERKNS_16__deque_iteratorINS_12basic_stringIcNS_11char_traitsIcEENS_9allocatorIcEEEEPS6_RS6_PS7_lLl170EEESC_, symObjAddr: 0x70128, symBinAddr: 0x10007280C, symSize: 0x30 }
  - { offset: 0x9F2D4, size: 0x8, addend: 0x0, symName: __ZNSt3__13minB8ne180100IfNS_6__lessIvvEEEERKT_S5_S5_T0_, symObjAddr: 0x7029C, symBinAddr: 0x100072980, symSize: 0x54 }
  - { offset: 0x9F32E, size: 0x8, addend: 0x0, symName: __ZNSt3__14swapB8ne180100IfNS_9allocatorIfEEEEvRNS_6vectorIT_T0_EES7_, symObjAddr: 0x70334, symBinAddr: 0x100072A18, symSize: 0x2C }
  - { offset: 0x9F379, size: 0x8, addend: 0x0, symName: __ZNSt3__13minB8ne180100INS_11__wrap_iterIPfEEEERKT_S6_S6_, symObjAddr: 0x70690, symBinAddr: 0x100072D74, symSize: 0x2C }
  - { offset: 0x9F3BC, size: 0x8, addend: 0x0, symName: __ZNSt3__112__to_addressB8ne180100INS_4pairIiiEEEEPT_S4_, symObjAddr: 0x70884, symBinAddr: 0x100072F68, symSize: 0x14 }
  - { offset: 0x9F3F2, size: 0x8, addend: 0x0, symName: __ZNSt3__112__destroy_atB8ne180100INS_4pairIiiEELi0EEEvPT_, symObjAddr: 0x70898, symBinAddr: 0x100072F7C, symSize: 0x10 }
  - { offset: 0x9F42A, size: 0x8, addend: 0x0, symName: __ZNSt3__116__swap_allocatorB8ne180100INS_9allocatorIfEEEEvRT_S4_NS_17integral_constantIbLb0EEE, symObjAddr: 0x70964, symBinAddr: 0x100073048, symSize: 0x14 }
  - { offset: 0x9F46E, size: 0x8, addend: 0x0, symName: __ZNSt3__19make_pairB8ne180100IRmS1_EENS_4pairINS_18__unwrap_ref_decayIT_E4typeENS3_IT0_E4typeEEEOS4_OS7_, symObjAddr: 0x70A08, symBinAddr: 0x1000730EC, symSize: 0x38 }
  - { offset: 0x9F4BD, size: 0x8, addend: 0x0, symName: __ZNSt3__19make_pairB8ne180100IRKmS2_EENS_4pairINS_18__unwrap_ref_decayIT_E4typeENS4_IT0_E4typeEEEOS5_OS8_, symObjAddr: 0x70A74, symBinAddr: 0x100073158, symSize: 0x38 }
  - { offset: 0x9F50C, size: 0x8, addend: 0x0, symName: __ZNSt3__13getB8ne180100ILm0EmmEEONS_13tuple_elementIXT_ENS_4pairIT0_T1_EEE4typeEOS5_, symObjAddr: 0x70AAC, symBinAddr: 0x100073190, symSize: 0x24 }
  - { offset: 0x9F556, size: 0x8, addend: 0x0, symName: __ZNSt3__13getB8ne180100ILm1EmmEEONS_13tuple_elementIXT_ENS_4pairIT0_T1_EEE4typeEOS5_, symObjAddr: 0x70AD0, symBinAddr: 0x1000731B4, symSize: 0x24 }
  - { offset: 0x9F5A0, size: 0x8, addend: 0x0, symName: __ZNSt3__114__construct_atB8ne180100INS_4pairIiiEEJS2_EPS2_EEPT_S5_DpOT0_, symObjAddr: 0x70DA8, symBinAddr: 0x10007348C, symSize: 0x2C }
  - { offset: 0x9F5F3, size: 0x8, addend: 0x0, symName: __ZNSt3__112construct_atB8ne180100INS_4pairIiiEEJS2_EPS2_EEPT_S5_DpOT0_, symObjAddr: 0x70DD4, symBinAddr: 0x1000734B8, symSize: 0x24 }
  - { offset: 0x9F646, size: 0x8, addend: 0x0, symName: __ZNSt3__119__allocate_at_leastB8ne180100INS_9allocatorINS_4pairIiiEEEEEENS_19__allocation_resultINS_16allocator_traitsIT_E7pointerEEERS7_m, symObjAddr: 0x71300, symBinAddr: 0x1000739E4, symSize: 0x40 }
  - { offset: 0x9F689, size: 0x8, addend: 0x0, symName: __ZNSt3__142__uninitialized_allocator_move_if_noexceptB8ne180100INS_9allocatorINS_4pairIiiEEEENS_16reverse_iteratorIPS3_EES7_S7_EET2_RT_T0_T1_S8_, symObjAddr: 0x714C4, symBinAddr: 0x100073BA8, symSize: 0x12C }
  - { offset: 0x9F729, size: 0x8, addend: 0x0, symName: __ZNSt3__14swapB8ne180100IPNS_4pairIiiEEEENS_9enable_ifIXaasr21is_move_constructibleIT_EE5valuesr18is_move_assignableIS5_EE5valueEvE4typeERS5_S8_, symObjAddr: 0x7163C, symBinAddr: 0x100073D20, symSize: 0x3C }
  - { offset: 0x9F77A, size: 0x8, addend: 0x0, symName: __ZNSt3__122__make_exception_guardB8ne180100INS_29_AllocatorDestroyRangeReverseINS_9allocatorINS_4pairIiiEEEENS_16reverse_iteratorIPS4_EEEEEENS_28__exception_guard_exceptionsIT_EESB_, symObjAddr: 0x7168C, symBinAddr: 0x100073D70, symSize: 0x4C }
  - { offset: 0x9F7B0, size: 0x8, addend: 0x0, symName: __ZNSt3__1neB8ne180100IPNS_4pairIiiEES3_EEbRKNS_16reverse_iteratorIT_EERKNS4_IT0_EE, symObjAddr: 0x7171C, symBinAddr: 0x100073E00, symSize: 0x48 }
  - { offset: 0x9F7FC, size: 0x8, addend: 0x0, symName: __ZNSt3__112__to_addressB8ne180100INS_16reverse_iteratorIPNS_4pairIiiEEEEvEEu7__decayIDTclsr19__to_address_helperIT_EE6__callclsr3stdE7declvalIRKS6_EEEEES8_, symObjAddr: 0x71764, symBinAddr: 0x100073E48, symSize: 0x24 }
  - { offset: 0x9F85C, size: 0x8, addend: 0x0, symName: __ZNSt3__14prevB8ne180100IPNS_4pairIiiEELi0EEET_S4_NS_15iterator_traitsIS4_E15difference_typeE, symObjAddr: 0x71918, symBinAddr: 0x100073FFC, symSize: 0x3C }
  - { offset: 0x9F8A6, size: 0x8, addend: 0x0, symName: __ZNSt3__19__advanceB8ne180100IPNS_4pairIiiEEEEvRT_NS_15iterator_traitsIS4_E15difference_typeENS_26random_access_iterator_tagE, symObjAddr: 0x7198C, symBinAddr: 0x100074070, symSize: 0x28 }
  - { offset: 0x9F8F0, size: 0x8, addend: 0x0, symName: __ZNSt3__119__allocator_destroyB8ne180100INS_9allocatorINS_4pairIiiEEEENS_16reverse_iteratorINS5_IPS3_EEEES8_EEvRT_T0_T1_, symObjAddr: 0x71AB8, symBinAddr: 0x10007419C, symSize: 0x70 }
  - { offset: 0x9F955, size: 0x8, addend: 0x0, symName: __ZNSt3__1neB8ne180100INS_16reverse_iteratorIPNS_4pairIiiEEEES5_EEbRKNS1_IT_EERKNS1_IT0_EE, symObjAddr: 0x71B64, symBinAddr: 0x100074248, symSize: 0x60 }
  - { offset: 0x9F9A1, size: 0x8, addend: 0x0, symName: __ZNSt3__112__to_addressB8ne180100INS_16reverse_iteratorINS1_IPNS_4pairIiiEEEEEEvEEu7__decayIDTclsr19__to_address_helperIT_EE6__callclsr3stdE7declvalIRKS7_EEEEES9_, symObjAddr: 0x71BC4, symBinAddr: 0x1000742A8, symSize: 0x24 }
  - { offset: 0x9FA01, size: 0x8, addend: 0x0, symName: __ZNSt3__14prevB8ne180100INS_16reverse_iteratorIPNS_4pairIiiEEEELi0EEET_S6_NS_15iterator_traitsIS6_E15difference_typeE, symObjAddr: 0x71CC0, symBinAddr: 0x1000743A4, symSize: 0x4C }
  - { offset: 0x9FA4A, size: 0x8, addend: 0x0, symName: __ZNSt3__19__advanceB8ne180100INS_16reverse_iteratorIPNS_4pairIiiEEEEEEvRT_NS_15iterator_traitsIS6_E15difference_typeENS_26random_access_iterator_tagE, symObjAddr: 0x71D44, symBinAddr: 0x100074428, symSize: 0x2C }
  - { offset: 0x9FA94, size: 0x8, addend: 0x0, symName: __ZNSt3__13minB8ne180100INS_11__wrap_iterIPfEENS_6__lessIvvEEEERKT_S8_S8_T0_, symObjAddr: 0x721B0, symBinAddr: 0x100074894, symSize: 0x54 }
  - { offset: 0x9FAEE, size: 0x8, addend: 0x0, symName: __ZNSt3__1ltB8ne180100IPfEEbRKNS_11__wrap_iterIT_EES6_, symObjAddr: 0x72238, symBinAddr: 0x10007491C, symSize: 0x48 }
  - { offset: 0x9FB31, size: 0x8, addend: 0x0, symName: __ZNSt3__18distanceB8ne180100INS_11__wrap_iterIPfEEEENS_15iterator_traitsIT_E15difference_typeES5_S5_, symObjAddr: 0x72590, symBinAddr: 0x100074C74, symSize: 0x3C }
  - { offset: 0x9FB74, size: 0x8, addend: 0x0, symName: __ZNSt3__14nextB8ne180100INS_11__wrap_iterIPfEELi0EEET_S4_NS_15iterator_traitsIS4_E15difference_typeE, symObjAddr: 0x725CC, symBinAddr: 0x100074CB0, symSize: 0x3C }
  - { offset: 0x9FBBD, size: 0x8, addend: 0x0, symName: __ZNSt3__14copyB8ne180100INS_11__wrap_iterIPfEES2_EET0_T_S5_S4_, symObjAddr: 0x72808, symBinAddr: 0x100074EEC, symSize: 0x50 }
  - { offset: 0x9FC17, size: 0x8, addend: 0x0, symName: __ZNSt3__19__advanceB8ne180100INS_11__wrap_iterIPfEEEEvRT_NS_15iterator_traitsIS4_E15difference_typeENS_26random_access_iterator_tagE, symObjAddr: 0x72A74, symBinAddr: 0x100075158, symSize: 0x2C }
  - { offset: 0x9FC61, size: 0x8, addend: 0x0, symName: __ZNSt3__130__uninitialized_allocator_copyB8ne180100INS_9allocatorIfEENS_11__wrap_iterIPfEES5_S4_EET2_RT_T0_T1_S6_, symObjAddr: 0x72AA0, symBinAddr: 0x100075184, symSize: 0x90 }
  - { offset: 0x9FCFE, size: 0x8, addend: 0x0, symName: __ZNSt3__114__unwrap_rangeB8ne180100INS_11__wrap_iterIPfEES3_EEDaT_T0_, symObjAddr: 0x72B30, symBinAddr: 0x100075214, symSize: 0x4C }
  - { offset: 0x9FD9A, size: 0x8, addend: 0x0, symName: __ZNSt3__113move_backwardB8ne180100IPfS1_EET0_T_S3_S2_, symObjAddr: 0x72BE4, symBinAddr: 0x1000752C8, symSize: 0x40 }
  - { offset: 0x9FDF4, size: 0x8, addend: 0x0, symName: __ZNSt3__115__move_backwardB8ne180100INS_17_ClassicAlgPolicyEPfS2_S2_EENS_4pairIT0_T2_EES4_T1_S5_, symObjAddr: 0x72C24, symBinAddr: 0x100075308, symSize: 0x44 }
  - { offset: 0x9FE60, size: 0x8, addend: 0x0, symName: __ZNSt3__123__dispatch_copy_or_moveB8ne180100INS_17_ClassicAlgPolicyENS_20__move_backward_loopIS1_EENS_23__move_backward_trivialEPfS5_S5_EENS_4pairIT2_T4_EES7_T3_S8_, symObjAddr: 0x72C68, symBinAddr: 0x10007534C, symSize: 0x44 }
  - { offset: 0x9FEDE, size: 0x8, addend: 0x0, symName: __ZNSt3__121__unwrap_and_dispatchB8ne180100INS_10__overloadINS_20__move_backward_loopINS_17_ClassicAlgPolicyEEENS_23__move_backward_trivialEEEPfS7_S7_Li0EEENS_4pairIT0_T2_EES9_T1_SA_, symObjAddr: 0x72CAC, symBinAddr: 0x100075390, symSize: 0xB4 }
  - { offset: 0x9FF6C, size: 0x8, addend: 0x0, symName: __ZNSt3__128__copy_backward_trivial_implB8ne180100IffEENS_4pairIPT_PT0_EES3_S3_S5_, symObjAddr: 0x72DA8, symBinAddr: 0x10007548C, symSize: 0x90 }
  - { offset: 0x9FFD4, size: 0x8, addend: 0x0, symName: __ZNSt3__19make_pairB8ne180100IRPfS2_EENS_4pairINS_18__unwrap_ref_decayIT_E4typeENS4_IT0_E4typeEEEOS5_OS8_, symObjAddr: 0x72E38, symBinAddr: 0x10007551C, symSize: 0x38 }
  - { offset: 0xA0023, size: 0x8, addend: 0x0, symName: __ZNSt3__16__copyB8ne180100INS_17_ClassicAlgPolicyENS_11__wrap_iterIPfEES4_S3_EENS_4pairIT0_T2_EES6_T1_S7_, symObjAddr: 0x72EE0, symBinAddr: 0x1000755C4, symSize: 0x54 }
  - { offset: 0xA008F, size: 0x8, addend: 0x0, symName: __ZNSt3__123__dispatch_copy_or_moveB8ne180100INS_17_ClassicAlgPolicyENS_11__copy_loopIS1_EENS_14__copy_trivialENS_11__wrap_iterIPfEES7_S6_EENS_4pairIT2_T4_EES9_T3_SA_, symObjAddr: 0x72F34, symBinAddr: 0x100075618, symSize: 0x54 }
  - { offset: 0xA010D, size: 0x8, addend: 0x0, symName: __ZNSt3__121__unwrap_and_dispatchB8ne180100INS_10__overloadINS_11__copy_loopINS_17_ClassicAlgPolicyEEENS_14__copy_trivialEEENS_11__wrap_iterIPfEES9_S8_Li0EEENS_4pairIT0_T2_EESB_T1_SC_, symObjAddr: 0x72F88, symBinAddr: 0x10007566C, symSize: 0xCC }
  - { offset: 0xA019B, size: 0x8, addend: 0x0, symName: __ZNSt3__19make_pairB8ne180100INS_11__wrap_iterIPfEES2_EENS_4pairINS_18__unwrap_ref_decayIT_E4typeENS5_IT0_E4typeEEEOS6_OS9_, symObjAddr: 0x73054, symBinAddr: 0x100075738, symSize: 0x38 }
  - { offset: 0xA01EA, size: 0x8, addend: 0x0, symName: __ZNSt3__114__rewrap_rangeB8ne180100INS_11__wrap_iterIPfEES3_S2_EET0_S4_T1_, symObjAddr: 0x7308C, symBinAddr: 0x100075770, symSize: 0x3C }
  - { offset: 0xA0313, size: 0x8, addend: 0x0, symName: __ZNSt3__114__construct_atB8ne180100IfJRfEPfEEPT_S4_DpOT0_, symObjAddr: 0x73250, symBinAddr: 0x100075934, symSize: 0x2C }
  - { offset: 0xA0366, size: 0x8, addend: 0x0, symName: __ZNSt3__112construct_atB8ne180100IfJRfEPfEEPT_S4_DpOT0_, symObjAddr: 0x7327C, symBinAddr: 0x100075960, symSize: 0x24 }
  - { offset: 0xA03B9, size: 0x8, addend: 0x0, symName: __ZNSt3__142__uninitialized_allocator_move_if_noexceptB8ne180100INS_9allocatorIfEEPfS3_fvEET1_RT_T0_S7_S4_, symObjAddr: 0x732C0, symBinAddr: 0x1000759A4, symSize: 0x38 }
  - { offset: 0xA0435, size: 0x8, addend: 0x0, symName: __ZNSt3__110__distanceB8ne180100INS_11__wrap_iterIPfEEEENS_15iterator_traitsIT_E15difference_typeES5_S5_NS_26random_access_iterator_tagE, symObjAddr: 0x732F8, symBinAddr: 0x1000759DC, symSize: 0x30 }
  - { offset: 0xA0483, size: 0x8, addend: 0x0, symName: __ZNSt3__1miB8ne180100IPfS1_EEDTmicldtfp_4baseEcldtfp0_4baseEERKNS_11__wrap_iterIT_EERKNS3_IT0_EE, symObjAddr: 0x73328, symBinAddr: 0x100075A0C, symSize: 0x48 }
  - { offset: 0xA04CF, size: 0x8, addend: 0x0, symName: __ZNSt3__116__pad_and_outputB8ne180100IcNS_11char_traitsIcEEEENS_19ostreambuf_iteratorIT_T0_EES6_PKS4_S8_S8_RNS_8ios_baseES4_, symObjAddr: 0x73A80, symBinAddr: 0x100076164, symSize: 0x240 }
  - { offset: 0xA059F, size: 0x8, addend: 0x0, symName: __ZNSt3__19use_facetB8ne180100INS_5ctypeIcEEEERKT_RKNS_6localeE, symObjAddr: 0x74034, symBinAddr: 0x100076718, symSize: 0x2C }
  - { offset: 0xA0B36, size: 0x8, addend: 0x0, symName: __ZNSt3__112__destroy_atB8ne180100INS_4pairIKiNS_6vectorIfNS_9allocatorIfEEEEEELi0EEEvPT_, symObjAddr: 0x74764, symBinAddr: 0x100076E48, symSize: 0x24 }
  - { offset: 0xA0B6D, size: 0x8, addend: 0x0, symName: __ZNSt3__17launderB8ne180100INS_4pairIKiNS_6vectorIfNS_9allocatorIfEEEEEEEEPT_S9_, symObjAddr: 0x74808, symBinAddr: 0x100076EEC, symSize: 0x24 }
  - { offset: 0xA0BA4, size: 0x8, addend: 0x0, symName: __ZNSt3__19__launderB8ne180100INS_4pairIKiNS_6vectorIfNS_9allocatorIfEEEEEEEEPT_S9_, symObjAddr: 0x7482C, symBinAddr: 0x100076F10, symSize: 0x14 }
  - { offset: 0xA0FF3, size: 0x8, addend: 0x0, symName: '__ZNSt3__114__thread_proxyB8ne180100INS_5tupleIJNS_10unique_ptrINS_15__thread_structENS_14default_deleteIS3_EEEEZ2GPPFNS_6vectorIfNS_9allocatorIfEEEER5BoardERKN5Eigen6MatrixINS_7complexIfEELin1ELin1ELi0ELin1ELin1EEEiNS_12basic_stringIcNS_11char_traitsIcEENS8_IcEEEESQ_ibdjbfbE3$_0EEEEEPvST_', symObjAddr: 0x74A9C, symBinAddr: 0x100077180, symSize: 0x90 }
  - { offset: 0xA1051, size: 0x8, addend: 0x0, symName: '__ZNSt3__13getB8ne180100ILm0EJNS_10unique_ptrINS_15__thread_structENS_14default_deleteIS2_EEEEZ2GPPFNS_6vectorIfNS_9allocatorIfEEEER5BoardERKN5Eigen6MatrixINS_7complexIfEELin1ELin1ELi0ELin1ELin1EEEiNS_12basic_stringIcNS_11char_traitsIcEENS7_IcEEEESP_ibdjbfbE3$_0EEERNS_13tuple_elementIXT_ENS_5tupleIJDpT0_EEEE4typeERSV_', symObjAddr: 0x74DB4, symBinAddr: 0x100077498, symSize: 0x24 }
  - { offset: 0xA109A, size: 0x8, addend: 0x0, symName: '__ZNSt3__116__thread_executeB8ne180100INS_10unique_ptrINS_15__thread_structENS_14default_deleteIS2_EEEEZ2GPPFNS_6vectorIfNS_9allocatorIfEEEER5BoardERKN5Eigen6MatrixINS_7complexIfEELin1ELin1ELi0ELin1ELin1EEEiNS_12basic_stringIcNS_11char_traitsIcEENS7_IcEEEESP_ibdjbfbE3$_0JEJEEEvRNS_5tupleIJT_T0_DpT1_EEENS_15__tuple_indicesIJXspT2_EEEE', symObjAddr: 0x74DD8, symBinAddr: 0x1000774BC, symSize: 0x28 }
  - { offset: 0xA10EA, size: 0x8, addend: 0x0, symName: '__ZNSt3__18__invokeB8ne180100IZ2GPPFNS_6vectorIfNS_9allocatorIfEEEER5BoardERKN5Eigen6MatrixINS_7complexIfEELin1ELin1ELi0ELin1ELin1EEEiNS_12basic_stringIcNS_11char_traitsIcEENS2_IcEEEESK_ibdjbfbE3$_0JEEEDTclclsr3stdE7declvalIT_EEspclsr3stdE7declvalIT0_EEEEOSM_DpOSN_', symObjAddr: 0x74E00, symBinAddr: 0x1000774E4, symSize: 0x24 }
  - { offset: 0xA1123, size: 0x8, addend: 0x0, symName: '__ZNSt3__13getB8ne180100ILm1EJNS_10unique_ptrINS_15__thread_structENS_14default_deleteIS2_EEEEZ2GPPFNS_6vectorIfNS_9allocatorIfEEEER5BoardERKN5Eigen6MatrixINS_7complexIfEELin1ELin1ELi0ELin1ELin1EEEiNS_12basic_stringIcNS_11char_traitsIcEENS7_IcEEEESP_ibdjbfbE3$_0EEERNS_13tuple_elementIXT_ENS_5tupleIJDpT0_EEEE4typeERSV_', symObjAddr: 0x74E24, symBinAddr: 0x100077508, symSize: 0x28 }
  - { offset: 0xA116B, size: 0x8, addend: 0x0, symName: __ZNSt3__19make_pairB8ne180100IRNS_6vectorIfNS_9allocatorIfEEEERfEENS_4pairINS_18__unwrap_ref_decayIT_E4typeENS8_IT0_E4typeEEEOS9_OSC_, symObjAddr: 0x75ADC, symBinAddr: 0x1000781C0, symSize: 0x40 }
  - { offset: 0xA11BB, size: 0x8, addend: 0x0, symName: '__ZNSt3__14sortB8ne180100INS_11__wrap_iterIPNS_4pairINS_6vectorIfNS_9allocatorIfEEEEfEEEEZZ2GPPFS6_R5BoardERKN5Eigen6MatrixINS_7complexIfEELin1ELin1ELi0ELin1ELin1EEEiNS_12basic_stringIcNS_11char_traitsIcEENS4_IcEEEESP_ibdjbfbENK3$_0clEvEUlRS7_SR_E_EEvT_ST_T0_', symObjAddr: 0x766B4, symBinAddr: 0x100078D98, symSize: 0x40 }
  - { offset: 0xA1215, size: 0x8, addend: 0x0, symName: __ZNSt3__119__allocate_at_leastB8ne180100INS_9allocatorINS_4pairINS_6vectorIfNS1_IfEEEEfEEEEEENS_19__allocation_resultINS_16allocator_traitsIT_E7pointerEEERSA_m, symObjAddr: 0x76E54, symBinAddr: 0x100079538, symSize: 0x40 }
  - { offset: 0xA1258, size: 0x8, addend: 0x0, symName: __ZNSt3__142__uninitialized_allocator_move_if_noexceptB8ne180100INS_9allocatorINS_4pairINS_6vectorIfNS1_IfEEEEfEEEENS_16reverse_iteratorIPS6_EESA_SA_EET2_RT_T0_T1_SB_, symObjAddr: 0x7702C, symBinAddr: 0x100079710, symSize: 0x12C }
  - { offset: 0xA12F8, size: 0x8, addend: 0x0, symName: __ZNSt3__14swapB8ne180100IPNS_4pairINS_6vectorIfNS_9allocatorIfEEEEfEEEENS_9enable_ifIXaasr21is_move_constructibleIT_EE5valuesr18is_move_assignableIS9_EE5valueEvE4typeERS9_SC_, symObjAddr: 0x771A4, symBinAddr: 0x100079888, symSize: 0x3C }
  - { offset: 0xA1349, size: 0x8, addend: 0x0, symName: __ZNSt3__122__make_exception_guardB8ne180100INS_29_AllocatorDestroyRangeReverseINS_9allocatorINS_4pairINS_6vectorIfNS2_IfEEEEfEEEENS_16reverse_iteratorIPS7_EEEEEENS_28__exception_guard_exceptionsIT_EESE_, symObjAddr: 0x7721C, symBinAddr: 0x100079900, symSize: 0x4C }
  - { offset: 0xA137F, size: 0x8, addend: 0x0, symName: __ZNSt3__1neB8ne180100IPNS_4pairINS_6vectorIfNS_9allocatorIfEEEEfEES7_EEbRKNS_16reverse_iteratorIT_EERKNS8_IT0_EE, symObjAddr: 0x772AC, symBinAddr: 0x100079990, symSize: 0x48 }
  - { offset: 0xA13CB, size: 0x8, addend: 0x0, symName: __ZNSt3__112__to_addressB8ne180100INS_16reverse_iteratorIPNS_4pairINS_6vectorIfNS_9allocatorIfEEEEfEEEEvEEu7__decayIDTclsr19__to_address_helperIT_EE6__callclsr3stdE7declvalIRKSA_EEEEESC_, symObjAddr: 0x77324, symBinAddr: 0x100079A08, symSize: 0x24 }
  - { offset: 0xA1401, size: 0x8, addend: 0x0, symName: __ZNSt3__114__construct_atB8ne180100INS_4pairINS_6vectorIfNS_9allocatorIfEEEEfEEJS6_EPS6_EEPT_S9_DpOT0_, symObjAddr: 0x77474, symBinAddr: 0x100079B58, symSize: 0x2C }
  - { offset: 0xA1454, size: 0x8, addend: 0x0, symName: __ZNSt3__112construct_atB8ne180100INS_4pairINS_6vectorIfNS_9allocatorIfEEEEfEEJS6_EPS6_EEPT_S9_DpOT0_, symObjAddr: 0x774A0, symBinAddr: 0x100079B84, symSize: 0x34 }
  - { offset: 0xA14D1, size: 0x8, addend: 0x0, symName: __ZNSt3__112__to_addressB8ne180100INS_4pairINS_6vectorIfNS_9allocatorIfEEEEfEEEEPT_S8_, symObjAddr: 0x77678, symBinAddr: 0x100079D5C, symSize: 0x14 }
  - { offset: 0xA1506, size: 0x8, addend: 0x0, symName: __ZNSt3__14prevB8ne180100IPNS_4pairINS_6vectorIfNS_9allocatorIfEEEEfEELi0EEET_S8_NS_15iterator_traitsIS8_E15difference_typeE, symObjAddr: 0x776B8, symBinAddr: 0x100079D9C, symSize: 0x3C }
  - { offset: 0xA1550, size: 0x8, addend: 0x0, symName: __ZNSt3__19__advanceB8ne180100IPNS_4pairINS_6vectorIfNS_9allocatorIfEEEEfEEEEvRT_NS_15iterator_traitsIS8_E15difference_typeENS_26random_access_iterator_tagE, symObjAddr: 0x7772C, symBinAddr: 0x100079E10, symSize: 0x28 }
  - { offset: 0xA159A, size: 0x8, addend: 0x0, symName: __ZNSt3__119__allocator_destroyB8ne180100INS_9allocatorINS_4pairINS_6vectorIfNS1_IfEEEEfEEEENS_16reverse_iteratorINS8_IPS6_EEEESB_EEvRT_T0_T1_, symObjAddr: 0x77858, symBinAddr: 0x100079F3C, symSize: 0x70 }
  - { offset: 0xA15FF, size: 0x8, addend: 0x0, symName: __ZNSt3__1neB8ne180100INS_16reverse_iteratorIPNS_4pairINS_6vectorIfNS_9allocatorIfEEEEfEEEES9_EEbRKNS1_IT_EERKNS1_IT0_EE, symObjAddr: 0x77904, symBinAddr: 0x100079FE8, symSize: 0x60 }
  - { offset: 0xA164B, size: 0x8, addend: 0x0, symName: __ZNSt3__112__to_addressB8ne180100INS_16reverse_iteratorINS1_IPNS_4pairINS_6vectorIfNS_9allocatorIfEEEEfEEEEEEvEEu7__decayIDTclsr19__to_address_helperIT_EE6__callclsr3stdE7declvalIRKSB_EEEEESD_, symObjAddr: 0x7798C, symBinAddr: 0x10007A070, symSize: 0x24 }
  - { offset: 0xA1681, size: 0x8, addend: 0x0, symName: __ZNSt3__112__destroy_atB8ne180100INS_4pairINS_6vectorIfNS_9allocatorIfEEEEfEELi0EEEvPT_, symObjAddr: 0x77A04, symBinAddr: 0x10007A0E8, symSize: 0x24 }
  - { offset: 0xA16E2, size: 0x8, addend: 0x0, symName: __ZNSt3__14prevB8ne180100INS_16reverse_iteratorIPNS_4pairINS_6vectorIfNS_9allocatorIfEEEEfEEEELi0EEET_SA_NS_15iterator_traitsISA_E15difference_typeE, symObjAddr: 0x77AAC, symBinAddr: 0x10007A190, symSize: 0x4C }
  - { offset: 0xA172B, size: 0x8, addend: 0x0, symName: __ZNSt3__19__advanceB8ne180100INS_16reverse_iteratorIPNS_4pairINS_6vectorIfNS_9allocatorIfEEEEfEEEEEEvRT_NS_15iterator_traitsISA_E15difference_typeENS_26random_access_iterator_tagE, symObjAddr: 0x77B30, symBinAddr: 0x10007A214, symSize: 0x2C }
  - { offset: 0xA1775, size: 0x8, addend: 0x0, symName: __ZNSt3__111swap_rangesB8ne180100INS_11__wrap_iterIPfEES3_EET0_T_S5_S4_, symObjAddr: 0x7828C, symBinAddr: 0x10007A970, symSize: 0x60 }
  - { offset: 0xA17CF, size: 0x8, addend: 0x0, symName: __ZNSt3__113__swap_rangesB8ne180100INS_17_ClassicAlgPolicyENS_11__wrap_iterIPfEES4_S4_EENS_4pairIT0_T2_EES6_T1_S7_, symObjAddr: 0x782EC, symBinAddr: 0x10007A9D0, symSize: 0x7C }
  - { offset: 0xA190F, size: 0x8, addend: 0x0, symName: __ZNSt3__19iter_swapB8ne180100INS_11__wrap_iterIPfEES3_EEvT_T0_, symObjAddr: 0x783E8, symBinAddr: 0x10007AACC, symSize: 0x50 }
  - { offset: 0xA1957, size: 0x8, addend: 0x0, symName: __ZNSt3__14swapB8ne180100IfEENS_9enable_ifIXaasr21is_move_constructibleIT_EE5valuesr18is_move_assignableIS2_EE5valueEvE4typeERS2_S5_, symObjAddr: 0x78438, symBinAddr: 0x10007AB1C, symSize: 0x3C }
  - { offset: 0xA19A9, size: 0x8, addend: 0x0, symName: '__ZNSt3__111__sort_implB8ne180100INS_17_ClassicAlgPolicyENS_11__wrap_iterIPNS_4pairINS_6vectorIfNS_9allocatorIfEEEEfEEEEZZ2GPPFS7_R5BoardERKN5Eigen6MatrixINS_7complexIfEELin1ELin1ELi0ELin1ELin1EEEiNS_12basic_stringIcNS_11char_traitsIcEENS5_IcEEEESQ_ibdjbfbENK3$_0clEvEUlRS8_SS_E_EEvT0_SU_RT1_', symObjAddr: 0x784A8, symBinAddr: 0x10007AB8C, symSize: 0xA8 }
  - { offset: 0xA1A0D, size: 0x8, addend: 0x0, symName: __ZNSt3__123__debug_randomize_rangeB8ne180100INS_17_ClassicAlgPolicyENS_11__wrap_iterIPNS_4pairINS_6vectorIfNS_9allocatorIfEEEEfEEEESA_EEvT0_T1_, symObjAddr: 0x78550, symBinAddr: 0x10007AC34, symSize: 0x14 }
  - { offset: 0xA1A5F, size: 0x8, addend: 0x0, symName: '__ZNSt3__115__sort_dispatchB8ne180100INS_17_ClassicAlgPolicyEPNS_4pairINS_6vectorIfNS_9allocatorIfEEEEfEEZZ2GPPFS6_R5BoardERKN5Eigen6MatrixINS_7complexIfEELin1ELin1ELi0ELin1ELin1EEEiNS_12basic_stringIcNS_11char_traitsIcEENS4_IcEEEESO_ibdjbfbENK3$_0clEvEUlRS7_SQ_E_EEvT0_SS_RT1_', symObjAddr: 0x78564, symBinAddr: 0x10007AC48, symSize: 0x64 }
  - { offset: 0xA1ADD, size: 0x8, addend: 0x0, symName: __ZNSt3__113__unwrap_iterB8ne180100INS_11__wrap_iterIPNS_4pairINS_6vectorIfNS_9allocatorIfEEEEfEEEENS_18__unwrap_iter_implIS9_Lb1EEELi0EEEDTclsrT0_8__unwrapclsr3stdE7declvalIT_EEEESD_, symObjAddr: 0x785C8, symBinAddr: 0x10007ACAC, symSize: 0x2C }
  - { offset: 0xA1B22, size: 0x8, addend: 0x0, symName: '__ZNSt3__135__check_strict_weak_ordering_sortedB8ne180100IPNS_4pairINS_6vectorIfNS_9allocatorIfEEEEfEEZZ2GPPFS5_R5BoardERKN5Eigen6MatrixINS_7complexIfEELin1ELin1ELi0ELin1ELin1EEEiNS_12basic_stringIcNS_11char_traitsIcEENS3_IcEEEESN_ibdjbfbENK3$_0clEvEUlRS6_SP_E_EEvT_SR_RT0_', symObjAddr: 0x785F4, symBinAddr: 0x10007ACD8, symSize: 0x18 }
  - { offset: 0xA1B78, size: 0x8, addend: 0x0, symName: __ZNSt3__17__log2iB8ne180100IlEET_S1_, symObjAddr: 0x7860C, symBinAddr: 0x10007ACF0, symSize: 0x54 }
  - { offset: 0xA1BB0, size: 0x8, addend: 0x0, symName: '__ZNSt3__124__sort3_maybe_branchlessB8ne180100INS_17_ClassicAlgPolicyERZZ2GPPFNS_6vectorIfNS_9allocatorIfEEEER5BoardERKN5Eigen6MatrixINS_7complexIfEELin1ELin1ELi0ELin1ELin1EEEiNS_12basic_stringIcNS_11char_traitsIcEENS3_IcEEEESL_ibdjbfbENK3$_0clEvEUlRNS_4pairIS5_fEESP_E_PSO_Li0EEEvT1_ST_ST_T0_', symObjAddr: 0x78B14, symBinAddr: 0x10007B1F8, symSize: 0x3C }
  - { offset: 0xA1C24, size: 0x8, addend: 0x0, symName: '__ZNSt3__124__sort4_maybe_branchlessB8ne180100INS_17_ClassicAlgPolicyERZZ2GPPFNS_6vectorIfNS_9allocatorIfEEEER5BoardERKN5Eigen6MatrixINS_7complexIfEELin1ELin1ELi0ELin1ELin1EEEiNS_12basic_stringIcNS_11char_traitsIcEENS3_IcEEEESL_ibdjbfbENK3$_0clEvEUlRNS_4pairIS5_fEESP_E_PSO_Li0EEEvT1_ST_ST_ST_T0_', symObjAddr: 0x78B50, symBinAddr: 0x10007B234, symSize: 0x44 }
  - { offset: 0xA1CA6, size: 0x8, addend: 0x0, symName: '__ZNSt3__124__sort5_maybe_branchlessB8ne180100INS_17_ClassicAlgPolicyERZZ2GPPFNS_6vectorIfNS_9allocatorIfEEEER5BoardERKN5Eigen6MatrixINS_7complexIfEELin1ELin1ELi0ELin1ELin1EEEiNS_12basic_stringIcNS_11char_traitsIcEENS3_IcEEEESL_ibdjbfbENK3$_0clEvEUlRNS_4pairIS5_fEESP_E_PSO_Li0EEEvT1_ST_ST_ST_ST_T0_', symObjAddr: 0x78B94, symBinAddr: 0x10007B278, symSize: 0x4C }
  - { offset: 0xA1D3D, size: 0x8, addend: 0x0, symName: '__ZNSt3__116__insertion_sortB8ne180100INS_17_ClassicAlgPolicyERZZ2GPPFNS_6vectorIfNS_9allocatorIfEEEER5BoardERKN5Eigen6MatrixINS_7complexIfEELin1ELin1ELi0ELin1ELin1EEEiNS_12basic_stringIcNS_11char_traitsIcEENS3_IcEEEESL_ibdjbfbENK3$_0clEvEUlRNS_4pairIS5_fEESP_E_PSO_EEvT1_ST_T0_', symObjAddr: 0x78BE0, symBinAddr: 0x10007B2C4, symSize: 0x188 }
  - { offset: 0xA1DF7, size: 0x8, addend: 0x0, symName: '__ZNSt3__114__partial_sortB8ne180100INS_17_ClassicAlgPolicyERZZ2GPPFNS_6vectorIfNS_9allocatorIfEEEER5BoardERKN5Eigen6MatrixINS_7complexIfEELin1ELin1ELi0ELin1ELin1EEEiNS_12basic_stringIcNS_11char_traitsIcEENS3_IcEEEESL_ibdjbfbENK3$_0clEvEUlRNS_4pairIS5_fEESP_E_PSO_SS_EET1_ST_ST_T2_RT0_', symObjAddr: 0x78EC0, symBinAddr: 0x10007B5A4, symSize: 0x94 }
  - { offset: 0xA1E80, size: 0x8, addend: 0x0, symName: '__ZNSt3__17__sort3B8ne180100INS_17_ClassicAlgPolicyERZZ2GPPFNS_6vectorIfNS_9allocatorIfEEEER5BoardERKN5Eigen6MatrixINS_7complexIfEELin1ELin1ELi0ELin1ELin1EEEiNS_12basic_stringIcNS_11char_traitsIcEENS3_IcEEEESL_ibdjbfbENK3$_0clEvEUlRNS_4pairIS5_fEESP_E_PSO_EEjT1_ST_ST_T0_', symObjAddr: 0x78F54, symBinAddr: 0x10007B638, symSize: 0x144 }
  - { offset: 0xA1EFF, size: 0x8, addend: 0x0, symName: __ZNSt3__19iter_swapB8ne180100IPNS_4pairINS_6vectorIfNS_9allocatorIfEEEEfEES7_EEvT_T0_, symObjAddr: 0x79C70, symBinAddr: 0x10007C354, symSize: 0x2C }
  - { offset: 0xA1F47, size: 0x8, addend: 0x0, symName: __ZNSt3__14swapB8ne180100INS_6vectorIfNS_9allocatorIfEEEEfLi0EEEvRNS_4pairIT_T0_EES9_, symObjAddr: 0x79C9C, symBinAddr: 0x10007C380, symSize: 0x2C }
  - { offset: 0xA1F99, size: 0x8, addend: 0x0, symName: '__ZNSt3__17__sort4B8ne180100INS_17_ClassicAlgPolicyERZZ2GPPFNS_6vectorIfNS_9allocatorIfEEEER5BoardERKN5Eigen6MatrixINS_7complexIfEELin1ELin1ELi0ELin1ELin1EEEiNS_12basic_stringIcNS_11char_traitsIcEENS3_IcEEEESL_ibdjbfbENK3$_0clEvEUlRNS_4pairIS5_fEESP_E_PSO_EEvT1_ST_ST_ST_T0_', symObjAddr: 0x79D0C, symBinAddr: 0x10007C3F0, symSize: 0xB8 }
  - { offset: 0xA2015, size: 0x8, addend: 0x0, symName: '__ZNSt3__17__sort5B8ne180100INS_17_ClassicAlgPolicyERZZ2GPPFNS_6vectorIfNS_9allocatorIfEEEER5BoardERKN5Eigen6MatrixINS_7complexIfEELin1ELin1ELi0ELin1ELin1EEEiNS_12basic_stringIcNS_11char_traitsIcEENS3_IcEEEESL_ibdjbfbENK3$_0clEvEUlRNS_4pairIS5_fEESP_E_PSO_EEvT1_ST_ST_ST_ST_T0_', symObjAddr: 0x79DC4, symBinAddr: 0x10007C4A8, symSize: 0xE8 }
  - { offset: 0xA20AA, size: 0x8, addend: 0x0, symName: __ZNSt3__123__debug_randomize_rangeB8ne180100INS_17_ClassicAlgPolicyEPNS_4pairINS_6vectorIfNS_9allocatorIfEEEEfEES8_EEvT0_T1_, symObjAddr: 0x79F30, symBinAddr: 0x10007C614, symSize: 0x14 }
  - { offset: 0xA20FC, size: 0x8, addend: 0x0, symName: '__ZNSt3__119__partial_sort_implB8ne180100INS_17_ClassicAlgPolicyERZZ2GPPFNS_6vectorIfNS_9allocatorIfEEEER5BoardERKN5Eigen6MatrixINS_7complexIfEELin1ELin1ELi0ELin1ELin1EEEiNS_12basic_stringIcNS_11char_traitsIcEENS3_IcEEEESL_ibdjbfbENK3$_0clEvEUlRNS_4pairIS5_fEESP_E_PSO_SS_EET1_ST_ST_T2_OT0_', symObjAddr: 0x79F44, symBinAddr: 0x10007C628, symSize: 0x110 }
  - { offset: 0xA2193, size: 0x8, addend: 0x0, symName: '__ZNSt3__111__make_heapB8ne180100INS_17_ClassicAlgPolicyERZZ2GPPFNS_6vectorIfNS_9allocatorIfEEEER5BoardERKN5Eigen6MatrixINS_7complexIfEELin1ELin1ELi0ELin1ELin1EEEiNS_12basic_stringIcNS_11char_traitsIcEENS3_IcEEEESL_ibdjbfbENK3$_0clEvEUlRNS_4pairIS5_fEESP_E_PSO_EEvT1_ST_OT0_', symObjAddr: 0x7A054, symBinAddr: 0x10007C738, symSize: 0xB8 }
  - { offset: 0xA2236, size: 0x8, addend: 0x0, symName: '__ZNSt3__111__sort_heapB8ne180100INS_17_ClassicAlgPolicyERZZ2GPPFNS_6vectorIfNS_9allocatorIfEEEER5BoardERKN5Eigen6MatrixINS_7complexIfEELin1ELin1ELi0ELin1ELin1EEEiNS_12basic_stringIcNS_11char_traitsIcEENS3_IcEEEESL_ibdjbfbENK3$_0clEvEUlRNS_4pairIS5_fEESP_E_PSO_EEvT1_ST_OT0_', symObjAddr: 0x7A350, symBinAddr: 0x10007CA34, symSize: 0xA8 }
  - { offset: 0xA22D9, size: 0x8, addend: 0x0, symName: '__ZNSt3__110__pop_heapB8ne180100INS_17_ClassicAlgPolicyEZZ2GPPFNS_6vectorIfNS_9allocatorIfEEEER5BoardERKN5Eigen6MatrixINS_7complexIfEELin1ELin1ELi0ELin1ELin1EEEiNS_12basic_stringIcNS_11char_traitsIcEENS3_IcEEEESL_ibdjbfbENK3$_0clEvEUlRNS_4pairIS5_fEESP_E_PSO_EEvT1_SS_RT0_NS_15iterator_traitsISS_E15difference_typeE', symObjAddr: 0x7A3F8, symBinAddr: 0x10007CADC, symSize: 0x138 }
  - { offset: 0xA2383, size: 0x8, addend: 0x0, symName: '__ZNSt3__19__sift_upB8ne180100INS_17_ClassicAlgPolicyERZZ2GPPFNS_6vectorIfNS_9allocatorIfEEEER5BoardERKN5Eigen6MatrixINS_7complexIfEELin1ELin1ELi0ELin1ELin1EEEiNS_12basic_stringIcNS_11char_traitsIcEENS3_IcEEEESL_ibdjbfbENK3$_0clEvEUlRNS_4pairIS5_fEESP_E_PSO_EEvT1_ST_OT0_NS_15iterator_traitsIST_E15difference_typeE', symObjAddr: 0x7A630, symBinAddr: 0x10007CD14, symSize: 0x154 }
  - { offset: 0xA2426, size: 0x8, addend: 0x0, symName: '__ZNSt3__122__populate_left_bitsetB8ne180100IRZZ2GPPFNS_6vectorIfNS_9allocatorIfEEEER5BoardERKN5Eigen6MatrixINS_7complexIfEELin1ELin1ELi0ELin1ELin1EEEiNS_12basic_stringIcNS_11char_traitsIcEENS2_IcEEEESK_ibdjbfbENK3$_0clEvEUlRNS_4pairIS4_fEESO_E_PSN_SN_EEvT0_T_RT1_Ry', symObjAddr: 0x7A784, symBinAddr: 0x10007CE68, symSize: 0xA8 }
  - { offset: 0xA24E2, size: 0x8, addend: 0x0, symName: '__ZNSt3__123__populate_right_bitsetB8ne180100IRZZ2GPPFNS_6vectorIfNS_9allocatorIfEEEER5BoardERKN5Eigen6MatrixINS_7complexIfEELin1ELin1ELi0ELin1ELin1EEEiNS_12basic_stringIcNS_11char_traitsIcEENS2_IcEEEESK_ibdjbfbENK3$_0clEvEUlRNS_4pairIS4_fEESO_E_PSN_SN_EEvT0_T_RT1_Ry', symObjAddr: 0x7A82C, symBinAddr: 0x10007CF10, symSize: 0xA4 }
  - { offset: 0xA259D, size: 0x8, addend: 0x0, symName: __ZNSt3__117__swap_bitmap_posB8ne180100INS_17_ClassicAlgPolicyEPNS_4pairINS_6vectorIfNS_9allocatorIfEEEEfEEEEvT0_S9_RySA_, symObjAddr: 0x7A8D0, symBinAddr: 0x10007CFB4, symSize: 0x100 }
  - { offset: 0xA263F, size: 0x8, addend: 0x0, symName: '__ZNSt3__133__bitset_partition_partial_blocksB8ne180100INS_17_ClassicAlgPolicyERZZ2GPPFNS_6vectorIfNS_9allocatorIfEEEER5BoardERKN5Eigen6MatrixINS_7complexIfEELin1ELin1ELi0ELin1ELin1EEEiNS_12basic_stringIcNS_11char_traitsIcEENS3_IcEEEESL_ibdjbfbENK3$_0clEvEUlRNS_4pairIS5_fEESP_E_PSO_SO_EEvRT1_SU_T0_RT2_RySY_', symObjAddr: 0x7A9D0, symBinAddr: 0x10007D0B4, symSize: 0x2E8 }
  - { offset: 0xA27C0, size: 0x8, addend: 0x0, symName: __ZNSt3__19make_pairB8ne180100IRPNS_4pairINS_6vectorIfNS_9allocatorIfEEEEfEERbEENS1_INS_18__unwrap_ref_decayIT_E4typeENSA_IT0_E4typeEEEOSB_OSE_, symObjAddr: 0x7AE98, symBinAddr: 0x10007D57C, symSize: 0x38 }
  - { offset: 0xA280F, size: 0x8, addend: 0x0, symName: __ZNSt3__112__libcpp_ctzB8ne180100Ey, symObjAddr: 0x7AED0, symBinAddr: 0x10007D5B4, symSize: 0x20 }
  - { offset: 0xA283B, size: 0x8, addend: 0x0, symName: __ZNSt3__113__libcpp_blsrB8ne180100Ey, symObjAddr: 0x7AEF0, symBinAddr: 0x10007D5D4, symSize: 0x2C }
  - { offset: 0xA2867, size: 0x8, addend: 0x0, symName: __ZNSt3__112__libcpp_clzB8ne180100Ey, symObjAddr: 0x7AF50, symBinAddr: 0x10007D634, symSize: 0x1C }
  - { offset: 0xA29BA, size: 0x8, addend: 0x0, symName: __ZNSt3__112__to_addressB8ne180100INS_11__wrap_iterIPNS_4pairINS_6vectorIfNS_9allocatorIfEEEEfEEEEvEEu7__decayIDTclsr19__to_address_helperIT_EE6__callclsr3stdE7declvalIRKSA_EEEEESC_, symObjAddr: 0x7B008, symBinAddr: 0x10007D6EC, symSize: 0x24 }
  - { offset: 0xA2A58, size: 0x8, addend: 0x0, symName: __ZNSt3__114__construct_atB8ne180100INS_4pairINS_6vectorIfNS_9allocatorIfEEEEfEEJEPS6_EEPT_S9_DpOT0_, symObjAddr: 0x7B41C, symBinAddr: 0x10007DB00, symSize: 0x24 }
  - { offset: 0xA2A97, size: 0x8, addend: 0x0, symName: __ZNSt3__112construct_atB8ne180100INS_4pairINS_6vectorIfNS_9allocatorIfEEEEfEEJEPS6_EEPT_S9_DpOT0_, symObjAddr: 0x7B440, symBinAddr: 0x10007DB24, symSize: 0x2C }
  - { offset: 0xA2EEE, size: 0x8, addend: 0x0, symName: '__ZNSt3__114__thread_proxyB8ne180100INS_5tupleIJNS_10unique_ptrINS_15__thread_structENS_14default_deleteIS3_EEEEZ3PSOPFNS_6vectorIfNS_9allocatorIfEEEER5BoardERKN5Eigen6MatrixINS_7complexIfEELin1ELin1ELi0ELin1ELin1EEEiNS_12basic_stringIcNS_11char_traitsIcEENS8_IcEEEESQ_ibdjbfbE3$_0EEEEEPvST_', symObjAddr: 0x7BB40, symBinAddr: 0x10007E224, symSize: 0x90 }
  - { offset: 0xA2F4C, size: 0x8, addend: 0x0, symName: '__ZNSt3__13getB8ne180100ILm0EJNS_10unique_ptrINS_15__thread_structENS_14default_deleteIS2_EEEEZ3PSOPFNS_6vectorIfNS_9allocatorIfEEEER5BoardERKN5Eigen6MatrixINS_7complexIfEELin1ELin1ELi0ELin1ELin1EEEiNS_12basic_stringIcNS_11char_traitsIcEENS7_IcEEEESP_ibdjbfbE3$_0EEERNS_13tuple_elementIXT_ENS_5tupleIJDpT0_EEEE4typeERSV_', symObjAddr: 0x7BE58, symBinAddr: 0x10007E53C, symSize: 0x24 }
  - { offset: 0xA2F95, size: 0x8, addend: 0x0, symName: '__ZNSt3__116__thread_executeB8ne180100INS_10unique_ptrINS_15__thread_structENS_14default_deleteIS2_EEEEZ3PSOPFNS_6vectorIfNS_9allocatorIfEEEER5BoardERKN5Eigen6MatrixINS_7complexIfEELin1ELin1ELi0ELin1ELin1EEEiNS_12basic_stringIcNS_11char_traitsIcEENS7_IcEEEESP_ibdjbfbE3$_0JEJEEEvRNS_5tupleIJT_T0_DpT1_EEENS_15__tuple_indicesIJXspT2_EEEE', symObjAddr: 0x7BE7C, symBinAddr: 0x10007E560, symSize: 0x28 }
  - { offset: 0xA2FE5, size: 0x8, addend: 0x0, symName: '__ZNSt3__18__invokeB8ne180100IZ3PSOPFNS_6vectorIfNS_9allocatorIfEEEER5BoardERKN5Eigen6MatrixINS_7complexIfEELin1ELin1ELi0ELin1ELin1EEEiNS_12basic_stringIcNS_11char_traitsIcEENS2_IcEEEESK_ibdjbfbE3$_0JEEEDTclclsr3stdE7declvalIT_EEspclsr3stdE7declvalIT0_EEEEOSM_DpOSN_', symObjAddr: 0x7BEA4, symBinAddr: 0x10007E588, symSize: 0x24 }
  - { offset: 0xA301E, size: 0x8, addend: 0x0, symName: '__ZNSt3__13getB8ne180100ILm1EJNS_10unique_ptrINS_15__thread_structENS_14default_deleteIS2_EEEEZ3PSOPFNS_6vectorIfNS_9allocatorIfEEEER5BoardERKN5Eigen6MatrixINS_7complexIfEELin1ELin1ELi0ELin1ELin1EEEiNS_12basic_stringIcNS_11char_traitsIcEENS7_IcEEEESP_ibdjbfbE3$_0EEERNS_13tuple_elementIXT_ENS_5tupleIJDpT0_EEEE4typeERSV_', symObjAddr: 0x7BEC8, symBinAddr: 0x10007E5AC, symSize: 0x28 }
  - { offset: 0xA42B4, size: 0x8, addend: 0x0, symName: __ZNSt3__116forward_as_tupleB8ne180100IJRKiEEENS_5tupleIJDpOT_EEES6_, symObjAddr: 0x7E580, symBinAddr: 0x100080C64, symSize: 0x2C }
  - { offset: 0xA42ED, size: 0x8, addend: 0x0, symName: __ZNSt3__17launderB8ne180100IKNS_4pairIKifEEEEPT_S6_, symObjAddr: 0x7EC7C, symBinAddr: 0x100081360, symSize: 0x24 }
  - { offset: 0xA4324, size: 0x8, addend: 0x0, symName: __ZNSt3__19__launderB8ne180100IKNS_4pairIKifEEEEPT_S6_, symObjAddr: 0x7ECA0, symBinAddr: 0x100081384, symSize: 0x14 }
  - { offset: 0xA43AC, size: 0x8, addend: 0x0, symName: __ZNSt3__114__construct_atB8ne180100INS_11__hash_nodeINS_17__hash_value_typeIifEEPvEEJDnRmEPS5_EEPT_S9_DpOT0_, symObjAddr: 0x7EDA0, symBinAddr: 0x100081484, symSize: 0x34 }
  - { offset: 0xA4412, size: 0x8, addend: 0x0, symName: __ZNSt3__112construct_atB8ne180100INS_11__hash_nodeINS_17__hash_value_typeIifEEPvEEJDnRmEPS5_EEPT_S9_DpOT0_, symObjAddr: 0x7F08C, symBinAddr: 0x100081770, symSize: 0x40 }
  - { offset: 0xA4478, size: 0x8, addend: 0x0, symName: __ZNSt3__114__construct_atB8ne180100INS_4pairIKifEEJRKNS_21piecewise_construct_tENS_5tupleIJRS2_EEENS7_IJEEEEPS3_EEPT_SD_DpOT0_, symObjAddr: 0x7F1A0, symBinAddr: 0x100081884, symSize: 0x3C }
  - { offset: 0xA44F1, size: 0x8, addend: 0x0, symName: __ZNSt3__112construct_atB8ne180100INS_4pairIKifEEJRKNS_21piecewise_construct_tENS_5tupleIJRS2_EEENS7_IJEEEEPS3_EEPT_SD_DpOT0_, symObjAddr: 0x7F1DC, symBinAddr: 0x1000818C0, symSize: 0x48 }
  - { offset: 0xA456A, size: 0x8, addend: 0x0, symName: __ZNSt3__13getB8ne180100ILm0EJRKiEEERNS_13tuple_elementIXT_ENS_5tupleIJDpT0_EEEE4typeERS7_, symObjAddr: 0x7F2F0, symBinAddr: 0x1000819D4, symSize: 0x24 }
  - { offset: 0xA45AD, size: 0x8, addend: 0x0, symName: __ZNSt3__112__destroy_atB8ne180100INS_11__hash_nodeINS_17__hash_value_typeIifEEPvEELi0EEEvPT_, symObjAddr: 0x7FCCC, symBinAddr: 0x1000823B0, symSize: 0x24 }
  - { offset: 0xA45E5, size: 0x8, addend: 0x0, symName: __ZNSt3__112__destroy_atB8ne180100INS_4pairIKifEELi0EEEvPT_, symObjAddr: 0x7FD24, symBinAddr: 0x100082408, symSize: 0x10 }
  - { offset: 0xA4664, size: 0x8, addend: 0x0, symName: __ZNSt3__17launderB8ne180100INS_4pairIKifEEEEPT_S5_, symObjAddr: 0x7FF14, symBinAddr: 0x1000825F8, symSize: 0x24 }
  - { offset: 0xA469B, size: 0x8, addend: 0x0, symName: __ZNSt3__19__launderB8ne180100INS_4pairIKifEEEEPT_S5_, symObjAddr: 0x7FF38, symBinAddr: 0x10008261C, symSize: 0x14 }
  - { offset: 0xA46D2, size: 0x8, addend: 0x0, symName: __ZNSt3__17launderB8ne180100IKNS_4pairIKfNS_13unordered_mapIiiNS_4hashIiEENS_8equal_toIiEENS_9allocatorINS1_IKiiEEEEEEEEEEPT_SG_, symObjAddr: 0x80A9C, symBinAddr: 0x100083180, symSize: 0x24 }
  - { offset: 0xA4709, size: 0x8, addend: 0x0, symName: __ZNSt3__19__launderB8ne180100IKNS_4pairIKfNS_13unordered_mapIiiNS_4hashIiEENS_8equal_toIiEENS_9allocatorINS1_IKiiEEEEEEEEEEPT_SG_, symObjAddr: 0x80AC0, symBinAddr: 0x1000831A4, symSize: 0x14 }
  - { offset: 0xA4791, size: 0x8, addend: 0x0, symName: __ZNSt3__114__construct_atB8ne180100INS_11__hash_nodeINS_17__hash_value_typeIfNS_13unordered_mapIiiNS_4hashIiEENS_8equal_toIiEENS_9allocatorINS_4pairIKiiEEEEEEEEPvEEJDnRmEPSG_EEPT_SK_DpOT0_, symObjAddr: 0x80BC0, symBinAddr: 0x1000832A4, symSize: 0x34 }
  - { offset: 0xA47F7, size: 0x8, addend: 0x0, symName: __ZNSt3__112construct_atB8ne180100INS_11__hash_nodeINS_17__hash_value_typeIfNS_13unordered_mapIiiNS_4hashIiEENS_8equal_toIiEENS_9allocatorINS_4pairIKiiEEEEEEEEPvEEJDnRmEPSG_EEPT_SK_DpOT0_, symObjAddr: 0x80EA8, symBinAddr: 0x10008358C, symSize: 0x40 }
  - { offset: 0xA485D, size: 0x8, addend: 0x0, symName: __ZNSt3__114__construct_atB8ne180100INS_4pairIKfNS_13unordered_mapIiiNS_4hashIiEENS_8equal_toIiEENS_9allocatorINS1_IKiiEEEEEEEEJRKNS_21piecewise_construct_tENS_5tupleIJRS2_EEENSH_IJEEEEPSD_EEPT_SN_DpOT0_, symObjAddr: 0x80FBC, symBinAddr: 0x1000836A0, symSize: 0x3C }
  - { offset: 0xA48D6, size: 0x8, addend: 0x0, symName: __ZNSt3__112construct_atB8ne180100INS_4pairIKfNS_13unordered_mapIiiNS_4hashIiEENS_8equal_toIiEENS_9allocatorINS1_IKiiEEEEEEEEJRKNS_21piecewise_construct_tENS_5tupleIJRS2_EEENSH_IJEEEEPSD_EEPT_SN_DpOT0_, symObjAddr: 0x80FF8, symBinAddr: 0x1000836DC, symSize: 0x48 }
  - { offset: 0xA494F, size: 0x8, addend: 0x0, symName: __ZNSt3__112__destroy_atB8ne180100INS_11__hash_nodeINS_17__hash_value_typeIfNS_13unordered_mapIiiNS_4hashIiEENS_8equal_toIiEENS_9allocatorINS_4pairIKiiEEEEEEEEPvEELi0EEEvPT_, symObjAddr: 0x820DC, symBinAddr: 0x1000847C0, symSize: 0x24 }
  - { offset: 0xA4986, size: 0x8, addend: 0x0, symName: __ZNSt3__112__destroy_atB8ne180100INS_4pairIKfNS_13unordered_mapIiiNS_4hashIiEENS_8equal_toIiEENS_9allocatorINS1_IKiiEEEEEEEELi0EEEvPT_, symObjAddr: 0x82134, symBinAddr: 0x100084818, symSize: 0x24 }
  - { offset: 0xA49BD, size: 0x8, addend: 0x0, symName: __ZNSt3__112__destroy_atB8ne180100INS_11__hash_nodeINS_17__hash_value_typeIiiEEPvEELi0EEEvPT_, symObjAddr: 0x82440, symBinAddr: 0x100084B24, symSize: 0x24 }
  - { offset: 0xA4A28, size: 0x8, addend: 0x0, symName: __ZNSt3__112__destroy_atB8ne180100INS_4pairIKiiEELi0EEEvPT_, symObjAddr: 0x824E4, symBinAddr: 0x100084BC8, symSize: 0x10 }
  - { offset: 0xA4A5F, size: 0x8, addend: 0x0, symName: __ZNSt3__17launderB8ne180100INS_4pairIKiiEEEEPT_S5_, symObjAddr: 0x82518, symBinAddr: 0x100084BFC, symSize: 0x24 }
  - { offset: 0xA4A96, size: 0x8, addend: 0x0, symName: __ZNSt3__19__launderB8ne180100INS_4pairIKiiEEEEPT_S5_, symObjAddr: 0x8253C, symBinAddr: 0x100084C20, symSize: 0x14 }
  - { offset: 0xA4B00, size: 0x8, addend: 0x0, symName: __ZNSt3__17launderB8ne180100INS_4pairIKfNS_13unordered_mapIiiNS_4hashIiEENS_8equal_toIiEENS_9allocatorINS1_IKiiEEEEEEEEEEPT_SF_, symObjAddr: 0x82954, symBinAddr: 0x100085038, symSize: 0x24 }
  - { offset: 0xA4B37, size: 0x8, addend: 0x0, symName: __ZNSt3__19__launderB8ne180100INS_4pairIKfNS_13unordered_mapIiiNS_4hashIiEENS_8equal_toIiEENS_9allocatorINS1_IKiiEEEEEEEEEEPT_SF_, symObjAddr: 0x82978, symBinAddr: 0x10008505C, symSize: 0x14 }
  - { offset: 0xA4B6E, size: 0x8, addend: 0x0, symName: __ZNSt3__17launderB8ne180100IKNS_4pairIKiiEEEEPT_S6_, symObjAddr: 0x83458, symBinAddr: 0x100085B3C, symSize: 0x24 }
  - { offset: 0xA4BA5, size: 0x8, addend: 0x0, symName: __ZNSt3__19__launderB8ne180100IKNS_4pairIKiiEEEEPT_S6_, symObjAddr: 0x8347C, symBinAddr: 0x100085B60, symSize: 0x14 }
  - { offset: 0xA4BFA, size: 0x8, addend: 0x0, symName: __ZNSt3__114__construct_atB8ne180100INS_11__hash_nodeINS_17__hash_value_typeIiiEEPvEEJDnRmEPS5_EEPT_S9_DpOT0_, symObjAddr: 0x83540, symBinAddr: 0x100085C24, symSize: 0x34 }
  - { offset: 0xA4C60, size: 0x8, addend: 0x0, symName: __ZNSt3__112construct_atB8ne180100INS_11__hash_nodeINS_17__hash_value_typeIiiEEPvEEJDnRmEPS5_EEPT_S9_DpOT0_, symObjAddr: 0x837D0, symBinAddr: 0x100085EB4, symSize: 0x40 }
  - { offset: 0xA4CC6, size: 0x8, addend: 0x0, symName: __ZNSt3__114__construct_atB8ne180100INS_4pairIKiiEEJRKNS_21piecewise_construct_tENS_5tupleIJRS2_EEENS7_IJEEEEPS3_EEPT_SD_DpOT0_, symObjAddr: 0x838E4, symBinAddr: 0x100085FC8, symSize: 0x3C }
  - { offset: 0xA4D3F, size: 0x8, addend: 0x0, symName: __ZNSt3__112construct_atB8ne180100INS_4pairIKiiEEJRKNS_21piecewise_construct_tENS_5tupleIJRS2_EEENS7_IJEEEEPS3_EEPT_SD_DpOT0_, symObjAddr: 0x83920, symBinAddr: 0x100086004, symSize: 0x48 }
  - { offset: 0xA4DEB, size: 0x8, addend: 0x0, symName: __ZNSt3__17launderB8ne180100IKNS_4pairIKfNS_13unordered_mapIifNS_4hashIiEENS_8equal_toIiEENS_9allocatorINS1_IKifEEEEEEEEEEPT_SG_, symObjAddr: 0x84D68, symBinAddr: 0x10008744C, symSize: 0x24 }
  - { offset: 0xA4E22, size: 0x8, addend: 0x0, symName: __ZNSt3__19__launderB8ne180100IKNS_4pairIKfNS_13unordered_mapIifNS_4hashIiEENS_8equal_toIiEENS_9allocatorINS1_IKifEEEEEEEEEEPT_SG_, symObjAddr: 0x84D8C, symBinAddr: 0x100087470, symSize: 0x14 }
  - { offset: 0xA4EAA, size: 0x8, addend: 0x0, symName: __ZNSt3__114__construct_atB8ne180100INS_11__hash_nodeINS_17__hash_value_typeIfNS_13unordered_mapIifNS_4hashIiEENS_8equal_toIiEENS_9allocatorINS_4pairIKifEEEEEEEEPvEEJDnRmEPSG_EEPT_SK_DpOT0_, symObjAddr: 0x84E8C, symBinAddr: 0x100087570, symSize: 0x34 }
  - { offset: 0xA4F10, size: 0x8, addend: 0x0, symName: __ZNSt3__112construct_atB8ne180100INS_11__hash_nodeINS_17__hash_value_typeIfNS_13unordered_mapIifNS_4hashIiEENS_8equal_toIiEENS_9allocatorINS_4pairIKifEEEEEEEEPvEEJDnRmEPSG_EEPT_SK_DpOT0_, symObjAddr: 0x85174, symBinAddr: 0x100087858, symSize: 0x40 }
  - { offset: 0xA4F76, size: 0x8, addend: 0x0, symName: __ZNSt3__114__construct_atB8ne180100INS_4pairIKfNS_13unordered_mapIifNS_4hashIiEENS_8equal_toIiEENS_9allocatorINS1_IKifEEEEEEEEJRKNS_21piecewise_construct_tENS_5tupleIJRS2_EEENSH_IJEEEEPSD_EEPT_SN_DpOT0_, symObjAddr: 0x85288, symBinAddr: 0x10008796C, symSize: 0x3C }
  - { offset: 0xA4FEF, size: 0x8, addend: 0x0, symName: __ZNSt3__112construct_atB8ne180100INS_4pairIKfNS_13unordered_mapIifNS_4hashIiEENS_8equal_toIiEENS_9allocatorINS1_IKifEEEEEEEEJRKNS_21piecewise_construct_tENS_5tupleIJRS2_EEENSH_IJEEEEPSD_EEPT_SN_DpOT0_, symObjAddr: 0x852C4, symBinAddr: 0x1000879A8, symSize: 0x48 }
  - { offset: 0xA5068, size: 0x8, addend: 0x0, symName: __ZNSt3__112__destroy_atB8ne180100INS_11__hash_nodeINS_17__hash_value_typeIfNS_13unordered_mapIifNS_4hashIiEENS_8equal_toIiEENS_9allocatorINS_4pairIKifEEEEEEEEPvEELi0EEEvPT_, symObjAddr: 0x85D78, symBinAddr: 0x10008845C, symSize: 0x24 }
  - { offset: 0xA509F, size: 0x8, addend: 0x0, symName: __ZNSt3__112__destroy_atB8ne180100INS_4pairIKfNS_13unordered_mapIifNS_4hashIiEENS_8equal_toIiEENS_9allocatorINS1_IKifEEEEEEEELi0EEEvPT_, symObjAddr: 0x85DD0, symBinAddr: 0x1000884B4, symSize: 0x24 }
  - { offset: 0xA5109, size: 0x8, addend: 0x0, symName: __ZNSt3__17launderB8ne180100INS_4pairIKfNS_13unordered_mapIifNS_4hashIiEENS_8equal_toIiEENS_9allocatorINS1_IKifEEEEEEEEEEPT_SF_, symObjAddr: 0x85F3C, symBinAddr: 0x100088620, symSize: 0x24 }
  - { offset: 0xA5140, size: 0x8, addend: 0x0, symName: __ZNSt3__19__launderB8ne180100INS_4pairIKfNS_13unordered_mapIifNS_4hashIiEENS_8equal_toIiEENS_9allocatorINS1_IKifEEEEEEEEEEPT_SF_, symObjAddr: 0x85F60, symBinAddr: 0x100088644, symSize: 0x14 }
  - { offset: 0xA558F, size: 0x8, addend: 0x0, symName: '__ZNSt3__114__thread_proxyB8ne180100INS_5tupleIJNS_10unique_ptrINS_15__thread_structENS_14default_deleteIS3_EEEEZ4MCTSPFNS_6vectorIfNS_9allocatorIfEEEER5BoardERKN5Eigen6MatrixINS_7complexIfEELin1ELin1ELi0ELin1ELin1EEEiNS_12basic_stringIcNS_11char_traitsIcEENS8_IcEEEESQ_ibdjbfbE3$_0EEEEEPvST_', symObjAddr: 0x869D4, symBinAddr: 0x1000890B8, symSize: 0x90 }
  - { offset: 0xA55ED, size: 0x8, addend: 0x0, symName: '__ZNSt3__13getB8ne180100ILm0EJNS_10unique_ptrINS_15__thread_structENS_14default_deleteIS2_EEEEZ4MCTSPFNS_6vectorIfNS_9allocatorIfEEEER5BoardERKN5Eigen6MatrixINS_7complexIfEELin1ELin1ELi0ELin1ELin1EEEiNS_12basic_stringIcNS_11char_traitsIcEENS7_IcEEEESP_ibdjbfbE3$_0EEERNS_13tuple_elementIXT_ENS_5tupleIJDpT0_EEEE4typeERSV_', symObjAddr: 0x86CEC, symBinAddr: 0x1000893D0, symSize: 0x24 }
  - { offset: 0xA5636, size: 0x8, addend: 0x0, symName: '__ZNSt3__116__thread_executeB8ne180100INS_10unique_ptrINS_15__thread_structENS_14default_deleteIS2_EEEEZ4MCTSPFNS_6vectorIfNS_9allocatorIfEEEER5BoardERKN5Eigen6MatrixINS_7complexIfEELin1ELin1ELi0ELin1ELin1EEEiNS_12basic_stringIcNS_11char_traitsIcEENS7_IcEEEESP_ibdjbfbE3$_0JEJEEEvRNS_5tupleIJT_T0_DpT1_EEENS_15__tuple_indicesIJXspT2_EEEE', symObjAddr: 0x86D10, symBinAddr: 0x1000893F4, symSize: 0x28 }
  - { offset: 0xA5686, size: 0x8, addend: 0x0, symName: '__ZNSt3__18__invokeB8ne180100IZ4MCTSPFNS_6vectorIfNS_9allocatorIfEEEER5BoardERKN5Eigen6MatrixINS_7complexIfEELin1ELin1ELi0ELin1ELin1EEEiNS_12basic_stringIcNS_11char_traitsIcEENS2_IcEEEESK_ibdjbfbE3$_0JEEEDTclclsr3stdE7declvalIT_EEspclsr3stdE7declvalIT0_EEEEOSM_DpOSN_', symObjAddr: 0x86D38, symBinAddr: 0x10008941C, symSize: 0x24 }
  - { offset: 0xA56BF, size: 0x8, addend: 0x0, symName: '__ZNSt3__13getB8ne180100ILm1EJNS_10unique_ptrINS_15__thread_structENS_14default_deleteIS2_EEEEZ4MCTSPFNS_6vectorIfNS_9allocatorIfEEEER5BoardERKN5Eigen6MatrixINS_7complexIfEELin1ELin1ELi0ELin1ELin1EEEiNS_12basic_stringIcNS_11char_traitsIcEENS7_IcEEEESP_ibdjbfbE3$_0EEERNS_13tuple_elementIXT_ENS_5tupleIJDpT0_EEEE4typeERSV_', symObjAddr: 0x86D5C, symBinAddr: 0x100089440, symSize: 0x28 }
  - { offset: 0xA602E, size: 0x8, addend: 0x0, symName: __ZNSt3__19make_pairB8ne180100IRNS_12basic_stringIcNS_11char_traitsIcEENS_9allocatorIcEEEERfEENS_4pairINS_18__unwrap_ref_decayIT_E4typeENSA_IT0_E4typeEEEOSB_OSE_, symObjAddr: 0x87AE8, symBinAddr: 0x10008A1CC, symSize: 0x40 }
  - { offset: 0xA607D, size: 0x8, addend: 0x0, symName: __ZNSt3__1neB8ne180100IPNS_4pairINS_12basic_stringIcNS_11char_traitsIcEENS_9allocatorIcEEEEfEEEEbRKNS_11__wrap_iterIT_EESE_, symObjAddr: 0x87BB4, symBinAddr: 0x10008A298, symSize: 0x34 }
  - { offset: 0xA60C0, size: 0x8, addend: 0x0, symName: __ZNSt3__119__allocate_at_leastB8ne180100INS_9allocatorINS_4pairINS_12basic_stringIcNS_11char_traitsIcEENS1_IcEEEEfEEEEEENS_19__allocation_resultINS_16allocator_traitsIT_E7pointerEEERSC_m, symObjAddr: 0x888CC, symBinAddr: 0x10008AFB0, symSize: 0x40 }
  - { offset: 0xA6103, size: 0x8, addend: 0x0, symName: __ZNSt3__142__uninitialized_allocator_move_if_noexceptB8ne180100INS_9allocatorINS_4pairINS_12basic_stringIcNS_11char_traitsIcEENS1_IcEEEEfEEEENS_16reverse_iteratorIPS8_EESC_SC_EET2_RT_T0_T1_SD_, symObjAddr: 0x88AA4, symBinAddr: 0x10008B188, symSize: 0x12C }
  - { offset: 0xA61A3, size: 0x8, addend: 0x0, symName: __ZNSt3__14swapB8ne180100IPNS_4pairINS_12basic_stringIcNS_11char_traitsIcEENS_9allocatorIcEEEEfEEEENS_9enable_ifIXaasr21is_move_constructibleIT_EE5valuesr18is_move_assignableISB_EE5valueEvE4typeERSB_SE_, symObjAddr: 0x88C1C, symBinAddr: 0x10008B300, symSize: 0x3C }
  - { offset: 0xA61F4, size: 0x8, addend: 0x0, symName: __ZNSt3__122__make_exception_guardB8ne180100INS_29_AllocatorDestroyRangeReverseINS_9allocatorINS_4pairINS_12basic_stringIcNS_11char_traitsIcEENS2_IcEEEEfEEEENS_16reverse_iteratorIPS9_EEEEEENS_28__exception_guard_exceptionsIT_EESG_, symObjAddr: 0x88C94, symBinAddr: 0x10008B378, symSize: 0x4C }
  - { offset: 0xA622A, size: 0x8, addend: 0x0, symName: __ZNSt3__1neB8ne180100IPNS_4pairINS_12basic_stringIcNS_11char_traitsIcEENS_9allocatorIcEEEEfEES9_EEbRKNS_16reverse_iteratorIT_EERKNSA_IT0_EE, symObjAddr: 0x88D24, symBinAddr: 0x10008B408, symSize: 0x48 }
  - { offset: 0xA6276, size: 0x8, addend: 0x0, symName: __ZNSt3__112__to_addressB8ne180100INS_16reverse_iteratorIPNS_4pairINS_12basic_stringIcNS_11char_traitsIcEENS_9allocatorIcEEEEfEEEEvEEu7__decayIDTclsr19__to_address_helperIT_EE6__callclsr3stdE7declvalIRKSC_EEEEESE_, symObjAddr: 0x88D9C, symBinAddr: 0x10008B480, symSize: 0x24 }
  - { offset: 0xA62AC, size: 0x8, addend: 0x0, symName: __ZNSt3__114__construct_atB8ne180100INS_4pairINS_12basic_stringIcNS_11char_traitsIcEENS_9allocatorIcEEEEfEEJS8_EPS8_EEPT_SB_DpOT0_, symObjAddr: 0x88EEC, symBinAddr: 0x10008B5D0, symSize: 0x2C }
  - { offset: 0xA62FF, size: 0x8, addend: 0x0, symName: __ZNSt3__112construct_atB8ne180100INS_4pairINS_12basic_stringIcNS_11char_traitsIcEENS_9allocatorIcEEEEfEEJS8_EPS8_EEPT_SB_DpOT0_, symObjAddr: 0x88F18, symBinAddr: 0x10008B5FC, symSize: 0x34 }
  - { offset: 0xA637C, size: 0x8, addend: 0x0, symName: __ZNSt3__112__to_addressB8ne180100INS_4pairINS_12basic_stringIcNS_11char_traitsIcEENS_9allocatorIcEEEEfEEEEPT_SA_, symObjAddr: 0x88FF8, symBinAddr: 0x10008B6DC, symSize: 0x14 }
  - { offset: 0xA63B1, size: 0x8, addend: 0x0, symName: __ZNSt3__14prevB8ne180100IPNS_4pairINS_12basic_stringIcNS_11char_traitsIcEENS_9allocatorIcEEEEfEELi0EEET_SA_NS_15iterator_traitsISA_E15difference_typeE, symObjAddr: 0x89038, symBinAddr: 0x10008B71C, symSize: 0x3C }
  - { offset: 0xA63FB, size: 0x8, addend: 0x0, symName: __ZNSt3__19__advanceB8ne180100IPNS_4pairINS_12basic_stringIcNS_11char_traitsIcEENS_9allocatorIcEEEEfEEEEvRT_NS_15iterator_traitsISA_E15difference_typeENS_26random_access_iterator_tagE, symObjAddr: 0x890AC, symBinAddr: 0x10008B790, symSize: 0x28 }
  - { offset: 0xA6445, size: 0x8, addend: 0x0, symName: __ZNSt3__119__allocator_destroyB8ne180100INS_9allocatorINS_4pairINS_12basic_stringIcNS_11char_traitsIcEENS1_IcEEEEfEEEENS_16reverse_iteratorINSA_IPS8_EEEESD_EEvRT_T0_T1_, symObjAddr: 0x891D8, symBinAddr: 0x10008B8BC, symSize: 0x70 }
  - { offset: 0xA64AA, size: 0x8, addend: 0x0, symName: __ZNSt3__1neB8ne180100INS_16reverse_iteratorIPNS_4pairINS_12basic_stringIcNS_11char_traitsIcEENS_9allocatorIcEEEEfEEEESB_EEbRKNS1_IT_EERKNS1_IT0_EE, symObjAddr: 0x89284, symBinAddr: 0x10008B968, symSize: 0x60 }
  - { offset: 0xA64F6, size: 0x8, addend: 0x0, symName: __ZNSt3__112__to_addressB8ne180100INS_16reverse_iteratorINS1_IPNS_4pairINS_12basic_stringIcNS_11char_traitsIcEENS_9allocatorIcEEEEfEEEEEEvEEu7__decayIDTclsr19__to_address_helperIT_EE6__callclsr3stdE7declvalIRKSD_EEEEESF_, symObjAddr: 0x8930C, symBinAddr: 0x10008B9F0, symSize: 0x24 }
  - { offset: 0xA652C, size: 0x8, addend: 0x0, symName: __ZNSt3__112__destroy_atB8ne180100INS_4pairINS_12basic_stringIcNS_11char_traitsIcEENS_9allocatorIcEEEEfEELi0EEEvPT_, symObjAddr: 0x89384, symBinAddr: 0x10008BA68, symSize: 0x24 }
  - { offset: 0xA658D, size: 0x8, addend: 0x0, symName: __ZNSt3__14prevB8ne180100INS_16reverse_iteratorIPNS_4pairINS_12basic_stringIcNS_11char_traitsIcEENS_9allocatorIcEEEEfEEEELi0EEET_SC_NS_15iterator_traitsISC_E15difference_typeE, symObjAddr: 0x8942C, symBinAddr: 0x10008BB10, symSize: 0x4C }
  - { offset: 0xA65D6, size: 0x8, addend: 0x0, symName: __ZNSt3__19__advanceB8ne180100INS_16reverse_iteratorIPNS_4pairINS_12basic_stringIcNS_11char_traitsIcEENS_9allocatorIcEEEEfEEEEEEvRT_NS_15iterator_traitsISC_E15difference_typeENS_26random_access_iterator_tagE, symObjAddr: 0x894B0, symBinAddr: 0x10008BB94, symSize: 0x2C }
  - { offset: 0xA6620, size: 0x8, addend: 0x0, symName: __ZNSt3__17launderB8ne180100IKNS_4pairIKNS_12basic_stringIcNS_11char_traitsIcEENS_9allocatorIcEEEENS_13unordered_mapIffNS_4hashIfEENS_8equal_toIfEENS5_INS1_IKffEEEEEEEEEEPT_SL_, symObjAddr: 0x8A350, symBinAddr: 0x10008CA34, symSize: 0x24 }
  - { offset: 0xA6657, size: 0x8, addend: 0x0, symName: __ZNSt3__19__launderB8ne180100IKNS_4pairIKNS_12basic_stringIcNS_11char_traitsIcEENS_9allocatorIcEEEENS_13unordered_mapIffNS_4hashIfEENS_8equal_toIfEENS5_INS1_IKffEEEEEEEEEEPT_SL_, symObjAddr: 0x8A374, symBinAddr: 0x10008CA58, symSize: 0x14 }
  - { offset: 0xA66DF, size: 0x8, addend: 0x0, symName: __ZNSt3__114__construct_atB8ne180100INS_11__hash_nodeINS_17__hash_value_typeINS_12basic_stringIcNS_11char_traitsIcEENS_9allocatorIcEEEENS_13unordered_mapIffNS_4hashIfEENS_8equal_toIfEENS6_INS_4pairIKffEEEEEEEEPvEEJDnRmEPSL_EEPT_SP_DpOT0_, symObjAddr: 0x8A474, symBinAddr: 0x10008CB58, symSize: 0x34 }
  - { offset: 0xA6745, size: 0x8, addend: 0x0, symName: __ZNSt3__112construct_atB8ne180100INS_11__hash_nodeINS_17__hash_value_typeINS_12basic_stringIcNS_11char_traitsIcEENS_9allocatorIcEEEENS_13unordered_mapIffNS_4hashIfEENS_8equal_toIfEENS6_INS_4pairIKffEEEEEEEEPvEEJDnRmEPSL_EEPT_SP_DpOT0_, symObjAddr: 0x8A760, symBinAddr: 0x10008CE44, symSize: 0x40 }
  - { offset: 0xA67AB, size: 0x8, addend: 0x0, symName: __ZNSt3__114__construct_atB8ne180100INS_4pairIKNS_12basic_stringIcNS_11char_traitsIcEENS_9allocatorIcEEEENS_13unordered_mapIffNS_4hashIfEENS_8equal_toIfEENS5_INS1_IKffEEEEEEEEJRKNS_21piecewise_construct_tENS_5tupleIJRS8_EEENSM_IJEEEEPSI_EEPT_SS_DpOT0_, symObjAddr: 0x8A874, symBinAddr: 0x10008CF58, symSize: 0x3C }
  - { offset: 0xA6824, size: 0x8, addend: 0x0, symName: __ZNSt3__112construct_atB8ne180100INS_4pairIKNS_12basic_stringIcNS_11char_traitsIcEENS_9allocatorIcEEEENS_13unordered_mapIffNS_4hashIfEENS_8equal_toIfEENS5_INS1_IKffEEEEEEEEJRKNS_21piecewise_construct_tENS_5tupleIJRS8_EEENSM_IJEEEEPSI_EEPT_SS_DpOT0_, symObjAddr: 0x8A8B0, symBinAddr: 0x10008CF94, symSize: 0x48 }
  - { offset: 0xA689D, size: 0x8, addend: 0x0, symName: __ZNSt3__112__destroy_atB8ne180100INS_11__hash_nodeINS_17__hash_value_typeINS_12basic_stringIcNS_11char_traitsIcEENS_9allocatorIcEEEENS_13unordered_mapIffNS_4hashIfEENS_8equal_toIfEENS6_INS_4pairIKffEEEEEEEEPvEELi0EEEvPT_, symObjAddr: 0x8B990, symBinAddr: 0x10008E074, symSize: 0x24 }
  - { offset: 0xA68D4, size: 0x8, addend: 0x0, symName: __ZNSt3__112__destroy_atB8ne180100INS_4pairIKNS_12basic_stringIcNS_11char_traitsIcEENS_9allocatorIcEEEENS_13unordered_mapIffNS_4hashIfEENS_8equal_toIfEENS5_INS1_IKffEEEEEEEELi0EEEvPT_, symObjAddr: 0x8B9E8, symBinAddr: 0x10008E0CC, symSize: 0x24 }
  - { offset: 0xA690B, size: 0x8, addend: 0x0, symName: __ZNSt3__112__destroy_atB8ne180100INS_11__hash_nodeINS_17__hash_value_typeIffEEPvEELi0EEEvPT_, symObjAddr: 0x8BCFC, symBinAddr: 0x10008E3E0, symSize: 0x24 }
  - { offset: 0xA6976, size: 0x8, addend: 0x0, symName: __ZNSt3__112__destroy_atB8ne180100INS_4pairIKffEELi0EEEvPT_, symObjAddr: 0x8BDA0, symBinAddr: 0x10008E484, symSize: 0x10 }
  - { offset: 0xA69AD, size: 0x8, addend: 0x0, symName: __ZNSt3__17launderB8ne180100INS_4pairIKffEEEEPT_S5_, symObjAddr: 0x8BDD4, symBinAddr: 0x10008E4B8, symSize: 0x24 }
  - { offset: 0xA69E4, size: 0x8, addend: 0x0, symName: __ZNSt3__19__launderB8ne180100INS_4pairIKffEEEEPT_S5_, symObjAddr: 0x8BDF8, symBinAddr: 0x10008E4DC, symSize: 0x14 }
  - { offset: 0xA6A4E, size: 0x8, addend: 0x0, symName: __ZNSt3__17launderB8ne180100INS_4pairIKNS_12basic_stringIcNS_11char_traitsIcEENS_9allocatorIcEEEENS_13unordered_mapIffNS_4hashIfEENS_8equal_toIfEENS5_INS1_IKffEEEEEEEEEEPT_SK_, symObjAddr: 0x8C214, symBinAddr: 0x10008E8F8, symSize: 0x24 }
  - { offset: 0xA6A85, size: 0x8, addend: 0x0, symName: __ZNSt3__19__launderB8ne180100INS_4pairIKNS_12basic_stringIcNS_11char_traitsIcEENS_9allocatorIcEEEENS_13unordered_mapIffNS_4hashIfEENS_8equal_toIfEENS5_INS1_IKffEEEEEEEEEEPT_SK_, symObjAddr: 0x8C238, symBinAddr: 0x10008E91C, symSize: 0x14 }
  - { offset: 0xA6ABC, size: 0x8, addend: 0x0, symName: __ZNSt3__1neB8ne180100ERKNS_21__hash_const_iteratorIPNS_11__hash_nodeINS_17__hash_value_typeIffEEPvEEEES9_, symObjAddr: 0x8C2B0, symBinAddr: 0x10008E994, symSize: 0x34 }
  - { offset: 0xA6AF9, size: 0x8, addend: 0x0, symName: __ZNSt3__1eqB8ne180100ERKNS_21__hash_const_iteratorIPNS_11__hash_nodeINS_17__hash_value_typeIffEEPvEEEES9_, symObjAddr: 0x8C4C8, symBinAddr: 0x10008EBAC, symSize: 0x30 }
  - { offset: 0xA6B36, size: 0x8, addend: 0x0, symName: __ZNSt3__17launderB8ne180100IKNS_4pairIKffEEEEPT_S6_, symObjAddr: 0x8C7E0, symBinAddr: 0x10008EEC4, symSize: 0x24 }
  - { offset: 0xA6B6D, size: 0x8, addend: 0x0, symName: __ZNSt3__19__launderB8ne180100IKNS_4pairIKffEEEEPT_S6_, symObjAddr: 0x8C804, symBinAddr: 0x10008EEE8, symSize: 0x14 }
  - { offset: 0xA6BC2, size: 0x8, addend: 0x0, symName: __ZNSt3__114__construct_atB8ne180100INS_11__hash_nodeINS_17__hash_value_typeIffEEPvEEJDnRmEPS5_EEPT_S9_DpOT0_, symObjAddr: 0x8D1A4, symBinAddr: 0x10008F888, symSize: 0x34 }
  - { offset: 0xA6C28, size: 0x8, addend: 0x0, symName: __ZNSt3__112construct_atB8ne180100INS_11__hash_nodeINS_17__hash_value_typeIffEEPvEEJDnRmEPS5_EEPT_S9_DpOT0_, symObjAddr: 0x8D434, symBinAddr: 0x10008FB18, symSize: 0x40 }
  - { offset: 0xA6C8E, size: 0x8, addend: 0x0, symName: __ZNSt3__114__construct_atB8ne180100INS_4pairIKffEEJRKNS_21piecewise_construct_tENS_5tupleIJRS2_EEENS7_IJEEEEPS3_EEPT_SD_DpOT0_, symObjAddr: 0x8D548, symBinAddr: 0x10008FC2C, symSize: 0x3C }
  - { offset: 0xA6D07, size: 0x8, addend: 0x0, symName: __ZNSt3__112construct_atB8ne180100INS_4pairIKffEEJRKNS_21piecewise_construct_tENS_5tupleIJRS2_EEENS7_IJEEEEPS3_EEPT_SD_DpOT0_, symObjAddr: 0x8D584, symBinAddr: 0x10008FC68, symSize: 0x48 }
  - { offset: 0xA6DB3, size: 0x8, addend: 0x0, symName: __ZNSt3__1eqB8ne180100IPNS_4pairINS_12basic_stringIcNS_11char_traitsIcEENS_9allocatorIcEEEEfEEEEbRKNS_11__wrap_iterIT_EESE_, symObjAddr: 0x8E2A8, symBinAddr: 0x10009098C, symSize: 0x48 }
  - { offset: 0xA720E, size: 0x8, addend: 0x0, symName: '__ZNSt3__114__thread_proxyB8ne180100INS_5tupleIJNS_10unique_ptrINS_15__thread_structENS_14default_deleteIS3_EEEEZ12RandomSearchPFNS_6vectorIfNS_9allocatorIfEEEER5BoardERKN5Eigen6MatrixINS_7complexIfEELin1ELin1ELi0ELin1ELin1EEEiNS_12basic_stringIcNS_11char_traitsIcEENS8_IcEEEESQ_ibdjbfbE3$_0EEEEEPvST_', symObjAddr: 0x8EB28, symBinAddr: 0x10009120C, symSize: 0x90 }
  - { offset: 0xA726C, size: 0x8, addend: 0x0, symName: '__ZNSt3__13getB8ne180100ILm0EJNS_10unique_ptrINS_15__thread_structENS_14default_deleteIS2_EEEEZ12RandomSearchPFNS_6vectorIfNS_9allocatorIfEEEER5BoardERKN5Eigen6MatrixINS_7complexIfEELin1ELin1ELi0ELin1ELin1EEEiNS_12basic_stringIcNS_11char_traitsIcEENS7_IcEEEESP_ibdjbfbE3$_0EEERNS_13tuple_elementIXT_ENS_5tupleIJDpT0_EEEE4typeERSV_', symObjAddr: 0x8EE40, symBinAddr: 0x100091524, symSize: 0x24 }
  - { offset: 0xA72B5, size: 0x8, addend: 0x0, symName: '__ZNSt3__116__thread_executeB8ne180100INS_10unique_ptrINS_15__thread_structENS_14default_deleteIS2_EEEEZ12RandomSearchPFNS_6vectorIfNS_9allocatorIfEEEER5BoardERKN5Eigen6MatrixINS_7complexIfEELin1ELin1ELi0ELin1ELin1EEEiNS_12basic_stringIcNS_11char_traitsIcEENS7_IcEEEESP_ibdjbfbE3$_0JEJEEEvRNS_5tupleIJT_T0_DpT1_EEENS_15__tuple_indicesIJXspT2_EEEE', symObjAddr: 0x8EE64, symBinAddr: 0x100091548, symSize: 0x28 }
  - { offset: 0xA7305, size: 0x8, addend: 0x0, symName: '__ZNSt3__18__invokeB8ne180100IZ12RandomSearchPFNS_6vectorIfNS_9allocatorIfEEEER5BoardERKN5Eigen6MatrixINS_7complexIfEELin1ELin1ELi0ELin1ELin1EEEiNS_12basic_stringIcNS_11char_traitsIcEENS2_IcEEEESK_ibdjbfbE3$_0JEEEDTclclsr3stdE7declvalIT_EEspclsr3stdE7declvalIT0_EEEEOSM_DpOSN_', symObjAddr: 0x8EE8C, symBinAddr: 0x100091570, symSize: 0x24 }
  - { offset: 0xA733E, size: 0x8, addend: 0x0, symName: '__ZNSt3__13getB8ne180100ILm1EJNS_10unique_ptrINS_15__thread_structENS_14default_deleteIS2_EEEEZ12RandomSearchPFNS_6vectorIfNS_9allocatorIfEEEER5BoardERKN5Eigen6MatrixINS_7complexIfEELin1ELin1ELi0ELin1ELin1EEEiNS_12basic_stringIcNS_11char_traitsIcEENS7_IcEEEESP_ibdjbfbE3$_0EEERNS_13tuple_elementIXT_ENS_5tupleIJDpT0_EEEE4typeERSV_', symObjAddr: 0x8EEB0, symBinAddr: 0x100091594, symSize: 0x28 }
  - { offset: 0xA8DF4, size: 0x8, addend: 0x0, symName: __ZSt9to_stringNSt3__17complexIfEE, symObjAddr: 0xB0, symBinAddr: 0x100002794, symSize: 0x170 }
  - { offset: 0xA8E21, size: 0x8, addend: 0x0, symName: __ZSt28__throw_bad_array_new_lengthB8ne180100v, symObjAddr: 0xA1B4, symBinAddr: 0x10000C898, symSize: 0x34 }
  - { offset: 0xA8F16, size: 0x8, addend: 0x0, symName: __Z12generateDataiiff, symObjAddr: 0x7D0, symBinAddr: 0x100002EB4, symSize: 0x1F8 }
  - { offset: 0xA8F40, size: 0x8, addend: 0x0, symName: __ZZ12generateDataiiffE3gen, symObjAddr: 0x95A37, symBinAddr: 0x1000A63E8, symSize: 0x0 }
  - { offset: 0xA901D, size: 0x8, addend: 0x0, symName: __ZN5Board15expression_dictE, symObjAddr: 0x95B10, symBinAddr: 0x1000A4000, symSize: 0x0 }
  - { offset: 0xAC463, size: 0x8, addend: 0x0, symName: __ZN5boost9unordered6detail3foa12dummy_groupsINS2_7group15INS2_15atomic_integralEEELm2EEEPT_v, symObjAddr: 0x22E64, symBinAddr: 0x100025548, symSize: 0xC }
  - { offset: 0xAC48F, size: 0x8, addend: 0x0, symName: __ZZN5boost9unordered6detail3foa12dummy_groupsINS2_7group15INS2_15atomic_integralEEELm2EEEPT_vE7storage, symObjAddr: 0x97F20, symBinAddr: 0x10009A950, symSize: 0x0 }
  - { offset: 0xAC4AC, size: 0x8, addend: 0x0, symName: __ZN5boost9unordered6detail3foa20dummy_group_accessesILm2EEEPNS2_12group_accessEv, symObjAddr: 0x234FC, symBinAddr: 0x100025BE0, symSize: 0xC }
  - { offset: 0xAC4D6, size: 0x8, addend: 0x0, symName: __ZZN5boost9unordered6detail3foa20dummy_group_accessesILm2EEEPNS2_12group_accessEvE8accesses, symObjAddr: 0x97ED0, symBinAddr: 0x1000A63C0, symSize: 0x0 }
  - { offset: 0xAC503, size: 0x8, addend: 0x0, symName: __ZN5boost9unordered6detail3foa16concurrent_tableINS2_14flat_map_typesINSt3__112basic_stringIcNS5_11char_traitsIcEENS5_9allocatorIcEEEEN5Eigen6MatrixINS5_7complexIfEELin1ELi1ELi0ELin1ELi1EEEEENS_4hashISB_EENS5_8equal_toISB_EENS9_INS5_4pairIKSB_SG_EEEEE14thread_counterE, symObjAddr: 0x97EF0, symBinAddr: 0x1000A63E0, symSize: 0x0 }
  - { offset: 0xAC510, size: 0x8, addend: 0x0, symName: __ZN5boost9unordered6detail3foa21unchecked_countr_zeroEi, symObjAddr: 0x7304, symBinAddr: 0x1000099E8, symSize: 0x5C }
  - { offset: 0xAC53F, size: 0x8, addend: 0x0, symName: __ZN5boost9unordered6detail3foaL14size_index_forINS2_7group15INS2_15atomic_integralEEENS2_16pow2_size_policyEEEmm, symObjAddr: 0x22C08, symBinAddr: 0x1000252EC, symSize: 0x30 }
  - { offset: 0xAC62C, size: 0x8, addend: 0x0, symName: __ZN5boost9unordered6detail3foa18tuple_rotate_rightINSt3__15tupleIJONS2_18try_emplace_args_tERKNS4_12basic_stringIcNS4_11char_traitsIcEENS4_9allocatorIcEEEEON5Eigen6MatrixINS4_7complexIfEELin1ELi1ELi0ELin1ELi1EEEOZNS0_19concurrent_flat_mapISD_SK_NS_4hashISD_EENS4_8equal_toISD_EENSB_INS4_4pairISE_SK_EEEEE16insert_or_assignISK_EEbSF_OT_EUlRSS_E_EEEEENS_4mp116detail14mp_assign_implINS4_9remove_cvINS4_16remove_referenceISW_E4typeEE4typeENS13_12mp_if_c_implIXaagtsZT_Li0EeqsZT_sr11mp_count_ifINS12_7mp_listIJNS14_INS13_14mp_rename_implIS1A_S1C_E4typeENS13_12mp_drop_implINS1D_IS1F_S1C_E4typeENS13_16mp_repeat_c_implINS1C_IJvEEEXtlmsrNS4_17integral_constantImXrmtlmsrNS1L_ImXmisr7mp_sizeIS1A_EE5valuermLm1Equeqsr7mp_sizeIS1A_EE5valueLi0ELi1Esr7mp_sizeIS1A_EE5valueEEE5valueEqueqsr7mp_sizeIS1A_EE5valueLi0ELi1Esr7mp_sizeIS1A_EE5valueEEE5valueEEE4typeENS1L_IbXletlmsrS1N_5valueEsr7mp_sizeIS1F_EE5valueEEEE4typeEE4typeENS14_IS1F_NS13_14mp_take_c_implIXtlmsrS1N_5valueEES1I_vE4typeEE4typeEEEENS12_16mp_is_value_listEEE5valueENS13_18append_value_listsEJNS13_17append_type_listsEEE4type2fnIS1U_S1Z_EEE4typeESX_, symObjAddr: 0x4439C, symBinAddr: 0x100046A80, symSize: 0x24 }
  - { offset: 0xAC6E7, size: 0x8, addend: 0x0, symName: __ZN5boost9unordered6detail3foa22tuple_rotate_right_auxIJLm0ELm1ELm2ELm3EENSt3__15tupleIJONS2_18try_emplace_args_tERKNS4_12basic_stringIcNS4_11char_traitsIcEENS4_9allocatorIcEEEEON5Eigen6MatrixINS4_7complexIfEELin1ELi1ELi0ELin1ELi1EEEOZNS0_19concurrent_flat_mapISD_SK_NS_4hashISD_EENS4_8equal_toISD_EENSB_INS4_4pairISE_SK_EEEEE16insert_or_assignISK_EEbSF_OT_EUlRSS_E_EEEEENS_4mp116detail14mp_assign_implINS4_9remove_cvINS4_16remove_referenceIT0_E4typeEE4typeENS13_12mp_if_c_implIXaagtsZT_Li0EeqsZT_sr11mp_count_ifINS12_7mp_listIJNS14_INS13_14mp_rename_implIS1B_S1D_E4typeENS13_12mp_drop_implINS1E_IS1G_S1D_E4typeENS13_16mp_repeat_c_implINS1D_IJvEEEXtlmsrNS4_17integral_constantImXrmtlmsrNS1M_ImXmisr7mp_sizeIS1B_EE5valuermLm1Equeqsr7mp_sizeIS1B_EE5valueLi0ELi1Esr7mp_sizeIS1B_EE5valueEEE5valueEqueqsr7mp_sizeIS1B_EE5valueLi0ELi1Esr7mp_sizeIS1B_EE5valueEEE5valueEEE4typeENS1M_IbXletlmsrS1O_5valueEsr7mp_sizeIS1G_EE5valueEEEE4typeEE4typeENS14_IS1G_NS13_14mp_take_c_implIXtlmsrS1O_5valueEES1J_vE4typeEE4typeEEEENS12_16mp_is_value_listEEE5valueENS13_18append_value_listsEJNS13_17append_type_listsEEE4type2fnIS1V_S20_EEE4typeENS12_16integer_sequenceImJXspT_EEEEOS17_, symObjAddr: 0x47AAC, symBinAddr: 0x10004A190, symSize: 0x64 }
  - { offset: 0xAC745, size: 0x8, addend: 0x0, symName: __ZN5boost9unordered6detail3foa18tuple_rotate_rightINSt3__15tupleIJONS2_18try_emplace_args_tERKNS4_12basic_stringIcNS4_11char_traitsIcEENS4_9allocatorIcEEEERN5Eigen6MatrixINS4_7complexIfEELin1ELi1ELi0ELin1ELi1EEEOZNS0_19concurrent_flat_mapISD_SK_NS_4hashISD_EENS4_8equal_toISD_EENSB_INS4_4pairISE_SK_EEEEE16insert_or_assignISL_EEbSF_OT_EUlRSS_E_EEEEENS_4mp116detail14mp_assign_implINS4_9remove_cvINS4_16remove_referenceISW_E4typeEE4typeENS13_12mp_if_c_implIXaagtsZT_Li0EeqsZT_sr11mp_count_ifINS12_7mp_listIJNS14_INS13_14mp_rename_implIS1A_S1C_E4typeENS13_12mp_drop_implINS1D_IS1F_S1C_E4typeENS13_16mp_repeat_c_implINS1C_IJvEEEXtlmsrNS4_17integral_constantImXrmtlmsrNS1L_ImXmisr7mp_sizeIS1A_EE5valuermLm1Equeqsr7mp_sizeIS1A_EE5valueLi0ELi1Esr7mp_sizeIS1A_EE5valueEEE5valueEqueqsr7mp_sizeIS1A_EE5valueLi0ELi1Esr7mp_sizeIS1A_EE5valueEEE5valueEEE4typeENS1L_IbXletlmsrS1N_5valueEsr7mp_sizeIS1F_EE5valueEEEE4typeEE4typeENS14_IS1F_NS13_14mp_take_c_implIXtlmsrS1N_5valueEES1I_vE4typeEE4typeEEEENS12_16mp_is_value_listEEE5valueENS13_18append_value_listsEJNS13_17append_type_listsEEE4type2fnIS1U_S1Z_EEE4typeESX_, symObjAddr: 0x48E44, symBinAddr: 0x10004B528, symSize: 0x24 }
  - { offset: 0xAC77A, size: 0x8, addend: 0x0, symName: __ZN5boost9unordered6detail3foa22tuple_rotate_right_auxIJLm0ELm1ELm2ELm3EENSt3__15tupleIJONS2_18try_emplace_args_tERKNS4_12basic_stringIcNS4_11char_traitsIcEENS4_9allocatorIcEEEERN5Eigen6MatrixINS4_7complexIfEELin1ELi1ELi0ELin1ELi1EEEOZNS0_19concurrent_flat_mapISD_SK_NS_4hashISD_EENS4_8equal_toISD_EENSB_INS4_4pairISE_SK_EEEEE16insert_or_assignISL_EEbSF_OT_EUlRSS_E_EEEEENS_4mp116detail14mp_assign_implINS4_9remove_cvINS4_16remove_referenceIT0_E4typeEE4typeENS13_12mp_if_c_implIXaagtsZT_Li0EeqsZT_sr11mp_count_ifINS12_7mp_listIJNS14_INS13_14mp_rename_implIS1B_S1D_E4typeENS13_12mp_drop_implINS1E_IS1G_S1D_E4typeENS13_16mp_repeat_c_implINS1D_IJvEEEXtlmsrNS4_17integral_constantImXrmtlmsrNS1M_ImXmisr7mp_sizeIS1B_EE5valuermLm1Equeqsr7mp_sizeIS1B_EE5valueLi0ELi1Esr7mp_sizeIS1B_EE5valueEEE5valueEqueqsr7mp_sizeIS1B_EE5valueLi0ELi1Esr7mp_sizeIS1B_EE5valueEEE5valueEEE4typeENS1M_IbXletlmsrS1O_5valueEsr7mp_sizeIS1G_EE5valueEEEE4typeEE4typeENS14_IS1G_NS13_14mp_take_c_implIXtlmsrS1O_5valueEES1J_vE4typeEE4typeEEEENS12_16mp_is_value_listEEE5valueENS13_18append_value_listsEJNS13_17append_type_listsEEE4type2fnIS1V_S20_EEE4typeENS12_16integer_sequenceImJXspT_EEEEOS17_, symObjAddr: 0x4A410, symBinAddr: 0x10004CAF4, symSize: 0x64 }
  - { offset: 0xACD60, size: 0x8, addend: 0x0, symName: __ZN5boost10empty_initE, symObjAddr: 0x97F11, symBinAddr: 0x10009A941, symSize: 0x0 }
  - { offset: 0xACDA3, size: 0x8, addend: 0x0, symName: __ZN5boost4mp1111tuple_applyINS_9unordered6detail3foa16concurrent_tableINS4_14flat_map_typesINSt3__112basic_stringIcNS7_11char_traitsIcEENS7_9allocatorIcEEEEN5Eigen6MatrixINS7_7complexIfEELin1ELi1ELi0ELin1ELi1EEEEENS_4hashISD_EENS7_8equal_toISD_EENSB_INS7_4pairIKSD_SI_EEEEE26call_emplace_or_visit_implENS7_5tupleIJPSS_NS7_17integral_constantIbLb1EEEOZNS2_19concurrent_flat_mapISD_SI_SL_SN_SR_E16insert_or_assignISI_EEbRSP_OT_EUlRSQ_E_ONS4_18try_emplace_args_tES11_OSI_EEENS0_16integer_sequenceImJLm0ELm1ELm2ELm3ELm4ELm5EEEEEEDTclsr6detailE16tuple_apply_implclsr3stdE7forwardIS12_Efp_Eclsr3stdE7forwardIT0_Efp0_EcvT1__EEES13_OS1D_, symObjAddr: 0x442F0, symBinAddr: 0x1000469D4, symSize: 0x30 }
  - { offset: 0xACDFD, size: 0x8, addend: 0x0, symName: __ZN5boost4mp116detail16tuple_apply_implINS_9unordered6detail3foa16concurrent_tableINS5_14flat_map_typesINSt3__112basic_stringIcNS8_11char_traitsIcEENS8_9allocatorIcEEEEN5Eigen6MatrixINS8_7complexIfEELin1ELi1ELi0ELin1ELi1EEEEENS_4hashISE_EENS8_8equal_toISE_EENSC_INS8_4pairIKSE_SJ_EEEEE26call_emplace_or_visit_implENS8_5tupleIJPST_NS8_17integral_constantIbLb1EEEOZNS3_19concurrent_flat_mapISE_SJ_SM_SO_SS_E16insert_or_assignISJ_EEbRSQ_OT_EUlRSR_E_ONS5_18try_emplace_args_tES12_OSJ_EEEJLm0ELm1ELm2ELm3ELm4ELm5EEEEDTclclsr3stdE7forwardIS13_Efp_Espcl3getIXT1_EEclsr3stdE7forwardIT0_Efp0_EEEES14_OS1C_NS0_16integer_sequenceImJXspT1_EEEE, symObjAddr: 0x44408, symBinAddr: 0x100046AEC, symSize: 0x7FC }
  - { offset: 0xAD14B, size: 0x8, addend: 0x0, symName: __ZN5boost4mp116detail16tuple_apply_implINS_9unordered6detail3foa16concurrent_tableINS5_14flat_map_typesINSt3__112basic_stringIcNS8_11char_traitsIcEENS8_9allocatorIcEEEEN5Eigen6MatrixINS8_7complexIfEELin1ELi1ELi0ELin1ELi1EEEEENS_4hashISE_EENS8_8equal_toISE_EENSC_INS8_4pairIKSE_SJ_EEEEE26call_emplace_or_visit_implENS8_5tupleIJPST_NS8_17integral_constantIbLb1EEEOZNS3_19concurrent_flat_mapISE_SJ_SM_SO_SS_E16insert_or_assignIRSJ_EEbRSQ_OT_EUlRSR_E_ONS5_18try_emplace_args_tES13_S12_EEEJLm0ELm1ELm2ELm3ELm4ELm5EEEEDTclclsr3stdE7forwardIS14_Efp_Espcl3getIXT1_EEclsr3stdE7forwardIT0_Efp0_EEEES15_OS1C_NS0_16integer_sequenceImJXspT1_EEEE, symObjAddr: 0x48EB0, symBinAddr: 0x10004B594, symSize: 0x7E8 }
  - { offset: 0xAD513, size: 0x8, addend: 0x0, symName: __ZN5boost4mp1111tuple_applyINS_9unordered6detail3foa16concurrent_tableINS4_14flat_map_typesINSt3__112basic_stringIcNS7_11char_traitsIcEENS7_9allocatorIcEEEEN5Eigen6MatrixINS7_7complexIfEELin1ELi1ELi0ELin1ELi1EEEEENS_4hashISD_EENS7_8equal_toISD_EENSB_INS7_4pairIKSD_SI_EEEEE26call_emplace_or_visit_implENS7_5tupleIJPSS_NS7_17integral_constantIbLb1EEEOZNS2_19concurrent_flat_mapISD_SI_SL_SN_SR_E16insert_or_assignIRSI_EEbRSP_OT_EUlRSQ_E_ONS4_18try_emplace_args_tES12_S11_EEENS0_16integer_sequenceImJLm0ELm1ELm2ELm3ELm4ELm5EEEEEEDTclsr6detailE16tuple_apply_implclsr3stdE7forwardIS13_Efp_Eclsr3stdE7forwardIT0_Efp0_EcvT1__EEES14_OS1D_, symObjAddr: 0x48DCC, symBinAddr: 0x10004B4B0, symSize: 0x30 }
  - { offset: 0xAD629, size: 0x8, addend: 0x0, symName: __ZN5boost10to_addressINSt3__14pairIKNS1_12basic_stringIcNS1_11char_traitsIcEENS1_9allocatorIcEEEEN5Eigen6MatrixINS1_7complexIfEELin1ELi1ELi0ELin1ELi1EEEEEEEPT_SH_, symObjAddr: 0x739C, symBinAddr: 0x100009A80, symSize: 0x14 }
  - { offset: 0xAD65E, size: 0x8, addend: 0x0, symName: __ZN5boost10to_addressINS_9unordered6detail3foa7group15INS3_15atomic_integralEEEEEPT_S8_, symObjAddr: 0x73B0, symBinAddr: 0x100009A94, symSize: 0x14 }
  - { offset: 0xAD698, size: 0x8, addend: 0x0, symName: __ZN5boost4core11countr_zeroIjEEiT_, symObjAddr: 0x7628, symBinAddr: 0x100009D0C, symSize: 0x24 }
  - { offset: 0xAD6D4, size: 0x8, addend: 0x0, symName: __ZN5boost4core6detail11countr_implEj, symObjAddr: 0x764C, symBinAddr: 0x100009D30, symSize: 0x48 }
  - { offset: 0xAD702, size: 0x8, addend: 0x0, symName: __ZN5boost4core6detail11countl_implEm, symObjAddr: 0x22D88, symBinAddr: 0x10002546C, symSize: 0x44 }
  - { offset: 0xAD72F, size: 0x8, addend: 0x0, symName: __ZN5boost4core9bit_widthImEEiT_, symObjAddr: 0x22D38, symBinAddr: 0x10002541C, symSize: 0x2C }
  - { offset: 0xAD766, size: 0x8, addend: 0x0, symName: __ZN5boost4core11countl_zeroImEEiT_, symObjAddr: 0x22D64, symBinAddr: 0x100025448, symSize: 0x24 }
  - { offset: 0xAD7A8, size: 0x8, addend: 0x0, symName: __ZN5boost4core15sp_thread_yieldEv, symObjAddr: 0x36800, symBinAddr: 0x100038EE4, symSize: 0x1C }
  - { offset: 0xAD7C1, size: 0x8, addend: 0x0, symName: __ZN5boost4core15sp_thread_sleepEv, symObjAddr: 0x3681C, symBinAddr: 0x100038F00, symSize: 0x60 }
  - { offset: 0xAD7F8, size: 0x8, addend: 0x0, symName: __ZN5boost17allocator_destroyINSt3__19allocatorINS1_4pairIKNS1_12basic_stringIcNS1_11char_traitsIcEENS2_IcEEEEN5Eigen6MatrixINS1_7complexIfEELin1ELi1ELi0ELin1ELi1EEEEEEESF_EENS_6detail8alloc_ifIXntsr6detail17alloc_has_destroyIT_T0_EE5valueEvE4typeERSJ_PSK_, symObjAddr: 0x7794, symBinAddr: 0x100009E78, symSize: 0x28 }
  - { offset: 0xAD843, size: 0x8, addend: 0x0, symName: __ZN5boost20allocator_deallocateINSt3__19allocatorINS_9unordered6detail3foa12group_accessEEEEEvRT_NS_17allocator_pointerIS8_E4typeENS_19allocator_size_typeIS8_E4typeE, symObjAddr: 0x7A98, symBinAddr: 0x10000A17C, symSize: 0x34 }
  - { offset: 0xAD982, size: 0x8, addend: 0x0, symName: __ZN5boost20allocator_deallocateINSt3__19allocatorINS1_4pairIKNS1_12basic_stringIcNS1_11char_traitsIcEENS2_IcEEEEN5Eigen6MatrixINS1_7complexIfEELin1ELi1ELi0ELin1ELi1EEEEEEEEEvRT_NS_17allocator_pointerISH_E4typeENS_19allocator_size_typeISH_E4typeE, symObjAddr: 0x7CBC, symBinAddr: 0x10000A3A0, symSize: 0x34 }
  - { offset: 0xAD9D3, size: 0x8, addend: 0x0, symName: __ZN5boost18allocator_allocateINSt3__19allocatorINS1_4pairIKNS1_12basic_stringIcNS1_11char_traitsIcEENS2_IcEEEEN5Eigen6MatrixINS1_7complexIfEELin1ELi1ELi0ELin1ELi1EEEEEEEEENS_17allocator_pointerIT_E4typeERSI_NS_19allocator_size_typeISI_E4typeE, symObjAddr: 0x23024, symBinAddr: 0x100025708, symSize: 0x2C }
  - { offset: 0xADA19, size: 0x8, addend: 0x0, symName: __ZN5boost9addressofINS_9unordered6detail3foa7group15INS3_15atomic_integralEEEEEPT_RS7_, symObjAddr: 0x230D4, symBinAddr: 0x1000257B8, symSize: 0x14 }
  - { offset: 0xADA4E, size: 0x8, addend: 0x0, symName: __ZN5boost18allocator_allocateINSt3__19allocatorINS_9unordered6detail3foa12group_accessEEEEENS_17allocator_pointerIT_E4typeERS9_NS_19allocator_size_typeIS9_E4typeE, symObjAddr: 0x23594, symBinAddr: 0x100025C78, symSize: 0x2C }
  - { offset: 0xADA94, size: 0x8, addend: 0x0, symName: __ZN5boost10to_addressINS_9unordered6detail3foa12group_accessEEEPT_S6_, symObjAddr: 0x23694, symBinAddr: 0x100025D78, symSize: 0x14 }
  - { offset: 0xADAC9, size: 0x8, addend: 0x0, symName: __ZN5boost10hash_valueINSt3__112basic_stringIcNS1_11char_traitsIcEENS1_9allocatorIcEEEEEENS1_9enable_ifIXsr14container_hash19is_contiguous_rangeIT_EE5valueEmE4typeERKS9_, symObjAddr: 0x43700, symBinAddr: 0x100045DE4, symSize: 0x50 }
  - { offset: 0xADB00, size: 0x8, addend: 0x0, symName: __ZN5boost10hash_rangeIPKcEEmT_S3_, symObjAddr: 0x43750, symBinAddr: 0x100045E34, symSize: 0x38 }
  - { offset: 0xADB57, size: 0x8, addend: 0x0, symName: __ZN5boost10hash_rangeIPKcEEvRmT_S4_, symObjAddr: 0x43788, symBinAddr: 0x100045E6C, symSize: 0x40 }
  - { offset: 0xADBAD, size: 0x8, addend: 0x0, symName: __ZN5boost11hash_detail10hash_rangeIPKcEENSt3__19enable_ifIXaaaasr12is_char_typeINS4_15iterator_traitsIT_E10value_typeEEE5valuesr3std7is_sameINS8_17iterator_categoryENS4_26random_access_iterator_tagEEE5valuegtL_ZNS4_14numeric_limitsImE6digitsEELi32EEmE4typeEmS7_S7_, symObjAddr: 0x437C8, symBinAddr: 0x100045EAC, symSize: 0x220 }
  - { offset: 0xADCBD, size: 0x8, addend: 0x0, symName: __ZN5boost11hash_detail4mulxEyy, symObjAddr: 0x439E8, symBinAddr: 0x1000460CC, symSize: 0x60 }
  - { offset: 0xADD05, size: 0x8, addend: 0x0, symName: __ZN5boost11hash_detail8read64leIPKcEEyT_, symObjAddr: 0x43A48, symBinAddr: 0x10004612C, symSize: 0x74 }
  - { offset: 0xADD48, size: 0x8, addend: 0x0, symName: __ZN5boost11hash_detail8read32leIPKcEEjT_, symObjAddr: 0x43ABC, symBinAddr: 0x1000461A0, symSize: 0x44 }
  - { offset: 0xADD8C, size: 0x8, addend: 0x0, symName: __ZN5boost19allocator_constructINSt3__19allocatorINS1_4pairIKNS1_12basic_stringIcNS1_11char_traitsIcEENS2_IcEEEEN5Eigen6MatrixINS1_7complexIfEELin1ELi1ELi0ELin1ELi1EEEEEEESF_JRKNS1_21piecewise_construct_tENS1_5tupleIJRS9_EEENSK_IJOSE_EEEEEENS1_9enable_ifIXntsr6detail19alloc_has_constructIT_T0_DpT1_EE5valueEvE4typeERSQ_PSR_DpOSS_, symObjAddr: 0x456F4, symBinAddr: 0x100047DD8, symSize: 0x54 }
  - { offset: 0xADE19, size: 0x8, addend: 0x0, symName: __ZN5boost19allocator_constructINSt3__19allocatorINS1_4pairIKNS1_12basic_stringIcNS1_11char_traitsIcEENS2_IcEEEEN5Eigen6MatrixINS1_7complexIfEELin1ELi1ELi0ELin1ELi1EEEEEEESF_JNS3_IOS8_OSE_EEEEENS1_9enable_ifIXntsr6detail19alloc_has_constructIT_T0_DpT1_EE5valueEvE4typeERSL_PSM_DpOSN_, symObjAddr: 0x466D4, symBinAddr: 0x100048DB8, symSize: 0x30 }
  - { offset: 0xADE7E, size: 0x8, addend: 0x0, symName: __ZN5boost19allocator_constructINSt3__19allocatorINS1_4pairIKNS1_12basic_stringIcNS1_11char_traitsIcEENS2_IcEEEEN5Eigen6MatrixINS1_7complexIfEELin1ELi1ELi0ELin1ELi1EEEEEEESF_JRKNS1_21piecewise_construct_tENS1_5tupleIJRS9_EEENSK_IJRSE_EEEEEENS1_9enable_ifIXntsr6detail19alloc_has_constructIT_T0_DpT1_EE5valueEvE4typeERSQ_PSR_DpOSS_, symObjAddr: 0x49928, symBinAddr: 0x10004C00C, symSize: 0x54 }
  - { offset: 0xB3B13, size: 0x8, addend: 0x0, symName: __ZN5Board12__input_varsE, symObjAddr: 0x97C00, symBinAddr: 0x1000A60F0, symSize: 0x0 }
  - { offset: 0xB3B27, size: 0x8, addend: 0x0, symName: __ZN5Board17__unary_operatorsE, symObjAddr: 0x97C20, symBinAddr: 0x1000A6110, symSize: 0x0 }
  - { offset: 0xB3B3B, size: 0x8, addend: 0x0, symName: __ZN5Board18__binary_operatorsE, symObjAddr: 0x97C40, symBinAddr: 0x1000A6130, symSize: 0x0 }
  - { offset: 0xB3B4F, size: 0x8, addend: 0x0, symName: __ZN5Board11__operatorsE, symObjAddr: 0x97C60, symBinAddr: 0x1000A6150, symSize: 0x0 }
  - { offset: 0xB3B63, size: 0x8, addend: 0x0, symName: __ZN5Board14__other_tokensE, symObjAddr: 0x97C80, symBinAddr: 0x1000A6170, symSize: 0x0 }
  - { offset: 0xB3B77, size: 0x8, addend: 0x0, symName: __ZN5Board8__tokensE, symObjAddr: 0x97CA0, symBinAddr: 0x1000A6190, symSize: 0x0 }
  - { offset: 0xB3B8B, size: 0x8, addend: 0x0, symName: __ZN5Board14__tokens_floatE, symObjAddr: 0x97CC0, symBinAddr: 0x1000A61B0, symSize: 0x0 }
  - { offset: 0xB3B9F, size: 0x8, addend: 0x0, symName: __ZN5Board4dataE, symObjAddr: 0x97CE0, symBinAddr: 0x1000A61D0, symSize: 0x0 }
  - { offset: 0xB3BB3, size: 0x8, addend: 0x0, symName: __ZN5Board17__operators_floatE, symObjAddr: 0x97D50, symBinAddr: 0x1000A6240, symSize: 0x0 }
  - { offset: 0xB3BC7, size: 0x8, addend: 0x0, symName: __ZN5Board23__unary_operators_floatE, symObjAddr: 0x97D70, symBinAddr: 0x1000A6260, symSize: 0x0 }
  - { offset: 0xB3BDB, size: 0x8, addend: 0x0, symName: __ZN5Board24__binary_operators_floatE, symObjAddr: 0x97D90, symBinAddr: 0x1000A6280, symSize: 0x0 }
  - { offset: 0xB3BEF, size: 0x8, addend: 0x0, symName: __ZN5Board18__input_vars_floatE, symObjAddr: 0x97DB0, symBinAddr: 0x1000A62A0, symSize: 0x0 }
  - { offset: 0xB3C03, size: 0x8, addend: 0x0, symName: __ZN5Board20__other_tokens_floatE, symObjAddr: 0x97DD0, symBinAddr: 0x1000A62C0, symSize: 0x0 }
  - { offset: 0xB3C17, size: 0x8, addend: 0x0, symName: __ZN5Board13__tokens_dictE, symObjAddr: 0x97DF0, symBinAddr: 0x1000A62E0, symSize: 0x0 }
  - { offset: 0xB3C2B, size: 0x8, addend: 0x0, symName: __ZN5Board17__tokens_inv_dictE, symObjAddr: 0x97E20, symBinAddr: 0x1000A6310, symSize: 0x0 }
  - { offset: 0xB3C3F, size: 0x8, addend: 0x0, symName: __ZN5Board29una_bin_leaf_legal_moves_dictE, symObjAddr: 0x97E50, symBinAddr: 0x1000A6340, symSize: 0x0 }
  - { offset: 0xB3C53, size: 0x8, addend: 0x0, symName: __ZN5Board13thread_lockerE, symObjAddr: 0x97E80, symBinAddr: 0x1000A6370, symSize: 0x0 }
  - { offset: 0xB3C61, size: 0x8, addend: 0x0, symName: __ZN5boost9unordered6detail3foa7group15INS2_15atomic_integralEE22simde_mm_movemask_epi8E17__simd128_uint8_t, symObjAddr: 0x74F0, symBinAddr: 0x100009BD4, symSize: 0x110 }
  - { offset: 0xB3C82, size: 0x8, addend: 0x0, symName: __ZZN5boost9unordered6detail3foa7group15INS2_15atomic_integralEE22simde_mm_movemask_epi8E17__simd128_uint8_tE2md, symObjAddr: 0x97F00, symBinAddr: 0x10009A930, symSize: 0x0 }
  - { offset: 0xB3D01, size: 0x8, addend: 0x0, symName: __ZN5Board9const_valE, symObjAddr: 0x97EC8, symBinAddr: 0x1000A63B8, symSize: 0x0 }
  - { offset: 0xB3D1F, size: 0x8, addend: 0x0, symName: __ZN5Board8fit_timeE, symObjAddr: 0x97ECC, symBinAddr: 0x1000A63BC, symSize: 0x0 }
  - { offset: 0xB3D66, size: 0x8, addend: 0x0, symName: __ZNK5boost9unordered6detail3foa10table_coreINS2_14flat_map_typesINSt3__112basic_stringIcNS5_11char_traitsIcEENS5_9allocatorIcEEEEN5Eigen6MatrixINS5_7complexIfEELin1ELi1ELi0ELin1ELi1EEEEENS2_7group15INS2_15atomic_integralEEENS2_23concurrent_table_arraysENS2_19atomic_size_controlENS_4hashISB_EENS5_8equal_toISB_EENS9_INS5_4pairIKSB_SG_EEEEE16initial_max_loadEv, symObjAddr: 0x229F0, symBinAddr: 0x1000250D4, symSize: 0x6C }
  - { offset: 0xB3D8B, size: 0x8, addend: 0x0, symName: __ZZNK5boost9unordered6detail3foa10table_coreINS2_14flat_map_typesINSt3__112basic_stringIcNS5_11char_traitsIcEENS5_9allocatorIcEEEEN5Eigen6MatrixINS5_7complexIfEELin1ELi1ELi0ELin1ELi1EEEEENS2_7group15INS2_15atomic_integralEEENS2_23concurrent_table_arraysENS2_19atomic_size_controlENS_4hashISB_EENS5_8equal_toISB_EENS9_INS5_4pairIKSB_SG_EEEEE16initial_max_loadEvE14small_capacity, symObjAddr: 0x97F40, symBinAddr: 0x10009A970, symSize: 0x0 }
  - { offset: 0xB3DB8, size: 0x8, addend: 0x0, symName: __ZN5Board14__num_featuresE, symObjAddr: 0x97EE8, symBinAddr: 0x1000A63D8, symSize: 0x0 }
  - { offset: 0xB3DC6, size: 0x8, addend: 0x0, symName: __ZN5boost9unordered6detail3foa11entry_trace6headerEv, symObjAddr: 0x35D0C, symBinAddr: 0x1000383F0, symSize: 0x20 }
  - { offset: 0xB3DE6, size: 0x8, addend: 0x0, symName: __ZZN5boost9unordered6detail3foa11entry_trace6headerEvE2pe, symObjAddr: 0x95A67, symBinAddr: 0x1000A6418, symSize: 0x0 }
  - { offset: 0xB3DF8, size: 0x8, addend: 0x0, symName: __ZN5Board11action_sizeE, symObjAddr: 0x97EEC, symBinAddr: 0x1000A63DC, symSize: 0x0 }
  - { offset: 0xB3E0C, size: 0x8, addend: 0x0, symName: __ZN5Board19initialization_flagE, symObjAddr: 0x97EE0, symBinAddr: 0x1000A63D0, symSize: 0x0 }
  - { offset: 0xB3E1A, size: 0x8, addend: 0x0, symName: __ZNK5boost9unordered6detail3foa16concurrent_tableINS2_14flat_map_typesINSt3__112basic_stringIcNS5_11char_traitsIcEENS5_9allocatorIcEEEEN5Eigen6MatrixINS5_7complexIfEELin1ELi1ELi0ELin1ELi1EEEEENS_4hashISB_EENS5_8equal_toISB_EENS9_INS5_4pairIKSB_SG_EEEEE13shared_accessEv, symObjAddr: 0x431B4, symBinAddr: 0x100045898, symSize: 0xE4 }
  - { offset: 0xB3E3F, size: 0x8, addend: 0x0, symName: __ZZNK5boost9unordered6detail3foa16concurrent_tableINS2_14flat_map_typesINSt3__112basic_stringIcNS5_11char_traitsIcEENS5_9allocatorIcEEEEN5Eigen6MatrixINS5_7complexIfEELin1ELi1ELi0ELin1ELi1EEEEENS_4hashISB_EENS5_8equal_toISB_EENS9_INS5_4pairIKSB_SG_EEEEE13shared_accessEvE2id, symObjAddr: 0x95A7F, symBinAddr: 0x1000A6430, symSize: 0x0 }
  - { offset: 0xB3E58, size: 0x8, addend: 0x0, symName: __ZN5boost9unordered6detail3foa7group15INS2_15atomic_integralEE12reduced_hashEm, symObjAddr: 0x43EE8, symBinAddr: 0x1000465CC, symSize: 0x24 }
  - { offset: 0xB3E79, size: 0x8, addend: 0x0, symName: __ZZN5boost9unordered6detail3foa7group15INS2_15atomic_integralEE12reduced_hashEmE5table, symObjAddr: 0x97F48, symBinAddr: 0x10009A978, symSize: 0x0 }
  - { offset: 0xB3EA2, size: 0x8, addend: 0x0, symName: __ZNK5boost9unordered6detail3foa7group15INS2_15atomic_integralEE17is_not_overflowedEm, symObjAddr: 0x43E18, symBinAddr: 0x1000464FC, symSize: 0x5C }
  - { offset: 0xB3EC7, size: 0x8, addend: 0x0, symName: __ZZNK5boost9unordered6detail3foa7group15INS2_15atomic_integralEE17is_not_overflowedEmE5shift, symObjAddr: 0x98048, symBinAddr: 0x10009AA78, symSize: 0x0 }
  - { offset: 0xB3F00, size: 0x8, addend: 0x0, symName: __Z4MCTSPFNSt3__16vectorIfNS_9allocatorIfEEEER5BoardERKN5Eigen6MatrixINS_7complexIfEELin1ELin1ELi0ELin1ELin1EEEiNS_12basic_stringIcNS_11char_traitsIcEENS1_IcEEEESJ_ibdjbfb, symObjAddr: 0x5AB0, symBinAddr: 0x100008194, symSize: 0x524 }
  - { offset: 0xB4298, size: 0x8, addend: 0x0, symName: '__ZZ4MCTSPFNSt3__16vectorIfNS_9allocatorIfEEEER5BoardERKN5Eigen6MatrixINS_7complexIfEELin1ELin1ELi0ELin1ELin1EEEiNS_12basic_stringIcNS_11char_traitsIcEENS1_IcEEEESJ_ibdjbfbENK3$_0clEv', symObjAddr: 0x86D84, symBinAddr: 0x100089468, symSize: 0x978 }
  - { offset: 0xB42C1, size: 0x8, addend: 0x0, symName: '__ZZZ4MCTSPFNSt3__16vectorIfNS_9allocatorIfEEEER5BoardERKN5Eigen6MatrixINS_7complexIfEELin1ELin1ELi0ELin1ELin1EEEiNS_12basic_stringIcNS_11char_traitsIcEENS1_IcEEEESJ_ibdjbfbENK3$_0clEvE9generator', symObjAddr: 0x95AAF, symBinAddr: 0x1000A6460, symSize: 0x0 }
  - { offset: 0xB44FB, size: 0x8, addend: 0x0, symName: __Z12RandomSearchPFNSt3__16vectorIfNS_9allocatorIfEEEER5BoardERKN5Eigen6MatrixINS_7complexIfEELin1ELin1ELi0ELin1ELin1EEEiNS_12basic_stringIcNS_11char_traitsIcEENS1_IcEEEESJ_ibdjbfb, symObjAddr: 0x6008, symBinAddr: 0x1000086EC, symSize: 0x520 }
  - { offset: 0xB47D0, size: 0x8, addend: 0x0, symName: '__ZZ12RandomSearchPFNSt3__16vectorIfNS_9allocatorIfEEEER5BoardERKN5Eigen6MatrixINS_7complexIfEELin1ELin1ELi0ELin1ELin1EEEiNS_12basic_stringIcNS_11char_traitsIcEENS1_IcEEEESJ_ibdjbfbENK3$_0clEv', symObjAddr: 0x8EED8, symBinAddr: 0x1000915BC, symSize: 0x10EC }
  - { offset: 0xB47F9, size: 0x8, addend: 0x0, symName: '__ZZZ12RandomSearchPFNSt3__16vectorIfNS_9allocatorIfEEEER5BoardERKN5Eigen6MatrixINS_7complexIfEELin1ELin1ELi0ELin1ELin1EEEiNS_12basic_stringIcNS_11char_traitsIcEENS1_IcEEEESJ_ibdjbfbENK3$_0clEvE9generator', symObjAddr: 0x95ADF, symBinAddr: 0x1000A6490, symSize: 0x0 }
  - { offset: 0xB4CD7, size: 0x8, addend: 0x0, symName: __ZN5Eigen8internal21dense_assignment_loopINS0_31generic_dense_assignment_kernelINS0_9evaluatorINS_6MatrixINSt3__17complexIfEELin1ELin1ELi0ELin1ELin1EEEEES9_NS0_9assign_opIS7_S7_EELi0EEELi3ELi0EE3runERSC_, symObjAddr: 0x30D18, symBinAddr: 0x1000333FC, symSize: 0xA8 }
  - { offset: 0xB4DF1, size: 0x8, addend: 0x0, symName: __ZN5Eigen8internal21dense_assignment_loopINS0_31generic_dense_assignment_kernelINS0_9evaluatorINS_6MatrixINSt3__17complexIfEELin1ELi1ELi0ELin1ELi1EEEEES9_NS0_9assign_opIS7_S7_EELi0EEELi3ELi0EE3runERSC_, symObjAddr: 0x483FC, symBinAddr: 0x10004AAE0, symSize: 0xA8 }
  - { offset: 0xB52F0, size: 0x8, addend: 0x0, symName: __ZN5Eigen8internal21dense_assignment_loopINS0_31generic_dense_assignment_kernelINS0_9evaluatorINS_6MatrixINSt3__17complexIfEELin1ELi1ELi0ELin1ELi1EEEEENS3_INS_12CwiseUnaryOpINS0_18scalar_opposite_opIS7_EEKNS_12ArrayWrapperIS8_EEEEEENS0_9assign_opIS7_S7_EELi0EEELi3ELi0EE3runERSK_, symObjAddr: 0x5C658, symBinAddr: 0x10005ED3C, symSize: 0xA8 }
  - { offset: 0xB53F4, size: 0x8, addend: 0x0, symName: __ZN5Eigen8internal21dense_assignment_loopINS0_31generic_dense_assignment_kernelINS0_9evaluatorINS_6MatrixINSt3__17complexIfEELin1ELi1ELi0ELin1ELi1EEEEENS3_INS_12CwiseUnaryOpINS0_19scalar_conjugate_opIS7_EEKNS_12ArrayWrapperIS8_EEEEEENS0_9assign_opIS7_S7_EELi0EEELi3ELi0EE3runERSK_, symObjAddr: 0x5D480, symBinAddr: 0x10005FB64, symSize: 0xA8 }
  - { offset: 0xB5752, size: 0x8, addend: 0x0, symName: __ZN5Eigen8internal21dense_assignment_loopINS0_31generic_dense_assignment_kernelINS0_9evaluatorINS_6MatrixINSt3__17complexIfEELin1ELi1ELi0ELin1ELi1EEEEENS3_INS_13CwiseBinaryOpINS0_13scalar_sum_opIS7_S7_EEKNS_12ArrayWrapperIS8_EESF_EEEENS0_9assign_opIS7_S7_EELi0EEELi3ELi0EE3runERSK_, symObjAddr: 0x5E3CC, symBinAddr: 0x100060AB0, symSize: 0xA8 }
  - { offset: 0xB5AB5, size: 0x8, addend: 0x0, symName: __ZN5Eigen8internal21dense_assignment_loopINS0_31generic_dense_assignment_kernelINS0_9evaluatorINS_6MatrixINSt3__17complexIfEELin1ELi1ELi0ELin1ELi1EEEEENS3_INS_13CwiseBinaryOpINS0_20scalar_difference_opIS7_S7_EEKNS_12ArrayWrapperIS8_EESF_EEEENS0_9assign_opIS7_S7_EELi0EEELi3ELi0EE3runERSK_, symObjAddr: 0x5F268, symBinAddr: 0x10006194C, symSize: 0xA8 }
  - { offset: 0xB5E13, size: 0x8, addend: 0x0, symName: __ZN5Eigen8internal21dense_assignment_loopINS0_31generic_dense_assignment_kernelINS0_9evaluatorINS_6MatrixINSt3__17complexIfEELin1ELi1ELi0ELin1ELi1EEEEENS3_INS_13CwiseBinaryOpINS0_17scalar_product_opIS7_S7_EEKNS_12ArrayWrapperIS8_EESF_EEEENS0_9assign_opIS7_S7_EELi0EEELi3ELi0EE3runERSK_, symObjAddr: 0x60150, symBinAddr: 0x100062834, symSize: 0xA8 }
  - { offset: 0xB6176, size: 0x8, addend: 0x0, symName: __ZN5Eigen8internal21dense_assignment_loopINS0_31generic_dense_assignment_kernelINS0_9evaluatorINS_6MatrixINSt3__17complexIfEELin1ELi1ELi0ELin1ELi1EEEEENS3_INS_13CwiseBinaryOpINS0_18scalar_quotient_opIS7_S7_EEKNS_12ArrayWrapperIS8_EESF_EEEENS0_9assign_opIS7_S7_EELi0EEELi3ELi0EE3runERSK_, symObjAddr: 0x616B4, symBinAddr: 0x100063D98, symSize: 0xA8 }
  - { offset: 0xB674E, size: 0x8, addend: 0x0, symName: __ZNSt3__16vectorIfNS_9allocatorIfEEE26__swap_out_circular_bufferERNS_14__split_bufferIfRS2_EE, symObjAddr: 0x9BC8, symBinAddr: 0x10000C2AC, symSize: 0x110 }
  - { offset: 0xB67A5, size: 0x8, addend: 0x0, symName: __ZNSt3__16vectorIiNS_9allocatorIiEEE26__swap_out_circular_bufferERNS_14__split_bufferIiRS2_EE, symObjAddr: 0xB024, symBinAddr: 0x10000D708, symSize: 0x110 }
  - { offset: 0xB6F5C, size: 0x8, addend: 0x0, symName: __Z18SimulatedAnnealingPFNSt3__16vectorIfNS_9allocatorIfEEEER5BoardERKN5Eigen6MatrixINS_7complexIfEELin1ELin1ELi0ELin1ELin1EEEiNS_12basic_stringIcNS_11char_traitsIcEENS1_IcEEEESJ_ibdjbfb, symObjAddr: 0x4798, symBinAddr: 0x100006E7C, symSize: 0x520 }
  - { offset: 0xB72D0, size: 0x8, addend: 0x0, symName: __ZN5BoardC2EPFNSt3__16vectorIfNS0_9allocatorIfEEEERS_EbiRKNS0_12basic_stringIcNS0_11char_traitsIcEENS2_IcEEEESC_iRKN5Eigen6MatrixINS0_7complexIfEELin1ELin1ELi0ELin1ELin1EEEbbbfb, symObjAddr: 0x2D334, symBinAddr: 0x10002FA18, symSize: 0x398 }
  - { offset: 0xB7495, size: 0x8, addend: 0x0, symName: __ZNSt3__16vectorIN5Eigen6MatrixINS_7complexIfEELin1ELi1ELi0ELin1ELi1EEENS_9allocatorIS5_EEE26__swap_out_circular_bufferERNS_14__split_bufferIS5_RS7_EE, symObjAddr: 0x3328C, symBinAddr: 0x100035970, symSize: 0x110 }
  - { offset: 0xB7565, size: 0x8, addend: 0x0, symName: __ZNSt3__16vectorINS_12basic_stringIcNS_11char_traitsIcEENS_9allocatorIcEEEENS4_IS6_EEE26__swap_out_circular_bufferERNS_14__split_bufferIS6_RS7_EE, symObjAddr: 0x36DB0, symBinAddr: 0x100039494, symSize: 0x110 }
  - { offset: 0xB768F, size: 0x8, addend: 0x0, symName: __ZNKSt3__16chrono15__duration_castINS0_8durationIxNS_5ratioILl1ELl1000000EEEEENS2_IxNS3_ILl1ELl1000000000EEEEENS3_ILl1000ELl1EEELb0ELb1EEclB8ne180100ERKS5_, symObjAddr: 0x40144, symBinAddr: 0x100042828, symSize: 0x44 }
  - { offset: 0xB7F18, size: 0x8, addend: 0x0, symName: __ZNSt3__16vectorINS_6futureIvEENS_9allocatorIS2_EEE26__swap_out_circular_bufferERNS_14__split_bufferIS2_RS4_EE, symObjAddr: 0x63828, symBinAddr: 0x100065F0C, symSize: 0x110 }
  - { offset: 0xB7FAC, size: 0x8, addend: 0x0, symName: __ZN5Board8AsyncPSOEv, symObjAddr: 0x4CC70, symBinAddr: 0x10004F354, symSize: 0x528 }
  - { offset: 0xB83AB, size: 0x8, addend: 0x0, symName: __ZNSt3__124uniform_int_distributionIiEclINS_23mersenne_twister_engineIjLm32ELm624ELm397ELm31ELj2567483615ELm11ELj4294967295ELm7ELj2636928640ELm15ELj4022730752ELm18ELj1812433253EEEEEiRT_RKNS1_10param_typeE, symObjAddr: 0x69244, symBinAddr: 0x10006B928, symSize: 0x188 }
  - { offset: 0xB84F7, size: 0x8, addend: 0x0, symName: __ZNSt3__16vectorINS_4pairIiiEENS_9allocatorIS2_EEE26__swap_out_circular_bufferERNS_14__split_bufferIS2_RS4_EE, symObjAddr: 0x70F10, symBinAddr: 0x1000735F4, symSize: 0x110 }
  - { offset: 0xB858B, size: 0x8, addend: 0x0, symName: __ZNSt3__16vectorIfNS_9allocatorIfEEE26__swap_out_circular_bufferERNS_14__split_bufferIfRS2_EEPf, symObjAddr: 0x72928, symBinAddr: 0x10007500C, symSize: 0x14C }
  - { offset: 0xB8959, size: 0x8, addend: 0x0, symName: __Z2GPPFNSt3__16vectorIfNS_9allocatorIfEEEER5BoardERKN5Eigen6MatrixINS_7complexIfEELin1ELin1ELi0ELin1ELin1EEEiNS_12basic_stringIcNS_11char_traitsIcEENS1_IcEEEESJ_ibdjbfb, symObjAddr: 0x4F78, symBinAddr: 0x10000765C, symSize: 0x558 }
  - { offset: 0xB8E17, size: 0x8, addend: 0x0, symName: __ZNSt3__16vectorINS_4pairINS0_IfNS_9allocatorIfEEEEfEENS2_IS5_EEE26__swap_out_circular_bufferERNS_14__split_bufferIS5_RS6_EE, symObjAddr: 0x76AE8, symBinAddr: 0x1000791CC, symSize: 0x110 }
  - { offset: 0xB8EB4, size: 0x8, addend: 0x0, symName: __Z3PSOPFNSt3__16vectorIfNS_9allocatorIfEEEER5BoardERKN5Eigen6MatrixINS_7complexIfEELin1ELin1ELi0ELin1ELin1EEEiNS_12basic_stringIcNS_11char_traitsIcEENS1_IcEEEESJ_ibdjbfb, symObjAddr: 0x555C, symBinAddr: 0x100007C40, symSize: 0x520 }
  - { offset: 0xBA4BD, size: 0x8, addend: 0x0, symName: __ZNSt3__16vectorINS_4pairINS_12basic_stringIcNS_11char_traitsIcEENS_9allocatorIcEEEEfEENS5_IS8_EEE26__swap_out_circular_bufferERNS_14__split_bufferIS8_RS9_EE, symObjAddr: 0x88560, symBinAddr: 0x10008AC44, symSize: 0x110 }
  - { offset: 0xBAE66, size: 0x8, addend: 0x0, symName: __ZN5Eigen8symbolic10SymbolExprINS_8internal17symbolic_last_tagEEC1Ev, symObjAddr: 0x0, symBinAddr: 0x1000026E4, symSize: 0x2C }
  - { offset: 0xBAE90, size: 0x8, addend: 0x0, symName: __ZNK5Eigen8symbolic8BaseExprINS0_10SymbolExprINS_8internal17symbolic_last_tagEEEEplILi1EEENS0_7AddExprIS5_NS0_9ValueExprINS3_8FixedIntIXT_EEEEEEESB_, symObjAddr: 0x2C, symBinAddr: 0x100002710, symSize: 0x48 }
  - { offset: 0xBAECB, size: 0x8, addend: 0x0, symName: __ZNK5Eigen8internal8FixedIntILi1EEclEv, symObjAddr: 0x74, symBinAddr: 0x100002758, symSize: 0x10 }
  - { offset: 0xBAEF1, size: 0x8, addend: 0x0, symName: __ZN5Eigen8internal5all_tC1Ev, symObjAddr: 0x84, symBinAddr: 0x100002768, symSize: 0x2C }
  - { offset: 0xBAF1B, size: 0x8, addend: 0x0, symName: __ZNKSt3__17complexIfE4realB8ne180100Ev, symObjAddr: 0x2E4, symBinAddr: 0x1000029C8, symSize: 0x18 }
  - { offset: 0xBAF41, size: 0x8, addend: 0x0, symName: __ZNKSt3__17complexIfE4imagB8ne180100Ev, symObjAddr: 0x2FC, symBinAddr: 0x1000029E0, symSize: 0x18 }
  - { offset: 0xBAF66, size: 0x8, addend: 0x0, symName: __Z7isFloatRKNSt3__112basic_stringIcNS_11char_traitsIcEENS_9allocatorIcEEEE, symObjAddr: 0x314, symBinAddr: 0x1000029F8, symSize: 0x98 }
  - { offset: 0xBAFA0, size: 0x8, addend: 0x0, symName: __Z20createLinspaceMatrixiiNSt3__16vectorIfNS_9allocatorIfEEEES3_, symObjAddr: 0x3AC, symBinAddr: 0x100002A90, symSize: 0x240 }
  - { offset: 0xBB039, size: 0x8, addend: 0x0, symName: __ZNKSt3__16vectorIfNS_9allocatorIfEEE4sizeB8ne180100Ev, symObjAddr: 0x5EC, symBinAddr: 0x100002CD0, symSize: 0x28 }
  - { offset: 0xBB05F, size: 0x8, addend: 0x0, symName: __ZN5Eigen6MatrixINSt3__17complexIfEELin1ELin1ELi0ELin1ELin1EEC1IiiEERKT_RKT0_, symObjAddr: 0x614, symBinAddr: 0x100002CF8, symSize: 0x3C }
  - { offset: 0xBB0B9, size: 0x8, addend: 0x0, symName: __ZNSt3__16vectorIfNS_9allocatorIfEEEixB8ne180100Em, symObjAddr: 0x650, symBinAddr: 0x100002D34, symSize: 0x24 }
  - { offset: 0xBB0F0, size: 0x8, addend: 0x0, symName: __ZNSt3__17complexIfEC1B8ne180100Eff, symObjAddr: 0x674, symBinAddr: 0x100002D58, symSize: 0x3C }
  - { offset: 0xBB138, size: 0x8, addend: 0x0, symName: __ZN5Eigen15DenseCoeffsBaseINS_6MatrixINSt3__17complexIfEELin1ELin1ELi0ELin1ELin1EEELi1EEclEll, symObjAddr: 0x6B0, symBinAddr: 0x100002D94, symSize: 0xF4 }
  - { offset: 0xBB17C, size: 0x8, addend: 0x0, symName: __ZN5Eigen6MatrixINSt3__17complexIfEELin1ELin1ELi0ELin1ELin1EED1Ev, symObjAddr: 0x7A4, symBinAddr: 0x100002E88, symSize: 0x2C }
  - { offset: 0xBB1A8, size: 0x8, addend: 0x0, symName: __ZNSt3__113random_deviceC1B8ne180100Ev, symObjAddr: 0x9C8, symBinAddr: 0x1000030AC, symSize: 0x74 }
  - { offset: 0xBB1D2, size: 0x8, addend: 0x0, symName: __ZNSt3__123mersenne_twister_engineIjLm32ELm624ELm397ELm31ELj2567483615ELm11ELj4294967295ELm7ELj2636928640ELm15ELj4022730752ELm18ELj1812433253EEC1B8ne180100Ej, symObjAddr: 0xA3C, symBinAddr: 0x100003120, symSize: 0x34 }
  - { offset: 0xBB20A, size: 0x8, addend: 0x0, symName: __ZNSt3__125uniform_real_distributionIfEC1B8ne180100Eff, symObjAddr: 0xA70, symBinAddr: 0x100003154, symSize: 0x3C }
  - { offset: 0xBB250, size: 0x8, addend: 0x0, symName: __ZNSt3__125uniform_real_distributionIfEclB8ne180100INS_23mersenne_twister_engineIjLm32ELm624ELm397ELm31ELj2567483615ELm11ELj4294967295ELm7ELj2636928640ELm15ELj4022730752ELm18ELj1812433253EEEEEfRT_, symObjAddr: 0xAAC, symBinAddr: 0x100003190, symSize: 0x30 }
  - { offset: 0xBB28C, size: 0x8, addend: 0x0, symName: __Z7trueModii, symObjAddr: 0xADC, symBinAddr: 0x1000031C0, symSize: 0x40 }
  - { offset: 0xBB2C6, size: 0x8, addend: 0x0, symName: __Z6isZeroRKN5Eigen6MatrixINSt3__17complexIfEELin1ELi1ELi0ELin1ELi1EEEf, symObjAddr: 0xB1C, symBinAddr: 0x100003200, symSize: 0x98 }
  - { offset: 0xBB301, size: 0x8, addend: 0x0, symName: __ZNK5Eigen9EigenBaseINS_6MatrixINSt3__17complexIfEELin1ELi1ELi0ELin1ELi1EEEE4sizeEv, symObjAddr: 0xBB4, symBinAddr: 0x100003298, symSize: 0x44 }
  - { offset: 0xBB327, size: 0x8, addend: 0x0, symName: __ZNK5Eigen10MatrixBaseINS_6MatrixINSt3__17complexIfEELin1ELi1ELi0ELin1ELi1EEEE5arrayEv, symObjAddr: 0xBF8, symBinAddr: 0x1000032DC, symSize: 0x34 }
  - { offset: 0xBB34D, size: 0x8, addend: 0x0, symName: __ZNK5Eigen9ArrayBaseINS_12ArrayWrapperIKNS_6MatrixINSt3__17complexIfEELin1ELi1ELi0ELin1ELi1EEEEEE3absEv, symObjAddr: 0xC2C, symBinAddr: 0x100003310, symSize: 0x4C }
  - { offset: 0xBB373, size: 0x8, addend: 0x0, symName: __ZNK5Eigen9DenseBaseINS_12CwiseUnaryOpINS_8internal13scalar_abs_opINSt3__17complexIfEEEEKNS_12ArrayWrapperIKNS_6MatrixIS6_Lin1ELi1ELi0ELin1ELi1EEEEEEEE8maxCoeffEv, symObjAddr: 0xC78, symBinAddr: 0x10000335C, symSize: 0x24 }
  - { offset: 0xBB398, size: 0x8, addend: 0x0, symName: __Z10isConstantRKN5Eigen6MatrixINSt3__17complexIfEELin1ELi1ELi0ELin1ELi1EEEf, symObjAddr: 0xC9C, symBinAddr: 0x100003380, symSize: 0x104 }
  - { offset: 0xBB3E4, size: 0x8, addend: 0x0, symName: __ZNK5Eigen15DenseCoeffsBaseINS_6MatrixINSt3__17complexIfEELin1ELi1ELi0ELin1ELi1EEELi0EEclEl, symObjAddr: 0xDA0, symBinAddr: 0x100003484, symSize: 0xA4 }
  - { offset: 0xBB418, size: 0x8, addend: 0x0, symName: __ZNK5Eigen9ArrayBaseINS_12ArrayWrapperIKNS_6MatrixINSt3__17complexIfEELin1ELi1ELi0ELin1ELi1EEEEEEmiIS5_EEKNS_13CwiseBinaryOpINS_8internal20scalar_difference_opIS5_NSC_18promote_scalar_argIS5_T_Xsr5Eigen8internal14has_ReturnTypeINS_20ScalarBinaryOpTraitsIS5_SF_NSD_IS5_SF_EEEEEE5valueEE4typeEEEKS8_KNSC_19plain_constant_typeIS8_SK_E4typeEEERKSF_, symObjAddr: 0xE44, symBinAddr: 0x100003528, symSize: 0xA8 }
  - { offset: 0xBB456, size: 0x8, addend: 0x0, symName: __ZNK5Eigen9ArrayBaseINS_13CwiseBinaryOpINS_8internal20scalar_difference_opINSt3__17complexIfEES6_EEKNS_12ArrayWrapperIKNS_6MatrixIS6_Lin1ELi1ELi0ELin1ELi1EEEEEKNS_14CwiseNullaryOpINS2_18scalar_constant_opIS6_EEKNS_5ArrayIS6_Lin1ELi1ELi0ELin1ELi1EEEEEEEE3absEv, symObjAddr: 0xEEC, symBinAddr: 0x1000035D0, symSize: 0x4C }
  - { offset: 0xBB47C, size: 0x8, addend: 0x0, symName: __ZNK5Eigen9DenseBaseINS_12CwiseUnaryOpINS_8internal13scalar_abs_opINSt3__17complexIfEEEEKNS_13CwiseBinaryOpINS2_20scalar_difference_opIS6_S6_EEKNS_12ArrayWrapperIKNS_6MatrixIS6_Lin1ELi1ELi0ELin1ELi1EEEEEKNS_14CwiseNullaryOpINS2_18scalar_constant_opIS6_EEKNS_5ArrayIS6_Lin1ELi1ELi0ELin1ELi1EEEEEEEEEE8maxCoeffEv, symObjAddr: 0xF38, symBinAddr: 0x10000361C, symSize: 0x24 }
  - { offset: 0xBB4A1, size: 0x8, addend: 0x0, symName: __Z3MSERKN5Eigen6MatrixINSt3__17complexIfEELin1ELi1ELi0ELin1ELi1EEE, symObjAddr: 0xF5C, symBinAddr: 0x100003640, symSize: 0x3C }
  - { offset: 0xBB4CE, size: 0x8, addend: 0x0, symName: __ZNK5Eigen10MatrixBaseINS_6MatrixINSt3__17complexIfEELin1ELi1ELi0ELin1ELi1EEEE11squaredNormEv, symObjAddr: 0xF98, symBinAddr: 0x10000367C, symSize: 0x40 }
  - { offset: 0xBB4F5, size: 0x8, addend: 0x0, symName: __Z9loss_funcRKN5Eigen6MatrixINSt3__17complexIfEELin1ELi1ELi0ELin1ELi1EEE, symObjAddr: 0xFD8, symBinAddr: 0x1000036BC, symSize: 0x34 }
  - { offset: 0xBB522, size: 0x8, addend: 0x0, symName: __ZN5boost9unordered19concurrent_flat_mapINSt3__112basic_stringIcNS2_11char_traitsIcEENS2_9allocatorIcEEEEN5Eigen6MatrixINS2_7complexIfEELin1ELi1ELi0ELin1ELi1EEENS_4hashIS8_EENS2_8equal_toIS8_EENS6_INS2_4pairIKS8_SD_EEEEEC1Ev, symObjAddr: 0x100C, symBinAddr: 0x1000036F0, symSize: 0x4C }
  - { offset: 0xBB54C, size: 0x8, addend: 0x0, symName: __ZN5boost9unordered19concurrent_flat_mapINSt3__112basic_stringIcNS2_11char_traitsIcEENS2_9allocatorIcEEEEN5Eigen6MatrixINS2_7complexIfEELin1ELi1ELi0ELin1ELi1EEENS_4hashIS8_EENS2_8equal_toIS8_EENS6_INS2_4pairIKS8_SD_EEEEED1Ev, symObjAddr: 0x1058, symBinAddr: 0x10000373C, symSize: 0x2C }
  - { offset: 0xBB576, size: 0x8, addend: 0x0, symName: __ZNSt3__16vectorINS_12basic_stringIcNS_11char_traitsIcEENS_9allocatorIcEEEENS4_IS6_EEED1B8ne180100Ev, symObjAddr: 0x1084, symBinAddr: 0x100003768, symSize: 0x2C }
  - { offset: 0xBB5A0, size: 0x8, addend: 0x0, symName: __ZNSt3__16vectorIfNS_9allocatorIfEEED1B8ne180100Ev, symObjAddr: 0x10B0, symBinAddr: 0x100003794, symSize: 0x2C }
  - { offset: 0xBB5CA, size: 0x8, addend: 0x0, symName: __ZN4DataC1Ev, symObjAddr: 0x10DC, symBinAddr: 0x1000037C0, symSize: 0x2C }
  - { offset: 0xBB5F4, size: 0x8, addend: 0x0, symName: __ZN4DataD1Ev, symObjAddr: 0x1108, symBinAddr: 0x1000037EC, symSize: 0x2C }
  - { offset: 0xBB620, size: 0x8, addend: 0x0, symName: __ZNSt3__113unordered_mapIfNS_12basic_stringIcNS_11char_traitsIcEENS_9allocatorIcEEEENS_4hashIfEENS_8equal_toIfEENS4_INS_4pairIKfS6_EEEEEC1B8ne180100Ev, symObjAddr: 0x1134, symBinAddr: 0x100003818, symSize: 0x2C }
  - { offset: 0xBB64A, size: 0x8, addend: 0x0, symName: __ZNSt3__113unordered_mapIfNS_12basic_stringIcNS_11char_traitsIcEENS_9allocatorIcEEEENS_4hashIfEENS_8equal_toIfEENS4_INS_4pairIKfS6_EEEEED1B8ne180100Ev, symObjAddr: 0x1160, symBinAddr: 0x100003844, symSize: 0x2C }
  - { offset: 0xBB674, size: 0x8, addend: 0x0, symName: __ZNSt3__113unordered_mapINS_12basic_stringIcNS_11char_traitsIcEENS_9allocatorIcEEEEfNS_4hashIS6_EENS_8equal_toIS6_EENS4_INS_4pairIKS6_fEEEEEC1B8ne180100Ev, symObjAddr: 0x118C, symBinAddr: 0x100003870, symSize: 0x2C }
  - { offset: 0xBB69E, size: 0x8, addend: 0x0, symName: __ZNSt3__113unordered_mapINS_12basic_stringIcNS_11char_traitsIcEENS_9allocatorIcEEEEfNS_4hashIS6_EENS_8equal_toIS6_EENS4_INS_4pairIKS6_fEEEEED1B8ne180100Ev, symObjAddr: 0x11B8, symBinAddr: 0x10000389C, symSize: 0x2C }
  - { offset: 0xBB6C8, size: 0x8, addend: 0x0, symName: __ZNSt3__113unordered_mapIbNS0_IbNS0_IbNS_6vectorIfNS_9allocatorIfEEEENS_4hashIbEENS_8equal_toIbEENS2_INS_4pairIKbS4_EEEEEES6_S8_NS2_INS9_ISA_SD_EEEEEES6_S8_NS2_INS9_ISA_SG_EEEEEC1B8ne180100Ev, symObjAddr: 0x11E4, symBinAddr: 0x1000038C8, symSize: 0x2C }
  - { offset: 0xBB6F2, size: 0x8, addend: 0x0, symName: __ZNSt3__113unordered_mapIbNS0_IbNS0_IbNS_6vectorIfNS_9allocatorIfEEEENS_4hashIbEENS_8equal_toIbEENS2_INS_4pairIKbS4_EEEEEES6_S8_NS2_INS9_ISA_SD_EEEEEES6_S8_NS2_INS9_ISA_SG_EEEEED1B8ne180100Ev, symObjAddr: 0x1210, symBinAddr: 0x1000038F4, symSize: 0x2C }
  - { offset: 0xBB71B, size: 0x8, addend: 0x0, symName: __Z6NLS_2DR5Board, symObjAddr: 0x123C, symBinAddr: 0x100003920, symSize: 0x141C }
  - { offset: 0xBBB92, size: 0x8, addend: 0x0, symName: __ZNSt3__16vectorIfNS_9allocatorIfEEEC1B8ne180100Ev, symObjAddr: 0x2658, symBinAddr: 0x100004D3C, symSize: 0x2C }
  - { offset: 0xBBBBC, size: 0x8, addend: 0x0, symName: __ZNSt3__16vectorIfNS_9allocatorIfEEE7reserveEm, symObjAddr: 0x2684, symBinAddr: 0x100004D68, symSize: 0xE8 }
  - { offset: 0xBBC19, size: 0x8, addend: 0x0, symName: __ZNSt3__16vectorIiNS_9allocatorIiEEEC1B8ne180100Ev, symObjAddr: 0x276C, symBinAddr: 0x100004E50, symSize: 0x2C }
  - { offset: 0xBBC43, size: 0x8, addend: 0x0, symName: __ZNSt3__16vectorIiNS_9allocatorIiEEE7reserveEm, symObjAddr: 0x2798, symBinAddr: 0x100004E7C, symSize: 0xE8 }
  - { offset: 0xBBCA0, size: 0x8, addend: 0x0, symName: __ZNSt3__16vectorIfNS_9allocatorIfEEE9push_backB8ne180100ERKf, symObjAddr: 0x28DC, symBinAddr: 0x100004FC0, symSize: 0x90 }
  - { offset: 0xBBCE6, size: 0x8, addend: 0x0, symName: __ZNSt3__113unordered_mapINS_12basic_stringIcNS_11char_traitsIcEENS_9allocatorIcEEEEfNS_4hashIS6_EENS_8equal_toIS6_EENS4_INS_4pairIKS6_fEEEEEixEOS6_, symObjAddr: 0x296C, symBinAddr: 0x100005050, symSize: 0x80 }
  - { offset: 0xBBD22, size: 0x8, addend: 0x0, symName: __ZNSt3__112basic_stringIcNS_11char_traitsIcEENS_9allocatorIcEEEC1B8ne180100ILi0EEEPKc, symObjAddr: 0x29EC, symBinAddr: 0x1000050D0, symSize: 0x34 }
  - { offset: 0xBBD61, size: 0x8, addend: 0x0, symName: __ZN5Board12derivePrefixEiiRKNSt3__112basic_stringIcNS0_11char_traitsIcEENS0_9allocatorIcEEEERKNS0_6vectorIfNS4_IfEEEERNS9_IiNS4_IiEEEE, symObjAddr: 0x2A20, symBinAddr: 0x100005104, symSize: 0x54 }
  - { offset: 0xBBDD2, size: 0x8, addend: 0x0, symName: __ZNSt3__16vectorIfNS_9allocatorIfEEE5beginB8ne180100Ev, symObjAddr: 0x2A74, symBinAddr: 0x100005158, symSize: 0x30 }
  - { offset: 0xBBDFA, size: 0x8, addend: 0x0, symName: __ZNSt3__16vectorIfNS_9allocatorIfEEE3endB8ne180100Ev, symObjAddr: 0x2AA4, symBinAddr: 0x100005188, symSize: 0x30 }
  - { offset: 0xBBE22, size: 0x8, addend: 0x0, symName: __ZNKSt3__111__wrap_iterIPfEdeB8ne180100Ev, symObjAddr: 0x2B08, symBinAddr: 0x1000051EC, symSize: 0x18 }
  - { offset: 0xBBE48, size: 0x8, addend: 0x0, symName: __ZNSt3__111__wrap_iterIPfEppB8ne180100Ev, symObjAddr: 0x2B20, symBinAddr: 0x100005204, symSize: 0x20 }
  - { offset: 0xBBE6E, size: 0x8, addend: 0x0, symName: __ZNSt3__16vectorIfNS_9allocatorIfEEEaSB8ne180100ERKS3_, symObjAddr: 0x2B40, symBinAddr: 0x100005224, symSize: 0x68 }
  - { offset: 0xBBEA5, size: 0x8, addend: 0x0, symName: __ZNSt3__16vectorIiNS_9allocatorIiEEED1B8ne180100Ev, symObjAddr: 0x2BA8, symBinAddr: 0x10000528C, symSize: 0x2C }
  - { offset: 0xBBECE, size: 0x8, addend: 0x0, symName: __Z19VortexRadialProfileR5Board, symObjAddr: 0x2BD4, symBinAddr: 0x1000052B8, symSize: 0x1AF0 }
  - { offset: 0xBC355, size: 0x8, addend: 0x0, symName: __ZNSt3__113unordered_mapINS_12basic_stringIcNS_11char_traitsIcEENS_9allocatorIcEEEEfNS_4hashIS6_EENS_8equal_toIS6_EENS4_INS_4pairIKS6_fEEEEEixERSC_, symObjAddr: 0x46C4, symBinAddr: 0x100006DA8, symSize: 0x80 }
  - { offset: 0xBC38C, size: 0x8, addend: 0x0, symName: __ZN5Board13derivePostfixEiiRKNSt3__112basic_stringIcNS0_11char_traitsIcEENS0_9allocatorIcEEEERKNS0_6vectorIfNS4_IfEEEERNS9_IiNS4_IiEEEE, symObjAddr: 0x4744, symBinAddr: 0x100006E28, symSize: 0x54 }
  - { offset: 0xBC3FD, size: 0x8, addend: 0x0, symName: __ZNSt3__16vectorINS_6threadENS_9allocatorIS1_EEEC1Em, symObjAddr: 0x4CB8, symBinAddr: 0x10000739C, symSize: 0x34 }
  - { offset: 0xBC438, size: 0x8, addend: 0x0, symName: __ZNSt3__15latchC1B8ne180100El, symObjAddr: 0x4CEC, symBinAddr: 0x1000073D0, symSize: 0x34 }
  - { offset: 0xBC470, size: 0x8, addend: 0x0, symName: __ZNSt3__16atomicIfEC1B8ne180100Ef, symObjAddr: 0x4D20, symBinAddr: 0x100007404, symSize: 0x34 }
  - { offset: 0xBC4A8, size: 0x8, addend: 0x0, symName: __ZNSt3__112basic_stringIcNS_11char_traitsIcEENS_9allocatorIcEEEC1B8ne180100Ev, symObjAddr: 0x4D54, symBinAddr: 0x100007438, symSize: 0x2C }
  - { offset: 0xBC4D2, size: 0x8, addend: 0x0, symName: '__ZNSt3__16threadC1IRZ18SimulatedAnnealingPFNS_6vectorIfNS_9allocatorIfEEEER5BoardERKN5Eigen6MatrixINS_7complexIfEELin1ELin1ELi0ELin1ELin1EEEiNS_12basic_stringIcNS_11char_traitsIcEENS3_IcEEEESL_ibdjbfbE3$_0JEvEEOT_DpOT0_', symObjAddr: 0x4D80, symBinAddr: 0x100007464, symSize: 0x34 }
  - { offset: 0xBC519, size: 0x8, addend: 0x0, symName: __ZNSt3__16vectorINS_6threadENS_9allocatorIS1_EEEixB8ne180100Em, symObjAddr: 0x4DB4, symBinAddr: 0x100007498, symSize: 0x24 }
  - { offset: 0xBC550, size: 0x8, addend: 0x0, symName: __ZNSt3__16threadaSB8ne180100EOS0_, symObjAddr: 0x4DD8, symBinAddr: 0x1000074BC, symSize: 0x60 }
  - { offset: 0xBC584, size: 0x8, addend: 0x0, symName: __ZNK5boost9unordered19concurrent_flat_mapINSt3__112basic_stringIcNS2_11char_traitsIcEENS2_9allocatorIcEEEEN5Eigen6MatrixINS2_7complexIfEELin1ELi1ELi0ELin1ELi1EEENS_4hashIS8_EENS2_8equal_toIS8_EENS6_INS2_4pairIKS8_SD_EEEEE4sizeEv, symObjAddr: 0x4EB4, symBinAddr: 0x100007598, symSize: 0x24 }
  - { offset: 0xBC5AA, size: 0x8, addend: 0x0, symName: __ZNKSt3__113__atomic_baseIfLb0EEcvfB8ne180100Ev, symObjAddr: 0x4ED8, symBinAddr: 0x1000075BC, symSize: 0x28 }
  - { offset: 0xBC5D0, size: 0x8, addend: 0x0, symName: __ZNSt3__16vectorINS_6threadENS_9allocatorIS1_EEED1B8ne180100Ev, symObjAddr: 0x4F4C, symBinAddr: 0x100007630, symSize: 0x2C }
  - { offset: 0xBC5FA, size: 0x8, addend: 0x0, symName: __ZNSt3__13mapIiNS_6vectorIfNS_9allocatorIfEEEENS_4lessIiEENS2_INS_4pairIKiS4_EEEEEC1B8ne180100Ev, symObjAddr: 0x54D0, symBinAddr: 0x100007BB4, symSize: 0x2C }
  - { offset: 0xBC624, size: 0x8, addend: 0x0, symName: '__ZNSt3__16threadC1IRZ2GPPFNS_6vectorIfNS_9allocatorIfEEEER5BoardERKN5Eigen6MatrixINS_7complexIfEELin1ELin1ELi0ELin1ELin1EEEiNS_12basic_stringIcNS_11char_traitsIcEENS3_IcEEEESL_ibdjbfbE3$_0JEvEEOT_DpOT0_', symObjAddr: 0x54FC, symBinAddr: 0x100007BE0, symSize: 0x34 }
  - { offset: 0xBC66B, size: 0x8, addend: 0x0, symName: __ZNSt3__13mapIiNS_6vectorIfNS_9allocatorIfEEEENS_4lessIiEENS2_INS_4pairIKiS4_EEEEED1B8ne180100Ev, symObjAddr: 0x5530, symBinAddr: 0x100007C14, symSize: 0x2C }
  - { offset: 0xBC695, size: 0x8, addend: 0x0, symName: '__ZNSt3__16threadC1IRZ3PSOPFNS_6vectorIfNS_9allocatorIfEEEER5BoardERKN5Eigen6MatrixINS_7complexIfEELin1ELin1ELi0ELin1ELin1EEEiNS_12basic_stringIcNS_11char_traitsIcEENS3_IcEEEESL_ibdjbfbE3$_0JEvEEOT_DpOT0_', symObjAddr: 0x5A7C, symBinAddr: 0x100008160, symSize: 0x34 }
  - { offset: 0xBC6DC, size: 0x8, addend: 0x0, symName: '__ZNSt3__16threadC1IRZ4MCTSPFNS_6vectorIfNS_9allocatorIfEEEER5BoardERKN5Eigen6MatrixINS_7complexIfEELin1ELin1ELi0ELin1ELin1EEEiNS_12basic_stringIcNS_11char_traitsIcEENS3_IcEEEESL_ibdjbfbE3$_0JEvEEOT_DpOT0_', symObjAddr: 0x5FD4, symBinAddr: 0x1000086B8, symSize: 0x34 }
  - { offset: 0xBC723, size: 0x8, addend: 0x0, symName: '__ZNSt3__16threadC1IRZ12RandomSearchPFNS_6vectorIfNS_9allocatorIfEEEER5BoardERKN5Eigen6MatrixINS_7complexIfEELin1ELin1ELi0ELin1ELin1EEEiNS_12basic_stringIcNS_11char_traitsIcEENS3_IcEEEESL_ibdjbfbE3$_0JEvEEOT_DpOT0_', symObjAddr: 0x6528, symBinAddr: 0x100008C0C, symSize: 0x34 }
  - { offset: 0xBC76A, size: 0x8, addend: 0x0, symName: _main, symObjAddr: 0x655C, symBinAddr: 0x100008C40, symSize: 0x238 }
  - { offset: 0xBC796, size: 0x8, addend: 0x0, symName: __ZNSt3__16vectorIfNS_9allocatorIfEEEC1B8ne180100ESt16initializer_listIfE, symObjAddr: 0x6794, symBinAddr: 0x100008E78, symSize: 0x3C }
  - { offset: 0xBC7D1, size: 0x8, addend: 0x0, symName: __ZN5Eigen8internal8FixedIntILi1EEC1Ev, symObjAddr: 0x67D0, symBinAddr: 0x100008EB4, symSize: 0x2C }
  - { offset: 0xBC7FB, size: 0x8, addend: 0x0, symName: __ZN5Eigen8internal5all_tC2Ev, symObjAddr: 0x67FC, symBinAddr: 0x100008EE0, symSize: 0x14 }
  - { offset: 0xBC825, size: 0x8, addend: 0x0, symName: __ZNSt3__112basic_stringIcNS_11char_traitsIcEENS_9allocatorIcEEEC1B8ne180100EOS5_, symObjAddr: 0x6810, symBinAddr: 0x100008EF4, symSize: 0x34 }
  - { offset: 0xBC85E, size: 0x8, addend: 0x0, symName: __ZNSt3__112basic_stringIcNS_11char_traitsIcEENS_9allocatorIcEEEC2B8ne180100EOS5_, symObjAddr: 0x6844, symBinAddr: 0x100008F28, symSize: 0xB8 }
  - { offset: 0xBC8C8, size: 0x8, addend: 0x0, symName: __ZZNSt3__112basic_stringIcNS_11char_traitsIcEENS_9allocatorIcEEEC1B8ne180100EOS5_ENKUlRS5_E_clES7_, symObjAddr: 0x68FC, symBinAddr: 0x100008FE0, symSize: 0x40 }
  - { offset: 0xBC901, size: 0x8, addend: 0x0, symName: __ZNSt3__117__compressed_pairINS_12basic_stringIcNS_11char_traitsIcEENS_9allocatorIcEEE5__repES5_E5firstB8ne180100Ev, symObjAddr: 0x694C, symBinAddr: 0x100009030, symSize: 0x24 }
  - { offset: 0xBC927, size: 0x8, addend: 0x0, symName: __ZNKSt3__112basic_stringIcNS_11char_traitsIcEENS_9allocatorIcEEE14__annotate_newB8ne180100Em, symObjAddr: 0x6970, symBinAddr: 0x100009054, symSize: 0x14 }
  - { offset: 0xBC95C, size: 0x8, addend: 0x0, symName: __ZNKSt3__112basic_stringIcNS_11char_traitsIcEENS_9allocatorIcEEE9__is_longB8ne180100Ev, symObjAddr: 0x6984, symBinAddr: 0x100009068, symSize: 0x38 }
  - { offset: 0xBC982, size: 0x8, addend: 0x0, symName: __ZNKSt3__112basic_stringIcNS_11char_traitsIcEENS_9allocatorIcEEE4sizeB8ne180100Ev, symObjAddr: 0x69BC, symBinAddr: 0x1000090A0, symSize: 0x54 }
  - { offset: 0xBC9A8, size: 0x8, addend: 0x0, symName: __ZNKSt3__112basic_stringIcNS_11char_traitsIcEENS_9allocatorIcEEE17__annotate_deleteB8ne180100Ev, symObjAddr: 0x6A10, symBinAddr: 0x1000090F4, symSize: 0x10 }
  - { offset: 0xBC9CE, size: 0x8, addend: 0x0, symName: __ZNSt3__122__compressed_pair_elemINS_12basic_stringIcNS_11char_traitsIcEENS_9allocatorIcEEE5__repELi0ELb0EE5__getB8ne180100Ev, symObjAddr: 0x6A20, symBinAddr: 0x100009104, symSize: 0x14 }
  - { offset: 0xBC9F4, size: 0x8, addend: 0x0, symName: __ZNKSt3__117__compressed_pairINS_12basic_stringIcNS_11char_traitsIcEENS_9allocatorIcEEE5__repES5_E5firstB8ne180100Ev, symObjAddr: 0x6A34, symBinAddr: 0x100009118, symSize: 0x24 }
  - { offset: 0xBCA1A, size: 0x8, addend: 0x0, symName: __ZNKSt3__122__compressed_pair_elemINS_12basic_stringIcNS_11char_traitsIcEENS_9allocatorIcEEE5__repELi0ELb0EE5__getB8ne180100Ev, symObjAddr: 0x6A58, symBinAddr: 0x10000913C, symSize: 0x14 }
  - { offset: 0xBCA40, size: 0x8, addend: 0x0, symName: __ZNKSt3__112basic_stringIcNS_11char_traitsIcEENS_9allocatorIcEEE15__get_long_sizeB8ne180100Ev, symObjAddr: 0x6A6C, symBinAddr: 0x100009150, symSize: 0x28 }
  - { offset: 0xBCA66, size: 0x8, addend: 0x0, symName: __ZNKSt3__112basic_stringIcNS_11char_traitsIcEENS_9allocatorIcEEE16__get_short_sizeB8ne180100Ev, symObjAddr: 0x6A94, symBinAddr: 0x100009178, symSize: 0x34 }
  - { offset: 0xBCA8C, size: 0x8, addend: 0x0, symName: __ZNSt3__112basic_stringIcNS_11char_traitsIcEENS_9allocatorIcEEE6appendB8ne180100ERKS5_, symObjAddr: 0x6AC8, symBinAddr: 0x1000091AC, symSize: 0x4C }
  - { offset: 0xBCAC1, size: 0x8, addend: 0x0, symName: __ZNKSt3__112basic_stringIcNS_11char_traitsIcEENS_9allocatorIcEEE4dataB8ne180100Ev, symObjAddr: 0x6B14, symBinAddr: 0x1000091F8, symSize: 0x28 }
  - { offset: 0xBCAE7, size: 0x8, addend: 0x0, symName: __ZNKSt3__112basic_stringIcNS_11char_traitsIcEENS_9allocatorIcEEE13__get_pointerB8ne180100Ev, symObjAddr: 0x6B50, symBinAddr: 0x100009234, symSize: 0x54 }
  - { offset: 0xBCB0D, size: 0x8, addend: 0x0, symName: __ZNKSt3__112basic_stringIcNS_11char_traitsIcEENS_9allocatorIcEEE18__get_long_pointerB8ne180100Ev, symObjAddr: 0x6BA4, symBinAddr: 0x100009288, symSize: 0x28 }
  - { offset: 0xBCB33, size: 0x8, addend: 0x0, symName: __ZNKSt3__112basic_stringIcNS_11char_traitsIcEENS_9allocatorIcEEE19__get_short_pointerB8ne180100Ev, symObjAddr: 0x6BCC, symBinAddr: 0x1000092B0, symSize: 0x28 }
  - { offset: 0xBCB59, size: 0x8, addend: 0x0, symName: __ZNSt3__114pointer_traitsIPKcE10pointer_toB8ne180100ERS1_, symObjAddr: 0x6BF4, symBinAddr: 0x1000092D8, symSize: 0x14 }
  - { offset: 0xBCB7C, size: 0x8, addend: 0x0, symName: __ZNSt3__17complexIfEC2B8ne180100Eff, symObjAddr: 0x6C08, symBinAddr: 0x1000092EC, symSize: 0x2C }
  - { offset: 0xBCBC4, size: 0x8, addend: 0x0, symName: __ZN5Eigen6MatrixINSt3__17complexIfEELin1ELin1ELi0ELin1ELin1EED2Ev, symObjAddr: 0x6C34, symBinAddr: 0x100009318, symSize: 0x2C }
  - { offset: 0xBCBF0, size: 0x8, addend: 0x0, symName: __ZN5Eigen15PlainObjectBaseINS_6MatrixINSt3__17complexIfEELin1ELin1ELi0ELin1ELin1EEEED2Ev, symObjAddr: 0x6C60, symBinAddr: 0x100009344, symSize: 0x2C }
  - { offset: 0xBCC1C, size: 0x8, addend: 0x0, symName: __ZN5Eigen12DenseStorageINSt3__17complexIfEELin1ELin1ELin1ELi0EED1Ev, symObjAddr: 0x6C8C, symBinAddr: 0x100009370, symSize: 0x2C }
  - { offset: 0xBCC46, size: 0x8, addend: 0x0, symName: __ZN5Eigen12DenseStorageINSt3__17complexIfEELin1ELin1ELin1ELi0EED2Ev, symObjAddr: 0x6CB8, symBinAddr: 0x10000939C, symSize: 0x44 }
  - { offset: 0xBCC70, size: 0x8, addend: 0x0, symName: __ZNK5Eigen9EigenBaseINS_6MatrixINSt3__17complexIfEELin1ELi1ELi0ELin1ELi1EEEE4rowsEv, symObjAddr: 0x6D6C, symBinAddr: 0x100009450, symSize: 0x38 }
  - { offset: 0xBCC96, size: 0x8, addend: 0x0, symName: __ZNK5Eigen9EigenBaseINS_6MatrixINSt3__17complexIfEELin1ELi1ELi0ELin1ELi1EEEE4colsEv, symObjAddr: 0x6DA4, symBinAddr: 0x100009488, symSize: 0x28 }
  - { offset: 0xBCCBC, size: 0x8, addend: 0x0, symName: __ZNK5Eigen9EigenBaseINS_6MatrixINSt3__17complexIfEELin1ELi1ELi0ELin1ELi1EEEE7derivedEv, symObjAddr: 0x6DCC, symBinAddr: 0x1000094B0, symSize: 0x14 }
  - { offset: 0xBCCE2, size: 0x8, addend: 0x0, symName: __ZNK5Eigen15PlainObjectBaseINS_6MatrixINSt3__17complexIfEELin1ELi1ELi0ELin1ELi1EEEE4rowsEv, symObjAddr: 0x6DE0, symBinAddr: 0x1000094C4, symSize: 0x24 }
  - { offset: 0xBCD08, size: 0x8, addend: 0x0, symName: __ZNK5Eigen12DenseStorageINSt3__17complexIfEELin1ELin1ELi1ELi0EE4rowsEv, symObjAddr: 0x6E04, symBinAddr: 0x1000094E8, symSize: 0x18 }
  - { offset: 0xBCD2E, size: 0x8, addend: 0x0, symName: __ZNK5Eigen15PlainObjectBaseINS_6MatrixINSt3__17complexIfEELin1ELi1ELi0ELin1ELi1EEEE4colsEv, symObjAddr: 0x6E1C, symBinAddr: 0x100009500, symSize: 0x30 }
  - { offset: 0xBCD54, size: 0x8, addend: 0x0, symName: __ZN5Eigen12DenseStorageINSt3__17complexIfEELin1ELin1ELi1ELi0EE4colsEv, symObjAddr: 0x6E4C, symBinAddr: 0x100009530, symSize: 0x8 }
  - { offset: 0xBCD68, size: 0x8, addend: 0x0, symName: __ZN5boost9unordered19concurrent_flat_mapINSt3__112basic_stringIcNS2_11char_traitsIcEENS2_9allocatorIcEEEEN5Eigen6MatrixINS2_7complexIfEELin1ELi1ELi0ELin1ELi1EEENS_4hashIS8_EENS2_8equal_toIS8_EENS6_INS2_4pairIKS8_SD_EEEEED2Ev, symObjAddr: 0x6E54, symBinAddr: 0x100009538, symSize: 0x2C }
  - { offset: 0xBCD92, size: 0x8, addend: 0x0, symName: __ZN5boost9unordered6detail3foa16concurrent_tableINS2_14flat_map_typesINSt3__112basic_stringIcNS5_11char_traitsIcEENS5_9allocatorIcEEEEN5Eigen6MatrixINS5_7complexIfEELin1ELi1ELi0ELin1ELi1EEEEENS_4hashISB_EENS5_8equal_toISB_EENS9_INS5_4pairIKSB_SG_EEEEED1Ev, symObjAddr: 0x6E80, symBinAddr: 0x100009564, symSize: 0x2C }
  - { offset: 0xBCDBC, size: 0x8, addend: 0x0, symName: __ZN5boost9unordered6detail3foa16concurrent_tableINS2_14flat_map_typesINSt3__112basic_stringIcNS5_11char_traitsIcEENS5_9allocatorIcEEEEN5Eigen6MatrixINS5_7complexIfEELin1ELi1ELi0ELin1ELi1EEEEENS_4hashISB_EENS5_8equal_toISB_EENS9_INS5_4pairIKSB_SG_EEEEED2Ev, symObjAddr: 0x6EAC, symBinAddr: 0x100009590, symSize: 0x38 }
  - { offset: 0xBCDE6, size: 0x8, addend: 0x0, symName: __ZN5boost9unordered6detail3foa10multimutexINS2_11rw_spinlockELm128EED1Ev, symObjAddr: 0x6EE4, symBinAddr: 0x1000095C8, symSize: 0x2C }
  - { offset: 0xBCE12, size: 0x8, addend: 0x0, symName: __ZN5boost9unordered6detail3foa10table_coreINS2_14flat_map_typesINSt3__112basic_stringIcNS5_11char_traitsIcEENS5_9allocatorIcEEEEN5Eigen6MatrixINS5_7complexIfEELin1ELi1ELi0ELin1ELi1EEEEENS2_7group15INS2_15atomic_integralEEENS2_23concurrent_table_arraysENS2_19atomic_size_controlENS_4hashISB_EENS5_8equal_toISB_EENS9_INS5_4pairIKSB_SG_EEEEED2Ev, symObjAddr: 0x6F10, symBinAddr: 0x1000095F4, symSize: 0x48 }
  - { offset: 0xBCE65, size: 0x8, addend: 0x0, symName: __ZN5boost9unordered6detail3foa10multimutexINS2_11rw_spinlockELm128EED2Ev, symObjAddr: 0x6F58, symBinAddr: 0x10000963C, symSize: 0x2C }
  - { offset: 0xBCE91, size: 0x8, addend: 0x0, symName: __ZN5boost9unordered6detail3foa19cache_aligned_arrayINS2_11rw_spinlockELm128EED1Ev, symObjAddr: 0x6F84, symBinAddr: 0x100009668, symSize: 0x2C }
  - { offset: 0xBCEBB, size: 0x8, addend: 0x0, symName: __ZN5boost9unordered6detail3foa19cache_aligned_arrayINS2_11rw_spinlockELm128EED2Ev, symObjAddr: 0x6FB0, symBinAddr: 0x100009694, symSize: 0x64 }
  - { offset: 0xBCF01, size: 0x8, addend: 0x0, symName: __ZN5boost9unordered6detail3foa19cache_aligned_arrayINS2_11rw_spinlockELm128EE4dataEm, symObjAddr: 0x7014, symBinAddr: 0x1000096F8, symSize: 0x34 }
  - { offset: 0xBCF3A, size: 0x8, addend: 0x0, symName: __ZNK5boost9unordered6detail3foa10table_coreINS2_14flat_map_typesINSt3__112basic_stringIcNS5_11char_traitsIcEENS5_9allocatorIcEEEEN5Eigen6MatrixINS5_7complexIfEELin1ELi1ELi0ELin1ELi1EEEEENS2_7group15INS2_15atomic_integralEEENS2_23concurrent_table_arraysENS2_19atomic_size_controlENS_4hashISB_EENS5_8equal_toISB_EENS9_INS5_4pairIKSB_SG_EEEEE16for_all_elementsIZNSV_D1EvEUlPST_E_EEvT_, symObjAddr: 0x7048, symBinAddr: 0x10000972C, symSize: 0x34 }
  - { offset: 0xBCF78, size: 0x8, addend: 0x0, symName: __ZN5boost9unordered6detail3foa10table_coreINS2_14flat_map_typesINSt3__112basic_stringIcNS5_11char_traitsIcEENS5_9allocatorIcEEEEN5Eigen6MatrixINS5_7complexIfEELin1ELi1ELi0ELin1ELi1EEEEENS2_7group15INS2_15atomic_integralEEENS2_23concurrent_table_arraysENS2_19atomic_size_controlENS_4hashISB_EENS5_8equal_toISB_EENS9_INS5_4pairIKSB_SG_EEEEE13delete_arraysERNSL_IST_SK_NS2_16pow2_size_policyESU_EE, symObjAddr: 0x707C, symBinAddr: 0x100009760, symSize: 0x3C }
  - { offset: 0xBCFAD, size: 0x8, addend: 0x0, symName: __ZN5boost9unordered6detail3foa10table_coreINS2_14flat_map_typesINSt3__112basic_stringIcNS5_11char_traitsIcEENS5_9allocatorIcEEEEN5Eigen6MatrixINS5_7complexIfEELin1ELi1ELi0ELin1ELi1EEEEENS2_7group15INS2_15atomic_integralEEENS2_23concurrent_table_arraysENS2_19atomic_size_controlENS_4hashISB_EENS5_8equal_toISB_EENS9_INS5_4pairIKSB_SG_EEEEE16for_all_elementsIZNSV_D1EvEUlPST_E_EEDTcmclfp0_LDnEEcvv_EERKNSL_IST_SK_NS2_16pow2_size_policyESU_EET_, symObjAddr: 0x70B8, symBinAddr: 0x10000979C, symSize: 0x34 }
  - { offset: 0xBD01C, size: 0x8, addend: 0x0, symName: __ZN5boost9unordered6detail3foa10table_coreINS2_14flat_map_typesINSt3__112basic_stringIcNS5_11char_traitsIcEENS5_9allocatorIcEEEEN5Eigen6MatrixINS5_7complexIfEELin1ELi1ELi0ELin1ELi1EEEEENS2_7group15INS2_15atomic_integralEEENS2_23concurrent_table_arraysENS2_19atomic_size_controlENS_4hashISB_EENS5_8equal_toISB_EENS9_INS5_4pairIKSB_SG_EEEEE22for_all_elements_whileIZNSV_16for_all_elementsIZNSV_D1EvEUlPST_E_EEDTcmclfp0_LDnEEcvv_EERKNSL_IST_SK_NS2_16pow2_size_policyESU_EET_EUlSY_E_EES10_S14_S15_, symObjAddr: 0x70EC, symBinAddr: 0x1000097D0, symSize: 0x38 }
  - { offset: 0xBD095, size: 0x8, addend: 0x0, symName: __ZN5boost9unordered6detail3foa10table_coreINS2_14flat_map_typesINSt3__112basic_stringIcNS5_11char_traitsIcEENS5_9allocatorIcEEEEN5Eigen6MatrixINS5_7complexIfEELin1ELi1ELi0ELin1ELi1EEEEENS2_7group15INS2_15atomic_integralEEENS2_23concurrent_table_arraysENS2_19atomic_size_controlENS_4hashISB_EENS5_8equal_toISB_EENS9_INS5_4pairIKSB_SG_EEEEE22for_all_elements_whileIZNSV_22for_all_elements_whileIZNSV_16for_all_elementsIZNSV_D1EvEUlPST_E_EEDTcmclfp0_LDnEEcvv_EERKNSL_IST_SK_NS2_16pow2_size_policyESU_EET_EUlSZ_E_EES11_S15_S16_EUlPSK_jSZ_E_EEDTcmclfp0_LDnELi0ELDnEEcvv_EES15_S16_, symObjAddr: 0x7124, symBinAddr: 0x100009808, symSize: 0x14C }
  - { offset: 0xBD146, size: 0x8, addend: 0x0, symName: __ZNK5boost9unordered6detail3foa12table_arraysINSt3__14pairIKNS4_12basic_stringIcNS4_11char_traitsIcEENS4_9allocatorIcEEEEN5Eigen6MatrixINS4_7complexIfEELin1ELi1ELi0ELin1ELi1EEEEENS2_7group15INS2_15atomic_integralEEENS2_16pow2_size_policyENS9_ISI_EEE8elementsEv, symObjAddr: 0x7270, symBinAddr: 0x100009954, symSize: 0x28 }
  - { offset: 0xBD16C, size: 0x8, addend: 0x0, symName: __ZNK5boost9unordered6detail3foa12table_arraysINSt3__14pairIKNS4_12basic_stringIcNS4_11char_traitsIcEENS4_9allocatorIcEEEEN5Eigen6MatrixINS4_7complexIfEELin1ELi1ELi0ELin1ELi1EEEEENS2_7group15INS2_15atomic_integralEEENS2_16pow2_size_policyENS9_ISI_EEE6groupsEv, symObjAddr: 0x7298, symBinAddr: 0x10000997C, symSize: 0x28 }
  - { offset: 0xBD192, size: 0x8, addend: 0x0, symName: __ZN5boost9unordered6detail3foa10table_coreINS2_14flat_map_typesINSt3__112basic_stringIcNS5_11char_traitsIcEENS5_9allocatorIcEEEEN5Eigen6MatrixINS5_7complexIfEELin1ELi1ELi0ELin1ELi1EEEEENS2_7group15INS2_15atomic_integralEEENS2_23concurrent_table_arraysENS2_19atomic_size_controlENS_4hashISB_EENS5_8equal_toISB_EENS9_INS5_4pairIKSB_SG_EEEEE21match_really_occupiedEPSK_SW_, symObjAddr: 0x72C0, symBinAddr: 0x1000099A4, symSize: 0x44 }
  - { offset: 0xBD1CF, size: 0x8, addend: 0x0, symName: __ZZN5boost9unordered6detail3foa10table_coreINS2_14flat_map_typesINSt3__112basic_stringIcNS5_11char_traitsIcEENS5_9allocatorIcEEEEN5Eigen6MatrixINS5_7complexIfEELin1ELi1ELi0ELin1ELi1EEEEENS2_7group15INS2_15atomic_integralEEENS2_23concurrent_table_arraysENS2_19atomic_size_controlENS_4hashISB_EENS5_8equal_toISB_EENS9_INS5_4pairIKSB_SG_EEEEE22for_all_elements_whileIZNSV_16for_all_elementsIZNSV_D1EvEUlPST_E_EEDTcmclfp0_LDnEEcvv_EERKNSL_IST_SK_NS2_16pow2_size_policyESU_EET_EUlSY_E_EES10_S14_S15_ENKUlPSK_jSY_E_clES17_jSY_, symObjAddr: 0x7360, symBinAddr: 0x100009A44, symSize: 0x3C }
  - { offset: 0xBD21E, size: 0x8, addend: 0x0, symName: __ZNK5boost9unordered6detail3foa7group15INS2_15atomic_integralEE14match_occupiedEv, symObjAddr: 0x73C4, symBinAddr: 0x100009AA8, symSize: 0x12C }
  - { offset: 0xBD244, size: 0x8, addend: 0x0, symName: __ZNK5boost9unordered6detail3foa7group15INS2_15atomic_integralEE13load_metadataEv, symObjAddr: 0x7600, symBinAddr: 0x100009CE4, symSize: 0x28 }
  - { offset: 0xBD291, size: 0x8, addend: 0x0, symName: __ZZN5boost9unordered6detail3foa10table_coreINS2_14flat_map_typesINSt3__112basic_stringIcNS5_11char_traitsIcEENS5_9allocatorIcEEEEN5Eigen6MatrixINS5_7complexIfEELin1ELi1ELi0ELin1ELi1EEEEENS2_7group15INS2_15atomic_integralEEENS2_23concurrent_table_arraysENS2_19atomic_size_controlENS_4hashISB_EENS5_8equal_toISB_EENS9_INS5_4pairIKSB_SG_EEEEE16for_all_elementsIZNSV_D1EvEUlPST_E_EEDTcmclfp0_LDnEEcvv_EERKNSL_IST_SK_NS2_16pow2_size_policyESU_EET_ENKUlSX_E_clESX_, symObjAddr: 0x7694, symBinAddr: 0x100009D78, symSize: 0x38 }
  - { offset: 0xBD2D4, size: 0x8, addend: 0x0, symName: __ZZN5boost9unordered6detail3foa10table_coreINS2_14flat_map_typesINSt3__112basic_stringIcNS5_11char_traitsIcEENS5_9allocatorIcEEEEN5Eigen6MatrixINS5_7complexIfEELin1ELi1ELi0ELin1ELi1EEEEENS2_7group15INS2_15atomic_integralEEENS2_23concurrent_table_arraysENS2_19atomic_size_controlENS_4hashISB_EENS5_8equal_toISB_EENS9_INS5_4pairIKSB_SG_EEEEED1EvENKUlPST_E_clESW_, symObjAddr: 0x76CC, symBinAddr: 0x100009DB0, symSize: 0x30 }
  - { offset: 0xBD30D, size: 0x8, addend: 0x0, symName: __ZN5boost9unordered6detail3foa10table_coreINS2_14flat_map_typesINSt3__112basic_stringIcNS5_11char_traitsIcEENS5_9allocatorIcEEEEN5Eigen6MatrixINS5_7complexIfEELin1ELi1ELi0ELin1ELi1EEEEENS2_7group15INS2_15atomic_integralEEENS2_23concurrent_table_arraysENS2_19atomic_size_controlENS_4hashISB_EENS5_8equal_toISB_EENS9_INS5_4pairIKSB_SG_EEEEE15destroy_elementEPST_, symObjAddr: 0x76FC, symBinAddr: 0x100009DE0, symSize: 0x40 }
  - { offset: 0xBD347, size: 0x8, addend: 0x0, symName: __ZN5boost9unordered6detail3foa14flat_map_typesINSt3__112basic_stringIcNS4_11char_traitsIcEENS4_9allocatorIcEEEEN5Eigen6MatrixINS4_7complexIfEELin1ELi1ELi0ELin1ELi1EEEE7destroyINS8_INS4_4pairIKSA_SF_EEEEEEvRT_PSK_, symObjAddr: 0x773C, symBinAddr: 0x100009E20, symSize: 0x34 }
  - { offset: 0xBD381, size: 0x8, addend: 0x0, symName: __ZN5boost9unordered6detail3foa10table_coreINS2_14flat_map_typesINSt3__112basic_stringIcNS5_11char_traitsIcEENS5_9allocatorIcEEEEN5Eigen6MatrixINS5_7complexIfEELin1ELi1ELi0ELin1ELi1EEEEENS2_7group15INS2_15atomic_integralEEENS2_23concurrent_table_arraysENS2_19atomic_size_controlENS_4hashISB_EENS5_8equal_toISB_EENS9_INS5_4pairIKSB_SG_EEEEE2alEv, symObjAddr: 0x7770, symBinAddr: 0x100009E54, symSize: 0x24 }
  - { offset: 0xBD3A7, size: 0x8, addend: 0x0, symName: __ZNSt3__14pairIKNS_12basic_stringIcNS_11char_traitsIcEENS_9allocatorIcEEEEN5Eigen6MatrixINS_7complexIfEELin1ELi1ELi0ELin1ELi1EEEED1Ev, symObjAddr: 0x77BC, symBinAddr: 0x100009EA0, symSize: 0x2C }
  - { offset: 0xBD3D3, size: 0x8, addend: 0x0, symName: __ZNSt3__14pairIKNS_12basic_stringIcNS_11char_traitsIcEENS_9allocatorIcEEEEN5Eigen6MatrixINS_7complexIfEELin1ELi1ELi0ELin1ELi1EEEED2Ev, symObjAddr: 0x77E8, symBinAddr: 0x100009ECC, symSize: 0x38 }
  - { offset: 0xBD3FF, size: 0x8, addend: 0x0, symName: __ZN5Eigen6MatrixINSt3__17complexIfEELin1ELi1ELi0ELin1ELi1EED1Ev, symObjAddr: 0x7820, symBinAddr: 0x100009F04, symSize: 0x2C }
  - { offset: 0xBD42B, size: 0x8, addend: 0x0, symName: __ZN5Eigen6MatrixINSt3__17complexIfEELin1ELi1ELi0ELin1ELi1EED2Ev, symObjAddr: 0x784C, symBinAddr: 0x100009F30, symSize: 0x2C }
  - { offset: 0xBD457, size: 0x8, addend: 0x0, symName: __ZN5Eigen15PlainObjectBaseINS_6MatrixINSt3__17complexIfEELin1ELi1ELi0ELin1ELi1EEEED2Ev, symObjAddr: 0x7878, symBinAddr: 0x100009F5C, symSize: 0x2C }
  - { offset: 0xBD483, size: 0x8, addend: 0x0, symName: __ZN5Eigen12DenseStorageINSt3__17complexIfEELin1ELin1ELi1ELi0EED1Ev, symObjAddr: 0x78A4, symBinAddr: 0x100009F88, symSize: 0x2C }
  - { offset: 0xBD4AD, size: 0x8, addend: 0x0, symName: __ZN5Eigen12DenseStorageINSt3__17complexIfEELin1ELin1ELi1ELi0EED2Ev, symObjAddr: 0x78D0, symBinAddr: 0x100009FB4, symSize: 0x44 }
  - { offset: 0xBD4D7, size: 0x8, addend: 0x0, symName: __ZN5boost6empty_11empty_valueINSt3__19allocatorINS2_4pairIKNS2_12basic_stringIcNS2_11char_traitsIcEENS3_IcEEEEN5Eigen6MatrixINS2_7complexIfEELin1ELi1ELi0ELin1ELi1EEEEEEELj2ELb1EE3getEv, symObjAddr: 0x7914, symBinAddr: 0x100009FF8, symSize: 0x14 }
  - { offset: 0xBD4FD, size: 0x8, addend: 0x0, symName: __ZN5boost9unordered6detail3foa23concurrent_table_arraysINSt3__14pairIKNS4_12basic_stringIcNS4_11char_traitsIcEENS4_9allocatorIcEEEEN5Eigen6MatrixINS4_7complexIfEELin1ELi1ELi0ELin1ELi1EEEEENS2_7group15INS2_15atomic_integralEEENS2_16pow2_size_policyENS9_ISI_EEE7delete_ENS9_INS2_12group_accessEEERSO_, symObjAddr: 0x7928, symBinAddr: 0x10000A00C, symSize: 0x38 }
  - { offset: 0xBD530, size: 0x8, addend: 0x0, symName: __ZNSt3__19allocatorIN5boost9unordered6detail3foa12group_accessEEC1B8ne180100INS_4pairIKNS_12basic_stringIcNS_11char_traitsIcEENS0_IcEEEEN5Eigen6MatrixINS_7complexIfEELin1ELi1ELi0ELin1ELi1EEEEEEERKNS0_IT_EE, symObjAddr: 0x7960, symBinAddr: 0x10000A044, symSize: 0x34 }
  - { offset: 0xBD56E, size: 0x8, addend: 0x0, symName: __ZN5boost9unordered6detail3foa23concurrent_table_arraysINSt3__14pairIKNS4_12basic_stringIcNS4_11char_traitsIcEENS4_9allocatorIcEEEEN5Eigen6MatrixINS4_7complexIfEELin1ELi1ELi0ELin1ELi1EEEEENS2_7group15INS2_15atomic_integralEEENS2_16pow2_size_policyENS9_ISI_EEE19delete_group_accessENS9_INS2_12group_accessEEERSO_, symObjAddr: 0x7994, symBinAddr: 0x10000A078, symSize: 0x5C }
  - { offset: 0xBD5A1, size: 0x8, addend: 0x0, symName: __ZN5boost9unordered6detail3foa12table_arraysINSt3__14pairIKNS4_12basic_stringIcNS4_11char_traitsIcEENS4_9allocatorIcEEEEN5Eigen6MatrixINS4_7complexIfEELin1ELi1ELi0ELin1ELi1EEEEENS2_7group15INS2_15atomic_integralEEENS2_16pow2_size_policyENS9_ISI_EEE7delete_ESN_RSO_, symObjAddr: 0x79F0, symBinAddr: 0x10000A0D4, symSize: 0x74 }
  - { offset: 0xBD5ED, size: 0x8, addend: 0x0, symName: __ZNSt3__19allocatorINS_4pairIKNS_12basic_stringIcNS_11char_traitsIcEENS0_IcEEEEN5Eigen6MatrixINS_7complexIfEELin1ELi1ELi0ELin1ELi1EEEEEEC1B8ne180100IN5boost9unordered6detail3foa12group_accessEEERKNS0_IT_EE, symObjAddr: 0x7A64, symBinAddr: 0x10000A148, symSize: 0x34 }
  - { offset: 0xBD62B, size: 0x8, addend: 0x0, symName: __ZNSt3__19allocatorIN5boost9unordered6detail3foa12group_accessEE10deallocateB8ne180100EPS5_m, symObjAddr: 0x7ACC, symBinAddr: 0x10000A1B0, symSize: 0x40 }
  - { offset: 0xBD66D, size: 0x8, addend: 0x0, symName: __ZN5boost16allocator_traitsINSt3__19allocatorINS1_4pairIKNS1_12basic_stringIcNS1_11char_traitsIcEENS2_IcEEEEN5Eigen6MatrixINS1_7complexIfEELin1ELi1ELi0ELin1ELi1EEEEEEEE10deallocateERSG_PSF_m, symObjAddr: 0x7C34, symBinAddr: 0x10000A318, symSize: 0x34 }
  - { offset: 0xBD6AC, size: 0x8, addend: 0x0, symName: __ZN5boost9unordered6detail3foa12table_arraysINSt3__14pairIKNS4_12basic_stringIcNS4_11char_traitsIcEENS4_9allocatorIcEEEEN5Eigen6MatrixINS4_7complexIfEELin1ELi1ELi0ELin1ELi1EEEEENS2_7group15INS2_15atomic_integralEEENS2_16pow2_size_policyENS9_ISI_EEE11buffer_sizeEm, symObjAddr: 0x7C68, symBinAddr: 0x10000A34C, symSize: 0x54 }
  - { offset: 0xBD6DF, size: 0x8, addend: 0x0, symName: __ZNSt3__19allocatorINS_4pairIKNS_12basic_stringIcNS_11char_traitsIcEENS0_IcEEEEN5Eigen6MatrixINS_7complexIfEELin1ELi1ELi0ELin1ELi1EEEEEE10deallocateB8ne180100EPSD_m, symObjAddr: 0x7CF0, symBinAddr: 0x10000A3D4, symSize: 0x44 }
  - { offset: 0xBD721, size: 0x8, addend: 0x0, symName: __ZNSt3__19allocatorINS_4pairIKNS_12basic_stringIcNS_11char_traitsIcEENS0_IcEEEEN5Eigen6MatrixINS_7complexIfEELin1ELi1ELi0ELin1ELi1EEEEEEC2B8ne180100IN5boost9unordered6detail3foa12group_accessEEERKNS0_IT_EE, symObjAddr: 0x7D34, symBinAddr: 0x10000A418, symSize: 0x30 }
  - { offset: 0xBD75F, size: 0x8, addend: 0x0, symName: __ZNSt3__116__non_trivial_ifILb1ENS_9allocatorINS_4pairIKNS_12basic_stringIcNS_11char_traitsIcEENS1_IcEEEEN5Eigen6MatrixINS_7complexIfEELin1ELi1ELi0ELin1ELi1EEEEEEEEC2B8ne180100Ev, symObjAddr: 0x7D64, symBinAddr: 0x10000A448, symSize: 0x14 }
  - { offset: 0xBD789, size: 0x8, addend: 0x0, symName: __ZNSt3__19allocatorIN5boost9unordered6detail3foa12group_accessEEC2B8ne180100INS_4pairIKNS_12basic_stringIcNS_11char_traitsIcEENS0_IcEEEEN5Eigen6MatrixINS_7complexIfEELin1ELi1ELi0ELin1ELi1EEEEEEERKNS0_IT_EE, symObjAddr: 0x7D78, symBinAddr: 0x10000A45C, symSize: 0x30 }
  - { offset: 0xBD7C7, size: 0x8, addend: 0x0, symName: __ZNSt3__116__non_trivial_ifILb1ENS_9allocatorIN5boost9unordered6detail3foa12group_accessEEEEC2B8ne180100Ev, symObjAddr: 0x7DA8, symBinAddr: 0x10000A48C, symSize: 0x14 }
  - { offset: 0xBD7F1, size: 0x8, addend: 0x0, symName: __ZNSt3__16vectorINS_12basic_stringIcNS_11char_traitsIcEENS_9allocatorIcEEEENS4_IS6_EEED2B8ne180100Ev, symObjAddr: 0x7DBC, symBinAddr: 0x10000A4A0, symSize: 0x44 }
  - { offset: 0xBD81B, size: 0x8, addend: 0x0, symName: __ZNSt3__16vectorINS_12basic_stringIcNS_11char_traitsIcEENS_9allocatorIcEEEENS4_IS6_EEE16__destroy_vectorC1B8ne180100ERS8_, symObjAddr: 0x7E00, symBinAddr: 0x10000A4E4, symSize: 0x34 }
  - { offset: 0xBD854, size: 0x8, addend: 0x0, symName: __ZNSt3__16vectorINS_12basic_stringIcNS_11char_traitsIcEENS_9allocatorIcEEEENS4_IS6_EEE16__destroy_vectorclB8ne180100Ev, symObjAddr: 0x7E34, symBinAddr: 0x10000A518, symSize: 0x90 }
  - { offset: 0xBD87A, size: 0x8, addend: 0x0, symName: __ZNSt3__16vectorINS_12basic_stringIcNS_11char_traitsIcEENS_9allocatorIcEEEENS4_IS6_EEE16__destroy_vectorC2B8ne180100ERS8_, symObjAddr: 0x7EC4, symBinAddr: 0x10000A5A8, symSize: 0x20 }
  - { offset: 0xBD8B3, size: 0x8, addend: 0x0, symName: __ZNSt3__16vectorINS_12basic_stringIcNS_11char_traitsIcEENS_9allocatorIcEEEENS4_IS6_EEE7__clearB8ne180100Ev, symObjAddr: 0x7EE4, symBinAddr: 0x10000A5C8, symSize: 0x28 }
  - { offset: 0xBD8D9, size: 0x8, addend: 0x0, symName: __ZNKSt3__16vectorINS_12basic_stringIcNS_11char_traitsIcEENS_9allocatorIcEEEENS4_IS6_EEE17__annotate_deleteB8ne180100Ev, symObjAddr: 0x7F0C, symBinAddr: 0x10000A5F0, symSize: 0x10 }
  - { offset: 0xBD8FF, size: 0x8, addend: 0x0, symName: __ZNSt3__116allocator_traitsINS_9allocatorINS_12basic_stringIcNS_11char_traitsIcEENS1_IcEEEEEEE10deallocateB8ne180100ERS7_PS6_m, symObjAddr: 0x7F1C, symBinAddr: 0x10000A600, symSize: 0x34 }
  - { offset: 0xBD941, size: 0x8, addend: 0x0, symName: __ZNSt3__16vectorINS_12basic_stringIcNS_11char_traitsIcEENS_9allocatorIcEEEENS4_IS6_EEE7__allocB8ne180100Ev, symObjAddr: 0x7F50, symBinAddr: 0x10000A634, symSize: 0x28 }
  - { offset: 0xBD967, size: 0x8, addend: 0x0, symName: __ZNKSt3__16vectorINS_12basic_stringIcNS_11char_traitsIcEENS_9allocatorIcEEEENS4_IS6_EEE8capacityB8ne180100Ev, symObjAddr: 0x7F78, symBinAddr: 0x10000A65C, symSize: 0x40 }
  - { offset: 0xBD98D, size: 0x8, addend: 0x0, symName: __ZNSt3__16vectorINS_12basic_stringIcNS_11char_traitsIcEENS_9allocatorIcEEEENS4_IS6_EEE22__base_destruct_at_endB8ne180100EPS6_, symObjAddr: 0x7FB8, symBinAddr: 0x10000A69C, symSize: 0x8C }
  - { offset: 0xBD9D1, size: 0x8, addend: 0x0, symName: __ZNSt3__116allocator_traitsINS_9allocatorINS_12basic_stringIcNS_11char_traitsIcEENS1_IcEEEEEEE7destroyB8ne180100IS6_vvEEvRS7_PT_, symObjAddr: 0x8044, symBinAddr: 0x10000A728, symSize: 0x28 }
  - { offset: 0xBDA0B, size: 0x8, addend: 0x0, symName: __ZNSt3__19allocatorINS_12basic_stringIcNS_11char_traitsIcEENS0_IcEEEEE10deallocateB8ne180100EPS5_m, symObjAddr: 0x80A4, symBinAddr: 0x10000A788, symSize: 0x44 }
  - { offset: 0xBDA4D, size: 0x8, addend: 0x0, symName: __ZNSt3__117__compressed_pairIPNS_12basic_stringIcNS_11char_traitsIcEENS_9allocatorIcEEEENS4_IS6_EEE6secondB8ne180100Ev, symObjAddr: 0x80E8, symBinAddr: 0x10000A7CC, symSize: 0x24 }
  - { offset: 0xBDA73, size: 0x8, addend: 0x0, symName: __ZNSt3__122__compressed_pair_elemINS_9allocatorINS_12basic_stringIcNS_11char_traitsIcEENS1_IcEEEEEELi1ELb1EE5__getB8ne180100Ev, symObjAddr: 0x810C, symBinAddr: 0x10000A7F0, symSize: 0x14 }
  - { offset: 0xBDA99, size: 0x8, addend: 0x0, symName: __ZNKSt3__16vectorINS_12basic_stringIcNS_11char_traitsIcEENS_9allocatorIcEEEENS4_IS6_EEE9__end_capB8ne180100Ev, symObjAddr: 0x8120, symBinAddr: 0x10000A804, symSize: 0x28 }
  - { offset: 0xBDABF, size: 0x8, addend: 0x0, symName: __ZNKSt3__117__compressed_pairIPNS_12basic_stringIcNS_11char_traitsIcEENS_9allocatorIcEEEENS4_IS6_EEE5firstB8ne180100Ev, symObjAddr: 0x8148, symBinAddr: 0x10000A82C, symSize: 0x24 }
  - { offset: 0xBDAE5, size: 0x8, addend: 0x0, symName: __ZNKSt3__122__compressed_pair_elemIPNS_12basic_stringIcNS_11char_traitsIcEENS_9allocatorIcEEEELi0ELb0EE5__getB8ne180100Ev, symObjAddr: 0x816C, symBinAddr: 0x10000A850, symSize: 0x14 }
  - { offset: 0xBDB0B, size: 0x8, addend: 0x0, symName: __ZNSt3__16vectorIfNS_9allocatorIfEEED2B8ne180100Ev, symObjAddr: 0x8180, symBinAddr: 0x10000A864, symSize: 0x44 }
  - { offset: 0xBDB35, size: 0x8, addend: 0x0, symName: __ZNSt3__16vectorIfNS_9allocatorIfEEE16__destroy_vectorC1B8ne180100ERS3_, symObjAddr: 0x81C4, symBinAddr: 0x10000A8A8, symSize: 0x34 }
  - { offset: 0xBDB6E, size: 0x8, addend: 0x0, symName: __ZNSt3__16vectorIfNS_9allocatorIfEEE16__destroy_vectorclB8ne180100Ev, symObjAddr: 0x81F8, symBinAddr: 0x10000A8DC, symSize: 0x90 }
  - { offset: 0xBDB94, size: 0x8, addend: 0x0, symName: __ZNSt3__16vectorIfNS_9allocatorIfEEE16__destroy_vectorC2B8ne180100ERS3_, symObjAddr: 0x8288, symBinAddr: 0x10000A96C, symSize: 0x20 }
  - { offset: 0xBDBCD, size: 0x8, addend: 0x0, symName: __ZNSt3__16vectorIfNS_9allocatorIfEEE7__clearB8ne180100Ev, symObjAddr: 0x82A8, symBinAddr: 0x10000A98C, symSize: 0x28 }
  - { offset: 0xBDBF3, size: 0x8, addend: 0x0, symName: __ZNKSt3__16vectorIfNS_9allocatorIfEEE17__annotate_deleteB8ne180100Ev, symObjAddr: 0x82D0, symBinAddr: 0x10000A9B4, symSize: 0x10 }
  - { offset: 0xBDC19, size: 0x8, addend: 0x0, symName: __ZNSt3__116allocator_traitsINS_9allocatorIfEEE10deallocateB8ne180100ERS2_Pfm, symObjAddr: 0x82E0, symBinAddr: 0x10000A9C4, symSize: 0x34 }
  - { offset: 0xBDC5B, size: 0x8, addend: 0x0, symName: __ZNSt3__16vectorIfNS_9allocatorIfEEE7__allocB8ne180100Ev, symObjAddr: 0x8314, symBinAddr: 0x10000A9F8, symSize: 0x28 }
  - { offset: 0xBDC81, size: 0x8, addend: 0x0, symName: __ZNKSt3__16vectorIfNS_9allocatorIfEEE8capacityB8ne180100Ev, symObjAddr: 0x833C, symBinAddr: 0x10000AA20, symSize: 0x40 }
  - { offset: 0xBDCA7, size: 0x8, addend: 0x0, symName: __ZNSt3__16vectorIfNS_9allocatorIfEEE22__base_destruct_at_endB8ne180100EPf, symObjAddr: 0x837C, symBinAddr: 0x10000AA60, symSize: 0x8C }
  - { offset: 0xBDCEB, size: 0x8, addend: 0x0, symName: __ZNSt3__116allocator_traitsINS_9allocatorIfEEE7destroyB8ne180100IfvvEEvRS2_PT_, symObjAddr: 0x8408, symBinAddr: 0x10000AAEC, symSize: 0x28 }
  - { offset: 0xBDD25, size: 0x8, addend: 0x0, symName: __ZNSt3__19allocatorIfE10deallocateB8ne180100EPfm, symObjAddr: 0x8454, symBinAddr: 0x10000AB38, symSize: 0x40 }
  - { offset: 0xBDD67, size: 0x8, addend: 0x0, symName: __ZNSt3__117__compressed_pairIPfNS_9allocatorIfEEE6secondB8ne180100Ev, symObjAddr: 0x8494, symBinAddr: 0x10000AB78, symSize: 0x24 }
  - { offset: 0xBDD8D, size: 0x8, addend: 0x0, symName: __ZNSt3__122__compressed_pair_elemINS_9allocatorIfEELi1ELb1EE5__getB8ne180100Ev, symObjAddr: 0x84B8, symBinAddr: 0x10000AB9C, symSize: 0x14 }
  - { offset: 0xBDDB3, size: 0x8, addend: 0x0, symName: __ZNKSt3__16vectorIfNS_9allocatorIfEEE9__end_capB8ne180100Ev, symObjAddr: 0x84CC, symBinAddr: 0x10000ABB0, symSize: 0x28 }
  - { offset: 0xBDDD9, size: 0x8, addend: 0x0, symName: __ZNKSt3__117__compressed_pairIPfNS_9allocatorIfEEE5firstB8ne180100Ev, symObjAddr: 0x84F4, symBinAddr: 0x10000ABD8, symSize: 0x24 }
  - { offset: 0xBDDFF, size: 0x8, addend: 0x0, symName: __ZNKSt3__122__compressed_pair_elemIPfLi0ELb0EE5__getB8ne180100Ev, symObjAddr: 0x8518, symBinAddr: 0x10000ABFC, symSize: 0x14 }
  - { offset: 0xBDE25, size: 0x8, addend: 0x0, symName: __ZN4DataC2Ev, symObjAddr: 0x852C, symBinAddr: 0x10000AC10, symSize: 0x44 }
  - { offset: 0xBDE4F, size: 0x8, addend: 0x0, symName: __ZN5Eigen6MatrixINSt3__17complexIfEELin1ELin1ELi0ELin1ELin1EEC1Ev, symObjAddr: 0x8570, symBinAddr: 0x10000AC54, symSize: 0x2C }
  - { offset: 0xBDE79, size: 0x8, addend: 0x0, symName: __ZNSt3__113unordered_mapINS_12basic_stringIcNS_11char_traitsIcEENS_9allocatorIcEEEEN5Eigen6MatrixINS_7complexIfEELin1ELi1ELi0ELin1ELi1EEENS_4hashIS6_EENS_8equal_toIS6_EENS4_INS_4pairIKS6_SB_EEEEEC1B8ne180100Ev, symObjAddr: 0x859C, symBinAddr: 0x10000AC80, symSize: 0x2C }
  - { offset: 0xBDEA3, size: 0x8, addend: 0x0, symName: __ZNSt3__16vectorIN5Eigen6MatrixINS_7complexIfEELin1ELi1ELi0ELin1ELi1EEENS_9allocatorIS5_EEEC1B8ne180100Ev, symObjAddr: 0x85C8, symBinAddr: 0x10000ACAC, symSize: 0x2C }
  - { offset: 0xBDECD, size: 0x8, addend: 0x0, symName: __ZN5Eigen6MatrixINSt3__17complexIfEELin1ELin1ELi0ELin1ELin1EEC2Ev, symObjAddr: 0x85F4, symBinAddr: 0x10000ACD8, symSize: 0x58 }
  - { offset: 0xBDEF7, size: 0x8, addend: 0x0, symName: __ZN5Eigen15PlainObjectBaseINS_6MatrixINSt3__17complexIfEELin1ELin1ELi0ELin1ELin1EEEEC2Ev, symObjAddr: 0x864C, symBinAddr: 0x10000AD30, symSize: 0x34 }
  - { offset: 0xBDF21, size: 0x8, addend: 0x0, symName: __ZN5Eigen15PlainObjectBaseINS_6MatrixINSt3__17complexIfEELin1ELin1ELi0ELin1ELin1EEEE22_check_template_paramsEv, symObjAddr: 0x8680, symBinAddr: 0x10000AD64, symSize: 0x4 }
  - { offset: 0xBDF35, size: 0x8, addend: 0x0, symName: __ZN5Eigen10MatrixBaseINS_6MatrixINSt3__17complexIfEELin1ELin1ELi0ELin1ELin1EEEEC2Ev, symObjAddr: 0x8684, symBinAddr: 0x10000AD68, symSize: 0x2C }
  - { offset: 0xBDF5F, size: 0x8, addend: 0x0, symName: __ZN5Eigen12DenseStorageINSt3__17complexIfEELin1ELin1ELin1ELi0EEC1Ev, symObjAddr: 0x86B0, symBinAddr: 0x10000AD94, symSize: 0x2C }
  - { offset: 0xBDF89, size: 0x8, addend: 0x0, symName: __ZN5Eigen9DenseBaseINS_6MatrixINSt3__17complexIfEELin1ELin1ELi0ELin1ELin1EEEEC2Ev, symObjAddr: 0x86DC, symBinAddr: 0x10000ADC0, symSize: 0x14 }
  - { offset: 0xBDFB3, size: 0x8, addend: 0x0, symName: __ZN5Eigen12DenseStorageINSt3__17complexIfEELin1ELin1ELin1ELi0EEC2Ev, symObjAddr: 0x86F0, symBinAddr: 0x10000ADD4, symSize: 0x20 }
  - { offset: 0xBDFDD, size: 0x8, addend: 0x0, symName: __ZNSt3__113unordered_mapINS_12basic_stringIcNS_11char_traitsIcEENS_9allocatorIcEEEEN5Eigen6MatrixINS_7complexIfEELin1ELi1ELi0ELin1ELi1EEENS_4hashIS6_EENS_8equal_toIS6_EENS4_INS_4pairIKS6_SB_EEEEEC2B8ne180100Ev, symObjAddr: 0x8710, symBinAddr: 0x10000ADF4, symSize: 0x2C }
  - { offset: 0xBE007, size: 0x8, addend: 0x0, symName: __ZNSt3__112__hash_tableINS_17__hash_value_typeINS_12basic_stringIcNS_11char_traitsIcEENS_9allocatorIcEEEEN5Eigen6MatrixINS_7complexIfEELin1ELi1ELi0ELin1ELi1EEEEENS_22__unordered_map_hasherIS7_SD_NS_4hashIS7_EENS_8equal_toIS7_EELb1EEENS_21__unordered_map_equalIS7_SD_SI_SG_Lb1EEENS5_ISD_EEEC1Ev, symObjAddr: 0x873C, symBinAddr: 0x10000AE20, symSize: 0x2C }
  - { offset: 0xBE033, size: 0x8, addend: 0x0, symName: __ZNSt3__112__hash_tableINS_17__hash_value_typeINS_12basic_stringIcNS_11char_traitsIcEENS_9allocatorIcEEEEN5Eigen6MatrixINS_7complexIfEELin1ELi1ELi0ELin1ELi1EEEEENS_22__unordered_map_hasherIS7_SD_NS_4hashIS7_EENS_8equal_toIS7_EELb1EEENS_21__unordered_map_equalIS7_SD_SI_SG_Lb1EEENS5_ISD_EEEC2Ev, symObjAddr: 0x8768, symBinAddr: 0x10000AE4C, symSize: 0x7C }
  - { offset: 0xBE05F, size: 0x8, addend: 0x0, symName: __ZNSt3__110unique_ptrIA_PNS_16__hash_node_baseIPNS_11__hash_nodeINS_17__hash_value_typeINS_12basic_stringIcNS_11char_traitsIcEENS_9allocatorIcEEEEN5Eigen6MatrixINS_7complexIfEELin1ELi1ELi0ELin1ELi1EEEEEPvEEEENS_25__bucket_list_deallocatorINS7_ISK_EEEEEC1B8ne180100ILb1EvEEv, symObjAddr: 0x87E4, symBinAddr: 0x10000AEC8, symSize: 0x2C }
  - { offset: 0xBE094, size: 0x8, addend: 0x0, symName: __ZNSt3__117__compressed_pairINS_16__hash_node_baseIPNS_11__hash_nodeINS_17__hash_value_typeINS_12basic_stringIcNS_11char_traitsIcEENS_9allocatorIcEEEEN5Eigen6MatrixINS_7complexIfEELin1ELi1ELi0ELin1ELi1EEEEEPvEEEENS7_ISH_EEEC1B8ne180100ILb1EvEEv, symObjAddr: 0x8810, symBinAddr: 0x10000AEF4, symSize: 0x2C }
  - { offset: 0xBE0CF, size: 0x8, addend: 0x0, symName: __ZNSt3__117__compressed_pairImNS_22__unordered_map_hasherINS_12basic_stringIcNS_11char_traitsIcEENS_9allocatorIcEEEENS_17__hash_value_typeIS7_N5Eigen6MatrixINS_7complexIfEELin1ELi1ELi0ELin1ELi1EEEEENS_4hashIS7_EENS_8equal_toIS7_EELb1EEEEC1B8ne180100IiNS_18__default_init_tagEEEOT_OT0_, symObjAddr: 0x883C, symBinAddr: 0x10000AF20, symSize: 0x3C }
  - { offset: 0xBE12D, size: 0x8, addend: 0x0, symName: __ZNSt3__117__compressed_pairIfNS_21__unordered_map_equalINS_12basic_stringIcNS_11char_traitsIcEENS_9allocatorIcEEEENS_17__hash_value_typeIS7_N5Eigen6MatrixINS_7complexIfEELin1ELi1ELi0ELin1ELi1EEEEENS_8equal_toIS7_EENS_4hashIS7_EELb1EEEEC1B8ne180100IfNS_18__default_init_tagEEEOT_OT0_, symObjAddr: 0x8878, symBinAddr: 0x10000AF5C, symSize: 0x3C }
  - { offset: 0xBE185, size: 0x8, addend: 0x0, symName: __ZNSt3__110unique_ptrIA_PNS_16__hash_node_baseIPNS_11__hash_nodeINS_17__hash_value_typeINS_12basic_stringIcNS_11char_traitsIcEENS_9allocatorIcEEEEN5Eigen6MatrixINS_7complexIfEELin1ELi1ELi0ELin1ELi1EEEEEPvEEEENS_25__bucket_list_deallocatorINS7_ISK_EEEEEC2B8ne180100ILb1EvEEv, symObjAddr: 0x88B4, symBinAddr: 0x10000AF98, symSize: 0x3C }
  - { offset: 0xBE1C0, size: 0x8, addend: 0x0, symName: __ZNSt3__117__compressed_pairIPPNS_16__hash_node_baseIPNS_11__hash_nodeINS_17__hash_value_typeINS_12basic_stringIcNS_11char_traitsIcEENS_9allocatorIcEEEEN5Eigen6MatrixINS_7complexIfEELin1ELi1ELi0ELin1ELi1EEEEEPvEEEENS_25__bucket_list_deallocatorINS7_ISK_EEEEEC1B8ne180100INS_16__value_init_tagESR_EEOT_OT0_, symObjAddr: 0x88F0, symBinAddr: 0x10000AFD4, symSize: 0x3C }
  - { offset: 0xBE218, size: 0x8, addend: 0x0, symName: __ZNSt3__117__compressed_pairIPPNS_16__hash_node_baseIPNS_11__hash_nodeINS_17__hash_value_typeINS_12basic_stringIcNS_11char_traitsIcEENS_9allocatorIcEEEEN5Eigen6MatrixINS_7complexIfEELin1ELi1ELi0ELin1ELi1EEEEEPvEEEENS_25__bucket_list_deallocatorINS7_ISK_EEEEEC2B8ne180100INS_16__value_init_tagESR_EEOT_OT0_, symObjAddr: 0x892C, symBinAddr: 0x10000B010, symSize: 0x40 }
  - { offset: 0xBE270, size: 0x8, addend: 0x0, symName: __ZNSt3__122__compressed_pair_elemIPPNS_16__hash_node_baseIPNS_11__hash_nodeINS_17__hash_value_typeINS_12basic_stringIcNS_11char_traitsIcEENS_9allocatorIcEEEEN5Eigen6MatrixINS_7complexIfEELin1ELi1ELi0ELin1ELi1EEEEEPvEEEELi0ELb0EEC2B8ne180100ENS_16__value_init_tagE, symObjAddr: 0x896C, symBinAddr: 0x10000B050, symSize: 0x18 }
  - { offset: 0xBE2A5, size: 0x8, addend: 0x0, symName: __ZNSt3__122__compressed_pair_elemINS_25__bucket_list_deallocatorINS_9allocatorIPNS_16__hash_node_baseIPNS_11__hash_nodeINS_17__hash_value_typeINS_12basic_stringIcNS_11char_traitsIcEENS2_IcEEEEN5Eigen6MatrixINS_7complexIfEELin1ELi1ELi0ELin1ELi1EEEEEPvEEEEEEEELi1ELb0EEC2B8ne180100ENS_16__value_init_tagE, symObjAddr: 0x8984, symBinAddr: 0x10000B068, symSize: 0x2C }
  - { offset: 0xBE2DA, size: 0x8, addend: 0x0, symName: __ZNSt3__125__bucket_list_deallocatorINS_9allocatorIPNS_16__hash_node_baseIPNS_11__hash_nodeINS_17__hash_value_typeINS_12basic_stringIcNS_11char_traitsIcEENS1_IcEEEEN5Eigen6MatrixINS_7complexIfEELin1ELi1ELi0ELin1ELi1EEEEEPvEEEEEEEC1B8ne180100Ev, symObjAddr: 0x89B0, symBinAddr: 0x10000B094, symSize: 0x2C }
  - { offset: 0xBE304, size: 0x8, addend: 0x0, symName: __ZNSt3__125__bucket_list_deallocatorINS_9allocatorIPNS_16__hash_node_baseIPNS_11__hash_nodeINS_17__hash_value_typeINS_12basic_stringIcNS_11char_traitsIcEENS1_IcEEEEN5Eigen6MatrixINS_7complexIfEELin1ELi1ELi0ELin1ELi1EEEEEPvEEEEEEEC2B8ne180100Ev, symObjAddr: 0x89DC, symBinAddr: 0x10000B0C0, symSize: 0x40 }
  - { offset: 0xBE32E, size: 0x8, addend: 0x0, symName: __ZNSt3__117__compressed_pairImNS_9allocatorIPNS_16__hash_node_baseIPNS_11__hash_nodeINS_17__hash_value_typeINS_12basic_stringIcNS_11char_traitsIcEENS1_IcEEEEN5Eigen6MatrixINS_7complexIfEELin1ELi1ELi0ELin1ELi1EEEEEPvEEEEEEEC1B8ne180100IiNS_18__default_init_tagEEEOT_OT0_, symObjAddr: 0x8A1C, symBinAddr: 0x10000B100, symSize: 0x3C }
  - { offset: 0xBE386, size: 0x8, addend: 0x0, symName: __ZNSt3__117__compressed_pairImNS_9allocatorIPNS_16__hash_node_baseIPNS_11__hash_nodeINS_17__hash_value_typeINS_12basic_stringIcNS_11char_traitsIcEENS1_IcEEEEN5Eigen6MatrixINS_7complexIfEELin1ELi1ELi0ELin1ELi1EEEEEPvEEEEEEEC2B8ne180100IiNS_18__default_init_tagEEEOT_OT0_, symObjAddr: 0x8A58, symBinAddr: 0x10000B13C, symSize: 0x40 }
  - { offset: 0xBE3DE, size: 0x8, addend: 0x0, symName: __ZNSt3__122__compressed_pair_elemImLi0ELb0EEC2B8ne180100IivEEOT_, symObjAddr: 0x8A98, symBinAddr: 0x10000B17C, symSize: 0x24 }
  - { offset: 0xBE420, size: 0x8, addend: 0x0, symName: __ZNSt3__122__compressed_pair_elemINS_9allocatorIPNS_16__hash_node_baseIPNS_11__hash_nodeINS_17__hash_value_typeINS_12basic_stringIcNS_11char_traitsIcEENS1_IcEEEEN5Eigen6MatrixINS_7complexIfEELin1ELi1ELi0ELin1ELi1EEEEEPvEEEEEELi1ELb1EEC2B8ne180100ENS_18__default_init_tagE, symObjAddr: 0x8ABC, symBinAddr: 0x10000B1A0, symSize: 0x2C }
  - { offset: 0xBE455, size: 0x8, addend: 0x0, symName: __ZNSt3__19allocatorIPNS_16__hash_node_baseIPNS_11__hash_nodeINS_17__hash_value_typeINS_12basic_stringIcNS_11char_traitsIcEENS0_IcEEEEN5Eigen6MatrixINS_7complexIfEELin1ELi1ELi0ELin1ELi1EEEEEPvEEEEEC2B8ne180100Ev, symObjAddr: 0x8AE8, symBinAddr: 0x10000B1CC, symSize: 0x2C }
  - { offset: 0xBE47F, size: 0x8, addend: 0x0, symName: __ZNSt3__116__non_trivial_ifILb1ENS_9allocatorIPNS_16__hash_node_baseIPNS_11__hash_nodeINS_17__hash_value_typeINS_12basic_stringIcNS_11char_traitsIcEENS1_IcEEEEN5Eigen6MatrixINS_7complexIfEELin1ELi1ELi0ELin1ELi1EEEEEPvEEEEEEEC2B8ne180100Ev, symObjAddr: 0x8B14, symBinAddr: 0x10000B1F8, symSize: 0x14 }
  - { offset: 0xBE4A9, size: 0x8, addend: 0x0, symName: __ZNSt3__117__compressed_pairINS_16__hash_node_baseIPNS_11__hash_nodeINS_17__hash_value_typeINS_12basic_stringIcNS_11char_traitsIcEENS_9allocatorIcEEEEN5Eigen6MatrixINS_7complexIfEELin1ELi1ELi0ELin1ELi1EEEEEPvEEEENS7_ISH_EEEC2B8ne180100ILb1EvEEv, symObjAddr: 0x8B28, symBinAddr: 0x10000B20C, symSize: 0x34 }
  - { offset: 0xBE4DE, size: 0x8, addend: 0x0, symName: __ZNSt3__122__compressed_pair_elemINS_16__hash_node_baseIPNS_11__hash_nodeINS_17__hash_value_typeINS_12basic_stringIcNS_11char_traitsIcEENS_9allocatorIcEEEEN5Eigen6MatrixINS_7complexIfEELin1ELi1ELi0ELin1ELi1EEEEEPvEEEELi0ELb0EEC2B8ne180100ENS_16__value_init_tagE, symObjAddr: 0x8B5C, symBinAddr: 0x10000B240, symSize: 0x2C }
  - { offset: 0xBE513, size: 0x8, addend: 0x0, symName: __ZNSt3__122__compressed_pair_elemINS_9allocatorINS_11__hash_nodeINS_17__hash_value_typeINS_12basic_stringIcNS_11char_traitsIcEENS1_IcEEEEN5Eigen6MatrixINS_7complexIfEELin1ELi1ELi0ELin1ELi1EEEEEPvEEEELi1ELb1EEC2B8ne180100ENS_16__value_init_tagE, symObjAddr: 0x8B88, symBinAddr: 0x10000B26C, symSize: 0x2C }
  - { offset: 0xBE548, size: 0x8, addend: 0x0, symName: __ZNSt3__116__hash_node_baseIPNS_11__hash_nodeINS_17__hash_value_typeINS_12basic_stringIcNS_11char_traitsIcEENS_9allocatorIcEEEEN5Eigen6MatrixINS_7complexIfEELin1ELi1ELi0ELin1ELi1EEEEEPvEEEC1B8ne180100Ev, symObjAddr: 0x8BB4, symBinAddr: 0x10000B298, symSize: 0x2C }
  - { offset: 0xBE572, size: 0x8, addend: 0x0, symName: __ZNSt3__116__hash_node_baseIPNS_11__hash_nodeINS_17__hash_value_typeINS_12basic_stringIcNS_11char_traitsIcEENS_9allocatorIcEEEEN5Eigen6MatrixINS_7complexIfEELin1ELi1ELi0ELin1ELi1EEEEEPvEEEC2B8ne180100Ev, symObjAddr: 0x8BE0, symBinAddr: 0x10000B2C4, symSize: 0x18 }
  - { offset: 0xBE59C, size: 0x8, addend: 0x0, symName: __ZNSt3__19allocatorINS_11__hash_nodeINS_17__hash_value_typeINS_12basic_stringIcNS_11char_traitsIcEENS0_IcEEEEN5Eigen6MatrixINS_7complexIfEELin1ELi1ELi0ELin1ELi1EEEEEPvEEEC2B8ne180100Ev, symObjAddr: 0x8BF8, symBinAddr: 0x10000B2DC, symSize: 0x2C }
  - { offset: 0xBE5C6, size: 0x8, addend: 0x0, symName: __ZNSt3__116__non_trivial_ifILb1ENS_9allocatorINS_11__hash_nodeINS_17__hash_value_typeINS_12basic_stringIcNS_11char_traitsIcEENS1_IcEEEEN5Eigen6MatrixINS_7complexIfEELin1ELi1ELi0ELin1ELi1EEEEEPvEEEEEC2B8ne180100Ev, symObjAddr: 0x8C24, symBinAddr: 0x10000B308, symSize: 0x14 }
  - { offset: 0xBE5F0, size: 0x8, addend: 0x0, symName: __ZNSt3__117__compressed_pairImNS_22__unordered_map_hasherINS_12basic_stringIcNS_11char_traitsIcEENS_9allocatorIcEEEENS_17__hash_value_typeIS7_N5Eigen6MatrixINS_7complexIfEELin1ELi1ELi0ELin1ELi1EEEEENS_4hashIS7_EENS_8equal_toIS7_EELb1EEEEC2B8ne180100IiNS_18__default_init_tagEEEOT_OT0_, symObjAddr: 0x8C38, symBinAddr: 0x10000B31C, symSize: 0x40 }
  - { offset: 0xBE648, size: 0x8, addend: 0x0, symName: __ZNSt3__122__compressed_pair_elemINS_22__unordered_map_hasherINS_12basic_stringIcNS_11char_traitsIcEENS_9allocatorIcEEEENS_17__hash_value_typeIS7_N5Eigen6MatrixINS_7complexIfEELin1ELi1ELi0ELin1ELi1EEEEENS_4hashIS7_EENS_8equal_toIS7_EELb1EEELi1ELb1EEC2B8ne180100ENS_18__default_init_tagE, symObjAddr: 0x8C78, symBinAddr: 0x10000B35C, symSize: 0x2C }
  - { offset: 0xBE67D, size: 0x8, addend: 0x0, symName: __ZNSt3__122__unordered_map_hasherINS_12basic_stringIcNS_11char_traitsIcEENS_9allocatorIcEEEENS_17__hash_value_typeIS6_N5Eigen6MatrixINS_7complexIfEELin1ELi1ELi0ELin1ELi1EEEEENS_4hashIS6_EENS_8equal_toIS6_EELb1EEC2B8ne180100Ev, symObjAddr: 0x8CA4, symBinAddr: 0x10000B388, symSize: 0x14 }
  - { offset: 0xBE6A7, size: 0x8, addend: 0x0, symName: __ZNSt3__117__compressed_pairIfNS_21__unordered_map_equalINS_12basic_stringIcNS_11char_traitsIcEENS_9allocatorIcEEEENS_17__hash_value_typeIS7_N5Eigen6MatrixINS_7complexIfEELin1ELi1ELi0ELin1ELi1EEEEENS_8equal_toIS7_EENS_4hashIS7_EELb1EEEEC2B8ne180100IfNS_18__default_init_tagEEEOT_OT0_, symObjAddr: 0x8CB8, symBinAddr: 0x10000B39C, symSize: 0x40 }
  - { offset: 0xBE6FF, size: 0x8, addend: 0x0, symName: __ZNSt3__122__compressed_pair_elemIfLi0ELb0EEC2B8ne180100IfvEEOT_, symObjAddr: 0x8CF8, symBinAddr: 0x10000B3DC, symSize: 0x24 }
  - { offset: 0xBE741, size: 0x8, addend: 0x0, symName: __ZNSt3__122__compressed_pair_elemINS_21__unordered_map_equalINS_12basic_stringIcNS_11char_traitsIcEENS_9allocatorIcEEEENS_17__hash_value_typeIS7_N5Eigen6MatrixINS_7complexIfEELin1ELi1ELi0ELin1ELi1EEEEENS_8equal_toIS7_EENS_4hashIS7_EELb1EEELi1ELb1EEC2B8ne180100ENS_18__default_init_tagE, symObjAddr: 0x8D1C, symBinAddr: 0x10000B400, symSize: 0x2C }
  - { offset: 0xBE776, size: 0x8, addend: 0x0, symName: __ZNSt3__121__unordered_map_equalINS_12basic_stringIcNS_11char_traitsIcEENS_9allocatorIcEEEENS_17__hash_value_typeIS6_N5Eigen6MatrixINS_7complexIfEELin1ELi1ELi0ELin1ELi1EEEEENS_8equal_toIS6_EENS_4hashIS6_EELb1EEC2B8ne180100Ev, symObjAddr: 0x8D48, symBinAddr: 0x10000B42C, symSize: 0x14 }
  - { offset: 0xBE7A0, size: 0x8, addend: 0x0, symName: __ZNSt3__16vectorIN5Eigen6MatrixINS_7complexIfEELin1ELi1ELi0ELin1ELi1EEENS_9allocatorIS5_EEEC2B8ne180100Ev, symObjAddr: 0x8D5C, symBinAddr: 0x10000B440, symSize: 0x4C }
  - { offset: 0xBE7D0, size: 0x8, addend: 0x0, symName: __ZNSt3__117__compressed_pairIPN5Eigen6MatrixINS_7complexIfEELin1ELi1ELi0ELin1ELi1EEENS_9allocatorIS5_EEEC1B8ne180100IDnNS_18__default_init_tagEEEOT_OT0_, symObjAddr: 0x8DA8, symBinAddr: 0x10000B48C, symSize: 0x3C }
  - { offset: 0xBE828, size: 0x8, addend: 0x0, symName: __ZNSt3__117__compressed_pairIPN5Eigen6MatrixINS_7complexIfEELin1ELi1ELi0ELin1ELi1EEENS_9allocatorIS5_EEEC2B8ne180100IDnNS_18__default_init_tagEEEOT_OT0_, symObjAddr: 0x8DE4, symBinAddr: 0x10000B4C8, symSize: 0x40 }
  - { offset: 0xBE880, size: 0x8, addend: 0x0, symName: __ZNSt3__122__compressed_pair_elemIPN5Eigen6MatrixINS_7complexIfEELin1ELi1ELi0ELin1ELi1EEELi0ELb0EEC2B8ne180100IDnvEEOT_, symObjAddr: 0x8E24, symBinAddr: 0x10000B508, symSize: 0x1C }
  - { offset: 0xBE8C2, size: 0x8, addend: 0x0, symName: __ZNSt3__122__compressed_pair_elemINS_9allocatorIN5Eigen6MatrixINS_7complexIfEELin1ELi1ELi0ELin1ELi1EEEEELi1ELb1EEC2B8ne180100ENS_18__default_init_tagE, symObjAddr: 0x8E40, symBinAddr: 0x10000B524, symSize: 0x2C }
  - { offset: 0xBE8F7, size: 0x8, addend: 0x0, symName: __ZNSt3__19allocatorIN5Eigen6MatrixINS_7complexIfEELin1ELi1ELi0ELin1ELi1EEEEC2B8ne180100Ev, symObjAddr: 0x8E6C, symBinAddr: 0x10000B550, symSize: 0x2C }
  - { offset: 0xBE921, size: 0x8, addend: 0x0, symName: __ZNSt3__116__non_trivial_ifILb1ENS_9allocatorIN5Eigen6MatrixINS_7complexIfEELin1ELi1ELi0ELin1ELi1EEEEEEC2B8ne180100Ev, symObjAddr: 0x8E98, symBinAddr: 0x10000B57C, symSize: 0x14 }
  - { offset: 0xBE94B, size: 0x8, addend: 0x0, symName: __ZN4DataD2Ev, symObjAddr: 0x8EAC, symBinAddr: 0x10000B590, symSize: 0x44 }
  - { offset: 0xBE977, size: 0x8, addend: 0x0, symName: __ZNSt3__16vectorIN5Eigen6MatrixINS_7complexIfEELin1ELi1ELi0ELin1ELi1EEENS_9allocatorIS5_EEED1B8ne180100Ev, symObjAddr: 0x8EF0, symBinAddr: 0x10000B5D4, symSize: 0x2C }
  - { offset: 0xBE9A1, size: 0x8, addend: 0x0, symName: __ZNSt3__113unordered_mapINS_12basic_stringIcNS_11char_traitsIcEENS_9allocatorIcEEEEN5Eigen6MatrixINS_7complexIfEELin1ELi1ELi0ELin1ELi1EEENS_4hashIS6_EENS_8equal_toIS6_EENS4_INS_4pairIKS6_SB_EEEEED1B8ne180100Ev, symObjAddr: 0x8F1C, symBinAddr: 0x10000B600, symSize: 0x2C }
  - { offset: 0xBE9CB, size: 0x8, addend: 0x0, symName: __ZNSt3__16vectorIN5Eigen6MatrixINS_7complexIfEELin1ELi1ELi0ELin1ELi1EEENS_9allocatorIS5_EEED2B8ne180100Ev, symObjAddr: 0x8F48, symBinAddr: 0x10000B62C, symSize: 0x44 }
  - { offset: 0xBE9F5, size: 0x8, addend: 0x0, symName: __ZNSt3__16vectorIN5Eigen6MatrixINS_7complexIfEELin1ELi1ELi0ELin1ELi1EEENS_9allocatorIS5_EEE16__destroy_vectorC1B8ne180100ERS8_, symObjAddr: 0x8F8C, symBinAddr: 0x10000B670, symSize: 0x34 }
  - { offset: 0xBEA2E, size: 0x8, addend: 0x0, symName: __ZNSt3__16vectorIN5Eigen6MatrixINS_7complexIfEELin1ELi1ELi0ELin1ELi1EEENS_9allocatorIS5_EEE16__destroy_vectorclB8ne180100Ev, symObjAddr: 0x8FC0, symBinAddr: 0x10000B6A4, symSize: 0x90 }
  - { offset: 0xBEA54, size: 0x8, addend: 0x0, symName: __ZNSt3__16vectorIN5Eigen6MatrixINS_7complexIfEELin1ELi1ELi0ELin1ELi1EEENS_9allocatorIS5_EEE16__destroy_vectorC2B8ne180100ERS8_, symObjAddr: 0x9050, symBinAddr: 0x10000B734, symSize: 0x20 }
  - { offset: 0xBEA8D, size: 0x8, addend: 0x0, symName: __ZNSt3__16vectorIN5Eigen6MatrixINS_7complexIfEELin1ELi1ELi0ELin1ELi1EEENS_9allocatorIS5_EEE7__clearB8ne180100Ev, symObjAddr: 0x9070, symBinAddr: 0x10000B754, symSize: 0x28 }
  - { offset: 0xBEAB3, size: 0x8, addend: 0x0, symName: __ZNKSt3__16vectorIN5Eigen6MatrixINS_7complexIfEELin1ELi1ELi0ELin1ELi1EEENS_9allocatorIS5_EEE17__annotate_deleteB8ne180100Ev, symObjAddr: 0x9098, symBinAddr: 0x10000B77C, symSize: 0x10 }
  - { offset: 0xBEAD9, size: 0x8, addend: 0x0, symName: __ZNSt3__116allocator_traitsINS_9allocatorIN5Eigen6MatrixINS_7complexIfEELin1ELi1ELi0ELin1ELi1EEEEEE10deallocateB8ne180100ERS7_PS6_m, symObjAddr: 0x90A8, symBinAddr: 0x10000B78C, symSize: 0x34 }
  - { offset: 0xBEB1B, size: 0x8, addend: 0x0, symName: __ZNSt3__16vectorIN5Eigen6MatrixINS_7complexIfEELin1ELi1ELi0ELin1ELi1EEENS_9allocatorIS5_EEE7__allocB8ne180100Ev, symObjAddr: 0x90DC, symBinAddr: 0x10000B7C0, symSize: 0x28 }
  - { offset: 0xBEB41, size: 0x8, addend: 0x0, symName: __ZNKSt3__16vectorIN5Eigen6MatrixINS_7complexIfEELin1ELi1ELi0ELin1ELi1EEENS_9allocatorIS5_EEE8capacityB8ne180100Ev, symObjAddr: 0x9104, symBinAddr: 0x10000B7E8, symSize: 0x40 }
  - { offset: 0xBEB67, size: 0x8, addend: 0x0, symName: __ZNSt3__16vectorIN5Eigen6MatrixINS_7complexIfEELin1ELi1ELi0ELin1ELi1EEENS_9allocatorIS5_EEE22__base_destruct_at_endB8ne180100EPS5_, symObjAddr: 0x9144, symBinAddr: 0x10000B828, symSize: 0x8C }
  - { offset: 0xBEBAB, size: 0x8, addend: 0x0, symName: __ZNSt3__116allocator_traitsINS_9allocatorIN5Eigen6MatrixINS_7complexIfEELin1ELi1ELi0ELin1ELi1EEEEEE7destroyB8ne180100IS6_vvEEvRS7_PT_, symObjAddr: 0x91D0, symBinAddr: 0x10000B8B4, symSize: 0x28 }
  - { offset: 0xBEBE5, size: 0x8, addend: 0x0, symName: __ZNSt3__19allocatorIN5Eigen6MatrixINS_7complexIfEELin1ELi1ELi0ELin1ELi1EEEE10deallocateB8ne180100EPS5_m, symObjAddr: 0x9230, symBinAddr: 0x10000B914, symSize: 0x40 }
  - { offset: 0xBEC27, size: 0x8, addend: 0x0, symName: __ZNSt3__117__compressed_pairIPN5Eigen6MatrixINS_7complexIfEELin1ELi1ELi0ELin1ELi1EEENS_9allocatorIS5_EEE6secondB8ne180100Ev, symObjAddr: 0x9270, symBinAddr: 0x10000B954, symSize: 0x24 }
  - { offset: 0xBEC4D, size: 0x8, addend: 0x0, symName: __ZNSt3__122__compressed_pair_elemINS_9allocatorIN5Eigen6MatrixINS_7complexIfEELin1ELi1ELi0ELin1ELi1EEEEELi1ELb1EE5__getB8ne180100Ev, symObjAddr: 0x9294, symBinAddr: 0x10000B978, symSize: 0x14 }
  - { offset: 0xBEC73, size: 0x8, addend: 0x0, symName: __ZNKSt3__16vectorIN5Eigen6MatrixINS_7complexIfEELin1ELi1ELi0ELin1ELi1EEENS_9allocatorIS5_EEE9__end_capB8ne180100Ev, symObjAddr: 0x92A8, symBinAddr: 0x10000B98C, symSize: 0x28 }
  - { offset: 0xBEC99, size: 0x8, addend: 0x0, symName: __ZNKSt3__117__compressed_pairIPN5Eigen6MatrixINS_7complexIfEELin1ELi1ELi0ELin1ELi1EEENS_9allocatorIS5_EEE5firstB8ne180100Ev, symObjAddr: 0x92D0, symBinAddr: 0x10000B9B4, symSize: 0x24 }
  - { offset: 0xBECBF, size: 0x8, addend: 0x0, symName: __ZNKSt3__122__compressed_pair_elemIPN5Eigen6MatrixINS_7complexIfEELin1ELi1ELi0ELin1ELi1EEELi0ELb0EE5__getB8ne180100Ev, symObjAddr: 0x92F4, symBinAddr: 0x10000B9D8, symSize: 0x14 }
  - { offset: 0xBECE5, size: 0x8, addend: 0x0, symName: __ZNSt3__113unordered_mapINS_12basic_stringIcNS_11char_traitsIcEENS_9allocatorIcEEEEN5Eigen6MatrixINS_7complexIfEELin1ELi1ELi0ELin1ELi1EEENS_4hashIS6_EENS_8equal_toIS6_EENS4_INS_4pairIKS6_SB_EEEEED2B8ne180100Ev, symObjAddr: 0x9308, symBinAddr: 0x10000B9EC, symSize: 0x2C }
  - { offset: 0xBED0F, size: 0x8, addend: 0x0, symName: __ZNSt3__112__hash_tableINS_17__hash_value_typeINS_12basic_stringIcNS_11char_traitsIcEENS_9allocatorIcEEEEN5Eigen6MatrixINS_7complexIfEELin1ELi1ELi0ELin1ELi1EEEEENS_22__unordered_map_hasherIS7_SD_NS_4hashIS7_EENS_8equal_toIS7_EELb1EEENS_21__unordered_map_equalIS7_SD_SI_SG_Lb1EEENS5_ISD_EEED1Ev, symObjAddr: 0x9334, symBinAddr: 0x10000BA18, symSize: 0x2C }
  - { offset: 0xBED3B, size: 0x8, addend: 0x0, symName: __ZNSt3__112__hash_tableINS_17__hash_value_typeINS_12basic_stringIcNS_11char_traitsIcEENS_9allocatorIcEEEEN5Eigen6MatrixINS_7complexIfEELin1ELi1ELi0ELin1ELi1EEEEENS_22__unordered_map_hasherIS7_SD_NS_4hashIS7_EENS_8equal_toIS7_EELb1EEENS_21__unordered_map_equalIS7_SD_SI_SG_Lb1EEENS5_ISD_EEED2Ev, symObjAddr: 0x9360, symBinAddr: 0x10000BA44, symSize: 0x48 }
  - { offset: 0xBED67, size: 0x8, addend: 0x0, symName: __ZNSt3__112__hash_tableINS_17__hash_value_typeINS_12basic_stringIcNS_11char_traitsIcEENS_9allocatorIcEEEEN5Eigen6MatrixINS_7complexIfEELin1ELi1ELi0ELin1ELi1EEEEENS_22__unordered_map_hasherIS7_SD_NS_4hashIS7_EENS_8equal_toIS7_EELb1EEENS_21__unordered_map_equalIS7_SD_SI_SG_Lb1EEENS5_ISD_EEE17__deallocate_nodeEPNS_16__hash_node_baseIPNS_11__hash_nodeISD_PvEEEE, symObjAddr: 0x93A8, symBinAddr: 0x10000BA8C, symSize: 0xC0 }
  - { offset: 0xBEDD2, size: 0x8, addend: 0x0, symName: __ZNSt3__117__compressed_pairINS_16__hash_node_baseIPNS_11__hash_nodeINS_17__hash_value_typeINS_12basic_stringIcNS_11char_traitsIcEENS_9allocatorIcEEEEN5Eigen6MatrixINS_7complexIfEELin1ELi1ELi0ELin1ELi1EEEEEPvEEEENS7_ISH_EEE5firstB8ne180100Ev, symObjAddr: 0x9468, symBinAddr: 0x10000BB4C, symSize: 0x24 }
  - { offset: 0xBEDF8, size: 0x8, addend: 0x0, symName: __ZNSt3__110unique_ptrIA_PNS_16__hash_node_baseIPNS_11__hash_nodeINS_17__hash_value_typeINS_12basic_stringIcNS_11char_traitsIcEENS_9allocatorIcEEEEN5Eigen6MatrixINS_7complexIfEELin1ELi1ELi0ELin1ELi1EEEEEPvEEEENS_25__bucket_list_deallocatorINS7_ISK_EEEEED1B8ne180100Ev, symObjAddr: 0x948C, symBinAddr: 0x10000BB70, symSize: 0x2C }
  - { offset: 0xBEE22, size: 0x8, addend: 0x0, symName: __ZNSt3__112__hash_tableINS_17__hash_value_typeINS_12basic_stringIcNS_11char_traitsIcEENS_9allocatorIcEEEEN5Eigen6MatrixINS_7complexIfEELin1ELi1ELi0ELin1ELi1EEEEENS_22__unordered_map_hasherIS7_SD_NS_4hashIS7_EENS_8equal_toIS7_EELb1EEENS_21__unordered_map_equalIS7_SD_SI_SG_Lb1EEENS5_ISD_EEE12__node_allocB8ne180100Ev, symObjAddr: 0x94B8, symBinAddr: 0x10000BB9C, symSize: 0x28 }
  - { offset: 0xBEE48, size: 0x8, addend: 0x0, symName: __ZNSt3__116__hash_node_baseIPNS_11__hash_nodeINS_17__hash_value_typeINS_12basic_stringIcNS_11char_traitsIcEENS_9allocatorIcEEEEN5Eigen6MatrixINS_7complexIfEELin1ELi1ELi0ELin1ELi1EEEEEPvEEE8__upcastB8ne180100Ev, symObjAddr: 0x94E0, symBinAddr: 0x10000BBC4, symSize: 0x24 }
  - { offset: 0xBEE6E, size: 0x8, addend: 0x0, symName: __ZNSt3__116allocator_traitsINS_9allocatorINS_11__hash_nodeINS_17__hash_value_typeINS_12basic_stringIcNS_11char_traitsIcEENS1_IcEEEEN5Eigen6MatrixINS_7complexIfEELin1ELi1ELi0ELin1ELi1EEEEEPvEEEEE7destroyB8ne180100INS_4pairIKS8_SD_EEvvEEvRSH_PT_, symObjAddr: 0x9504, symBinAddr: 0x10000BBE8, symSize: 0x28 }
  - { offset: 0xBEEA8, size: 0x8, addend: 0x0, symName: __ZNSt3__122__hash_key_value_typesINS_17__hash_value_typeINS_12basic_stringIcNS_11char_traitsIcEENS_9allocatorIcEEEEN5Eigen6MatrixINS_7complexIfEELin1ELi1ELi0ELin1ELi1EEEEEE9__get_ptrB8ne180100ERSD_, symObjAddr: 0x952C, symBinAddr: 0x10000BC10, symSize: 0x24 }
  - { offset: 0xBEECB, size: 0x8, addend: 0x0, symName: __ZNSt3__111__hash_nodeINS_17__hash_value_typeINS_12basic_stringIcNS_11char_traitsIcEENS_9allocatorIcEEEEN5Eigen6MatrixINS_7complexIfEELin1ELi1ELi0ELin1ELi1EEEEEPvE11__get_valueB8ne180100Ev, symObjAddr: 0x9550, symBinAddr: 0x10000BC34, symSize: 0x18 }
  - { offset: 0xBEEF1, size: 0x8, addend: 0x0, symName: __ZNSt3__116allocator_traitsINS_9allocatorINS_11__hash_nodeINS_17__hash_value_typeINS_12basic_stringIcNS_11char_traitsIcEENS1_IcEEEEN5Eigen6MatrixINS_7complexIfEELin1ELi1ELi0ELin1ELi1EEEEEPvEEEEE10deallocateB8ne180100ERSH_PSG_m, symObjAddr: 0x958C, symBinAddr: 0x10000BC70, symSize: 0x34 }
  - { offset: 0xBEF33, size: 0x8, addend: 0x0, symName: __ZNSt3__117__compressed_pairINS_16__hash_node_baseIPNS_11__hash_nodeINS_17__hash_value_typeINS_12basic_stringIcNS_11char_traitsIcEENS_9allocatorIcEEEEN5Eigen6MatrixINS_7complexIfEELin1ELi1ELi0ELin1ELi1EEEEEPvEEEENS7_ISH_EEE6secondB8ne180100Ev, symObjAddr: 0x95C0, symBinAddr: 0x10000BCA4, symSize: 0x24 }
  - { offset: 0xBEF59, size: 0x8, addend: 0x0, symName: __ZNSt3__122__compressed_pair_elemINS_9allocatorINS_11__hash_nodeINS_17__hash_value_typeINS_12basic_stringIcNS_11char_traitsIcEENS1_IcEEEEN5Eigen6MatrixINS_7complexIfEELin1ELi1ELi0ELin1ELi1EEEEEPvEEEELi1ELb1EE5__getB8ne180100Ev, symObjAddr: 0x95E4, symBinAddr: 0x10000BCC8, symSize: 0x14 }
  - { offset: 0xBEF7F, size: 0x8, addend: 0x0, symName: __ZNSt3__114pointer_traitsIPNS_16__hash_node_baseIPNS_11__hash_nodeINS_17__hash_value_typeINS_12basic_stringIcNS_11char_traitsIcEENS_9allocatorIcEEEEN5Eigen6MatrixINS_7complexIfEELin1ELi1ELi0ELin1ELi1EEEEEPvEEEEE10pointer_toB8ne180100ERSJ_, symObjAddr: 0x95F8, symBinAddr: 0x10000BCDC, symSize: 0x14 }
  - { offset: 0xBEFA2, size: 0x8, addend: 0x0, symName: __ZNSt3__117__hash_value_typeINS_12basic_stringIcNS_11char_traitsIcEENS_9allocatorIcEEEEN5Eigen6MatrixINS_7complexIfEELin1ELi1ELi0ELin1ELi1EEEE11__get_valueB8ne180100Ev, symObjAddr: 0x9630, symBinAddr: 0x10000BD14, symSize: 0x24 }
  - { offset: 0xBEFC8, size: 0x8, addend: 0x0, symName: __ZNSt3__111__hash_nodeINS_17__hash_value_typeINS_12basic_stringIcNS_11char_traitsIcEENS_9allocatorIcEEEEN5Eigen6MatrixINS_7complexIfEELin1ELi1ELi0ELin1ELi1EEEEEPvED1B8ne180100Ev, symObjAddr: 0x968C, symBinAddr: 0x10000BD70, symSize: 0x2C }
  - { offset: 0xBEFF2, size: 0x8, addend: 0x0, symName: __ZNSt3__111__hash_nodeINS_17__hash_value_typeINS_12basic_stringIcNS_11char_traitsIcEENS_9allocatorIcEEEEN5Eigen6MatrixINS_7complexIfEELin1ELi1ELi0ELin1ELi1EEEEEPvED2B8ne180100Ev, symObjAddr: 0x96B8, symBinAddr: 0x10000BD9C, symSize: 0x14 }
  - { offset: 0xBF01C, size: 0x8, addend: 0x0, symName: __ZNSt3__19allocatorINS_11__hash_nodeINS_17__hash_value_typeINS_12basic_stringIcNS_11char_traitsIcEENS0_IcEEEEN5Eigen6MatrixINS_7complexIfEELin1ELi1ELi0ELin1ELi1EEEEEPvEEE10deallocateB8ne180100EPSF_m, symObjAddr: 0x96CC, symBinAddr: 0x10000BDB0, symSize: 0x44 }
  - { offset: 0xBF05E, size: 0x8, addend: 0x0, symName: __ZNSt3__122__compressed_pair_elemINS_16__hash_node_baseIPNS_11__hash_nodeINS_17__hash_value_typeINS_12basic_stringIcNS_11char_traitsIcEENS_9allocatorIcEEEEN5Eigen6MatrixINS_7complexIfEELin1ELi1ELi0ELin1ELi1EEEEEPvEEEELi0ELb0EE5__getB8ne180100Ev, symObjAddr: 0x9710, symBinAddr: 0x10000BDF4, symSize: 0x14 }
  - { offset: 0xBF084, size: 0x8, addend: 0x0, symName: __ZNSt3__110unique_ptrIA_PNS_16__hash_node_baseIPNS_11__hash_nodeINS_17__hash_value_typeINS_12basic_stringIcNS_11char_traitsIcEENS_9allocatorIcEEEEN5Eigen6MatrixINS_7complexIfEELin1ELi1ELi0ELin1ELi1EEEEEPvEEEENS_25__bucket_list_deallocatorINS7_ISK_EEEEED2B8ne180100Ev, symObjAddr: 0x9724, symBinAddr: 0x10000BE08, symSize: 0x30 }
  - { offset: 0xBF0AE, size: 0x8, addend: 0x0, symName: __ZNSt3__110unique_ptrIA_PNS_16__hash_node_baseIPNS_11__hash_nodeINS_17__hash_value_typeINS_12basic_stringIcNS_11char_traitsIcEENS_9allocatorIcEEEEN5Eigen6MatrixINS_7complexIfEELin1ELi1ELi0ELin1ELi1EEEEEPvEEEENS_25__bucket_list_deallocatorINS7_ISK_EEEEE5resetB8ne180100EDn, symObjAddr: 0x9754, symBinAddr: 0x10000BE38, symSize: 0x6C }
  - { offset: 0xBF0EE, size: 0x8, addend: 0x0, symName: __ZNSt3__117__compressed_pairIPPNS_16__hash_node_baseIPNS_11__hash_nodeINS_17__hash_value_typeINS_12basic_stringIcNS_11char_traitsIcEENS_9allocatorIcEEEEN5Eigen6MatrixINS_7complexIfEELin1ELi1ELi0ELin1ELi1EEEEEPvEEEENS_25__bucket_list_deallocatorINS7_ISK_EEEEE5firstB8ne180100Ev, symObjAddr: 0x97C0, symBinAddr: 0x10000BEA4, symSize: 0x24 }
  - { offset: 0xBF114, size: 0x8, addend: 0x0, symName: __ZNSt3__117__compressed_pairIPPNS_16__hash_node_baseIPNS_11__hash_nodeINS_17__hash_value_typeINS_12basic_stringIcNS_11char_traitsIcEENS_9allocatorIcEEEEN5Eigen6MatrixINS_7complexIfEELin1ELi1ELi0ELin1ELi1EEEEEPvEEEENS_25__bucket_list_deallocatorINS7_ISK_EEEEE6secondB8ne180100Ev, symObjAddr: 0x97E4, symBinAddr: 0x10000BEC8, symSize: 0x28 }
  - { offset: 0xBF13A, size: 0x8, addend: 0x0, symName: __ZNSt3__125__bucket_list_deallocatorINS_9allocatorIPNS_16__hash_node_baseIPNS_11__hash_nodeINS_17__hash_value_typeINS_12basic_stringIcNS_11char_traitsIcEENS1_IcEEEEN5Eigen6MatrixINS_7complexIfEELin1ELi1ELi0ELin1ELi1EEEEEPvEEEEEEEclB8ne180100EPSK_, symObjAddr: 0x980C, symBinAddr: 0x10000BEF0, symSize: 0x58 }
  - { offset: 0xBF16F, size: 0x8, addend: 0x0, symName: __ZNSt3__122__compressed_pair_elemIPPNS_16__hash_node_baseIPNS_11__hash_nodeINS_17__hash_value_typeINS_12basic_stringIcNS_11char_traitsIcEENS_9allocatorIcEEEEN5Eigen6MatrixINS_7complexIfEELin1ELi1ELi0ELin1ELi1EEEEEPvEEEELi0ELb0EE5__getB8ne180100Ev, symObjAddr: 0x9864, symBinAddr: 0x10000BF48, symSize: 0x14 }
  - { offset: 0xBF195, size: 0x8, addend: 0x0, symName: __ZNSt3__122__compressed_pair_elemINS_25__bucket_list_deallocatorINS_9allocatorIPNS_16__hash_node_baseIPNS_11__hash_nodeINS_17__hash_value_typeINS_12basic_stringIcNS_11char_traitsIcEENS2_IcEEEEN5Eigen6MatrixINS_7complexIfEELin1ELi1ELi0ELin1ELi1EEEEEPvEEEEEEEELi1ELb0EE5__getB8ne180100Ev, symObjAddr: 0x9878, symBinAddr: 0x10000BF5C, symSize: 0x14 }
  - { offset: 0xBF1BB, size: 0x8, addend: 0x0, symName: __ZNSt3__116allocator_traitsINS_9allocatorIPNS_16__hash_node_baseIPNS_11__hash_nodeINS_17__hash_value_typeINS_12basic_stringIcNS_11char_traitsIcEENS1_IcEEEEN5Eigen6MatrixINS_7complexIfEELin1ELi1ELi0ELin1ELi1EEEEEPvEEEEEEE10deallocateB8ne180100ERSL_PSK_m, symObjAddr: 0x988C, symBinAddr: 0x10000BF70, symSize: 0x34 }
  - { offset: 0xBF1FD, size: 0x8, addend: 0x0, symName: __ZNSt3__125__bucket_list_deallocatorINS_9allocatorIPNS_16__hash_node_baseIPNS_11__hash_nodeINS_17__hash_value_typeINS_12basic_stringIcNS_11char_traitsIcEENS1_IcEEEEN5Eigen6MatrixINS_7complexIfEELin1ELi1ELi0ELin1ELi1EEEEEPvEEEEEEE7__allocB8ne180100Ev, symObjAddr: 0x98C0, symBinAddr: 0x10000BFA4, symSize: 0x24 }
  - { offset: 0xBF223, size: 0x8, addend: 0x0, symName: __ZNSt3__125__bucket_list_deallocatorINS_9allocatorIPNS_16__hash_node_baseIPNS_11__hash_nodeINS_17__hash_value_typeINS_12basic_stringIcNS_11char_traitsIcEENS1_IcEEEEN5Eigen6MatrixINS_7complexIfEELin1ELi1ELi0ELin1ELi1EEEEEPvEEEEEEE4sizeB8ne180100Ev, symObjAddr: 0x98E4, symBinAddr: 0x10000BFC8, symSize: 0x24 }
  - { offset: 0xBF249, size: 0x8, addend: 0x0, symName: __ZNSt3__19allocatorIPNS_16__hash_node_baseIPNS_11__hash_nodeINS_17__hash_value_typeINS_12basic_stringIcNS_11char_traitsIcEENS0_IcEEEEN5Eigen6MatrixINS_7complexIfEELin1ELi1ELi0ELin1ELi1EEEEEPvEEEEE10deallocateB8ne180100EPSJ_m, symObjAddr: 0x9908, symBinAddr: 0x10000BFEC, symSize: 0x40 }
  - { offset: 0xBF28B, size: 0x8, addend: 0x0, symName: __ZNSt3__117__compressed_pairImNS_9allocatorIPNS_16__hash_node_baseIPNS_11__hash_nodeINS_17__hash_value_typeINS_12basic_stringIcNS_11char_traitsIcEENS1_IcEEEEN5Eigen6MatrixINS_7complexIfEELin1ELi1ELi0ELin1ELi1EEEEEPvEEEEEEE6secondB8ne180100Ev, symObjAddr: 0x9948, symBinAddr: 0x10000C02C, symSize: 0x24 }
  - { offset: 0xBF2B1, size: 0x8, addend: 0x0, symName: __ZNSt3__122__compressed_pair_elemINS_9allocatorIPNS_16__hash_node_baseIPNS_11__hash_nodeINS_17__hash_value_typeINS_12basic_stringIcNS_11char_traitsIcEENS1_IcEEEEN5Eigen6MatrixINS_7complexIfEELin1ELi1ELi0ELin1ELi1EEEEEPvEEEEEELi1ELb1EE5__getB8ne180100Ev, symObjAddr: 0x996C, symBinAddr: 0x10000C050, symSize: 0x14 }
  - { offset: 0xBF2D7, size: 0x8, addend: 0x0, symName: __ZNSt3__117__compressed_pairImNS_9allocatorIPNS_16__hash_node_baseIPNS_11__hash_nodeINS_17__hash_value_typeINS_12basic_stringIcNS_11char_traitsIcEENS1_IcEEEEN5Eigen6MatrixINS_7complexIfEELin1ELi1ELi0ELin1ELi1EEEEEPvEEEEEEE5firstB8ne180100Ev, symObjAddr: 0x9980, symBinAddr: 0x10000C064, symSize: 0x24 }
  - { offset: 0xBF2FD, size: 0x8, addend: 0x0, symName: __ZNSt3__122__compressed_pair_elemImLi0ELb0EE5__getB8ne180100Ev, symObjAddr: 0x99A4, symBinAddr: 0x10000C088, symSize: 0x14 }
  - { offset: 0xBF323, size: 0x8, addend: 0x0, symName: __ZNSt3__16vectorIfNS_9allocatorIfEEEC2B8ne180100Ev, symObjAddr: 0x99B8, symBinAddr: 0x10000C09C, symSize: 0x4C }
  - { offset: 0xBF34D, size: 0x8, addend: 0x0, symName: __ZNSt3__117__compressed_pairIPfNS_9allocatorIfEEEC1B8ne180100IDnNS_18__default_init_tagEEEOT_OT0_, symObjAddr: 0x9A04, symBinAddr: 0x10000C0E8, symSize: 0x3C }
  - { offset: 0xBF3A5, size: 0x8, addend: 0x0, symName: __ZNSt3__117__compressed_pairIPfNS_9allocatorIfEEEC2B8ne180100IDnNS_18__default_init_tagEEEOT_OT0_, symObjAddr: 0x9A40, symBinAddr: 0x10000C124, symSize: 0x40 }
  - { offset: 0xBF3FD, size: 0x8, addend: 0x0, symName: __ZNSt3__122__compressed_pair_elemIPfLi0ELb0EEC2B8ne180100IDnvEEOT_, symObjAddr: 0x9A80, symBinAddr: 0x10000C164, symSize: 0x1C }
  - { offset: 0xBF43F, size: 0x8, addend: 0x0, symName: __ZNSt3__122__compressed_pair_elemINS_9allocatorIfEELi1ELb1EEC2B8ne180100ENS_18__default_init_tagE, symObjAddr: 0x9A9C, symBinAddr: 0x10000C180, symSize: 0x2C }
  - { offset: 0xBF474, size: 0x8, addend: 0x0, symName: __ZNSt3__19allocatorIfEC2B8ne180100Ev, symObjAddr: 0x9AC8, symBinAddr: 0x10000C1AC, symSize: 0x2C }
  - { offset: 0xBF49E, size: 0x8, addend: 0x0, symName: __ZNSt3__116__non_trivial_ifILb1ENS_9allocatorIfEEEC2B8ne180100Ev, symObjAddr: 0x9AF4, symBinAddr: 0x10000C1D8, symSize: 0x14 }
  - { offset: 0xBF4C8, size: 0x8, addend: 0x0, symName: __ZNKSt3__16vectorIfNS_9allocatorIfEEE8max_sizeEv, symObjAddr: 0x9B08, symBinAddr: 0x10000C1EC, symSize: 0x60 }
  - { offset: 0xBF4F0, size: 0x8, addend: 0x0, symName: __ZNKSt3__16vectorIfNS_9allocatorIfEEE20__throw_length_errorB8ne180100Ev, symObjAddr: 0x9B68, symBinAddr: 0x10000C24C, symSize: 0x1C }
  - { offset: 0xBF516, size: 0x8, addend: 0x0, symName: __ZNSt3__114__split_bufferIfRNS_9allocatorIfEEEC1EmmS3_, symObjAddr: 0x9B84, symBinAddr: 0x10000C268, symSize: 0x44 }
  - { offset: 0xBF56C, size: 0x8, addend: 0x0, symName: __ZNSt3__114__split_bufferIfRNS_9allocatorIfEEED1Ev, symObjAddr: 0x9CD8, symBinAddr: 0x10000C3BC, symSize: 0x2C }
  - { offset: 0xBF5A2, size: 0x8, addend: 0x0, symName: __ZNSt3__116allocator_traitsINS_9allocatorIfEEE8max_sizeB8ne180100IS2_vvEEmRKS2_, symObjAddr: 0x9D30, symBinAddr: 0x10000C414, symSize: 0x28 }
  - { offset: 0xBF5CD, size: 0x8, addend: 0x0, symName: __ZNKSt3__16vectorIfNS_9allocatorIfEEE7__allocB8ne180100Ev, symObjAddr: 0x9D58, symBinAddr: 0x10000C43C, symSize: 0x28 }
  - { offset: 0xBF5F3, size: 0x8, addend: 0x0, symName: __ZNSt3__114numeric_limitsIlE3maxB8ne180100Ev, symObjAddr: 0x9D80, symBinAddr: 0x10000C464, symSize: 0x14 }
  - { offset: 0xBF611, size: 0x8, addend: 0x0, symName: __ZNKSt3__16__lessIvvEclB8ne180100ImmEEbRKT_RKT0_, symObjAddr: 0x9DE8, symBinAddr: 0x10000C4CC, symSize: 0x34 }
  - { offset: 0xBF665, size: 0x8, addend: 0x0, symName: __ZNSt3__114numeric_limitsImE3maxB8ne180100Ev, symObjAddr: 0x9E1C, symBinAddr: 0x10000C500, symSize: 0x14 }
  - { offset: 0xBF679, size: 0x8, addend: 0x0, symName: __ZNSt3__123__libcpp_numeric_limitsImLb1EE3maxB8ne180100Ev, symObjAddr: 0x9E30, symBinAddr: 0x10000C514, symSize: 0x8 }
  - { offset: 0xBF68D, size: 0x8, addend: 0x0, symName: __ZNKSt3__117__compressed_pairIPfNS_9allocatorIfEEE6secondB8ne180100Ev, symObjAddr: 0x9E38, symBinAddr: 0x10000C51C, symSize: 0x24 }
  - { offset: 0xBF6B3, size: 0x8, addend: 0x0, symName: __ZNKSt3__122__compressed_pair_elemINS_9allocatorIfEELi1ELb1EE5__getB8ne180100Ev, symObjAddr: 0x9E5C, symBinAddr: 0x10000C540, symSize: 0x14 }
  - { offset: 0xBF6D9, size: 0x8, addend: 0x0, symName: __ZNSt3__123__libcpp_numeric_limitsIlLb1EE3maxB8ne180100Ev, symObjAddr: 0x9E70, symBinAddr: 0x10000C554, symSize: 0x8 }
  - { offset: 0xBF6ED, size: 0x8, addend: 0x0, symName: __ZNSt12length_errorC1B8ne180100EPKc, symObjAddr: 0x9EDC, symBinAddr: 0x10000C5C0, symSize: 0x34 }
  - { offset: 0xBF725, size: 0x8, addend: 0x0, symName: __ZNSt12length_errorC2B8ne180100EPKc, symObjAddr: 0x9F10, symBinAddr: 0x10000C5F4, symSize: 0x44 }
  - { offset: 0xBF75D, size: 0x8, addend: 0x0, symName: __ZNSt3__114__split_bufferIfRNS_9allocatorIfEEEC2EmmS3_, symObjAddr: 0x9F54, symBinAddr: 0x10000C638, symSize: 0xD4 }
  - { offset: 0xBF7D0, size: 0x8, addend: 0x0, symName: __ZNSt3__117__compressed_pairIPfRNS_9allocatorIfEEEC1B8ne180100IDnS4_EEOT_OT0_, symObjAddr: 0xA028, symBinAddr: 0x10000C70C, symSize: 0x3C }
  - { offset: 0xBF828, size: 0x8, addend: 0x0, symName: __ZNSt3__114__split_bufferIfRNS_9allocatorIfEEE7__allocB8ne180100Ev, symObjAddr: 0xA0A4, symBinAddr: 0x10000C788, symSize: 0x28 }
  - { offset: 0xBF84E, size: 0x8, addend: 0x0, symName: __ZNSt3__114__split_bufferIfRNS_9allocatorIfEEE9__end_capB8ne180100Ev, symObjAddr: 0xA0CC, symBinAddr: 0x10000C7B0, symSize: 0x28 }
  - { offset: 0xBF874, size: 0x8, addend: 0x0, symName: __ZNSt3__117__compressed_pairIPfRNS_9allocatorIfEEEC2B8ne180100IDnS4_EEOT_OT0_, symObjAddr: 0xA0F4, symBinAddr: 0x10000C7D8, symSize: 0x48 }
  - { offset: 0xBF8CC, size: 0x8, addend: 0x0, symName: __ZNSt3__122__compressed_pair_elemIRNS_9allocatorIfEELi1ELb0EEC2B8ne180100IS3_vEEOT_, symObjAddr: 0xA13C, symBinAddr: 0x10000C820, symSize: 0x20 }
  - { offset: 0xBF90E, size: 0x8, addend: 0x0, symName: __ZNSt3__19allocatorIfE8allocateB8ne180100Em, symObjAddr: 0xA15C, symBinAddr: 0x10000C840, symSize: 0x58 }
  - { offset: 0xBF942, size: 0x8, addend: 0x0, symName: __ZNSt3__117__compressed_pairIPfRNS_9allocatorIfEEE6secondB8ne180100Ev, symObjAddr: 0xA298, symBinAddr: 0x10000C97C, symSize: 0x28 }
  - { offset: 0xBF968, size: 0x8, addend: 0x0, symName: __ZNSt3__122__compressed_pair_elemIRNS_9allocatorIfEELi1ELb0EE5__getB8ne180100Ev, symObjAddr: 0xA2C0, symBinAddr: 0x10000C9A4, symSize: 0x18 }
  - { offset: 0xBF98E, size: 0x8, addend: 0x0, symName: __ZNSt3__117__compressed_pairIPfRNS_9allocatorIfEEE5firstB8ne180100Ev, symObjAddr: 0xA2D8, symBinAddr: 0x10000C9BC, symSize: 0x24 }
  - { offset: 0xBF9B4, size: 0x8, addend: 0x0, symName: __ZNSt3__122__compressed_pair_elemIPfLi0ELb0EE5__getB8ne180100Ev, symObjAddr: 0xA2FC, symBinAddr: 0x10000C9E0, symSize: 0x14 }
  - { offset: 0xBF9DA, size: 0x8, addend: 0x0, symName: __ZNSt3__116reverse_iteratorIPfEC1B8ne180100ES1_, symObjAddr: 0xA388, symBinAddr: 0x10000CA6C, symSize: 0x34 }
  - { offset: 0xBFA12, size: 0x8, addend: 0x0, symName: __ZNKSt3__116reverse_iteratorIPfE4baseB8ne180100Ev, symObjAddr: 0xA3BC, symBinAddr: 0x10000CAA0, symSize: 0x18 }
  - { offset: 0xBFA38, size: 0x8, addend: 0x0, symName: __ZNSt3__16vectorIfNS_9allocatorIfEEE9__end_capB8ne180100Ev, symObjAddr: 0xA410, symBinAddr: 0x10000CAF4, symSize: 0x28 }
  - { offset: 0xBFA5E, size: 0x8, addend: 0x0, symName: __ZNKSt3__16vectorIfNS_9allocatorIfEEE14__annotate_newB8ne180100Em, symObjAddr: 0xA438, symBinAddr: 0x10000CB1C, symSize: 0x14 }
  - { offset: 0xBFAB7, size: 0x8, addend: 0x0, symName: __ZNKSt3__111__move_loopINS_17_ClassicAlgPolicyEEclB8ne180100INS_16reverse_iteratorIPfEES6_S6_EENS_4pairIT_T1_EES8_T0_S9_, symObjAddr: 0xA704, symBinAddr: 0x10000CDE8, symSize: 0xA0 }
  - { offset: 0xBFB22, size: 0x8, addend: 0x0, symName: __ZNSt3__119__unwrap_range_implINS_16reverse_iteratorIPfEES3_E8__unwrapB8ne180100ES3_S3_, symObjAddr: 0xA8F0, symBinAddr: 0x10000CFD4, symSize: 0x84 }
  - { offset: 0xBFB59, size: 0x8, addend: 0x0, symName: __ZNSt3__14pairINS_16reverse_iteratorIPfEES3_EC1B8ne180100IS3_S3_Li0EEEOT_OT0_, symObjAddr: 0xA974, symBinAddr: 0x10000D058, symSize: 0x3C }
  - { offset: 0xBFBB7, size: 0x8, addend: 0x0, symName: __ZNSt3__14pairINS_16reverse_iteratorIPfEES3_EC2B8ne180100IS3_S3_Li0EEEOT_OT0_, symObjAddr: 0xA9B0, symBinAddr: 0x10000D094, symSize: 0x34 }
  - { offset: 0xBFC1B, size: 0x8, addend: 0x0, symName: __ZNSt3__18_IterOpsINS_17_ClassicAlgPolicyEE11__iter_moveB8ne180100IRNS_16reverse_iteratorIPfEELi0EEEDTclsr3stdE4movedeclsr3stdE7declvalIRT_EEEEOS8_, symObjAddr: 0xAA2C, symBinAddr: 0x10000D110, symSize: 0x28 }
  - { offset: 0xBFC4D, size: 0x8, addend: 0x0, symName: __ZNKSt3__116reverse_iteratorIPfEdeB8ne180100Ev, symObjAddr: 0xAA54, symBinAddr: 0x10000D138, symSize: 0x28 }
  - { offset: 0xBFC81, size: 0x8, addend: 0x0, symName: __ZNSt3__116reverse_iteratorIPfEppB8ne180100Ev, symObjAddr: 0xAA7C, symBinAddr: 0x10000D160, symSize: 0x20 }
  - { offset: 0xBFCA7, size: 0x8, addend: 0x0, symName: __ZNSt3__18_IterOpsINS_17_ClassicAlgPolicyEE25__validate_iter_referenceB8ne180100IRNS_16reverse_iteratorIPfEEEEvv, symObjAddr: 0xAA9C, symBinAddr: 0x10000D180, symSize: 0x4 }
  - { offset: 0xBFCC5, size: 0x8, addend: 0x0, symName: __ZNSt3__118__unwrap_iter_implINS_16reverse_iteratorIPfEELb0EE8__unwrapB8ne180100ES3_, symObjAddr: 0xAAA0, symBinAddr: 0x10000D184, symSize: 0x24 }
  - { offset: 0xBFCE8, size: 0x8, addend: 0x0, symName: __ZNSt3__119__unwrap_range_implINS_16reverse_iteratorIPfEES3_E8__rewrapB8ne180100ES3_S3_, symObjAddr: 0xAAC4, symBinAddr: 0x10000D1A8, symSize: 0x5C }
  - { offset: 0xBFD19, size: 0x8, addend: 0x0, symName: __ZNSt3__118__unwrap_iter_implINS_16reverse_iteratorIPfEELb0EE8__rewrapB8ne180100ES3_S3_, symObjAddr: 0xAB20, symBinAddr: 0x10000D204, symSize: 0x2C }
  - { offset: 0xBFD47, size: 0x8, addend: 0x0, symName: __ZNSt3__116reverse_iteratorIPfEC2B8ne180100ES1_, symObjAddr: 0xAB4C, symBinAddr: 0x10000D230, symSize: 0x28 }
  - { offset: 0xBFD7F, size: 0x8, addend: 0x0, symName: __ZNSt3__117__compressed_pairIPfNS_9allocatorIfEEE5firstB8ne180100Ev, symObjAddr: 0xAB74, symBinAddr: 0x10000D258, symSize: 0x24 }
  - { offset: 0xBFDA5, size: 0x8, addend: 0x0, symName: __ZNSt3__114__split_bufferIfRNS_9allocatorIfEEED2Ev, symObjAddr: 0xAB98, symBinAddr: 0x10000D27C, symSize: 0x8C }
  - { offset: 0xBFDD1, size: 0x8, addend: 0x0, symName: __ZNSt3__114__split_bufferIfRNS_9allocatorIfEEE5clearB8ne180100Ev, symObjAddr: 0xAC24, symBinAddr: 0x10000D308, symSize: 0x28 }
  - { offset: 0xBFDF7, size: 0x8, addend: 0x0, symName: __ZNKSt3__114__split_bufferIfRNS_9allocatorIfEEE8capacityB8ne180100Ev, symObjAddr: 0xAC4C, symBinAddr: 0x10000D330, symSize: 0x40 }
  - { offset: 0xBFE1D, size: 0x8, addend: 0x0, symName: __ZNSt3__114__split_bufferIfRNS_9allocatorIfEEE17__destruct_at_endB8ne180100EPf, symObjAddr: 0xAC8C, symBinAddr: 0x10000D370, symSize: 0x2C }
  - { offset: 0xBFE51, size: 0x8, addend: 0x0, symName: __ZNSt3__114__split_bufferIfRNS_9allocatorIfEEE17__destruct_at_endB8ne180100EPfNS_17integral_constantIbLb0EEE, symObjAddr: 0xACB8, symBinAddr: 0x10000D39C, symSize: 0x80 }
  - { offset: 0xBFE92, size: 0x8, addend: 0x0, symName: __ZNKSt3__114__split_bufferIfRNS_9allocatorIfEEE9__end_capB8ne180100Ev, symObjAddr: 0xAD38, symBinAddr: 0x10000D41C, symSize: 0x28 }
  - { offset: 0xBFEB8, size: 0x8, addend: 0x0, symName: __ZNKSt3__117__compressed_pairIPfRNS_9allocatorIfEEE5firstB8ne180100Ev, symObjAddr: 0xAD60, symBinAddr: 0x10000D444, symSize: 0x24 }
  - { offset: 0xBFEDE, size: 0x8, addend: 0x0, symName: __ZNSt3__16vectorIiNS_9allocatorIiEEEC2B8ne180100Ev, symObjAddr: 0xAD84, symBinAddr: 0x10000D468, symSize: 0x4C }
  - { offset: 0xBFF08, size: 0x8, addend: 0x0, symName: __ZNSt3__117__compressed_pairIPiNS_9allocatorIiEEEC1B8ne180100IDnNS_18__default_init_tagEEEOT_OT0_, symObjAddr: 0xADD0, symBinAddr: 0x10000D4B4, symSize: 0x3C }
  - { offset: 0xBFF60, size: 0x8, addend: 0x0, symName: __ZNSt3__117__compressed_pairIPiNS_9allocatorIiEEEC2B8ne180100IDnNS_18__default_init_tagEEEOT_OT0_, symObjAddr: 0xAE0C, symBinAddr: 0x10000D4F0, symSize: 0x40 }
  - { offset: 0xBFFB8, size: 0x8, addend: 0x0, symName: __ZNSt3__122__compressed_pair_elemIPiLi0ELb0EEC2B8ne180100IDnvEEOT_, symObjAddr: 0xAE4C, symBinAddr: 0x10000D530, symSize: 0x1C }
  - { offset: 0xBFFFA, size: 0x8, addend: 0x0, symName: __ZNSt3__122__compressed_pair_elemINS_9allocatorIiEELi1ELb1EEC2B8ne180100ENS_18__default_init_tagE, symObjAddr: 0xAE68, symBinAddr: 0x10000D54C, symSize: 0x2C }
  - { offset: 0xC002F, size: 0x8, addend: 0x0, symName: __ZNSt3__19allocatorIiEC2B8ne180100Ev, symObjAddr: 0xAE94, symBinAddr: 0x10000D578, symSize: 0x2C }
  - { offset: 0xC0059, size: 0x8, addend: 0x0, symName: __ZNSt3__116__non_trivial_ifILb1ENS_9allocatorIiEEEC2B8ne180100Ev, symObjAddr: 0xAEC0, symBinAddr: 0x10000D5A4, symSize: 0x14 }
  - { offset: 0xC0083, size: 0x8, addend: 0x0, symName: __ZNKSt3__16vectorIiNS_9allocatorIiEEE8capacityB8ne180100Ev, symObjAddr: 0xAED4, symBinAddr: 0x10000D5B8, symSize: 0x40 }
  - { offset: 0xC00A9, size: 0x8, addend: 0x0, symName: __ZNKSt3__16vectorIiNS_9allocatorIiEEE8max_sizeEv, symObjAddr: 0xAF14, symBinAddr: 0x10000D5F8, symSize: 0x60 }
  - { offset: 0xC00D1, size: 0x8, addend: 0x0, symName: __ZNKSt3__16vectorIiNS_9allocatorIiEEE20__throw_length_errorB8ne180100Ev, symObjAddr: 0xAF74, symBinAddr: 0x10000D658, symSize: 0x1C }
  - { offset: 0xC00F7, size: 0x8, addend: 0x0, symName: __ZNSt3__16vectorIiNS_9allocatorIiEEE7__allocB8ne180100Ev, symObjAddr: 0xAF90, symBinAddr: 0x10000D674, symSize: 0x28 }
  - { offset: 0xC011D, size: 0x8, addend: 0x0, symName: __ZNKSt3__16vectorIiNS_9allocatorIiEEE4sizeB8ne180100Ev, symObjAddr: 0xAFB8, symBinAddr: 0x10000D69C, symSize: 0x28 }
  - { offset: 0xC0143, size: 0x8, addend: 0x0, symName: __ZNSt3__114__split_bufferIiRNS_9allocatorIiEEEC1EmmS3_, symObjAddr: 0xAFE0, symBinAddr: 0x10000D6C4, symSize: 0x44 }
  - { offset: 0xC0199, size: 0x8, addend: 0x0, symName: __ZNSt3__114__split_bufferIiRNS_9allocatorIiEEED1Ev, symObjAddr: 0xB134, symBinAddr: 0x10000D818, symSize: 0x2C }
  - { offset: 0xC01C5, size: 0x8, addend: 0x0, symName: __ZNKSt3__16vectorIiNS_9allocatorIiEEE9__end_capB8ne180100Ev, symObjAddr: 0xB160, symBinAddr: 0x10000D844, symSize: 0x28 }
  - { offset: 0xC01EB, size: 0x8, addend: 0x0, symName: __ZNKSt3__117__compressed_pairIPiNS_9allocatorIiEEE5firstB8ne180100Ev, symObjAddr: 0xB188, symBinAddr: 0x10000D86C, symSize: 0x24 }
  - { offset: 0xC0211, size: 0x8, addend: 0x0, symName: __ZNKSt3__122__compressed_pair_elemIPiLi0ELb0EE5__getB8ne180100Ev, symObjAddr: 0xB1AC, symBinAddr: 0x10000D890, symSize: 0x14 }
  - { offset: 0xC0241, size: 0x8, addend: 0x0, symName: __ZNSt3__116allocator_traitsINS_9allocatorIiEEE8max_sizeB8ne180100IS2_vvEEmRKS2_, symObjAddr: 0xB1C0, symBinAddr: 0x10000D8A4, symSize: 0x28 }
  - { offset: 0xC026C, size: 0x8, addend: 0x0, symName: __ZNKSt3__16vectorIiNS_9allocatorIiEEE7__allocB8ne180100Ev, symObjAddr: 0xB1E8, symBinAddr: 0x10000D8CC, symSize: 0x28 }
  - { offset: 0xC0292, size: 0x8, addend: 0x0, symName: __ZNKSt3__117__compressed_pairIPiNS_9allocatorIiEEE6secondB8ne180100Ev, symObjAddr: 0xB210, symBinAddr: 0x10000D8F4, symSize: 0x24 }
  - { offset: 0xC02B8, size: 0x8, addend: 0x0, symName: __ZNKSt3__122__compressed_pair_elemINS_9allocatorIiEELi1ELb1EE5__getB8ne180100Ev, symObjAddr: 0xB234, symBinAddr: 0x10000D918, symSize: 0x14 }
  - { offset: 0xC02DE, size: 0x8, addend: 0x0, symName: __ZNSt3__117__compressed_pairIPiNS_9allocatorIiEEE6secondB8ne180100Ev, symObjAddr: 0xB248, symBinAddr: 0x10000D92C, symSize: 0x24 }
  - { offset: 0xC0304, size: 0x8, addend: 0x0, symName: __ZNSt3__122__compressed_pair_elemINS_9allocatorIiEELi1ELb1EE5__getB8ne180100Ev, symObjAddr: 0xB26C, symBinAddr: 0x10000D950, symSize: 0x14 }
  - { offset: 0xC032A, size: 0x8, addend: 0x0, symName: __ZNSt3__114__split_bufferIiRNS_9allocatorIiEEEC2EmmS3_, symObjAddr: 0xB280, symBinAddr: 0x10000D964, symSize: 0xD4 }
  - { offset: 0xC039D, size: 0x8, addend: 0x0, symName: __ZNSt3__117__compressed_pairIPiRNS_9allocatorIiEEEC1B8ne180100IDnS4_EEOT_OT0_, symObjAddr: 0xB354, symBinAddr: 0x10000DA38, symSize: 0x3C }
  - { offset: 0xC03F5, size: 0x8, addend: 0x0, symName: __ZNSt3__114__split_bufferIiRNS_9allocatorIiEEE7__allocB8ne180100Ev, symObjAddr: 0xB3D0, symBinAddr: 0x10000DAB4, symSize: 0x28 }
  - { offset: 0xC041B, size: 0x8, addend: 0x0, symName: __ZNSt3__114__split_bufferIiRNS_9allocatorIiEEE9__end_capB8ne180100Ev, symObjAddr: 0xB3F8, symBinAddr: 0x10000DADC, symSize: 0x28 }
  - { offset: 0xC0441, size: 0x8, addend: 0x0, symName: __ZNSt3__117__compressed_pairIPiRNS_9allocatorIiEEEC2B8ne180100IDnS4_EEOT_OT0_, symObjAddr: 0xB420, symBinAddr: 0x10000DB04, symSize: 0x48 }
  - { offset: 0xC0499, size: 0x8, addend: 0x0, symName: __ZNSt3__122__compressed_pair_elemIRNS_9allocatorIiEELi1ELb0EEC2B8ne180100IS3_vEEOT_, symObjAddr: 0xB468, symBinAddr: 0x10000DB4C, symSize: 0x20 }
  - { offset: 0xC04DB, size: 0x8, addend: 0x0, symName: __ZNSt3__19allocatorIiE8allocateB8ne180100Em, symObjAddr: 0xB488, symBinAddr: 0x10000DB6C, symSize: 0x58 }
  - { offset: 0xC050F, size: 0x8, addend: 0x0, symName: __ZNSt3__117__compressed_pairIPiRNS_9allocatorIiEEE6secondB8ne180100Ev, symObjAddr: 0xB4E0, symBinAddr: 0x10000DBC4, symSize: 0x28 }
  - { offset: 0xC0535, size: 0x8, addend: 0x0, symName: __ZNSt3__122__compressed_pair_elemIRNS_9allocatorIiEELi1ELb0EE5__getB8ne180100Ev, symObjAddr: 0xB508, symBinAddr: 0x10000DBEC, symSize: 0x18 }
  - { offset: 0xC055B, size: 0x8, addend: 0x0, symName: __ZNSt3__117__compressed_pairIPiRNS_9allocatorIiEEE5firstB8ne180100Ev, symObjAddr: 0xB520, symBinAddr: 0x10000DC04, symSize: 0x24 }
  - { offset: 0xC0581, size: 0x8, addend: 0x0, symName: __ZNSt3__122__compressed_pair_elemIPiLi0ELb0EE5__getB8ne180100Ev, symObjAddr: 0xB544, symBinAddr: 0x10000DC28, symSize: 0x14 }
  - { offset: 0xC05A7, size: 0x8, addend: 0x0, symName: __ZNKSt3__16vectorIiNS_9allocatorIiEEE17__annotate_deleteB8ne180100Ev, symObjAddr: 0xB558, symBinAddr: 0x10000DC3C, symSize: 0x10 }
  - { offset: 0xC05CD, size: 0x8, addend: 0x0, symName: __ZNSt3__116reverse_iteratorIPiEC1B8ne180100ES1_, symObjAddr: 0xB5E0, symBinAddr: 0x10000DCC4, symSize: 0x34 }
  - { offset: 0xC0605, size: 0x8, addend: 0x0, symName: __ZNKSt3__116reverse_iteratorIPiE4baseB8ne180100Ev, symObjAddr: 0xB614, symBinAddr: 0x10000DCF8, symSize: 0x18 }
  - { offset: 0xC062B, size: 0x8, addend: 0x0, symName: __ZNSt3__16vectorIiNS_9allocatorIiEEE9__end_capB8ne180100Ev, symObjAddr: 0xB668, symBinAddr: 0x10000DD4C, symSize: 0x28 }
  - { offset: 0xC0651, size: 0x8, addend: 0x0, symName: __ZNKSt3__16vectorIiNS_9allocatorIiEEE14__annotate_newB8ne180100Em, symObjAddr: 0xB690, symBinAddr: 0x10000DD74, symSize: 0x14 }
  - { offset: 0xC06A0, size: 0x8, addend: 0x0, symName: __ZNKSt3__111__move_loopINS_17_ClassicAlgPolicyEEclB8ne180100INS_16reverse_iteratorIPiEES6_S6_EENS_4pairIT_T1_EES8_T0_S9_, symObjAddr: 0xB95C, symBinAddr: 0x10000E040, symSize: 0xA0 }
  - { offset: 0xC070B, size: 0x8, addend: 0x0, symName: __ZNSt3__119__unwrap_range_implINS_16reverse_iteratorIPiEES3_E8__unwrapB8ne180100ES3_S3_, symObjAddr: 0xBB48, symBinAddr: 0x10000E22C, symSize: 0x84 }
  - { offset: 0xC0742, size: 0x8, addend: 0x0, symName: __ZNSt3__14pairINS_16reverse_iteratorIPiEES3_EC1B8ne180100IS3_S3_Li0EEEOT_OT0_, symObjAddr: 0xBBCC, symBinAddr: 0x10000E2B0, symSize: 0x3C }
  - { offset: 0xC07A0, size: 0x8, addend: 0x0, symName: __ZNSt3__14pairINS_16reverse_iteratorIPiEES3_EC2B8ne180100IS3_S3_Li0EEEOT_OT0_, symObjAddr: 0xBC08, symBinAddr: 0x10000E2EC, symSize: 0x34 }
  - { offset: 0xC0804, size: 0x8, addend: 0x0, symName: __ZNSt3__18_IterOpsINS_17_ClassicAlgPolicyEE11__iter_moveB8ne180100IRNS_16reverse_iteratorIPiEELi0EEEDTclsr3stdE4movedeclsr3stdE7declvalIRT_EEEEOS8_, symObjAddr: 0xBC84, symBinAddr: 0x10000E368, symSize: 0x28 }
  - { offset: 0xC0836, size: 0x8, addend: 0x0, symName: __ZNKSt3__116reverse_iteratorIPiEdeB8ne180100Ev, symObjAddr: 0xBCAC, symBinAddr: 0x10000E390, symSize: 0x28 }
  - { offset: 0xC086A, size: 0x8, addend: 0x0, symName: __ZNSt3__116reverse_iteratorIPiEppB8ne180100Ev, symObjAddr: 0xBCD4, symBinAddr: 0x10000E3B8, symSize: 0x20 }
  - { offset: 0xC0890, size: 0x8, addend: 0x0, symName: __ZNSt3__18_IterOpsINS_17_ClassicAlgPolicyEE25__validate_iter_referenceB8ne180100IRNS_16reverse_iteratorIPiEEEEvv, symObjAddr: 0xBCF4, symBinAddr: 0x10000E3D8, symSize: 0x4 }
  - { offset: 0xC08AE, size: 0x8, addend: 0x0, symName: __ZNSt3__118__unwrap_iter_implINS_16reverse_iteratorIPiEELb0EE8__unwrapB8ne180100ES3_, symObjAddr: 0xBCF8, symBinAddr: 0x10000E3DC, symSize: 0x24 }
  - { offset: 0xC08D1, size: 0x8, addend: 0x0, symName: __ZNSt3__119__unwrap_range_implINS_16reverse_iteratorIPiEES3_E8__rewrapB8ne180100ES3_S3_, symObjAddr: 0xBD1C, symBinAddr: 0x10000E400, symSize: 0x5C }
  - { offset: 0xC0902, size: 0x8, addend: 0x0, symName: __ZNSt3__118__unwrap_iter_implINS_16reverse_iteratorIPiEELb0EE8__rewrapB8ne180100ES3_S3_, symObjAddr: 0xBD78, symBinAddr: 0x10000E45C, symSize: 0x2C }
  - { offset: 0xC0930, size: 0x8, addend: 0x0, symName: __ZNSt3__116reverse_iteratorIPiEC2B8ne180100ES1_, symObjAddr: 0xBDA4, symBinAddr: 0x10000E488, symSize: 0x28 }
  - { offset: 0xC0968, size: 0x8, addend: 0x0, symName: __ZNSt3__117__compressed_pairIPiNS_9allocatorIiEEE5firstB8ne180100Ev, symObjAddr: 0xBDCC, symBinAddr: 0x10000E4B0, symSize: 0x24 }
  - { offset: 0xC098E, size: 0x8, addend: 0x0, symName: __ZNSt3__114__split_bufferIiRNS_9allocatorIiEEED2Ev, symObjAddr: 0xBDF0, symBinAddr: 0x10000E4D4, symSize: 0x8C }
  - { offset: 0xC09BA, size: 0x8, addend: 0x0, symName: __ZNSt3__114__split_bufferIiRNS_9allocatorIiEEE5clearB8ne180100Ev, symObjAddr: 0xBE7C, symBinAddr: 0x10000E560, symSize: 0x28 }
  - { offset: 0xC09E0, size: 0x8, addend: 0x0, symName: __ZNSt3__116allocator_traitsINS_9allocatorIiEEE10deallocateB8ne180100ERS2_Pim, symObjAddr: 0xBEA4, symBinAddr: 0x10000E588, symSize: 0x34 }
  - { offset: 0xC0A22, size: 0x8, addend: 0x0, symName: __ZNKSt3__114__split_bufferIiRNS_9allocatorIiEEE8capacityB8ne180100Ev, symObjAddr: 0xBED8, symBinAddr: 0x10000E5BC, symSize: 0x40 }
  - { offset: 0xC0A48, size: 0x8, addend: 0x0, symName: __ZNSt3__114__split_bufferIiRNS_9allocatorIiEEE17__destruct_at_endB8ne180100EPi, symObjAddr: 0xBF18, symBinAddr: 0x10000E5FC, symSize: 0x2C }
  - { offset: 0xC0A7C, size: 0x8, addend: 0x0, symName: __ZNSt3__114__split_bufferIiRNS_9allocatorIiEEE17__destruct_at_endB8ne180100EPiNS_17integral_constantIbLb0EEE, symObjAddr: 0xBF44, symBinAddr: 0x10000E628, symSize: 0x80 }
  - { offset: 0xC0ABD, size: 0x8, addend: 0x0, symName: __ZNSt3__116allocator_traitsINS_9allocatorIiEEE7destroyB8ne180100IivvEEvRS2_PT_, symObjAddr: 0xBFC4, symBinAddr: 0x10000E6A8, symSize: 0x28 }
  - { offset: 0xC0AF7, size: 0x8, addend: 0x0, symName: __ZNSt3__19allocatorIiE10deallocateB8ne180100EPim, symObjAddr: 0xC010, symBinAddr: 0x10000E6F4, symSize: 0x40 }
  - { offset: 0xC0B39, size: 0x8, addend: 0x0, symName: __ZNKSt3__114__split_bufferIiRNS_9allocatorIiEEE9__end_capB8ne180100Ev, symObjAddr: 0xC050, symBinAddr: 0x10000E734, symSize: 0x28 }
  - { offset: 0xC0B5F, size: 0x8, addend: 0x0, symName: __ZNKSt3__117__compressed_pairIPiRNS_9allocatorIiEEE5firstB8ne180100Ev, symObjAddr: 0xC078, symBinAddr: 0x10000E75C, symSize: 0x24 }
  - { offset: 0xC0B85, size: 0x8, addend: 0x0, symName: __ZNKSt3__112basic_stringIcNS_11char_traitsIcEENS_9allocatorIcEEEcvNS_17basic_string_viewIcS2_EEB8ne180100Ev, symObjAddr: 0xC14C, symBinAddr: 0x10000E830, symSize: 0x50 }
  - { offset: 0xC0BAB, size: 0x8, addend: 0x0, symName: __ZNSt3__117basic_string_viewIcNS_11char_traitsIcEEEC1B8ne180100EPKc, symObjAddr: 0xC19C, symBinAddr: 0x10000E880, symSize: 0x34 }
  - { offset: 0xC0BE4, size: 0x8, addend: 0x0, symName: __ZNKSt3__117basic_string_viewIcNS_11char_traitsIcEEE4sizeB8ne180100Ev, symObjAddr: 0xC1D0, symBinAddr: 0x10000E8B4, symSize: 0x18 }
  - { offset: 0xC0C0A, size: 0x8, addend: 0x0, symName: __ZNKSt3__117basic_string_viewIcNS_11char_traitsIcEEE7compareES3_, symObjAddr: 0xC1E8, symBinAddr: 0x10000E8CC, symSize: 0x13C }
  - { offset: 0xC0C5D, size: 0x8, addend: 0x0, symName: __ZNSt3__111char_traitsIcE7compareB8ne180100EPKcS3_m, symObjAddr: 0xC324, symBinAddr: 0x10000EA08, symSize: 0x34 }
  - { offset: 0xC0C9C, size: 0x8, addend: 0x0, symName: __ZNKSt3__117basic_string_viewIcNS_11char_traitsIcEEE4dataB8ne180100Ev, symObjAddr: 0xC358, symBinAddr: 0x10000EA3C, symSize: 0x18 }
  - { offset: 0xC0CC2, size: 0x8, addend: 0x0, symName: __ZNSt3__117basic_string_viewIcNS_11char_traitsIcEEEC1B8ne180100EPKcm, symObjAddr: 0xC370, symBinAddr: 0x10000EA54, symSize: 0x3C }
  - { offset: 0xC0D0A, size: 0x8, addend: 0x0, symName: __ZNSt3__117basic_string_viewIcNS_11char_traitsIcEEEC2B8ne180100EPKcm, symObjAddr: 0xC3AC, symBinAddr: 0x10000EA90, symSize: 0x2C }
  - { offset: 0xC0D52, size: 0x8, addend: 0x0, symName: __ZNSt3__117basic_string_viewIcNS_11char_traitsIcEEEC2B8ne180100EPKc, symObjAddr: 0xC3D8, symBinAddr: 0x10000EABC, symSize: 0x44 }
  - { offset: 0xC0D8B, size: 0x8, addend: 0x0, symName: __ZNSt3__111char_traitsIcE6lengthB8ne180100EPKc, symObjAddr: 0xC440, symBinAddr: 0x10000EB24, symSize: 0x34 }
  - { offset: 0xC0DAE, size: 0x8, addend: 0x0, symName: __ZNSt3__16vectorIfNS_9allocatorIfEEE22__construct_one_at_endB8ne180100IJRKfEEEvDpOT_, symObjAddr: 0xC498, symBinAddr: 0x10000EB7C, symSize: 0x90 }
  - { offset: 0xC0DFD, size: 0x8, addend: 0x0, symName: __ZNSt3__16vectorIfNS_9allocatorIfEEE21__push_back_slow_pathIRKfEEPfOT_, symObjAddr: 0xC528, symBinAddr: 0x10000EC0C, symSize: 0xE8 }
  - { offset: 0xC0E74, size: 0x8, addend: 0x0, symName: __ZNSt3__16vectorIfNS_9allocatorIfEEE21_ConstructTransactionC1B8ne180100ERS3_m, symObjAddr: 0xC610, symBinAddr: 0x10000ECF4, symSize: 0x3C }
  - { offset: 0xC0EBC, size: 0x8, addend: 0x0, symName: __ZNSt3__116allocator_traitsINS_9allocatorIfEEE9constructB8ne180100IfJRKfEvvEEvRS2_PT_DpOT0_, symObjAddr: 0xC64C, symBinAddr: 0x10000ED30, symSize: 0x30 }
  - { offset: 0xC0F10, size: 0x8, addend: 0x0, symName: __ZNSt3__16vectorIfNS_9allocatorIfEEE21_ConstructTransactionD1B8ne180100Ev, symObjAddr: 0xC67C, symBinAddr: 0x10000ED60, symSize: 0x2C }
  - { offset: 0xC0F3A, size: 0x8, addend: 0x0, symName: __ZNSt3__16vectorIfNS_9allocatorIfEEE21_ConstructTransactionC2B8ne180100ERS3_m, symObjAddr: 0xC6A8, symBinAddr: 0x10000ED8C, symSize: 0x44 }
  - { offset: 0xC0F82, size: 0x8, addend: 0x0, symName: __ZNSt3__16vectorIfNS_9allocatorIfEEE21_ConstructTransactionD2B8ne180100Ev, symObjAddr: 0xC73C, symBinAddr: 0x10000EE20, symSize: 0x20 }
  - { offset: 0xC0FAC, size: 0x8, addend: 0x0, symName: __ZNKSt3__16vectorIfNS_9allocatorIfEEE11__recommendB8ne180100Em, symObjAddr: 0xC75C, symBinAddr: 0x10000EE40, symSize: 0xB4 }
  - { offset: 0xC1001, size: 0x8, addend: 0x0, symName: __ZNSt3__112basic_stringIcNS_11char_traitsIcEENS_9allocatorIcEEEC2B8ne180100ILi0EEEPKc, symObjAddr: 0xC890, symBinAddr: 0x10000EF74, symSize: 0x58 }
  - { offset: 0xC1040, size: 0x8, addend: 0x0, symName: __ZNSt3__117__compressed_pairINS_12basic_stringIcNS_11char_traitsIcEENS_9allocatorIcEEE5__repES5_EC1B8ne180100INS_18__default_init_tagESA_EEOT_OT0_, symObjAddr: 0xC8E8, symBinAddr: 0x10000EFCC, symSize: 0x3C }
  - { offset: 0xC1098, size: 0x8, addend: 0x0, symName: __ZNSt3__117__compressed_pairINS_12basic_stringIcNS_11char_traitsIcEENS_9allocatorIcEEE5__repES5_EC2B8ne180100INS_18__default_init_tagESA_EEOT_OT0_, symObjAddr: 0xC924, symBinAddr: 0x10000F008, symSize: 0x3C }
  - { offset: 0xC10F0, size: 0x8, addend: 0x0, symName: __ZNSt3__122__compressed_pair_elemINS_12basic_stringIcNS_11char_traitsIcEENS_9allocatorIcEEE5__repELi0ELb0EEC2B8ne180100ENS_18__default_init_tagE, symObjAddr: 0xC960, symBinAddr: 0x10000F044, symSize: 0x14 }
  - { offset: 0xC1125, size: 0x8, addend: 0x0, symName: __ZNSt3__122__compressed_pair_elemINS_9allocatorIcEELi1ELb1EEC2B8ne180100ENS_18__default_init_tagE, symObjAddr: 0xC974, symBinAddr: 0x10000F058, symSize: 0x2C }
  - { offset: 0xC115A, size: 0x8, addend: 0x0, symName: __ZNSt3__19allocatorIcEC2B8ne180100Ev, symObjAddr: 0xC9A0, symBinAddr: 0x10000F084, symSize: 0x2C }
  - { offset: 0xC1184, size: 0x8, addend: 0x0, symName: __ZNSt3__116__non_trivial_ifILb1ENS_9allocatorIcEEEC2B8ne180100Ev, symObjAddr: 0xC9CC, symBinAddr: 0x10000F0B0, symSize: 0x14 }
  - { offset: 0xC11AE, size: 0x8, addend: 0x0, symName: __ZN5Board18derivePrefixHelperEiiRKNSt3__112basic_stringIcNS0_11char_traitsIcEENS0_9allocatorIcEEEERKNS0_6vectorIfNS4_IfEEEERNS9_IiNS4_IiEEEEb, symObjAddr: 0xC9E0, symBinAddr: 0x10000F0C4, symSize: 0x6CE8 }
  - { offset: 0xC1823, size: 0x8, addend: 0x0, symName: __ZNSt3__16vectorIiNS_9allocatorIiEEE5clearB8ne180100Ev, symObjAddr: 0x136C8, symBinAddr: 0x100015DAC, symSize: 0x44 }
  - { offset: 0xC1858, size: 0x8, addend: 0x0, symName: __ZNSt3__16vectorIfNS_9allocatorIfEEE5clearB8ne180100Ev, symObjAddr: 0x1370C, symBinAddr: 0x100015DF0, symSize: 0x44 }
  - { offset: 0xC188D, size: 0x8, addend: 0x0, symName: __ZN5Board11setPrefixGRERKNSt3__16vectorIfNS0_9allocatorIfEEEERNS1_IiNS2_IiEEEE, symObjAddr: 0x13750, symBinAddr: 0x100015E34, symSize: 0xB4 }
  - { offset: 0xC18EE, size: 0x8, addend: 0x0, symName: __ZNKSt3__16vectorIfNS_9allocatorIfEEEixB8ne180100Em, symObjAddr: 0x13804, symBinAddr: 0x100015EE8, symSize: 0x24 }
  - { offset: 0xC1925, size: 0x8, addend: 0x0, symName: __ZNSt3__113unordered_mapIfNS_12basic_stringIcNS_11char_traitsIcEENS_9allocatorIcEEEENS_4hashIfEENS_8equal_toIfEENS4_INS_4pairIKfS6_EEEEEixERSC_, symObjAddr: 0x13828, symBinAddr: 0x100015F0C, symSize: 0x80 }
  - { offset: 0xC195C, size: 0x8, addend: 0x0, symName: __ZNSt3__16vectorIiNS_9allocatorIiEEEixB8ne180100Em, symObjAddr: 0x138A8, symBinAddr: 0x100015F8C, symSize: 0x24 }
  - { offset: 0xC1993, size: 0x8, addend: 0x0, symName: __ZNSt3__16vectorIfNS_9allocatorIfEEE8pop_backEv, symObjAddr: 0x138CC, symBinAddr: 0x100015FB0, symSize: 0x2C }
  - { offset: 0xC19BB, size: 0x8, addend: 0x0, symName: __ZNSt3__16vectorIfNS_9allocatorIfEEE5eraseENS_11__wrap_iterIPKfEES7_, symObjAddr: 0x138F8, symBinAddr: 0x100015FDC, symSize: 0xD0 }
  - { offset: 0xC1A10, size: 0x8, addend: 0x0, symName: __ZNKSt3__111__wrap_iterIPfEplB8ne180100El, symObjAddr: 0x139C8, symBinAddr: 0x1000160AC, symSize: 0x3C }
  - { offset: 0xC1A57, size: 0x8, addend: 0x0, symName: __ZNSt3__111__wrap_iterIPKfEC1B8ne180100IPfLi0EEERKNS0_IT_EE, symObjAddr: 0x13A04, symBinAddr: 0x1000160E8, symSize: 0x34 }
  - { offset: 0xC1A9E, size: 0x8, addend: 0x0, symName: __ZNSt3__16vectorIfNS_9allocatorIfEEE5eraseB8ne180100ENS_11__wrap_iterIPKfEE, symObjAddr: 0x13A38, symBinAddr: 0x10001611C, symSize: 0x94 }
  - { offset: 0xC1AF3, size: 0x8, addend: 0x0, symName: __ZN5Board21areDerivatRangesEqualEiii, symObjAddr: 0x13ACC, symBinAddr: 0x1000161B0, symSize: 0xFC }
  - { offset: 0xC1B81, size: 0x8, addend: 0x0, symName: __ZNKSt3__111__wrap_iterIPfEmiB8ne180100El, symObjAddr: 0x13BC8, symBinAddr: 0x1000162AC, symSize: 0x3C }
  - { offset: 0xC1BB5, size: 0x8, addend: 0x0, symName: __ZNSt3__16vectorIiNS_9allocatorIiEEE7__clearB8ne180100Ev, symObjAddr: 0x13D4C, symBinAddr: 0x100016430, symSize: 0x28 }
  - { offset: 0xC1BDB, size: 0x8, addend: 0x0, symName: __ZNKSt3__16vectorIiNS_9allocatorIiEEE17__annotate_shrinkB8ne180100Em, symObjAddr: 0x13D74, symBinAddr: 0x100016458, symSize: 0x14 }
  - { offset: 0xC1C10, size: 0x8, addend: 0x0, symName: __ZNSt3__16vectorIiNS_9allocatorIiEEE22__base_destruct_at_endB8ne180100EPi, symObjAddr: 0x13D88, symBinAddr: 0x10001646C, symSize: 0x8C }
  - { offset: 0xC1C54, size: 0x8, addend: 0x0, symName: __ZNKSt3__16vectorIfNS_9allocatorIfEEE17__annotate_shrinkB8ne180100Em, symObjAddr: 0x13E14, symBinAddr: 0x1000164F8, symSize: 0x14 }
  - { offset: 0xC1C89, size: 0x8, addend: 0x0, symName: __ZNSt3__16vectorIiNS_9allocatorIiEEE9push_backB8ne180100EOi, symObjAddr: 0x13E28, symBinAddr: 0x10001650C, symSize: 0x90 }
  - { offset: 0xC1CCF, size: 0x8, addend: 0x0, symName: __ZN5Board2GREmRKNSt3__16vectorIfNS0_9allocatorIfEEEE, symObjAddr: 0x13EB8, symBinAddr: 0x10001659C, symSize: 0x10C }
  - { offset: 0xC1D31, size: 0x8, addend: 0x0, symName: __ZNSt3__16vectorIiNS_9allocatorIiEEE22__construct_one_at_endB8ne180100IJiEEEvDpOT_, symObjAddr: 0x13FC4, symBinAddr: 0x1000166A8, symSize: 0x90 }
  - { offset: 0xC1D80, size: 0x8, addend: 0x0, symName: __ZNSt3__16vectorIiNS_9allocatorIiEEE21__push_back_slow_pathIiEEPiOT_, symObjAddr: 0x14054, symBinAddr: 0x100016738, symSize: 0xE8 }
  - { offset: 0xC1DF7, size: 0x8, addend: 0x0, symName: __ZNSt3__16vectorIiNS_9allocatorIiEEE21_ConstructTransactionC1B8ne180100ERS3_m, symObjAddr: 0x1413C, symBinAddr: 0x100016820, symSize: 0x3C }
  - { offset: 0xC1E3F, size: 0x8, addend: 0x0, symName: __ZNSt3__116allocator_traitsINS_9allocatorIiEEE9constructB8ne180100IiJiEvvEEvRS2_PT_DpOT0_, symObjAddr: 0x14178, symBinAddr: 0x10001685C, symSize: 0x30 }
  - { offset: 0xC1E93, size: 0x8, addend: 0x0, symName: __ZNSt3__16vectorIiNS_9allocatorIiEEE21_ConstructTransactionD1B8ne180100Ev, symObjAddr: 0x141A8, symBinAddr: 0x10001688C, symSize: 0x2C }
  - { offset: 0xC1EBD, size: 0x8, addend: 0x0, symName: __ZNSt3__16vectorIiNS_9allocatorIiEEE21_ConstructTransactionC2B8ne180100ERS3_m, symObjAddr: 0x141D4, symBinAddr: 0x1000168B8, symSize: 0x44 }
  - { offset: 0xC1F05, size: 0x8, addend: 0x0, symName: __ZNSt3__16vectorIiNS_9allocatorIiEEE21_ConstructTransactionD2B8ne180100Ev, symObjAddr: 0x14268, symBinAddr: 0x10001694C, symSize: 0x20 }
  - { offset: 0xC1F2F, size: 0x8, addend: 0x0, symName: __ZNKSt3__16vectorIiNS_9allocatorIiEEE11__recommendB8ne180100Em, symObjAddr: 0x14288, symBinAddr: 0x10001696C, symSize: 0xB4 }
  - { offset: 0xC1F84, size: 0x8, addend: 0x0, symName: __ZNK5Board8is_unaryEf, symObjAddr: 0x1433C, symBinAddr: 0x100016A20, symSize: 0x8C }
  - { offset: 0xC1FB9, size: 0x8, addend: 0x0, symName: __ZN5Board2GBEmRmRKNSt3__16vectorIfNS1_9allocatorIfEEEE, symObjAddr: 0x143C8, symBinAddr: 0x100016AAC, symSize: 0x12C }
  - { offset: 0xC200C, size: 0x8, addend: 0x0, symName: __ZNK5Board9is_binaryEf, symObjAddr: 0x144F4, symBinAddr: 0x100016BD8, symSize: 0x8C }
  - { offset: 0xC2041, size: 0x8, addend: 0x0, symName: __ZNSt3__118__unwrap_iter_implINS_11__wrap_iterIPfEELb1EE8__rewrapB8ne180100ES3_S2_, symObjAddr: 0x146F8, symBinAddr: 0x100016DDC, symSize: 0x5C }
  - { offset: 0xC2077, size: 0x8, addend: 0x0, symName: __ZNSt3__119__to_address_helperINS_11__wrap_iterIPfEEvE6__callB8ne180100ERKS3_, symObjAddr: 0x14778, symBinAddr: 0x100016E5C, symSize: 0x30 }
  - { offset: 0xC209A, size: 0x8, addend: 0x0, symName: __ZNSt3__114pointer_traitsINS_11__wrap_iterIPfEEE10to_addressB8ne180100ES3_, symObjAddr: 0x147A8, symBinAddr: 0x100016E8C, symSize: 0x2C }
  - { offset: 0xC20BD, size: 0x8, addend: 0x0, symName: __ZNKSt3__111__wrap_iterIPfE4baseB8ne180100Ev, symObjAddr: 0x147D4, symBinAddr: 0x100016EB8, symSize: 0x18 }
  - { offset: 0xC20ED, size: 0x8, addend: 0x0, symName: __ZNKSt3__110__identityclB8ne180100IRfEEOT_S4_, symObjAddr: 0x14818, symBinAddr: 0x100016EFC, symSize: 0x18 }
  - { offset: 0xC212A, size: 0x8, addend: 0x0, symName: __ZNSt3__118__unwrap_iter_implINS_11__wrap_iterIPfEELb1EE8__unwrapB8ne180100ES3_, symObjAddr: 0x14830, symBinAddr: 0x100016F14, symSize: 0x28 }
  - { offset: 0xC2162, size: 0x8, addend: 0x0, symName: __ZNSt3__112__hash_tableINS_17__hash_value_typeIfNS_12basic_stringIcNS_11char_traitsIcEENS_9allocatorIcEEEEEENS_22__unordered_map_hasherIfS8_NS_4hashIfEENS_8equal_toIfEELb1EEENS_21__unordered_map_equalIfS8_SD_SB_Lb1EEENS5_IS8_EEE25__emplace_unique_key_argsIfJRKNS_21piecewise_construct_tENS_5tupleIJRKfEEENSN_IJEEEEEENS_4pairINS_15__hash_iteratorIPNS_11__hash_nodeIS8_PvEEEEbEERKT_DpOT0_, symObjAddr: 0x14858, symBinAddr: 0x100016F3C, symSize: 0x4E8 }
  - { offset: 0xC226D, size: 0x8, addend: 0x0, symName: __ZNKSt3__115__hash_iteratorIPNS_11__hash_nodeINS_17__hash_value_typeIfNS_12basic_stringIcNS_11char_traitsIcEENS_9allocatorIcEEEEEEPvEEEptB8ne180100Ev, symObjAddr: 0x14D70, symBinAddr: 0x100017454, symSize: 0x30 }
  - { offset: 0xC2293, size: 0x8, addend: 0x0, symName: __ZNSt3__117__hash_value_typeIfNS_12basic_stringIcNS_11char_traitsIcEENS_9allocatorIcEEEEE11__get_valueB8ne180100Ev, symObjAddr: 0x14DA0, symBinAddr: 0x100017484, symSize: 0x24 }
  - { offset: 0xC22B9, size: 0x8, addend: 0x0, symName: __ZNSt3__112__hash_tableINS_17__hash_value_typeIfNS_12basic_stringIcNS_11char_traitsIcEENS_9allocatorIcEEEEEENS_22__unordered_map_hasherIfS8_NS_4hashIfEENS_8equal_toIfEELb1EEENS_21__unordered_map_equalIfS8_SD_SB_Lb1EEENS5_IS8_EEE13hash_functionB8ne180100Ev, symObjAddr: 0x14DC4, symBinAddr: 0x1000174A8, symSize: 0x28 }
  - { offset: 0xC22DF, size: 0x8, addend: 0x0, symName: __ZNKSt3__122__unordered_map_hasherIfNS_17__hash_value_typeIfNS_12basic_stringIcNS_11char_traitsIcEENS_9allocatorIcEEEEEENS_4hashIfEENS_8equal_toIfEELb1EEclB8ne180100ERKf, symObjAddr: 0x14DEC, symBinAddr: 0x1000174D0, symSize: 0x30 }
  - { offset: 0xC2314, size: 0x8, addend: 0x0, symName: __ZNKSt3__112__hash_tableINS_17__hash_value_typeIfNS_12basic_stringIcNS_11char_traitsIcEENS_9allocatorIcEEEEEENS_22__unordered_map_hasherIfS8_NS_4hashIfEENS_8equal_toIfEELb1EEENS_21__unordered_map_equalIfS8_SD_SB_Lb1EEENS5_IS8_EEE12bucket_countB8ne180100Ev, symObjAddr: 0x14E1C, symBinAddr: 0x100017500, symSize: 0x28 }
  - { offset: 0xC233A, size: 0x8, addend: 0x0, symName: __ZNKSt3__110unique_ptrIA_PNS_16__hash_node_baseIPNS_11__hash_nodeINS_17__hash_value_typeIfNS_12basic_stringIcNS_11char_traitsIcEENS_9allocatorIcEEEEEEPvEEEENS_25__bucket_list_deallocatorINS7_ISF_EEEEEixB8ne180100Em, symObjAddr: 0x14EDC, symBinAddr: 0x1000175C0, symSize: 0x34 }
  - { offset: 0xC236F, size: 0x8, addend: 0x0, symName: __ZNKSt3__116__hash_node_baseIPNS_11__hash_nodeINS_17__hash_value_typeIfNS_12basic_stringIcNS_11char_traitsIcEENS_9allocatorIcEEEEEEPvEEE6__hashB8ne180100Ev, symObjAddr: 0x14F10, symBinAddr: 0x1000175F4, symSize: 0x18 }
  - { offset: 0xC2395, size: 0x8, addend: 0x0, symName: __ZNSt3__112__hash_tableINS_17__hash_value_typeIfNS_12basic_stringIcNS_11char_traitsIcEENS_9allocatorIcEEEEEENS_22__unordered_map_hasherIfS8_NS_4hashIfEENS_8equal_toIfEELb1EEENS_21__unordered_map_equalIfS8_SD_SB_Lb1EEENS5_IS8_EEE6key_eqB8ne180100Ev, symObjAddr: 0x14F28, symBinAddr: 0x10001760C, symSize: 0x28 }
  - { offset: 0xC23BB, size: 0x8, addend: 0x0, symName: __ZNKSt3__121__unordered_map_equalIfNS_17__hash_value_typeIfNS_12basic_stringIcNS_11char_traitsIcEENS_9allocatorIcEEEEEENS_8equal_toIfEENS_4hashIfEELb1EEclB8ne180100ERKS8_RKf, symObjAddr: 0x14F50, symBinAddr: 0x100017634, symSize: 0x48 }
  - { offset: 0xC23FF, size: 0x8, addend: 0x0, symName: __ZNSt3__116__hash_node_baseIPNS_11__hash_nodeINS_17__hash_value_typeIfNS_12basic_stringIcNS_11char_traitsIcEENS_9allocatorIcEEEEEEPvEEE8__upcastB8ne180100Ev, symObjAddr: 0x14F98, symBinAddr: 0x10001767C, symSize: 0x24 }
  - { offset: 0xC2425, size: 0x8, addend: 0x0, symName: __ZNSt3__111__hash_nodeINS_17__hash_value_typeIfNS_12basic_stringIcNS_11char_traitsIcEENS_9allocatorIcEEEEEEPvE11__get_valueB8ne180100Ev, symObjAddr: 0x14FBC, symBinAddr: 0x1000176A0, symSize: 0x18 }
  - { offset: 0xC244B, size: 0x8, addend: 0x0, symName: __ZNSt3__112__hash_tableINS_17__hash_value_typeIfNS_12basic_stringIcNS_11char_traitsIcEENS_9allocatorIcEEEEEENS_22__unordered_map_hasherIfS8_NS_4hashIfEENS_8equal_toIfEELb1EEENS_21__unordered_map_equalIfS8_SD_SB_Lb1EEENS5_IS8_EEE21__construct_node_hashIRKNS_21piecewise_construct_tEJNS_5tupleIJRKfEEENSN_IJEEEEEENS_10unique_ptrINS_11__hash_nodeIS8_PvEENS_22__hash_node_destructorINS5_ISV_EEEEEEmOT_DpOT0_, symObjAddr: 0x14FD4, symBinAddr: 0x1000176B8, symSize: 0x14C }
  - { offset: 0xC24E7, size: 0x8, addend: 0x0, symName: __ZNSt3__112__hash_tableINS_17__hash_value_typeIfNS_12basic_stringIcNS_11char_traitsIcEENS_9allocatorIcEEEEEENS_22__unordered_map_hasherIfS8_NS_4hashIfEENS_8equal_toIfEELb1EEENS_21__unordered_map_equalIfS8_SD_SB_Lb1EEENS5_IS8_EEE4sizeB8ne180100Ev, symObjAddr: 0x15120, symBinAddr: 0x100017804, symSize: 0x28 }
  - { offset: 0xC250D, size: 0x8, addend: 0x0, symName: __ZNSt3__112__hash_tableINS_17__hash_value_typeIfNS_12basic_stringIcNS_11char_traitsIcEENS_9allocatorIcEEEEEENS_22__unordered_map_hasherIfS8_NS_4hashIfEENS_8equal_toIfEELb1EEENS_21__unordered_map_equalIfS8_SD_SB_Lb1EEENS5_IS8_EEE15max_load_factorB8ne180100Ev, symObjAddr: 0x15148, symBinAddr: 0x10001782C, symSize: 0x28 }
  - { offset: 0xC2533, size: 0x8, addend: 0x0, symName: __ZNSt3__112__hash_tableINS_17__hash_value_typeIfNS_12basic_stringIcNS_11char_traitsIcEENS_9allocatorIcEEEEEENS_22__unordered_map_hasherIfS8_NS_4hashIfEENS_8equal_toIfEELb1EEENS_21__unordered_map_equalIfS8_SD_SB_Lb1EEENS5_IS8_EEE15__rehash_uniqueB8ne180100Em, symObjAddr: 0x15170, symBinAddr: 0x100017854, symSize: 0x2C }
  - { offset: 0xC2568, size: 0x8, addend: 0x0, symName: __ZNSt3__117__compressed_pairINS_16__hash_node_baseIPNS_11__hash_nodeINS_17__hash_value_typeIfNS_12basic_stringIcNS_11char_traitsIcEENS_9allocatorIcEEEEEEPvEEEENS7_ISC_EEE5firstB8ne180100Ev, symObjAddr: 0x15204, symBinAddr: 0x1000178E8, symSize: 0x24 }
  - { offset: 0xC258E, size: 0x8, addend: 0x0, symName: __ZNSt3__116__hash_node_baseIPNS_11__hash_nodeINS_17__hash_value_typeIfNS_12basic_stringIcNS_11char_traitsIcEENS_9allocatorIcEEEEEEPvEEE5__ptrB8ne180100Ev, symObjAddr: 0x15228, symBinAddr: 0x10001790C, symSize: 0x24 }
  - { offset: 0xC25B4, size: 0x8, addend: 0x0, symName: __ZNKSt3__110unique_ptrINS_11__hash_nodeINS_17__hash_value_typeIfNS_12basic_stringIcNS_11char_traitsIcEENS_9allocatorIcEEEEEEPvEENS_22__hash_node_destructorINS6_ISB_EEEEEptB8ne180100Ev, symObjAddr: 0x1524C, symBinAddr: 0x100017930, symSize: 0x28 }
  - { offset: 0xC25DA, size: 0x8, addend: 0x0, symName: __ZNKSt3__110unique_ptrINS_11__hash_nodeINS_17__hash_value_typeIfNS_12basic_stringIcNS_11char_traitsIcEENS_9allocatorIcEEEEEEPvEENS_22__hash_node_destructorINS6_ISB_EEEEE3getB8ne180100Ev, symObjAddr: 0x15274, symBinAddr: 0x100017958, symSize: 0x28 }
  - { offset: 0xC2600, size: 0x8, addend: 0x0, symName: __ZNSt3__110unique_ptrINS_11__hash_nodeINS_17__hash_value_typeIfNS_12basic_stringIcNS_11char_traitsIcEENS_9allocatorIcEEEEEEPvEENS_22__hash_node_destructorINS6_ISB_EEEEE7releaseB8ne180100Ev, symObjAddr: 0x1529C, symBinAddr: 0x100017980, symSize: 0x44 }
  - { offset: 0xC2635, size: 0x8, addend: 0x0, symName: __ZNSt3__110unique_ptrINS_11__hash_nodeINS_17__hash_value_typeIfNS_12basic_stringIcNS_11char_traitsIcEENS_9allocatorIcEEEEEEPvEENS_22__hash_node_destructorINS6_ISB_EEEEED1B8ne180100Ev, symObjAddr: 0x152E0, symBinAddr: 0x1000179C4, symSize: 0x2C }
  - { offset: 0xC265F, size: 0x8, addend: 0x0, symName: __ZNSt3__115__hash_iteratorIPNS_11__hash_nodeINS_17__hash_value_typeIfNS_12basic_stringIcNS_11char_traitsIcEENS_9allocatorIcEEEEEEPvEEEC1B8ne180100EPNS_16__hash_node_baseISC_EE, symObjAddr: 0x1530C, symBinAddr: 0x1000179F0, symSize: 0x34 }
  - { offset: 0xC269E, size: 0x8, addend: 0x0, symName: __ZNSt3__14pairINS_15__hash_iteratorIPNS_11__hash_nodeINS_17__hash_value_typeIfNS_12basic_stringIcNS_11char_traitsIcEENS_9allocatorIcEEEEEEPvEEEEbEC1B8ne180100ISE_RbLi0EEEOT_OT0_, symObjAddr: 0x15340, symBinAddr: 0x100017A24, symSize: 0x3C }
  - { offset: 0xC26FC, size: 0x8, addend: 0x0, symName: __ZNSt3__117__compressed_pairImNS_22__unordered_map_hasherIfNS_17__hash_value_typeIfNS_12basic_stringIcNS_11char_traitsIcEENS_9allocatorIcEEEEEENS_4hashIfEENS_8equal_toIfEELb1EEEE6secondB8ne180100Ev, symObjAddr: 0x1537C, symBinAddr: 0x100017A60, symSize: 0x24 }
  - { offset: 0xC2722, size: 0x8, addend: 0x0, symName: __ZNSt3__122__compressed_pair_elemINS_22__unordered_map_hasherIfNS_17__hash_value_typeIfNS_12basic_stringIcNS_11char_traitsIcEENS_9allocatorIcEEEEEENS_4hashIfEENS_8equal_toIfEELb1EEELi1ELb1EE5__getB8ne180100Ev, symObjAddr: 0x153A0, symBinAddr: 0x100017A84, symSize: 0x14 }
  - { offset: 0xC2748, size: 0x8, addend: 0x0, symName: __ZNKSt3__14hashIfEclB8ne180100Ef, symObjAddr: 0x153B4, symBinAddr: 0x100017A98, symSize: 0x5C }
  - { offset: 0xC277D, size: 0x8, addend: 0x0, symName: __ZNKSt3__113__scalar_hashIfLm0EEclB8ne180100Ef, symObjAddr: 0x15410, symBinAddr: 0x100017AF4, symSize: 0x24 }
  - { offset: 0xC27DE, size: 0x8, addend: 0x0, symName: __ZNKSt3__110unique_ptrIA_PNS_16__hash_node_baseIPNS_11__hash_nodeINS_17__hash_value_typeIfNS_12basic_stringIcNS_11char_traitsIcEENS_9allocatorIcEEEEEEPvEEEENS_25__bucket_list_deallocatorINS7_ISF_EEEEE11get_deleterB8ne180100Ev, symObjAddr: 0x15434, symBinAddr: 0x100017B18, symSize: 0x24 }
  - { offset: 0xC2804, size: 0x8, addend: 0x0, symName: __ZNKSt3__125__bucket_list_deallocatorINS_9allocatorIPNS_16__hash_node_baseIPNS_11__hash_nodeINS_17__hash_value_typeIfNS_12basic_stringIcNS_11char_traitsIcEENS1_IcEEEEEEPvEEEEEEE4sizeB8ne180100Ev, symObjAddr: 0x15458, symBinAddr: 0x100017B3C, symSize: 0x28 }
  - { offset: 0xC282A, size: 0x8, addend: 0x0, symName: __ZNKSt3__117__compressed_pairIPPNS_16__hash_node_baseIPNS_11__hash_nodeINS_17__hash_value_typeIfNS_12basic_stringIcNS_11char_traitsIcEENS_9allocatorIcEEEEEEPvEEEENS_25__bucket_list_deallocatorINS7_ISF_EEEEE6secondB8ne180100Ev, symObjAddr: 0x15480, symBinAddr: 0x100017B64, symSize: 0x28 }
  - { offset: 0xC2850, size: 0x8, addend: 0x0, symName: __ZNKSt3__122__compressed_pair_elemINS_25__bucket_list_deallocatorINS_9allocatorIPNS_16__hash_node_baseIPNS_11__hash_nodeINS_17__hash_value_typeIfNS_12basic_stringIcNS_11char_traitsIcEENS2_IcEEEEEEPvEEEEEEEELi1ELb0EE5__getB8ne180100Ev, symObjAddr: 0x154A8, symBinAddr: 0x100017B8C, symSize: 0x14 }
  - { offset: 0xC2876, size: 0x8, addend: 0x0, symName: __ZNKSt3__117__compressed_pairImNS_9allocatorIPNS_16__hash_node_baseIPNS_11__hash_nodeINS_17__hash_value_typeIfNS_12basic_stringIcNS_11char_traitsIcEENS1_IcEEEEEEPvEEEEEEE5firstB8ne180100Ev, symObjAddr: 0x154BC, symBinAddr: 0x100017BA0, symSize: 0x24 }
  - { offset: 0xC289C, size: 0x8, addend: 0x0, symName: __ZNKSt3__122__compressed_pair_elemImLi0ELb0EE5__getB8ne180100Ev, symObjAddr: 0x154E0, symBinAddr: 0x100017BC4, symSize: 0x14 }
  - { offset: 0xC28C2, size: 0x8, addend: 0x0, symName: __ZNKSt3__117__compressed_pairIPPNS_16__hash_node_baseIPNS_11__hash_nodeINS_17__hash_value_typeIfNS_12basic_stringIcNS_11char_traitsIcEENS_9allocatorIcEEEEEEPvEEEENS_25__bucket_list_deallocatorINS7_ISF_EEEEE5firstB8ne180100Ev, symObjAddr: 0x154F4, symBinAddr: 0x100017BD8, symSize: 0x24 }
  - { offset: 0xC28E8, size: 0x8, addend: 0x0, symName: __ZNKSt3__122__compressed_pair_elemIPPNS_16__hash_node_baseIPNS_11__hash_nodeINS_17__hash_value_typeIfNS_12basic_stringIcNS_11char_traitsIcEENS_9allocatorIcEEEEEEPvEEEELi0ELb0EE5__getB8ne180100Ev, symObjAddr: 0x15518, symBinAddr: 0x100017BFC, symSize: 0x14 }
  - { offset: 0xC290E, size: 0x8, addend: 0x0, symName: __ZNSt3__117__compressed_pairIfNS_21__unordered_map_equalIfNS_17__hash_value_typeIfNS_12basic_stringIcNS_11char_traitsIcEENS_9allocatorIcEEEEEENS_8equal_toIfEENS_4hashIfEELb1EEEE6secondB8ne180100Ev, symObjAddr: 0x1552C, symBinAddr: 0x100017C10, symSize: 0x24 }
  - { offset: 0xC2934, size: 0x8, addend: 0x0, symName: __ZNSt3__122__compressed_pair_elemINS_21__unordered_map_equalIfNS_17__hash_value_typeIfNS_12basic_stringIcNS_11char_traitsIcEENS_9allocatorIcEEEEEENS_8equal_toIfEENS_4hashIfEELb1EEELi1ELb1EE5__getB8ne180100Ev, symObjAddr: 0x15550, symBinAddr: 0x100017C34, symSize: 0x14 }
  - { offset: 0xC295A, size: 0x8, addend: 0x0, symName: __ZNKSt3__18equal_toIfEclB8ne180100ERKfS3_, symObjAddr: 0x15564, symBinAddr: 0x100017C48, symSize: 0x34 }
  - { offset: 0xC299E, size: 0x8, addend: 0x0, symName: __ZNKSt3__117__hash_value_typeIfNS_12basic_stringIcNS_11char_traitsIcEENS_9allocatorIcEEEEE11__get_valueB8ne180100Ev, symObjAddr: 0x15598, symBinAddr: 0x100017C7C, symSize: 0x24 }
  - { offset: 0xC29C4, size: 0x8, addend: 0x0, symName: __ZNSt3__114pointer_traitsIPNS_16__hash_node_baseIPNS_11__hash_nodeINS_17__hash_value_typeIfNS_12basic_stringIcNS_11char_traitsIcEENS_9allocatorIcEEEEEEPvEEEEE10pointer_toB8ne180100ERSE_, symObjAddr: 0x155F4, symBinAddr: 0x100017CD8, symSize: 0x14 }
  - { offset: 0xC29E7, size: 0x8, addend: 0x0, symName: __ZNSt3__112__hash_tableINS_17__hash_value_typeIfNS_12basic_stringIcNS_11char_traitsIcEENS_9allocatorIcEEEEEENS_22__unordered_map_hasherIfS8_NS_4hashIfEENS_8equal_toIfEELb1EEENS_21__unordered_map_equalIfS8_SD_SB_Lb1EEENS5_IS8_EEE12__node_allocB8ne180100Ev, symObjAddr: 0x15608, symBinAddr: 0x100017CEC, symSize: 0x28 }
  - { offset: 0xC2A0D, size: 0x8, addend: 0x0, symName: __ZNSt3__116allocator_traitsINS_9allocatorINS_11__hash_nodeINS_17__hash_value_typeIfNS_12basic_stringIcNS_11char_traitsIcEENS1_IcEEEEEEPvEEEEE8allocateB8ne180100ERSC_m, symObjAddr: 0x15630, symBinAddr: 0x100017D14, symSize: 0x2C }
  - { offset: 0xC2A40, size: 0x8, addend: 0x0, symName: __ZNSt3__122__hash_node_destructorINS_9allocatorINS_11__hash_nodeINS_17__hash_value_typeIfNS_12basic_stringIcNS_11char_traitsIcEENS1_IcEEEEEEPvEEEEEC1B8ne180100ERSC_b, symObjAddr: 0x1565C, symBinAddr: 0x100017D40, symSize: 0x48 }
  - { offset: 0xC2A8E, size: 0x8, addend: 0x0, symName: __ZNSt3__110unique_ptrINS_11__hash_nodeINS_17__hash_value_typeIfNS_12basic_stringIcNS_11char_traitsIcEENS_9allocatorIcEEEEEEPvEENS_22__hash_node_destructorINS6_ISB_EEEEEC1B8ne180100ILb1EvEEPSB_NS_16__dependent_typeINS_27__unique_ptr_deleter_sfinaeISE_EEXT_EE20__good_rval_ref_typeE, symObjAddr: 0x156A4, symBinAddr: 0x100017D88, symSize: 0x3C }
  - { offset: 0xC2ADF, size: 0x8, addend: 0x0, symName: __ZNKSt3__110unique_ptrINS_11__hash_nodeINS_17__hash_value_typeIfNS_12basic_stringIcNS_11char_traitsIcEENS_9allocatorIcEEEEEEPvEENS_22__hash_node_destructorINS6_ISB_EEEEEdeB8ne180100Ev, symObjAddr: 0x15714, symBinAddr: 0x100017DF8, symSize: 0x28 }
  - { offset: 0xC2B05, size: 0x8, addend: 0x0, symName: __ZNSt3__116allocator_traitsINS_9allocatorINS_11__hash_nodeINS_17__hash_value_typeIfNS_12basic_stringIcNS_11char_traitsIcEENS1_IcEEEEEEPvEEEEE9constructB8ne180100INS_4pairIKfS8_EEJRKNS_21piecewise_construct_tENS_5tupleIJRSG_EEENSL_IJEEEEvvEEvRSC_PT_DpOT0_, symObjAddr: 0x1573C, symBinAddr: 0x100017E20, symSize: 0x40 }
  - { offset: 0xC2B81, size: 0x8, addend: 0x0, symName: __ZNSt3__122__hash_key_value_typesINS_17__hash_value_typeIfNS_12basic_stringIcNS_11char_traitsIcEENS_9allocatorIcEEEEEEE9__get_ptrB8ne180100ERS8_, symObjAddr: 0x1577C, symBinAddr: 0x100017E60, symSize: 0x24 }
  - { offset: 0xC2BA4, size: 0x8, addend: 0x0, symName: __ZNSt3__110unique_ptrINS_11__hash_nodeINS_17__hash_value_typeIfNS_12basic_stringIcNS_11char_traitsIcEENS_9allocatorIcEEEEEEPvEENS_22__hash_node_destructorINS6_ISB_EEEEE11get_deleterB8ne180100Ev, symObjAddr: 0x157A0, symBinAddr: 0x100017E84, symSize: 0x24 }
  - { offset: 0xC2BCA, size: 0x8, addend: 0x0, symName: __ZNSt3__117__compressed_pairINS_16__hash_node_baseIPNS_11__hash_nodeINS_17__hash_value_typeIfNS_12basic_stringIcNS_11char_traitsIcEENS_9allocatorIcEEEEEEPvEEEENS7_ISC_EEE6secondB8ne180100Ev, symObjAddr: 0x157C4, symBinAddr: 0x100017EA8, symSize: 0x24 }
  - { offset: 0xC2BF0, size: 0x8, addend: 0x0, symName: __ZNSt3__122__compressed_pair_elemINS_9allocatorINS_11__hash_nodeINS_17__hash_value_typeIfNS_12basic_stringIcNS_11char_traitsIcEENS1_IcEEEEEEPvEEEELi1ELb1EE5__getB8ne180100Ev, symObjAddr: 0x157E8, symBinAddr: 0x100017ECC, symSize: 0x14 }
  - { offset: 0xC2C16, size: 0x8, addend: 0x0, symName: __ZNSt3__19allocatorINS_11__hash_nodeINS_17__hash_value_typeIfNS_12basic_stringIcNS_11char_traitsIcEENS0_IcEEEEEEPvEEE8allocateB8ne180100Em, symObjAddr: 0x157FC, symBinAddr: 0x100017EE0, symSize: 0x5C }
  - { offset: 0xC2C54, size: 0x8, addend: 0x0, symName: __ZNSt3__116allocator_traitsINS_9allocatorINS_11__hash_nodeINS_17__hash_value_typeIfNS_12basic_stringIcNS_11char_traitsIcEENS1_IcEEEEEEPvEEEEE8max_sizeB8ne180100ISC_vvEEmRKSC_, symObjAddr: 0x15858, symBinAddr: 0x100017F3C, symSize: 0x28 }
  - { offset: 0xC2C7F, size: 0x8, addend: 0x0, symName: __ZNSt3__122__hash_node_destructorINS_9allocatorINS_11__hash_nodeINS_17__hash_value_typeIfNS_12basic_stringIcNS_11char_traitsIcEENS1_IcEEEEEEPvEEEEEC2B8ne180100ERSC_b, symObjAddr: 0x15880, symBinAddr: 0x100017F64, symSize: 0x38 }
  - { offset: 0xC2CC7, size: 0x8, addend: 0x0, symName: __ZNSt3__110unique_ptrINS_11__hash_nodeINS_17__hash_value_typeIfNS_12basic_stringIcNS_11char_traitsIcEENS_9allocatorIcEEEEEEPvEENS_22__hash_node_destructorINS6_ISB_EEEEEC2B8ne180100ILb1EvEEPSB_NS_16__dependent_typeINS_27__unique_ptr_deleter_sfinaeISE_EEXT_EE20__good_rval_ref_typeE, symObjAddr: 0x158B8, symBinAddr: 0x100017F9C, symSize: 0x48 }
  - { offset: 0xC2D18, size: 0x8, addend: 0x0, symName: __ZNSt3__117__compressed_pairIPNS_11__hash_nodeINS_17__hash_value_typeIfNS_12basic_stringIcNS_11char_traitsIcEENS_9allocatorIcEEEEEEPvEENS_22__hash_node_destructorINS6_ISB_EEEEEC1B8ne180100IRSC_SF_EEOT_OT0_, symObjAddr: 0x15900, symBinAddr: 0x100017FE4, symSize: 0x3C }
  - { offset: 0xC2D70, size: 0x8, addend: 0x0, symName: __ZNSt3__117__compressed_pairIPNS_11__hash_nodeINS_17__hash_value_typeIfNS_12basic_stringIcNS_11char_traitsIcEENS_9allocatorIcEEEEEEPvEENS_22__hash_node_destructorINS6_ISB_EEEEEC2B8ne180100IRSC_SF_EEOT_OT0_, symObjAddr: 0x1593C, symBinAddr: 0x100018020, symSize: 0x48 }
  - { offset: 0xC2DC8, size: 0x8, addend: 0x0, symName: __ZNSt3__122__compressed_pair_elemIPNS_11__hash_nodeINS_17__hash_value_typeIfNS_12basic_stringIcNS_11char_traitsIcEENS_9allocatorIcEEEEEEPvEELi0ELb0EEC2B8ne180100IRSC_vEEOT_, symObjAddr: 0x15984, symBinAddr: 0x100018068, symSize: 0x24 }
  - { offset: 0xC2E0A, size: 0x8, addend: 0x0, symName: __ZNSt3__122__compressed_pair_elemINS_22__hash_node_destructorINS_9allocatorINS_11__hash_nodeINS_17__hash_value_typeIfNS_12basic_stringIcNS_11char_traitsIcEENS2_IcEEEEEEPvEEEEEELi1ELb0EEC2B8ne180100ISE_vEEOT_, symObjAddr: 0x159A8, symBinAddr: 0x10001808C, symSize: 0x24 }
  - { offset: 0xC2E4C, size: 0x8, addend: 0x0, symName: __ZNSt3__111__hash_nodeINS_17__hash_value_typeIfNS_12basic_stringIcNS_11char_traitsIcEENS_9allocatorIcEEEEEEPvEC1B8ne180100EPNS_16__hash_node_baseIPSA_EEm, symObjAddr: 0x15A0C, symBinAddr: 0x1000180F0, symSize: 0x3C }
  - { offset: 0xC2E92, size: 0x8, addend: 0x0, symName: __ZNSt3__111__hash_nodeINS_17__hash_value_typeIfNS_12basic_stringIcNS_11char_traitsIcEENS_9allocatorIcEEEEEEPvEC2B8ne180100EPNS_16__hash_node_baseIPSA_EEm, symObjAddr: 0x15A48, symBinAddr: 0x10001812C, symSize: 0x40 }
  - { offset: 0xC2ED8, size: 0x8, addend: 0x0, symName: __ZNSt3__116__hash_node_baseIPNS_11__hash_nodeINS_17__hash_value_typeIfNS_12basic_stringIcNS_11char_traitsIcEENS_9allocatorIcEEEEEEPvEEEC2B8ne180100EPSD_, symObjAddr: 0x15A88, symBinAddr: 0x10001816C, symSize: 0x20 }
  - { offset: 0xC2F10, size: 0x8, addend: 0x0, symName: __ZNKSt3__117__compressed_pairIPNS_11__hash_nodeINS_17__hash_value_typeIfNS_12basic_stringIcNS_11char_traitsIcEENS_9allocatorIcEEEEEEPvEENS_22__hash_node_destructorINS6_ISB_EEEEE5firstB8ne180100Ev, symObjAddr: 0x15AA8, symBinAddr: 0x10001818C, symSize: 0x24 }
  - { offset: 0xC2F36, size: 0x8, addend: 0x0, symName: __ZNKSt3__122__compressed_pair_elemIPNS_11__hash_nodeINS_17__hash_value_typeIfNS_12basic_stringIcNS_11char_traitsIcEENS_9allocatorIcEEEEEEPvEELi0ELb0EE5__getB8ne180100Ev, symObjAddr: 0x15ACC, symBinAddr: 0x1000181B0, symSize: 0x14 }
  - { offset: 0xC2F5C, size: 0x8, addend: 0x0, symName: __ZNSt3__14pairIKfNS_12basic_stringIcNS_11char_traitsIcEENS_9allocatorIcEEEEEC1B8ne180100IJRS1_EJEEENS_21piecewise_construct_tENS_5tupleIJDpT_EEENSC_IJDpT0_EEE, symObjAddr: 0x15B64, symBinAddr: 0x100018248, symSize: 0x44 }
  - { offset: 0xC2FC3, size: 0x8, addend: 0x0, symName: __ZNSt3__14pairIKfNS_12basic_stringIcNS_11char_traitsIcEENS_9allocatorIcEEEEEC1B8ne180100IJRS1_EJEJLm0EEJEEENS_21piecewise_construct_tERNS_5tupleIJDpT_EEERNSC_IJDpT0_EEENS_15__tuple_indicesIJXspT1_EEEENSL_IJXspT2_EEEE, symObjAddr: 0x15BA8, symBinAddr: 0x10001828C, symSize: 0x3C }
  - { offset: 0xC3050, size: 0x8, addend: 0x0, symName: __ZNSt3__14pairIKfNS_12basic_stringIcNS_11char_traitsIcEENS_9allocatorIcEEEEEC2B8ne180100IJRS1_EJEJLm0EEJEEENS_21piecewise_construct_tERNS_5tupleIJDpT_EEERNSC_IJDpT0_EEENS_15__tuple_indicesIJXspT1_EEEENSL_IJXspT2_EEEE, symObjAddr: 0x15BE4, symBinAddr: 0x1000182C8, symSize: 0x4C }
  - { offset: 0xC30DD, size: 0x8, addend: 0x0, symName: __ZNSt3__112__tuple_leafILm0ERKfLb0EE3getB8ne180100Ev, symObjAddr: 0x15C54, symBinAddr: 0x100018338, symSize: 0x18 }
  - { offset: 0xC3103, size: 0x8, addend: 0x0, symName: __ZNSt3__117__compressed_pairIPNS_11__hash_nodeINS_17__hash_value_typeIfNS_12basic_stringIcNS_11char_traitsIcEENS_9allocatorIcEEEEEEPvEENS_22__hash_node_destructorINS6_ISB_EEEEE6secondB8ne180100Ev, symObjAddr: 0x15C6C, symBinAddr: 0x100018350, symSize: 0x28 }
  - { offset: 0xC3129, size: 0x8, addend: 0x0, symName: __ZNSt3__122__compressed_pair_elemINS_22__hash_node_destructorINS_9allocatorINS_11__hash_nodeINS_17__hash_value_typeIfNS_12basic_stringIcNS_11char_traitsIcEENS2_IcEEEEEEPvEEEEEELi1ELb0EE5__getB8ne180100Ev, symObjAddr: 0x15C94, symBinAddr: 0x100018378, symSize: 0x14 }
  - { offset: 0xC314F, size: 0x8, addend: 0x0, symName: __ZNSt3__117__compressed_pairImNS_22__unordered_map_hasherIfNS_17__hash_value_typeIfNS_12basic_stringIcNS_11char_traitsIcEENS_9allocatorIcEEEEEENS_4hashIfEENS_8equal_toIfEELb1EEEE5firstB8ne180100Ev, symObjAddr: 0x15CA8, symBinAddr: 0x10001838C, symSize: 0x24 }
  - { offset: 0xC3175, size: 0x8, addend: 0x0, symName: __ZNSt3__117__compressed_pairIfNS_21__unordered_map_equalIfNS_17__hash_value_typeIfNS_12basic_stringIcNS_11char_traitsIcEENS_9allocatorIcEEEEEENS_8equal_toIfEENS_4hashIfEELb1EEEE5firstB8ne180100Ev, symObjAddr: 0x15CCC, symBinAddr: 0x1000183B0, symSize: 0x24 }
  - { offset: 0xC319B, size: 0x8, addend: 0x0, symName: __ZNSt3__122__compressed_pair_elemIfLi0ELb0EE5__getB8ne180100Ev, symObjAddr: 0x15CF0, symBinAddr: 0x1000183D4, symSize: 0x14 }
  - { offset: 0xC31C1, size: 0x8, addend: 0x0, symName: __ZNSt3__112__hash_tableINS_17__hash_value_typeIfNS_12basic_stringIcNS_11char_traitsIcEENS_9allocatorIcEEEEEENS_22__unordered_map_hasherIfS8_NS_4hashIfEENS_8equal_toIfEELb1EEENS_21__unordered_map_equalIfS8_SD_SB_Lb1EEENS5_IS8_EEE8__rehashILb1EEEvm, symObjAddr: 0x15D04, symBinAddr: 0x1000183E8, symSize: 0x1A8 }
  - { offset: 0xC3211, size: 0x8, addend: 0x0, symName: __ZNSt3__112__hash_tableINS_17__hash_value_typeIfNS_12basic_stringIcNS_11char_traitsIcEENS_9allocatorIcEEEEEENS_22__unordered_map_hasherIfS8_NS_4hashIfEENS_8equal_toIfEELb1EEENS_21__unordered_map_equalIfS8_SD_SB_Lb1EEENS5_IS8_EEE11__do_rehashILb1EEEvm, symObjAddr: 0x15EAC, symBinAddr: 0x100018590, symSize: 0x288 }
  - { offset: 0xC32F4, size: 0x8, addend: 0x0, symName: __ZNSt3__110unique_ptrIA_PNS_16__hash_node_baseIPNS_11__hash_nodeINS_17__hash_value_typeIfNS_12basic_stringIcNS_11char_traitsIcEENS_9allocatorIcEEEEEEPvEEEENS_25__bucket_list_deallocatorINS7_ISF_EEEEE11get_deleterB8ne180100Ev, symObjAddr: 0x161A0, symBinAddr: 0x100018884, symSize: 0x24 }
  - { offset: 0xC331A, size: 0x8, addend: 0x0, symName: __ZNSt3__125__bucket_list_deallocatorINS_9allocatorIPNS_16__hash_node_baseIPNS_11__hash_nodeINS_17__hash_value_typeIfNS_12basic_stringIcNS_11char_traitsIcEENS1_IcEEEEEEPvEEEEEEE7__allocB8ne180100Ev, symObjAddr: 0x161C4, symBinAddr: 0x1000188A8, symSize: 0x24 }
  - { offset: 0xC3340, size: 0x8, addend: 0x0, symName: __ZNSt3__110unique_ptrIA_PNS_16__hash_node_baseIPNS_11__hash_nodeINS_17__hash_value_typeIfNS_12basic_stringIcNS_11char_traitsIcEENS_9allocatorIcEEEEEEPvEEEENS_25__bucket_list_deallocatorINS7_ISF_EEEEE5resetB8ne180100IPSF_Li0EEEvT_, symObjAddr: 0x161E8, symBinAddr: 0x1000188CC, symSize: 0x78 }
  - { offset: 0xC3393, size: 0x8, addend: 0x0, symName: __ZNSt3__116allocator_traitsINS_9allocatorIPNS_16__hash_node_baseIPNS_11__hash_nodeINS_17__hash_value_typeIfNS_12basic_stringIcNS_11char_traitsIcEENS1_IcEEEEEEPvEEEEEEE8allocateB8ne180100ERSG_m, symObjAddr: 0x16260, symBinAddr: 0x100018944, symSize: 0x2C }
  - { offset: 0xC33C6, size: 0x8, addend: 0x0, symName: __ZNSt3__125__bucket_list_deallocatorINS_9allocatorIPNS_16__hash_node_baseIPNS_11__hash_nodeINS_17__hash_value_typeIfNS_12basic_stringIcNS_11char_traitsIcEENS1_IcEEEEEEPvEEEEEEE4sizeB8ne180100Ev, symObjAddr: 0x1628C, symBinAddr: 0x100018970, symSize: 0x24 }
  - { offset: 0xC33EC, size: 0x8, addend: 0x0, symName: __ZNSt3__117__compressed_pairIPPNS_16__hash_node_baseIPNS_11__hash_nodeINS_17__hash_value_typeIfNS_12basic_stringIcNS_11char_traitsIcEENS_9allocatorIcEEEEEEPvEEEENS_25__bucket_list_deallocatorINS7_ISF_EEEEE6secondB8ne180100Ev, symObjAddr: 0x162B0, symBinAddr: 0x100018994, symSize: 0x28 }
  - { offset: 0xC3412, size: 0x8, addend: 0x0, symName: __ZNSt3__122__compressed_pair_elemINS_25__bucket_list_deallocatorINS_9allocatorIPNS_16__hash_node_baseIPNS_11__hash_nodeINS_17__hash_value_typeIfNS_12basic_stringIcNS_11char_traitsIcEENS2_IcEEEEEEPvEEEEEEEELi1ELb0EE5__getB8ne180100Ev, symObjAddr: 0x162D8, symBinAddr: 0x1000189BC, symSize: 0x14 }
  - { offset: 0xC3438, size: 0x8, addend: 0x0, symName: __ZNSt3__117__compressed_pairImNS_9allocatorIPNS_16__hash_node_baseIPNS_11__hash_nodeINS_17__hash_value_typeIfNS_12basic_stringIcNS_11char_traitsIcEENS1_IcEEEEEEPvEEEEEEE6secondB8ne180100Ev, symObjAddr: 0x162EC, symBinAddr: 0x1000189D0, symSize: 0x24 }
  - { offset: 0xC345E, size: 0x8, addend: 0x0, symName: __ZNSt3__122__compressed_pair_elemINS_9allocatorIPNS_16__hash_node_baseIPNS_11__hash_nodeINS_17__hash_value_typeIfNS_12basic_stringIcNS_11char_traitsIcEENS1_IcEEEEEEPvEEEEEELi1ELb1EE5__getB8ne180100Ev, symObjAddr: 0x16310, symBinAddr: 0x1000189F4, symSize: 0x14 }
  - { offset: 0xC3484, size: 0x8, addend: 0x0, symName: __ZNSt3__117__compressed_pairIPPNS_16__hash_node_baseIPNS_11__hash_nodeINS_17__hash_value_typeIfNS_12basic_stringIcNS_11char_traitsIcEENS_9allocatorIcEEEEEEPvEEEENS_25__bucket_list_deallocatorINS7_ISF_EEEEE5firstB8ne180100Ev, symObjAddr: 0x16324, symBinAddr: 0x100018A08, symSize: 0x24 }
  - { offset: 0xC34AA, size: 0x8, addend: 0x0, symName: __ZNSt3__125__bucket_list_deallocatorINS_9allocatorIPNS_16__hash_node_baseIPNS_11__hash_nodeINS_17__hash_value_typeIfNS_12basic_stringIcNS_11char_traitsIcEENS1_IcEEEEEEPvEEEEEEEclB8ne180100EPSF_, symObjAddr: 0x16348, symBinAddr: 0x100018A2C, symSize: 0x58 }
  - { offset: 0xC34DF, size: 0x8, addend: 0x0, symName: __ZNSt3__122__compressed_pair_elemIPPNS_16__hash_node_baseIPNS_11__hash_nodeINS_17__hash_value_typeIfNS_12basic_stringIcNS_11char_traitsIcEENS_9allocatorIcEEEEEEPvEEEELi0ELb0EE5__getB8ne180100Ev, symObjAddr: 0x163A0, symBinAddr: 0x100018A84, symSize: 0x14 }
  - { offset: 0xC3505, size: 0x8, addend: 0x0, symName: __ZNSt3__116allocator_traitsINS_9allocatorIPNS_16__hash_node_baseIPNS_11__hash_nodeINS_17__hash_value_typeIfNS_12basic_stringIcNS_11char_traitsIcEENS1_IcEEEEEEPvEEEEEEE10deallocateB8ne180100ERSG_PSF_m, symObjAddr: 0x163B4, symBinAddr: 0x100018A98, symSize: 0x34 }
  - { offset: 0xC3547, size: 0x8, addend: 0x0, symName: __ZNSt3__19allocatorIPNS_16__hash_node_baseIPNS_11__hash_nodeINS_17__hash_value_typeIfNS_12basic_stringIcNS_11char_traitsIcEENS0_IcEEEEEEPvEEEEE10deallocateB8ne180100EPSE_m, symObjAddr: 0x163E8, symBinAddr: 0x100018ACC, symSize: 0x40 }
  - { offset: 0xC3589, size: 0x8, addend: 0x0, symName: __ZNSt3__19allocatorIPNS_16__hash_node_baseIPNS_11__hash_nodeINS_17__hash_value_typeIfNS_12basic_stringIcNS_11char_traitsIcEENS0_IcEEEEEEPvEEEEE8allocateB8ne180100Em, symObjAddr: 0x16428, symBinAddr: 0x100018B0C, symSize: 0x58 }
  - { offset: 0xC35C7, size: 0x8, addend: 0x0, symName: __ZNSt3__116allocator_traitsINS_9allocatorIPNS_16__hash_node_baseIPNS_11__hash_nodeINS_17__hash_value_typeIfNS_12basic_stringIcNS_11char_traitsIcEENS1_IcEEEEEEPvEEEEEEE8max_sizeB8ne180100ISG_vvEEmRKSG_, symObjAddr: 0x16480, symBinAddr: 0x100018B64, symSize: 0x28 }
  - { offset: 0xC35F2, size: 0x8, addend: 0x0, symName: __ZNSt3__117__compressed_pairImNS_9allocatorIPNS_16__hash_node_baseIPNS_11__hash_nodeINS_17__hash_value_typeIfNS_12basic_stringIcNS_11char_traitsIcEENS1_IcEEEEEEPvEEEEEEE5firstB8ne180100Ev, symObjAddr: 0x164A8, symBinAddr: 0x100018B8C, symSize: 0x24 }
  - { offset: 0xC3618, size: 0x8, addend: 0x0, symName: __ZNSt3__122__compressed_pair_elemINS_16__hash_node_baseIPNS_11__hash_nodeINS_17__hash_value_typeIfNS_12basic_stringIcNS_11char_traitsIcEENS_9allocatorIcEEEEEEPvEEEELi0ELb0EE5__getB8ne180100Ev, symObjAddr: 0x164E8, symBinAddr: 0x100018BCC, symSize: 0x14 }
  - { offset: 0xC363E, size: 0x8, addend: 0x0, symName: __ZNSt3__117__compressed_pairIPNS_11__hash_nodeINS_17__hash_value_typeIfNS_12basic_stringIcNS_11char_traitsIcEENS_9allocatorIcEEEEEEPvEENS_22__hash_node_destructorINS6_ISB_EEEEE5firstB8ne180100Ev, symObjAddr: 0x164FC, symBinAddr: 0x100018BE0, symSize: 0x24 }
  - { offset: 0xC3664, size: 0x8, addend: 0x0, symName: __ZNSt3__122__compressed_pair_elemIPNS_11__hash_nodeINS_17__hash_value_typeIfNS_12basic_stringIcNS_11char_traitsIcEENS_9allocatorIcEEEEEEPvEELi0ELb0EE5__getB8ne180100Ev, symObjAddr: 0x16520, symBinAddr: 0x100018C04, symSize: 0x14 }
  - { offset: 0xC368A, size: 0x8, addend: 0x0, symName: __ZNSt3__110unique_ptrINS_11__hash_nodeINS_17__hash_value_typeIfNS_12basic_stringIcNS_11char_traitsIcEENS_9allocatorIcEEEEEEPvEENS_22__hash_node_destructorINS6_ISB_EEEEED2B8ne180100Ev, symObjAddr: 0x16534, symBinAddr: 0x100018C18, symSize: 0x30 }
  - { offset: 0xC36B4, size: 0x8, addend: 0x0, symName: __ZNSt3__110unique_ptrINS_11__hash_nodeINS_17__hash_value_typeIfNS_12basic_stringIcNS_11char_traitsIcEENS_9allocatorIcEEEEEEPvEENS_22__hash_node_destructorINS6_ISB_EEEEE5resetB8ne180100EPSB_, symObjAddr: 0x16564, symBinAddr: 0x100018C48, symSize: 0x78 }
  - { offset: 0xC36F8, size: 0x8, addend: 0x0, symName: __ZNSt3__122__hash_node_destructorINS_9allocatorINS_11__hash_nodeINS_17__hash_value_typeIfNS_12basic_stringIcNS_11char_traitsIcEENS1_IcEEEEEEPvEEEEEclB8ne180100EPSB_, symObjAddr: 0x165DC, symBinAddr: 0x100018CC0, symSize: 0xA4 }
  - { offset: 0xC372D, size: 0x8, addend: 0x0, symName: __ZNSt3__116allocator_traitsINS_9allocatorINS_11__hash_nodeINS_17__hash_value_typeIfNS_12basic_stringIcNS_11char_traitsIcEENS1_IcEEEEEEPvEEEEE7destroyB8ne180100INS_4pairIKfS8_EEvvEEvRSC_PT_, symObjAddr: 0x16680, symBinAddr: 0x100018D64, symSize: 0x28 }
  - { offset: 0xC3767, size: 0x8, addend: 0x0, symName: __ZNSt3__116allocator_traitsINS_9allocatorINS_11__hash_nodeINS_17__hash_value_typeIfNS_12basic_stringIcNS_11char_traitsIcEENS1_IcEEEEEEPvEEEEE10deallocateB8ne180100ERSC_PSB_m, symObjAddr: 0x166CC, symBinAddr: 0x100018DB0, symSize: 0x34 }
  - { offset: 0xC37A9, size: 0x8, addend: 0x0, symName: __ZNSt3__14pairIKfNS_12basic_stringIcNS_11char_traitsIcEENS_9allocatorIcEEEEED1Ev, symObjAddr: 0x16724, symBinAddr: 0x100018E08, symSize: 0x2C }
  - { offset: 0xC37D5, size: 0x8, addend: 0x0, symName: __ZNSt3__14pairIKfNS_12basic_stringIcNS_11char_traitsIcEENS_9allocatorIcEEEEED2Ev, symObjAddr: 0x16750, symBinAddr: 0x100018E34, symSize: 0x30 }
  - { offset: 0xC3801, size: 0x8, addend: 0x0, symName: __ZNSt3__111__hash_nodeINS_17__hash_value_typeIfNS_12basic_stringIcNS_11char_traitsIcEENS_9allocatorIcEEEEEEPvED1B8ne180100Ev, symObjAddr: 0x16780, symBinAddr: 0x100018E64, symSize: 0x2C }
  - { offset: 0xC382B, size: 0x8, addend: 0x0, symName: __ZNSt3__111__hash_nodeINS_17__hash_value_typeIfNS_12basic_stringIcNS_11char_traitsIcEENS_9allocatorIcEEEEEEPvED2B8ne180100Ev, symObjAddr: 0x167AC, symBinAddr: 0x100018E90, symSize: 0x14 }
  - { offset: 0xC3855, size: 0x8, addend: 0x0, symName: __ZNSt3__19allocatorINS_11__hash_nodeINS_17__hash_value_typeIfNS_12basic_stringIcNS_11char_traitsIcEENS0_IcEEEEEEPvEEE10deallocateB8ne180100EPSA_m, symObjAddr: 0x167C0, symBinAddr: 0x100018EA4, symSize: 0x44 }
  - { offset: 0xC3897, size: 0x8, addend: 0x0, symName: __ZNSt3__115__hash_iteratorIPNS_11__hash_nodeINS_17__hash_value_typeIfNS_12basic_stringIcNS_11char_traitsIcEENS_9allocatorIcEEEEEEPvEEEC2B8ne180100EPNS_16__hash_node_baseISC_EE, symObjAddr: 0x16804, symBinAddr: 0x100018EE8, symSize: 0x20 }
  - { offset: 0xC38D0, size: 0x8, addend: 0x0, symName: __ZNSt3__14pairINS_15__hash_iteratorIPNS_11__hash_nodeINS_17__hash_value_typeIfNS_12basic_stringIcNS_11char_traitsIcEENS_9allocatorIcEEEEEEPvEEEEbEC2B8ne180100ISE_RbLi0EEEOT_OT0_, symObjAddr: 0x16824, symBinAddr: 0x100018F08, symSize: 0x38 }
  - { offset: 0xC392E, size: 0x8, addend: 0x0, symName: __ZNSt3__15tupleIJRKfEEC1B8ne180100INS_4_AndELi0EEES2_, symObjAddr: 0x1685C, symBinAddr: 0x100018F40, symSize: 0x34 }
  - { offset: 0xC3977, size: 0x8, addend: 0x0, symName: __ZNSt3__15tupleIJRKfEEC2B8ne180100INS_4_AndELi0EEES2_, symObjAddr: 0x16890, symBinAddr: 0x100018F74, symSize: 0x34 }
  - { offset: 0xC39C0, size: 0x8, addend: 0x0, symName: __ZNSt3__112__tuple_implINS_15__tuple_indicesIJLm0EEEEJRKfEEC1B8ne180100IJLm0EEJS4_EJEJEJS4_EEENS1_IJXspT_EEEENS_13__tuple_typesIJDpT0_EEENS1_IJXspT1_EEEENS8_IJDpT2_EEEDpOT3_, symObjAddr: 0x168C4, symBinAddr: 0x100018FA8, symSize: 0x34 }
  - { offset: 0xC3A51, size: 0x8, addend: 0x0, symName: __ZNSt3__112__tuple_implINS_15__tuple_indicesIJLm0EEEEJRKfEEC2B8ne180100IJLm0EEJS4_EJEJEJS4_EEENS1_IJXspT_EEEENS_13__tuple_typesIJDpT0_EEENS1_IJXspT1_EEEENS8_IJDpT2_EEEDpOT3_, symObjAddr: 0x168F8, symBinAddr: 0x100018FDC, symSize: 0x34 }
  - { offset: 0xC3AE2, size: 0x8, addend: 0x0, symName: __ZNSt3__112__tuple_leafILm0ERKfLb0EEC2B8ne180100IS2_vEEOT_, symObjAddr: 0x1692C, symBinAddr: 0x100019010, symSize: 0x20 }
  - { offset: 0xC3B25, size: 0x8, addend: 0x0, symName: __ZNSt3__114pointer_traitsIPNS_17__hash_value_typeIfNS_12basic_stringIcNS_11char_traitsIcEENS_9allocatorIcEEEEEEE10pointer_toB8ne180100ERS8_, symObjAddr: 0x1694C, symBinAddr: 0x100019030, symSize: 0x14 }
  - { offset: 0xC3B48, size: 0x8, addend: 0x0, symName: __ZNSt3__16vectorIfNS_9allocatorIfEEE17__destruct_at_endB8ne180100EPf, symObjAddr: 0x16998, symBinAddr: 0x10001907C, symSize: 0x4C }
  - { offset: 0xC3B8C, size: 0x8, addend: 0x0, symName: __ZNSt3__16vectorIfNS_9allocatorIfEEE11__make_iterB8ne180100EPf, symObjAddr: 0x16AE8, symBinAddr: 0x1000191CC, symSize: 0x30 }
  - { offset: 0xC3BC1, size: 0x8, addend: 0x0, symName: __ZNKSt3__111__wrap_iterIPKfE4baseB8ne180100Ev, symObjAddr: 0x16B18, symBinAddr: 0x1000191FC, symSize: 0x18 }
  - { offset: 0xC3C0B, size: 0x8, addend: 0x0, symName: __ZNKSt3__114__move_trivialclB8ne180100IffLi0EEENS_4pairIPT_PT0_EES4_S4_S6_, symObjAddr: 0x16CF0, symBinAddr: 0x1000193D4, symSize: 0x48 }
  - { offset: 0xC3C73, size: 0x8, addend: 0x0, symName: __ZNSt3__119__unwrap_range_implIPfS1_E8__unwrapB8ne180100ES1_S1_, symObjAddr: 0x16DFC, symBinAddr: 0x1000194E0, symSize: 0x58 }
  - { offset: 0xC3CAA, size: 0x8, addend: 0x0, symName: __ZNSt3__14pairIPfS1_EC1B8ne180100IS1_S1_Li0EEEOT_OT0_, symObjAddr: 0x16E54, symBinAddr: 0x100019538, symSize: 0x3C }
  - { offset: 0xC3D08, size: 0x8, addend: 0x0, symName: __ZNSt3__14pairIPfS1_EC2B8ne180100IS1_S1_Li0EEEOT_OT0_, symObjAddr: 0x16E90, symBinAddr: 0x100019574, symSize: 0x34 }
  - { offset: 0xC3D66, size: 0x8, addend: 0x0, symName: __ZNSt3__14pairIPfS1_EC1B8ne180100IRS1_S1_Li0EEEOT_OT0_, symObjAddr: 0x16FE0, symBinAddr: 0x1000196C4, symSize: 0x3C }
  - { offset: 0xC3DC4, size: 0x8, addend: 0x0, symName: __ZNSt3__14pairIPfS1_EC2B8ne180100IRS1_S1_Li0EEEOT_OT0_, symObjAddr: 0x1701C, symBinAddr: 0x100019700, symSize: 0x34 }
  - { offset: 0xC3E22, size: 0x8, addend: 0x0, symName: __ZNSt3__118__unwrap_iter_implIPfLb1EE8__unwrapB8ne180100ES1_, symObjAddr: 0x17050, symBinAddr: 0x100019734, symSize: 0x24 }
  - { offset: 0xC3E45, size: 0x8, addend: 0x0, symName: __ZNSt3__119__unwrap_range_implIPfS1_E8__rewrapB8ne180100ES1_S1_, symObjAddr: 0x17074, symBinAddr: 0x100019758, symSize: 0x2C }
  - { offset: 0xC3E76, size: 0x8, addend: 0x0, symName: __ZNSt3__118__unwrap_iter_implIPfLb1EE8__rewrapB8ne180100ES1_S1_, symObjAddr: 0x170A0, symBinAddr: 0x100019784, symSize: 0x50 }
  - { offset: 0xC3EA7, size: 0x8, addend: 0x0, symName: __ZNSt3__111__wrap_iterIPfEC1B8ne180100ES1_, symObjAddr: 0x170F0, symBinAddr: 0x1000197D4, symSize: 0x34 }
  - { offset: 0xC3EDF, size: 0x8, addend: 0x0, symName: __ZNSt3__111__wrap_iterIPfEC2B8ne180100ES1_, symObjAddr: 0x17124, symBinAddr: 0x100019808, symSize: 0x20 }
  - { offset: 0xC3F17, size: 0x8, addend: 0x0, symName: __ZNSt3__111__wrap_iterIPfEpLB8ne180100El, symObjAddr: 0x17144, symBinAddr: 0x100019828, symSize: 0x28 }
  - { offset: 0xC3F4B, size: 0x8, addend: 0x0, symName: __ZNSt3__111__wrap_iterIPKfEC2B8ne180100IPfLi0EEERKNS0_IT_EE, symObjAddr: 0x1716C, symBinAddr: 0x100019850, symSize: 0x3C }
  - { offset: 0xC3F92, size: 0x8, addend: 0x0, symName: __ZNKSt3__16vectorIfNS_9allocatorIfEEE6cbeginB8ne180100Ev, symObjAddr: 0x171A8, symBinAddr: 0x10001988C, symSize: 0x2C }
  - { offset: 0xC3FB8, size: 0x8, addend: 0x0, symName: __ZNKSt3__16vectorIfNS_9allocatorIfEEE5beginB8ne180100Ev, symObjAddr: 0x171D4, symBinAddr: 0x1000198B8, symSize: 0x30 }
  - { offset: 0xC3FE0, size: 0x8, addend: 0x0, symName: __ZNKSt3__16vectorIfNS_9allocatorIfEEE11__make_iterB8ne180100EPKf, symObjAddr: 0x17204, symBinAddr: 0x1000198E8, symSize: 0x30 }
  - { offset: 0xC4015, size: 0x8, addend: 0x0, symName: __ZNSt3__111__wrap_iterIPKfEC1B8ne180100ES2_, symObjAddr: 0x17234, symBinAddr: 0x100019918, symSize: 0x34 }
  - { offset: 0xC404D, size: 0x8, addend: 0x0, symName: __ZNSt3__111__wrap_iterIPKfEC2B8ne180100ES2_, symObjAddr: 0x17268, symBinAddr: 0x10001994C, symSize: 0x20 }
  - { offset: 0xC4085, size: 0x8, addend: 0x0, symName: __ZNSt3__16vectorIfNS_9allocatorIfEEE19__copy_assign_allocB8ne180100ERKS3_, symObjAddr: 0x172D0, symBinAddr: 0x1000199B4, symSize: 0x2C }
  - { offset: 0xC40BA, size: 0x8, addend: 0x0, symName: __ZNSt3__16vectorIfNS_9allocatorIfEEE6assignIPfLi0EEEvT_S6_, symObjAddr: 0x172FC, symBinAddr: 0x1000199E0, symSize: 0x5C }
  - { offset: 0xC410F, size: 0x8, addend: 0x0, symName: __ZNSt3__16vectorIfNS_9allocatorIfEEE19__copy_assign_allocB8ne180100ERKS3_NS_17integral_constantIbLb0EEE, symObjAddr: 0x17358, symBinAddr: 0x100019A3C, symSize: 0x14 }
  - { offset: 0xC414B, size: 0x8, addend: 0x0, symName: __ZNSt3__16vectorIfNS_9allocatorIfEEE18__assign_with_sizeB8ne180100IPfS5_EEvT_T0_l, symObjAddr: 0x1736C, symBinAddr: 0x100019A50, symSize: 0x164 }
  - { offset: 0xC41FB, size: 0x8, addend: 0x0, symName: __ZNSt3__16vectorIfNS_9allocatorIfEEE18__construct_at_endIPfS5_EEvT_T0_m, symObjAddr: 0x17570, symBinAddr: 0x100019C54, symSize: 0x8C }
  - { offset: 0xC4271, size: 0x8, addend: 0x0, symName: __ZNSt3__16vectorIfNS_9allocatorIfEEE13__vdeallocateEv, symObjAddr: 0x17640, symBinAddr: 0x100019D24, symSize: 0x94 }
  - { offset: 0xC4299, size: 0x8, addend: 0x0, symName: __ZNSt3__16vectorIfNS_9allocatorIfEEE11__vallocateB8ne180100Em, symObjAddr: 0x176D4, symBinAddr: 0x100019DB8, symSize: 0xAC }
  - { offset: 0xC42E7, size: 0x8, addend: 0x0, symName: __ZNKSt3__114__copy_trivialclB8ne180100IffLi0EEENS_4pairIPT_PT0_EES4_S4_S6_, symObjAddr: 0x179A4, symBinAddr: 0x10001A088, symSize: 0x48 }
  - { offset: 0xC434F, size: 0x8, addend: 0x0, symName: __ZNSt3__16vectorIiNS_9allocatorIiEEED2B8ne180100Ev, symObjAddr: 0x17A14, symBinAddr: 0x10001A0F8, symSize: 0x44 }
  - { offset: 0xC4379, size: 0x8, addend: 0x0, symName: __ZNSt3__16vectorIiNS_9allocatorIiEEE16__destroy_vectorC1B8ne180100ERS3_, symObjAddr: 0x17A58, symBinAddr: 0x10001A13C, symSize: 0x34 }
  - { offset: 0xC43B2, size: 0x8, addend: 0x0, symName: __ZNSt3__16vectorIiNS_9allocatorIiEEE16__destroy_vectorclB8ne180100Ev, symObjAddr: 0x17A8C, symBinAddr: 0x10001A170, symSize: 0x90 }
  - { offset: 0xC43D8, size: 0x8, addend: 0x0, symName: __ZNSt3__16vectorIiNS_9allocatorIiEEE16__destroy_vectorC2B8ne180100ERS3_, symObjAddr: 0x17B1C, symBinAddr: 0x10001A200, symSize: 0x20 }
  - { offset: 0xC4411, size: 0x8, addend: 0x0, symName: __ZN5Board19derivePostfixHelperEiiRKNSt3__112basic_stringIcNS0_11char_traitsIcEENS0_9allocatorIcEEEERKNS0_6vectorIfNS4_IfEEEERNS9_IiNS4_IiEEEEb, symObjAddr: 0x17B3C, symBinAddr: 0x10001A220, symSize: 0x4BEC }
  - { offset: 0xC48B0, size: 0x8, addend: 0x0, symName: __ZN5Board12setPostfixGRERKNSt3__16vectorIfNS0_9allocatorIfEEEERNS1_IiNS2_IiEEEE, symObjAddr: 0x1C728, symBinAddr: 0x10001EE0C, symSize: 0xB4 }
  - { offset: 0xC4911, size: 0x8, addend: 0x0, symName: __ZNSt3__16vectorIfNS_9allocatorIfEEE4backB8ne180100Ev, symObjAddr: 0x1C7DC, symBinAddr: 0x10001EEC0, symSize: 0x1C }
  - { offset: 0xC4937, size: 0x8, addend: 0x0, symName: __ZNSt3__16vectorINS_6threadENS_9allocatorIS1_EEEC2Em, symObjAddr: 0x1C7F8, symBinAddr: 0x10001EEDC, symSize: 0xD4 }
  - { offset: 0xC4988, size: 0x8, addend: 0x0, symName: __ZNSt3__117__compressed_pairIPNS_6threadENS_9allocatorIS1_EEEC1B8ne180100IDnNS_18__default_init_tagEEEOT_OT0_, symObjAddr: 0x1C8CC, symBinAddr: 0x10001EFB0, symSize: 0x3C }
  - { offset: 0xC49E0, size: 0x8, addend: 0x0, symName: __ZNSt3__16vectorINS_6threadENS_9allocatorIS1_EEE16__destroy_vectorC1B8ne180100ERS4_, symObjAddr: 0x1C948, symBinAddr: 0x10001F02C, symSize: 0x34 }
  - { offset: 0xC4A19, size: 0x8, addend: 0x0, symName: __ZNSt3__16vectorINS_6threadENS_9allocatorIS1_EEE11__vallocateB8ne180100Em, symObjAddr: 0x1C97C, symBinAddr: 0x10001F060, symSize: 0xAC }
  - { offset: 0xC4A5D, size: 0x8, addend: 0x0, symName: __ZNSt3__16vectorINS_6threadENS_9allocatorIS1_EEE18__construct_at_endEm, symObjAddr: 0x1CA28, symBinAddr: 0x10001F10C, symSize: 0xC8 }
  - { offset: 0xC4ACF, size: 0x8, addend: 0x0, symName: __ZNSt3__128__exception_guard_exceptionsINS_6vectorINS_6threadENS_9allocatorIS2_EEE16__destroy_vectorEE10__completeB8ne180100Ev, symObjAddr: 0x1CAF0, symBinAddr: 0x10001F1D4, symSize: 0x1C }
  - { offset: 0xC4AF5, size: 0x8, addend: 0x0, symName: __ZNSt3__128__exception_guard_exceptionsINS_6vectorINS_6threadENS_9allocatorIS2_EEE16__destroy_vectorEED1B8ne180100Ev, symObjAddr: 0x1CB0C, symBinAddr: 0x10001F1F0, symSize: 0x2C }
  - { offset: 0xC4B1F, size: 0x8, addend: 0x0, symName: __ZNSt3__117__compressed_pairIPNS_6threadENS_9allocatorIS1_EEEC2B8ne180100IDnNS_18__default_init_tagEEEOT_OT0_, symObjAddr: 0x1CB38, symBinAddr: 0x10001F21C, symSize: 0x40 }
  - { offset: 0xC4B77, size: 0x8, addend: 0x0, symName: __ZNSt3__122__compressed_pair_elemIPNS_6threadELi0ELb0EEC2B8ne180100IDnvEEOT_, symObjAddr: 0x1CB78, symBinAddr: 0x10001F25C, symSize: 0x1C }
  - { offset: 0xC4BB9, size: 0x8, addend: 0x0, symName: __ZNSt3__122__compressed_pair_elemINS_9allocatorINS_6threadEEELi1ELb1EEC2B8ne180100ENS_18__default_init_tagE, symObjAddr: 0x1CB94, symBinAddr: 0x10001F278, symSize: 0x2C }
  - { offset: 0xC4BEE, size: 0x8, addend: 0x0, symName: __ZNSt3__19allocatorINS_6threadEEC2B8ne180100Ev, symObjAddr: 0x1CBC0, symBinAddr: 0x10001F2A4, symSize: 0x2C }
  - { offset: 0xC4C18, size: 0x8, addend: 0x0, symName: __ZNSt3__116__non_trivial_ifILb1ENS_9allocatorINS_6threadEEEEC2B8ne180100Ev, symObjAddr: 0x1CBEC, symBinAddr: 0x10001F2D0, symSize: 0x14 }
  - { offset: 0xC4C42, size: 0x8, addend: 0x0, symName: __ZNSt3__128__exception_guard_exceptionsINS_6vectorINS_6threadENS_9allocatorIS2_EEE16__destroy_vectorEEC1B8ne180100ES6_, symObjAddr: 0x1CC00, symBinAddr: 0x10001F2E4, symSize: 0x34 }
  - { offset: 0xC4C7A, size: 0x8, addend: 0x0, symName: __ZNSt3__128__exception_guard_exceptionsINS_6vectorINS_6threadENS_9allocatorIS2_EEE16__destroy_vectorEEC2B8ne180100ES6_, symObjAddr: 0x1CC34, symBinAddr: 0x10001F318, symSize: 0x24 }
  - { offset: 0xC4CB2, size: 0x8, addend: 0x0, symName: __ZNSt3__16vectorINS_6threadENS_9allocatorIS1_EEE16__destroy_vectorC2B8ne180100ERS4_, symObjAddr: 0x1CC58, symBinAddr: 0x10001F33C, symSize: 0x20 }
  - { offset: 0xC4CEB, size: 0x8, addend: 0x0, symName: __ZNKSt3__16vectorINS_6threadENS_9allocatorIS1_EEE8max_sizeEv, symObjAddr: 0x1CC78, symBinAddr: 0x10001F35C, symSize: 0x60 }
  - { offset: 0xC4D13, size: 0x8, addend: 0x0, symName: __ZNKSt3__16vectorINS_6threadENS_9allocatorIS1_EEE20__throw_length_errorB8ne180100Ev, symObjAddr: 0x1CCD8, symBinAddr: 0x10001F3BC, symSize: 0x1C }
  - { offset: 0xC4D39, size: 0x8, addend: 0x0, symName: __ZNSt3__16vectorINS_6threadENS_9allocatorIS1_EEE7__allocB8ne180100Ev, symObjAddr: 0x1CD34, symBinAddr: 0x10001F418, symSize: 0x28 }
  - { offset: 0xC4D5F, size: 0x8, addend: 0x0, symName: __ZNSt3__16vectorINS_6threadENS_9allocatorIS1_EEE9__end_capB8ne180100Ev, symObjAddr: 0x1CD5C, symBinAddr: 0x10001F440, symSize: 0x28 }
  - { offset: 0xC4D85, size: 0x8, addend: 0x0, symName: __ZNKSt3__16vectorINS_6threadENS_9allocatorIS1_EEE14__annotate_newB8ne180100Em, symObjAddr: 0x1CD84, symBinAddr: 0x10001F468, symSize: 0x14 }
  - { offset: 0xC4DC4, size: 0x8, addend: 0x0, symName: __ZNSt3__116allocator_traitsINS_9allocatorINS_6threadEEEE8max_sizeB8ne180100IS3_vvEEmRKS3_, symObjAddr: 0x1CD98, symBinAddr: 0x10001F47C, symSize: 0x28 }
  - { offset: 0xC4DEF, size: 0x8, addend: 0x0, symName: __ZNKSt3__16vectorINS_6threadENS_9allocatorIS1_EEE7__allocB8ne180100Ev, symObjAddr: 0x1CDC0, symBinAddr: 0x10001F4A4, symSize: 0x28 }
  - { offset: 0xC4E15, size: 0x8, addend: 0x0, symName: __ZNKSt3__117__compressed_pairIPNS_6threadENS_9allocatorIS1_EEE6secondB8ne180100Ev, symObjAddr: 0x1CDE8, symBinAddr: 0x10001F4CC, symSize: 0x24 }
  - { offset: 0xC4E3B, size: 0x8, addend: 0x0, symName: __ZNKSt3__122__compressed_pair_elemINS_9allocatorINS_6threadEEELi1ELb1EE5__getB8ne180100Ev, symObjAddr: 0x1CE0C, symBinAddr: 0x10001F4F0, symSize: 0x14 }
  - { offset: 0xC4E61, size: 0x8, addend: 0x0, symName: __ZNSt3__19allocatorINS_6threadEE8allocateB8ne180100Em, symObjAddr: 0x1CE20, symBinAddr: 0x10001F504, symSize: 0x58 }
  - { offset: 0xC4E95, size: 0x8, addend: 0x0, symName: __ZNSt3__117__compressed_pairIPNS_6threadENS_9allocatorIS1_EEE6secondB8ne180100Ev, symObjAddr: 0x1CE78, symBinAddr: 0x10001F55C, symSize: 0x24 }
  - { offset: 0xC4EBB, size: 0x8, addend: 0x0, symName: __ZNSt3__122__compressed_pair_elemINS_9allocatorINS_6threadEEELi1ELb1EE5__getB8ne180100Ev, symObjAddr: 0x1CE9C, symBinAddr: 0x10001F580, symSize: 0x14 }
  - { offset: 0xC4EE1, size: 0x8, addend: 0x0, symName: __ZNSt3__117__compressed_pairIPNS_6threadENS_9allocatorIS1_EEE5firstB8ne180100Ev, symObjAddr: 0x1CEB0, symBinAddr: 0x10001F594, symSize: 0x24 }
  - { offset: 0xC4F07, size: 0x8, addend: 0x0, symName: __ZNSt3__122__compressed_pair_elemIPNS_6threadELi0ELb0EE5__getB8ne180100Ev, symObjAddr: 0x1CED4, symBinAddr: 0x10001F5B8, symSize: 0x14 }
  - { offset: 0xC4F46, size: 0x8, addend: 0x0, symName: __ZNSt3__16vectorINS_6threadENS_9allocatorIS1_EEE21_ConstructTransactionC1B8ne180100ERS4_m, symObjAddr: 0x1CEE8, symBinAddr: 0x10001F5CC, symSize: 0x3C }
  - { offset: 0xC4F8E, size: 0x8, addend: 0x0, symName: __ZNSt3__116allocator_traitsINS_9allocatorINS_6threadEEEE9constructB8ne180100IS2_JEvvEEvRS3_PT_DpOT0_, symObjAddr: 0x1CF24, symBinAddr: 0x10001F608, symSize: 0x28 }
  - { offset: 0xC4FCD, size: 0x8, addend: 0x0, symName: __ZNSt3__16vectorINS_6threadENS_9allocatorIS1_EEE21_ConstructTransactionD1B8ne180100Ev, symObjAddr: 0x1CF60, symBinAddr: 0x10001F644, symSize: 0x2C }
  - { offset: 0xC4FF7, size: 0x8, addend: 0x0, symName: __ZNSt3__16vectorINS_6threadENS_9allocatorIS1_EEE21_ConstructTransactionC2B8ne180100ERS4_m, symObjAddr: 0x1CF8C, symBinAddr: 0x10001F670, symSize: 0x44 }
  - { offset: 0xC503F, size: 0x8, addend: 0x0, symName: __ZNSt3__16threadC1B8ne180100Ev, symObjAddr: 0x1D020, symBinAddr: 0x10001F704, symSize: 0x2C }
  - { offset: 0xC5069, size: 0x8, addend: 0x0, symName: __ZNSt3__16threadC2B8ne180100Ev, symObjAddr: 0x1D04C, symBinAddr: 0x10001F730, symSize: 0x18 }
  - { offset: 0xC5093, size: 0x8, addend: 0x0, symName: __ZNSt3__16vectorINS_6threadENS_9allocatorIS1_EEE21_ConstructTransactionD2B8ne180100Ev, symObjAddr: 0x1D064, symBinAddr: 0x10001F748, symSize: 0x20 }
  - { offset: 0xC50BD, size: 0x8, addend: 0x0, symName: __ZNSt3__128__exception_guard_exceptionsINS_6vectorINS_6threadENS_9allocatorIS2_EEE16__destroy_vectorEED2B8ne180100Ev, symObjAddr: 0x1D084, symBinAddr: 0x10001F768, symSize: 0x50 }
  - { offset: 0xC50E7, size: 0x8, addend: 0x0, symName: __ZNSt3__16vectorINS_6threadENS_9allocatorIS1_EEE16__destroy_vectorclB8ne180100Ev, symObjAddr: 0x1D0D4, symBinAddr: 0x10001F7B8, symSize: 0x90 }
  - { offset: 0xC510D, size: 0x8, addend: 0x0, symName: __ZNSt3__16vectorINS_6threadENS_9allocatorIS1_EEE7__clearB8ne180100Ev, symObjAddr: 0x1D164, symBinAddr: 0x10001F848, symSize: 0x28 }
  - { offset: 0xC5133, size: 0x8, addend: 0x0, symName: __ZNKSt3__16vectorINS_6threadENS_9allocatorIS1_EEE17__annotate_deleteB8ne180100Ev, symObjAddr: 0x1D18C, symBinAddr: 0x10001F870, symSize: 0x10 }
  - { offset: 0xC5159, size: 0x8, addend: 0x0, symName: __ZNSt3__116allocator_traitsINS_9allocatorINS_6threadEEEE10deallocateB8ne180100ERS3_PS2_m, symObjAddr: 0x1D19C, symBinAddr: 0x10001F880, symSize: 0x34 }
  - { offset: 0xC519B, size: 0x8, addend: 0x0, symName: __ZNKSt3__16vectorINS_6threadENS_9allocatorIS1_EEE8capacityB8ne180100Ev, symObjAddr: 0x1D1D0, symBinAddr: 0x10001F8B4, symSize: 0x40 }
  - { offset: 0xC51C1, size: 0x8, addend: 0x0, symName: __ZNSt3__16vectorINS_6threadENS_9allocatorIS1_EEE22__base_destruct_at_endB8ne180100EPS1_, symObjAddr: 0x1D210, symBinAddr: 0x10001F8F4, symSize: 0x8C }
  - { offset: 0xC5205, size: 0x8, addend: 0x0, symName: __ZNSt3__116allocator_traitsINS_9allocatorINS_6threadEEEE7destroyB8ne180100IS2_vvEEvRS3_PT_, symObjAddr: 0x1D29C, symBinAddr: 0x10001F980, symSize: 0x28 }
  - { offset: 0xC523F, size: 0x8, addend: 0x0, symName: __ZNSt3__19allocatorINS_6threadEE10deallocateB8ne180100EPS1_m, symObjAddr: 0x1D2E8, symBinAddr: 0x10001F9CC, symSize: 0x40 }
  - { offset: 0xC5281, size: 0x8, addend: 0x0, symName: __ZNKSt3__16vectorINS_6threadENS_9allocatorIS1_EEE9__end_capB8ne180100Ev, symObjAddr: 0x1D328, symBinAddr: 0x10001FA0C, symSize: 0x28 }
  - { offset: 0xC52A7, size: 0x8, addend: 0x0, symName: __ZNKSt3__117__compressed_pairIPNS_6threadENS_9allocatorIS1_EEE5firstB8ne180100Ev, symObjAddr: 0x1D350, symBinAddr: 0x10001FA34, symSize: 0x24 }
  - { offset: 0xC52CD, size: 0x8, addend: 0x0, symName: __ZNKSt3__122__compressed_pair_elemIPNS_6threadELi0ELb0EE5__getB8ne180100Ev, symObjAddr: 0x1D374, symBinAddr: 0x10001FA58, symSize: 0x14 }
  - { offset: 0xC52F3, size: 0x8, addend: 0x0, symName: __ZNSt3__15latchC2B8ne180100El, symObjAddr: 0x1D388, symBinAddr: 0x10001FA6C, symSize: 0x34 }
  - { offset: 0xC532B, size: 0x8, addend: 0x0, symName: __ZNSt3__113__atomic_baseIlLb1EEC1B8ne180100El, symObjAddr: 0x1D3BC, symBinAddr: 0x10001FAA0, symSize: 0x34 }
  - { offset: 0xC5363, size: 0x8, addend: 0x0, symName: __ZNSt3__113__atomic_baseIlLb1EEC2B8ne180100El, symObjAddr: 0x1D3F0, symBinAddr: 0x10001FAD4, symSize: 0x34 }
  - { offset: 0xC539B, size: 0x8, addend: 0x0, symName: __ZNSt3__113__atomic_baseIlLb0EEC2B8ne180100El, symObjAddr: 0x1D424, symBinAddr: 0x10001FB08, symSize: 0x34 }
  - { offset: 0xC53D3, size: 0x8, addend: 0x0, symName: __ZNSt3__117__cxx_atomic_implIlNS_22__cxx_atomic_base_implIlEEEC1B8ne180100El, symObjAddr: 0x1D458, symBinAddr: 0x10001FB3C, symSize: 0x34 }
  - { offset: 0xC540C, size: 0x8, addend: 0x0, symName: __ZNSt3__117__cxx_atomic_implIlNS_22__cxx_atomic_base_implIlEEEC2B8ne180100El, symObjAddr: 0x1D48C, symBinAddr: 0x10001FB70, symSize: 0x34 }
  - { offset: 0xC5445, size: 0x8, addend: 0x0, symName: __ZNSt3__122__cxx_atomic_base_implIlEC2El, symObjAddr: 0x1D4C0, symBinAddr: 0x10001FBA4, symSize: 0x20 }
  - { offset: 0xC547E, size: 0x8, addend: 0x0, symName: __ZNSt3__16atomicIfEC2B8ne180100Ef, symObjAddr: 0x1D4E0, symBinAddr: 0x10001FBC4, symSize: 0x34 }
  - { offset: 0xC54B6, size: 0x8, addend: 0x0, symName: __ZNSt3__113__atomic_baseIfLb0EEC2B8ne180100Ef, symObjAddr: 0x1D514, symBinAddr: 0x10001FBF8, symSize: 0x34 }
  - { offset: 0xC54EE, size: 0x8, addend: 0x0, symName: __ZNSt3__117__cxx_atomic_implIfNS_22__cxx_atomic_base_implIfEEEC1B8ne180100Ef, symObjAddr: 0x1D548, symBinAddr: 0x10001FC2C, symSize: 0x34 }
  - { offset: 0xC5527, size: 0x8, addend: 0x0, symName: __ZNSt3__117__cxx_atomic_implIfNS_22__cxx_atomic_base_implIfEEEC2B8ne180100Ef, symObjAddr: 0x1D57C, symBinAddr: 0x10001FC60, symSize: 0x34 }
  - { offset: 0xC5560, size: 0x8, addend: 0x0, symName: __ZNSt3__122__cxx_atomic_base_implIfEC2Ef, symObjAddr: 0x1D5B0, symBinAddr: 0x10001FC94, symSize: 0x20 }
  - { offset: 0xC5599, size: 0x8, addend: 0x0, symName: __ZNSt3__112basic_stringIcNS_11char_traitsIcEENS_9allocatorIcEEEC2B8ne180100Ev, symObjAddr: 0x1D5D0, symBinAddr: 0x10001FCB4, symSize: 0x48 }
  - { offset: 0xC55C3, size: 0x8, addend: 0x0, symName: __ZNSt3__117__compressed_pairINS_12basic_stringIcNS_11char_traitsIcEENS_9allocatorIcEEE5__repES5_EC1B8ne180100INS_16__value_init_tagENS_18__default_init_tagEEEOT_OT0_, symObjAddr: 0x1D618, symBinAddr: 0x10001FCFC, symSize: 0x3C }
  - { offset: 0xC561B, size: 0x8, addend: 0x0, symName: __ZNSt3__117__compressed_pairINS_12basic_stringIcNS_11char_traitsIcEENS_9allocatorIcEEE5__repES5_EC2B8ne180100INS_16__value_init_tagENS_18__default_init_tagEEEOT_OT0_, symObjAddr: 0x1D654, symBinAddr: 0x10001FD38, symSize: 0x3C }
  - { offset: 0xC5673, size: 0x8, addend: 0x0, symName: __ZNSt3__122__compressed_pair_elemINS_12basic_stringIcNS_11char_traitsIcEENS_9allocatorIcEEE5__repELi0ELb0EEC2B8ne180100ENS_16__value_init_tagE, symObjAddr: 0x1D690, symBinAddr: 0x10001FD74, symSize: 0x20 }
  - { offset: 0xC56A8, size: 0x8, addend: 0x0, symName: __ZNSt3__16vectorINS_6threadENS_9allocatorIS1_EEED2B8ne180100Ev, symObjAddr: 0x1D6F8, symBinAddr: 0x10001FDDC, symSize: 0x40 }
  - { offset: 0xC56D2, size: 0x8, addend: 0x0, symName: __ZNSt3__16vectorIfNS_9allocatorIfEEEC2B8ne180100ESt16initializer_listIfE, symObjAddr: 0x1D738, symBinAddr: 0x10001FE1C, symSize: 0x120 }
  - { offset: 0xC5723, size: 0x8, addend: 0x0, symName: __ZNKSt16initializer_listIfE4sizeB8ne180100Ev, symObjAddr: 0x1D898, symBinAddr: 0x10001FF7C, symSize: 0x18 }
  - { offset: 0xC5749, size: 0x8, addend: 0x0, symName: __ZNSt3__16vectorIfNS_9allocatorIfEEE18__construct_at_endIPKfS6_EEvT_T0_m, symObjAddr: 0x1D8B0, symBinAddr: 0x10001FF94, symSize: 0x8C }
  - { offset: 0xC57BF, size: 0x8, addend: 0x0, symName: __ZNKSt16initializer_listIfE5beginB8ne180100Ev, symObjAddr: 0x1D93C, symBinAddr: 0x100020020, symSize: 0x18 }
  - { offset: 0xC57E5, size: 0x8, addend: 0x0, symName: __ZNKSt16initializer_listIfE3endB8ne180100Ev, symObjAddr: 0x1D954, symBinAddr: 0x100020038, symSize: 0x20 }
  - { offset: 0xC580B, size: 0x8, addend: 0x0, symName: __ZNSt3__128__exception_guard_exceptionsINS_6vectorIfNS_9allocatorIfEEE16__destroy_vectorEE10__completeB8ne180100Ev, symObjAddr: 0x1D974, symBinAddr: 0x100020058, symSize: 0x1C }
  - { offset: 0xC5831, size: 0x8, addend: 0x0, symName: __ZNSt3__128__exception_guard_exceptionsINS_6vectorIfNS_9allocatorIfEEE16__destroy_vectorEED1B8ne180100Ev, symObjAddr: 0x1D990, symBinAddr: 0x100020074, symSize: 0x2C }
  - { offset: 0xC585B, size: 0x8, addend: 0x0, symName: __ZNSt3__128__exception_guard_exceptionsINS_6vectorIfNS_9allocatorIfEEE16__destroy_vectorEEC1B8ne180100ES5_, symObjAddr: 0x1D9BC, symBinAddr: 0x1000200A0, symSize: 0x34 }
  - { offset: 0xC5893, size: 0x8, addend: 0x0, symName: __ZNSt3__128__exception_guard_exceptionsINS_6vectorIfNS_9allocatorIfEEE16__destroy_vectorEEC2B8ne180100ES5_, symObjAddr: 0x1D9F0, symBinAddr: 0x1000200D4, symSize: 0x24 }
  - { offset: 0xC58E5, size: 0x8, addend: 0x0, symName: __ZNSt3__119__unwrap_range_implIPKfS2_E8__unwrapB8ne180100ES2_S2_, symObjAddr: 0x1DB08, symBinAddr: 0x1000201EC, symSize: 0x58 }
  - { offset: 0xC591C, size: 0x8, addend: 0x0, symName: __ZNSt3__14pairIPKfS2_EC1B8ne180100IS2_S2_Li0EEEOT_OT0_, symObjAddr: 0x1DB84, symBinAddr: 0x100020268, symSize: 0x3C }
  - { offset: 0xC597A, size: 0x8, addend: 0x0, symName: __ZNSt3__118__unwrap_iter_implIPKfLb1EE8__unwrapB8ne180100ES2_, symObjAddr: 0x1DBC0, symBinAddr: 0x1000202A4, symSize: 0x24 }
  - { offset: 0xC599D, size: 0x8, addend: 0x0, symName: __ZNSt3__14pairIPKfS2_EC2B8ne180100IS2_S2_Li0EEEOT_OT0_, symObjAddr: 0x1DBF8, symBinAddr: 0x1000202DC, symSize: 0x34 }
  - { offset: 0xC5A15, size: 0x8, addend: 0x0, symName: __ZNKSt3__114__copy_trivialclB8ne180100IKffLi0EEENS_4pairIPT_PT0_EES5_S5_S7_, symObjAddr: 0x1DDA8, symBinAddr: 0x10002048C, symSize: 0x48 }
  - { offset: 0xC5A82, size: 0x8, addend: 0x0, symName: __ZNSt3__14pairIPKfPfEC1B8ne180100IRS2_S3_Li0EEEOT_OT0_, symObjAddr: 0x1DF70, symBinAddr: 0x100020654, symSize: 0x3C }
  - { offset: 0xC5AE0, size: 0x8, addend: 0x0, symName: __ZNSt3__14pairIPKfPfEC2B8ne180100IRS2_S3_Li0EEEOT_OT0_, symObjAddr: 0x1DFAC, symBinAddr: 0x100020690, symSize: 0x34 }
  - { offset: 0xC5B3E, size: 0x8, addend: 0x0, symName: __ZNSt3__14pairIPKfPfEC1B8ne180100IS2_S3_Li0EEEOT_OT0_, symObjAddr: 0x1DFE0, symBinAddr: 0x1000206C4, symSize: 0x3C }
  - { offset: 0xC5B9C, size: 0x8, addend: 0x0, symName: __ZNSt3__14pairIPKfPfEC2B8ne180100IS2_S3_Li0EEEOT_OT0_, symObjAddr: 0x1E01C, symBinAddr: 0x100020700, symSize: 0x34 }
  - { offset: 0xC5BFA, size: 0x8, addend: 0x0, symName: __ZNSt3__119__unwrap_range_implIPKfS2_E8__rewrapB8ne180100ES2_S2_, symObjAddr: 0x1E050, symBinAddr: 0x100020734, symSize: 0x2C }
  - { offset: 0xC5C2B, size: 0x8, addend: 0x0, symName: __ZNSt3__118__unwrap_iter_implIPKfLb1EE8__rewrapB8ne180100ES2_S2_, symObjAddr: 0x1E0B8, symBinAddr: 0x10002079C, symSize: 0x50 }
  - { offset: 0xC5C5C, size: 0x8, addend: 0x0, symName: __ZNSt3__128__exception_guard_exceptionsINS_6vectorIfNS_9allocatorIfEEE16__destroy_vectorEED2B8ne180100Ev, symObjAddr: 0x1E108, symBinAddr: 0x1000207EC, symSize: 0x48 }
  - { offset: 0xC5C86, size: 0x8, addend: 0x0, symName: __ZN5Eigen8symbolic10SymbolExprINS_8internal17symbolic_last_tagEEC2Ev, symObjAddr: 0x1E150, symBinAddr: 0x100020834, symSize: 0x14 }
  - { offset: 0xC5CB0, size: 0x8, addend: 0x0, symName: __ZN5Eigen8internal8FixedIntILi1EEC2Ev, symObjAddr: 0x1E164, symBinAddr: 0x100020848, symSize: 0x14 }
  - { offset: 0xC5CDA, size: 0x8, addend: 0x0, symName: __ZNK5Eigen8symbolic8BaseExprINS0_10SymbolExprINS_8internal17symbolic_last_tagEEEE7derivedEv, symObjAddr: 0x1E178, symBinAddr: 0x10002085C, symSize: 0x14 }
  - { offset: 0xC5D00, size: 0x8, addend: 0x0, symName: __ZN5Eigen8symbolic9ValueExprINS_8internal8FixedIntILi1EEEEC1Ev, symObjAddr: 0x1E18C, symBinAddr: 0x100020870, symSize: 0x2C }
  - { offset: 0xC5D2A, size: 0x8, addend: 0x0, symName: __ZN5Eigen8symbolic7AddExprINS0_10SymbolExprINS_8internal17symbolic_last_tagEEENS0_9ValueExprINS3_8FixedIntILi1EEEEEEC1ERKS5_RKS9_, symObjAddr: 0x1E1B8, symBinAddr: 0x10002089C, symSize: 0x3C }
  - { offset: 0xC5D70, size: 0x8, addend: 0x0, symName: __ZN5Eigen8symbolic9ValueExprINS_8internal8FixedIntILi1EEEEC2Ev, symObjAddr: 0x1E1F4, symBinAddr: 0x1000208D8, symSize: 0x14 }
  - { offset: 0xC5D9A, size: 0x8, addend: 0x0, symName: __ZN5Eigen8symbolic7AddExprINS0_10SymbolExprINS_8internal17symbolic_last_tagEEENS0_9ValueExprINS3_8FixedIntILi1EEEEEEC2ERKS5_RKS9_, symObjAddr: 0x1E208, symBinAddr: 0x1000208EC, symSize: 0x1C }
  - { offset: 0xC5DE0, size: 0x8, addend: 0x0, symName: __ZN5Eigen6MatrixINSt3__17complexIfEELin1ELin1ELi0ELin1ELin1EEC2IiiEERKT_RKT0_, symObjAddr: 0x1E224, symBinAddr: 0x100020908, symSize: 0x7C }
  - { offset: 0xC5E3F, size: 0x8, addend: 0x0, symName: __ZN5Eigen15PlainObjectBaseINS_6MatrixINSt3__17complexIfEELin1ELin1ELi0ELin1ELin1EEEE6_init2IiiEEvllPNS_8internal9enable_ifILb1ET_E4typeE, symObjAddr: 0x1E2A0, symBinAddr: 0x100020984, symSize: 0x44 }
  - { offset: 0xC5EFF, size: 0x8, addend: 0x0, symName: __ZN5Eigen15PlainObjectBaseINS_6MatrixINSt3__17complexIfEELin1ELin1ELi0ELin1ELin1EEEE6resizeEll, symObjAddr: 0x1E2E4, symBinAddr: 0x1000209C8, symSize: 0x14C }
  - { offset: 0xC5F7B, size: 0x8, addend: 0x0, symName: __ZN5Eigen12DenseStorageINSt3__17complexIfEELin1ELin1ELin1ELi0EE6resizeElll, symObjAddr: 0x1E430, symBinAddr: 0x100020B14, symSize: 0xB4 }
  - { offset: 0xC5FCE, size: 0x8, addend: 0x0, symName: __ZNK5Eigen9EigenBaseINS_6MatrixINSt3__17complexIfEELin1ELin1ELi0ELin1ELin1EEEE4rowsEv, symObjAddr: 0x1E6A0, symBinAddr: 0x100020D84, symSize: 0x38 }
  - { offset: 0xC5FF4, size: 0x8, addend: 0x0, symName: __ZNK5Eigen9EigenBaseINS_6MatrixINSt3__17complexIfEELin1ELin1ELi0ELin1ELin1EEEE4colsEv, symObjAddr: 0x1E6D8, symBinAddr: 0x100020DBC, symSize: 0x28 }
  - { offset: 0xC601A, size: 0x8, addend: 0x0, symName: __ZN5Eigen15DenseCoeffsBaseINS_6MatrixINSt3__17complexIfEELin1ELin1ELi0ELin1ELin1EEELi1EE8coeffRefEll, symObjAddr: 0x1E700, symBinAddr: 0x100020DE4, symSize: 0x80 }
  - { offset: 0xC605E, size: 0x8, addend: 0x0, symName: __ZNK5Eigen9EigenBaseINS_6MatrixINSt3__17complexIfEELin1ELin1ELi0ELin1ELin1EEEE7derivedEv, symObjAddr: 0x1E780, symBinAddr: 0x100020E64, symSize: 0x14 }
  - { offset: 0xC6084, size: 0x8, addend: 0x0, symName: __ZNK5Eigen15PlainObjectBaseINS_6MatrixINSt3__17complexIfEELin1ELin1ELi0ELin1ELin1EEEE4rowsEv, symObjAddr: 0x1E794, symBinAddr: 0x100020E78, symSize: 0x24 }
  - { offset: 0xC60AA, size: 0x8, addend: 0x0, symName: __ZNK5Eigen12DenseStorageINSt3__17complexIfEELin1ELin1ELin1ELi0EE4rowsEv, symObjAddr: 0x1E7B8, symBinAddr: 0x100020E9C, symSize: 0x18 }
  - { offset: 0xC60D0, size: 0x8, addend: 0x0, symName: __ZNK5Eigen15PlainObjectBaseINS_6MatrixINSt3__17complexIfEELin1ELin1ELi0ELin1ELin1EEEE4colsEv, symObjAddr: 0x1E7D0, symBinAddr: 0x100020EB4, symSize: 0x24 }
  - { offset: 0xC60F6, size: 0x8, addend: 0x0, symName: __ZNK5Eigen12DenseStorageINSt3__17complexIfEELin1ELin1ELin1ELi0EE4colsEv, symObjAddr: 0x1E7F4, symBinAddr: 0x100020ED8, symSize: 0x18 }
  - { offset: 0xC611C, size: 0x8, addend: 0x0, symName: __ZN5Eigen9EigenBaseINS_6MatrixINSt3__17complexIfEELin1ELin1ELi0ELin1ELin1EEEE7derivedEv, symObjAddr: 0x1E80C, symBinAddr: 0x100020EF0, symSize: 0x14 }
  - { offset: 0xC6142, size: 0x8, addend: 0x0, symName: __ZN5Eigen8internal9evaluatorINS_6MatrixINSt3__17complexIfEELin1ELin1ELi0ELin1ELin1EEEEC1ERKS6_, symObjAddr: 0x1E820, symBinAddr: 0x100020F04, symSize: 0x34 }
  - { offset: 0xC617B, size: 0x8, addend: 0x0, symName: __ZN5Eigen8internal9evaluatorINS_15PlainObjectBaseINS_6MatrixINSt3__17complexIfEELin1ELin1ELi0ELin1ELin1EEEEEE8coeffRefEll, symObjAddr: 0x1E854, symBinAddr: 0x100020F38, symSize: 0x5C }
  - { offset: 0xC61BD, size: 0x8, addend: 0x0, symName: __ZN5Eigen8internal9evaluatorINS_6MatrixINSt3__17complexIfEELin1ELin1ELi0ELin1ELin1EEEED1Ev, symObjAddr: 0x1E8B0, symBinAddr: 0x100020F94, symSize: 0x2C }
  - { offset: 0xC61EA, size: 0x8, addend: 0x0, symName: __ZN5Eigen8internal9evaluatorINS_6MatrixINSt3__17complexIfEELin1ELin1ELi0ELin1ELin1EEEEC2ERKS6_, symObjAddr: 0x1E8DC, symBinAddr: 0x100020FC0, symSize: 0x34 }
  - { offset: 0xC6223, size: 0x8, addend: 0x0, symName: __ZN5Eigen8internal9evaluatorINS_15PlainObjectBaseINS_6MatrixINSt3__17complexIfEELin1ELin1ELi0ELin1ELin1EEEEEEC2ERKS8_, symObjAddr: 0x1E910, symBinAddr: 0x100020FF4, symSize: 0x80 }
  - { offset: 0xC625B, size: 0x8, addend: 0x0, symName: __ZN5Eigen8internal14evaluator_baseINS_6MatrixINSt3__17complexIfEELin1ELin1ELi0ELin1ELin1EEEEC2Ev, symObjAddr: 0x1E990, symBinAddr: 0x100021074, symSize: 0x14 }
  - { offset: 0xC6285, size: 0x8, addend: 0x0, symName: __ZNK5Eigen15PlainObjectBaseINS_6MatrixINSt3__17complexIfEELin1ELin1ELi0ELin1ELin1EEEE4dataEv, symObjAddr: 0x1E9A4, symBinAddr: 0x100021088, symSize: 0x24 }
  - { offset: 0xC62AB, size: 0x8, addend: 0x0, symName: __ZNK5Eigen15DenseCoeffsBaseINS_6MatrixINSt3__17complexIfEELin1ELin1ELi0ELin1ELin1EEELi3EE11outerStrideEv, symObjAddr: 0x1E9C8, symBinAddr: 0x1000210AC, symSize: 0x28 }
  - { offset: 0xC62D1, size: 0x8, addend: 0x0, symName: __ZN5Eigen8internal30plainobjectbase_evaluator_dataINSt3__17complexIfEELin1EEC1EPKS4_l, symObjAddr: 0x1E9F0, symBinAddr: 0x1000210D4, symSize: 0x3C }
  - { offset: 0xC6317, size: 0x8, addend: 0x0, symName: __ZN5Eigen8internal14evaluator_baseINS_6MatrixINSt3__17complexIfEELin1ELin1ELi0ELin1ELin1EEEED2Ev, symObjAddr: 0x1EA2C, symBinAddr: 0x100021110, symSize: 0x14 }
  - { offset: 0xC6341, size: 0x8, addend: 0x0, symName: __ZNK5Eigen12DenseStorageINSt3__17complexIfEELin1ELin1ELin1ELi0EE4dataEv, symObjAddr: 0x1EA40, symBinAddr: 0x100021124, symSize: 0x18 }
  - { offset: 0xC6367, size: 0x8, addend: 0x0, symName: __ZNK5Eigen6MatrixINSt3__17complexIfEELin1ELin1ELi0ELin1ELin1EE11outerStrideEv, symObjAddr: 0x1EA58, symBinAddr: 0x10002113C, symSize: 0x34 }
  - { offset: 0xC638D, size: 0x8, addend: 0x0, symName: __ZNK5Eigen9DenseBaseINS_6MatrixINSt3__17complexIfEELin1ELin1ELi0ELin1ELin1EEEE9innerSizeEv, symObjAddr: 0x1EA8C, symBinAddr: 0x100021170, symSize: 0x24 }
  - { offset: 0xC63B3, size: 0x8, addend: 0x0, symName: __ZN5Eigen8internal30plainobjectbase_evaluator_dataINSt3__17complexIfEELin1EEC2EPKS4_l, symObjAddr: 0x1EAB0, symBinAddr: 0x100021194, symSize: 0x2C }
  - { offset: 0xC63F9, size: 0x8, addend: 0x0, symName: __ZNK5Eigen8internal30plainobjectbase_evaluator_dataINSt3__17complexIfEELin1EE11outerStrideEv, symObjAddr: 0x1EADC, symBinAddr: 0x1000211C0, symSize: 0x18 }
  - { offset: 0xC641F, size: 0x8, addend: 0x0, symName: __ZN5Eigen8internal9evaluatorINS_6MatrixINSt3__17complexIfEELin1ELin1ELi0ELin1ELin1EEEED2Ev, symObjAddr: 0x1EAF4, symBinAddr: 0x1000211D8, symSize: 0x2C }
  - { offset: 0xC644C, size: 0x8, addend: 0x0, symName: __ZN5Eigen8internal9evaluatorINS_15PlainObjectBaseINS_6MatrixINSt3__17complexIfEELin1ELin1ELi0ELin1ELin1EEEEEED2Ev, symObjAddr: 0x1EB20, symBinAddr: 0x100021204, symSize: 0x2C }
  - { offset: 0xC6478, size: 0x8, addend: 0x0, symName: __ZNSt3__123mersenne_twister_engineIjLm32ELm624ELm397ELm31ELj2567483615ELm11ELj4294967295ELm7ELj2636928640ELm15ELj4022730752ELm18ELj1812433253EEC2B8ne180100Ej, symObjAddr: 0x1EB4C, symBinAddr: 0x100021230, symSize: 0x34 }
  - { offset: 0xC64B0, size: 0x8, addend: 0x0, symName: __ZNSt3__123mersenne_twister_engineIjLm32ELm624ELm397ELm31ELj2567483615ELm11ELj4294967295ELm7ELj2636928640ELm15ELj4022730752ELm18ELj1812433253EE4seedEj, symObjAddr: 0x1EB80, symBinAddr: 0x100021264, symSize: 0xC8 }
  - { offset: 0xC6503, size: 0x8, addend: 0x0, symName: __ZNSt3__123mersenne_twister_engineIjLm32ELm624ELm397ELm31ELj2567483615ELm11ELj4294967295ELm7ELj2636928640ELm15ELj4022730752ELm18ELj1812433253EE8__rshiftB8ne180100ILm30ELi0EEEjj, symObjAddr: 0x1EC48, symBinAddr: 0x10002132C, symSize: 0x18 }
  - { offset: 0xC6537, size: 0x8, addend: 0x0, symName: __ZNSt3__125uniform_real_distributionIfEC2B8ne180100Eff, symObjAddr: 0x1EC60, symBinAddr: 0x100021344, symSize: 0x3C }
  - { offset: 0xC657D, size: 0x8, addend: 0x0, symName: __ZNSt3__125uniform_real_distributionIfE10param_typeC1B8ne180100Eff, symObjAddr: 0x1EC9C, symBinAddr: 0x100021380, symSize: 0x3C }
  - { offset: 0xC65C3, size: 0x8, addend: 0x0, symName: __ZNSt3__125uniform_real_distributionIfE10param_typeC2B8ne180100Eff, symObjAddr: 0x1ECD8, symBinAddr: 0x1000213BC, symSize: 0x2C }
  - { offset: 0xC6609, size: 0x8, addend: 0x0, symName: __ZNSt3__125uniform_real_distributionIfEclINS_23mersenne_twister_engineIjLm32ELm624ELm397ELm31ELj2567483615ELm11ELj4294967295ELm7ELj2636928640ELm15ELj4022730752ELm18ELj1812433253EEEEEfRT_RKNS1_10param_typeE, symObjAddr: 0x1ED04, symBinAddr: 0x1000213E8, symSize: 0x6C }
  - { offset: 0xC6655, size: 0x8, addend: 0x0, symName: __ZNKSt3__125uniform_real_distributionIfE10param_type1bB8ne180100Ev, symObjAddr: 0x1ED70, symBinAddr: 0x100021454, symSize: 0x18 }
  - { offset: 0xC667B, size: 0x8, addend: 0x0, symName: __ZNKSt3__125uniform_real_distributionIfE10param_type1aB8ne180100Ev, symObjAddr: 0x1ED88, symBinAddr: 0x10002146C, symSize: 0x18 }
  - { offset: 0xC66A1, size: 0x8, addend: 0x0, symName: __ZNSt3__123mersenne_twister_engineIjLm32ELm624ELm397ELm31ELj2567483615ELm11ELj4294967295ELm7ELj2636928640ELm15ELj4022730752ELm18ELj1812433253EE3maxB8ne180100Ev, symObjAddr: 0x1EEB8, symBinAddr: 0x10002159C, symSize: 0x8 }
  - { offset: 0xC66B5, size: 0x8, addend: 0x0, symName: __ZNSt3__123mersenne_twister_engineIjLm32ELm624ELm397ELm31ELj2567483615ELm11ELj4294967295ELm7ELj2636928640ELm15ELj4022730752ELm18ELj1812433253EE3minB8ne180100Ev, symObjAddr: 0x1EEC0, symBinAddr: 0x1000215A4, symSize: 0x8 }
  - { offset: 0xC66C9, size: 0x8, addend: 0x0, symName: __ZNSt3__123mersenne_twister_engineIjLm32ELm624ELm397ELm31ELj2567483615ELm11ELj4294967295ELm7ELj2636928640ELm15ELj4022730752ELm18ELj1812433253EEclEv, symObjAddr: 0x1EEC8, symBinAddr: 0x1000215AC, symSize: 0x14C }
  - { offset: 0xC673C, size: 0x8, addend: 0x0, symName: __ZNSt3__123mersenne_twister_engineIjLm32ELm624ELm397ELm31ELj2567483615ELm11ELj4294967295ELm7ELj2636928640ELm15ELj4022730752ELm18ELj1812433253EE8__rshiftB8ne180100ILm1ELi0EEEjj, symObjAddr: 0x1F014, symBinAddr: 0x1000216F8, symSize: 0x18 }
  - { offset: 0xC6770, size: 0x8, addend: 0x0, symName: __ZNSt3__123mersenne_twister_engineIjLm32ELm624ELm397ELm31ELj2567483615ELm11ELj4294967295ELm7ELj2636928640ELm15ELj4022730752ELm18ELj1812433253EE8__rshiftB8ne180100ILm11ELi0EEEjj, symObjAddr: 0x1F02C, symBinAddr: 0x100021710, symSize: 0x18 }
  - { offset: 0xC67A4, size: 0x8, addend: 0x0, symName: __ZNSt3__123mersenne_twister_engineIjLm32ELm624ELm397ELm31ELj2567483615ELm11ELj4294967295ELm7ELj2636928640ELm15ELj4022730752ELm18ELj1812433253EE8__lshiftB8ne180100ILm7ELi0EEEjj, symObjAddr: 0x1F044, symBinAddr: 0x100021728, symSize: 0x1C }
  - { offset: 0xC67D8, size: 0x8, addend: 0x0, symName: __ZNSt3__123mersenne_twister_engineIjLm32ELm624ELm397ELm31ELj2567483615ELm11ELj4294967295ELm7ELj2636928640ELm15ELj4022730752ELm18ELj1812433253EE8__lshiftB8ne180100ILm15ELi0EEEjj, symObjAddr: 0x1F060, symBinAddr: 0x100021744, symSize: 0x1C }
  - { offset: 0xC680C, size: 0x8, addend: 0x0, symName: __ZNSt3__123mersenne_twister_engineIjLm32ELm624ELm397ELm31ELj2567483615ELm11ELj4294967295ELm7ELj2636928640ELm15ELj4022730752ELm18ELj1812433253EE8__rshiftB8ne180100ILm18ELi0EEEjj, symObjAddr: 0x1F07C, symBinAddr: 0x100021760, symSize: 0x18 }
  - { offset: 0xC6840, size: 0x8, addend: 0x0, symName: __ZN5Eigen12ArrayWrapperIKNS_6MatrixINSt3__17complexIfEELin1ELi1ELi0ELin1ELi1EEEEC1ERS6_, symObjAddr: 0x1F094, symBinAddr: 0x100021778, symSize: 0x34 }
  - { offset: 0xC6878, size: 0x8, addend: 0x0, symName: __ZN5Eigen12ArrayWrapperIKNS_6MatrixINSt3__17complexIfEELin1ELi1ELi0ELin1ELi1EEEEC2ERS6_, symObjAddr: 0x1F0C8, symBinAddr: 0x1000217AC, symSize: 0x38 }
  - { offset: 0xC68B0, size: 0x8, addend: 0x0, symName: __ZN5Eigen9ArrayBaseINS_12ArrayWrapperIKNS_6MatrixINSt3__17complexIfEELin1ELi1ELi0ELin1ELi1EEEEEEC2Ev, symObjAddr: 0x1F100, symBinAddr: 0x1000217E4, symSize: 0x2C }
  - { offset: 0xC68DA, size: 0x8, addend: 0x0, symName: __ZN5Eigen9DenseBaseINS_12ArrayWrapperIKNS_6MatrixINSt3__17complexIfEELin1ELi1ELi0ELin1ELi1EEEEEEC2Ev, symObjAddr: 0x1F12C, symBinAddr: 0x100021810, symSize: 0x14 }
  - { offset: 0xC6904, size: 0x8, addend: 0x0, symName: __ZNK5Eigen9EigenBaseINS_12ArrayWrapperIKNS_6MatrixINSt3__17complexIfEELin1ELi1ELi0ELin1ELi1EEEEEE7derivedEv, symObjAddr: 0x1F140, symBinAddr: 0x100021824, symSize: 0x14 }
  - { offset: 0xC692A, size: 0x8, addend: 0x0, symName: __ZN5Eigen8internal13scalar_abs_opINSt3__17complexIfEEEC1Ev, symObjAddr: 0x1F154, symBinAddr: 0x100021838, symSize: 0x2C }
  - { offset: 0xC6954, size: 0x8, addend: 0x0, symName: __ZN5Eigen12CwiseUnaryOpINS_8internal13scalar_abs_opINSt3__17complexIfEEEEKNS_12ArrayWrapperIKNS_6MatrixIS5_Lin1ELi1ELi0ELin1ELi1EEEEEEC1ERSC_RKS6_, symObjAddr: 0x1F180, symBinAddr: 0x100021864, symSize: 0x3C }
  - { offset: 0xC699A, size: 0x8, addend: 0x0, symName: __ZN5Eigen8internal13scalar_abs_opINSt3__17complexIfEEEC2Ev, symObjAddr: 0x1F1BC, symBinAddr: 0x1000218A0, symSize: 0x14 }
  - { offset: 0xC69C4, size: 0x8, addend: 0x0, symName: __ZN5Eigen12CwiseUnaryOpINS_8internal13scalar_abs_opINSt3__17complexIfEEEEKNS_12ArrayWrapperIKNS_6MatrixIS5_Lin1ELi1ELi0ELin1ELi1EEEEEEC2ERSC_RKS6_, symObjAddr: 0x1F1D0, symBinAddr: 0x1000218B4, symSize: 0x50 }
  - { offset: 0xC6A0F, size: 0x8, addend: 0x0, symName: __ZN5Eigen16CwiseUnaryOpImplINS_8internal13scalar_abs_opINSt3__17complexIfEEEEKNS_12ArrayWrapperIKNS_6MatrixIS5_Lin1ELi1ELi0ELin1ELi1EEEEENS_5DenseEEC2Ev, symObjAddr: 0x1F220, symBinAddr: 0x100021904, symSize: 0x2C }
  - { offset: 0xC6A3B, size: 0x8, addend: 0x0, symName: __ZN5Eigen8internal13scalar_abs_opINSt3__17complexIfEEEC1ERKS5_, symObjAddr: 0x1F24C, symBinAddr: 0x100021930, symSize: 0x34 }
  - { offset: 0xC6A70, size: 0x8, addend: 0x0, symName: __ZN5Eigen9ArrayBaseINS_12CwiseUnaryOpINS_8internal13scalar_abs_opINSt3__17complexIfEEEEKNS_12ArrayWrapperIKNS_6MatrixIS6_Lin1ELi1ELi0ELin1ELi1EEEEEEEEC2Ev, symObjAddr: 0x1F280, symBinAddr: 0x100021964, symSize: 0x2C }
  - { offset: 0xC6A9A, size: 0x8, addend: 0x0, symName: __ZN5Eigen9DenseBaseINS_12CwiseUnaryOpINS_8internal13scalar_abs_opINSt3__17complexIfEEEEKNS_12ArrayWrapperIKNS_6MatrixIS6_Lin1ELi1ELi0ELin1ELi1EEEEEEEEC2Ev, symObjAddr: 0x1F2AC, symBinAddr: 0x100021990, symSize: 0x14 }
  - { offset: 0xC6AC4, size: 0x8, addend: 0x0, symName: __ZN5Eigen8internal13scalar_abs_opINSt3__17complexIfEEEC2ERKS5_, symObjAddr: 0x1F2C0, symBinAddr: 0x1000219A4, symSize: 0x18 }
  - { offset: 0xC6AF9, size: 0x8, addend: 0x0, symName: __ZNK5Eigen9DenseBaseINS_12CwiseUnaryOpINS_8internal13scalar_abs_opINSt3__17complexIfEEEEKNS_12ArrayWrapperIKNS_6MatrixIS6_Lin1ELi1ELi0ELin1ELi1EEEEEEEE8maxCoeffILi0EEEfv, symObjAddr: 0x1F2D8, symBinAddr: 0x1000219BC, symSize: 0x40 }
  - { offset: 0xC6B2C, size: 0x8, addend: 0x0, symName: __ZNK5Eigen9EigenBaseINS_12CwiseUnaryOpINS_8internal13scalar_abs_opINSt3__17complexIfEEEEKNS_12ArrayWrapperIKNS_6MatrixIS6_Lin1ELi1ELi0ELin1ELi1EEEEEEEE7derivedEv, symObjAddr: 0x1F318, symBinAddr: 0x1000219FC, symSize: 0x14 }
  - { offset: 0xC6B66, size: 0x8, addend: 0x0, symName: __ZNK5Eigen9DenseBaseINS_12CwiseUnaryOpINS_8internal13scalar_abs_opINSt3__17complexIfEEEEKNS_12ArrayWrapperIKNS_6MatrixIS6_Lin1ELi1ELi0ELin1ELi1EEEEEEEE5reduxINS2_13scalar_max_opIffLi0EEEEEfRKT_, symObjAddr: 0x1F32C, symBinAddr: 0x100021A10, symSize: 0x10C }
  - { offset: 0xC6BC2, size: 0x8, addend: 0x0, symName: __ZN5Eigen8internal13scalar_max_opIffLi0EEC1Ev, symObjAddr: 0x1F438, symBinAddr: 0x100021B1C, symSize: 0x2C }
  - { offset: 0xC6BEC, size: 0x8, addend: 0x0, symName: __ZNK5Eigen9EigenBaseINS_12CwiseUnaryOpINS_8internal13scalar_abs_opINSt3__17complexIfEEEEKNS_12ArrayWrapperIKNS_6MatrixIS6_Lin1ELi1ELi0ELin1ELi1EEEEEEEE4rowsEv, symObjAddr: 0x1F464, symBinAddr: 0x100021B48, symSize: 0x28 }
  - { offset: 0xC6C12, size: 0x8, addend: 0x0, symName: __ZNK5Eigen9EigenBaseINS_12CwiseUnaryOpINS_8internal13scalar_abs_opINSt3__17complexIfEEEEKNS_12ArrayWrapperIKNS_6MatrixIS6_Lin1ELi1ELi0ELin1ELi1EEEEEEEE4colsEv, symObjAddr: 0x1F48C, symBinAddr: 0x100021B70, symSize: 0x28 }
  - { offset: 0xC6CD3, size: 0x8, addend: 0x0, symName: __ZN5Eigen8internal15redux_evaluatorINS_12CwiseUnaryOpINS0_13scalar_abs_opINSt3__17complexIfEEEEKNS_12ArrayWrapperIKNS_6MatrixIS6_Lin1ELi1ELi0ELin1ELi1EEEEEEEEC1ERKSE_, symObjAddr: 0x1F4B4, symBinAddr: 0x100021B98, symSize: 0x34 }
  - { offset: 0xC6D11, size: 0x8, addend: 0x0, symName: __ZN5Eigen8internal10redux_implINS0_13scalar_max_opIffLi0EEENS0_15redux_evaluatorINS_12CwiseUnaryOpINS0_13scalar_abs_opINSt3__17complexIfEEEEKNS_12ArrayWrapperIKNS_6MatrixIS9_Lin1ELi1ELi0ELin1ELi1EEEEEEEEELi0ELi0EE3runISH_EEfRKSI_RKS3_RKT_, symObjAddr: 0x1F4E8, symBinAddr: 0x100021BCC, symSize: 0x1E0 }
  - { offset: 0xC6DBB, size: 0x8, addend: 0x0, symName: __ZN5Eigen8internal15redux_evaluatorINS_12CwiseUnaryOpINS0_13scalar_abs_opINSt3__17complexIfEEEEKNS_12ArrayWrapperIKNS_6MatrixIS6_Lin1ELi1ELi0ELin1ELi1EEEEEEEED1Ev, symObjAddr: 0x1F6C8, symBinAddr: 0x100021DAC, symSize: 0x2C }
  - { offset: 0xC6DE8, size: 0x8, addend: 0x0, symName: __ZNK5Eigen12CwiseUnaryOpINS_8internal13scalar_abs_opINSt3__17complexIfEEEEKNS_12ArrayWrapperIKNS_6MatrixIS5_Lin1ELi1ELi0ELin1ELi1EEEEEE4rowsEv, symObjAddr: 0x1F6F4, symBinAddr: 0x100021DD8, symSize: 0x24 }
  - { offset: 0xC6E0E, size: 0x8, addend: 0x0, symName: __ZNK5Eigen12ArrayWrapperIKNS_6MatrixINSt3__17complexIfEELin1ELi1ELi0ELin1ELi1EEEE4rowsEv, symObjAddr: 0x1F718, symBinAddr: 0x100021DFC, symSize: 0x28 }
  - { offset: 0xC6E34, size: 0x8, addend: 0x0, symName: __ZNK5Eigen12CwiseUnaryOpINS_8internal13scalar_abs_opINSt3__17complexIfEEEEKNS_12ArrayWrapperIKNS_6MatrixIS5_Lin1ELi1ELi0ELin1ELi1EEEEEE4colsEv, symObjAddr: 0x1F740, symBinAddr: 0x100021E24, symSize: 0x24 }
  - { offset: 0xC6E5A, size: 0x8, addend: 0x0, symName: __ZNK5Eigen12ArrayWrapperIKNS_6MatrixINSt3__17complexIfEELin1ELi1ELi0ELin1ELi1EEEE4colsEv, symObjAddr: 0x1F764, symBinAddr: 0x100021E48, symSize: 0x28 }
  - { offset: 0xC6E80, size: 0x8, addend: 0x0, symName: __ZN5Eigen8internal15redux_evaluatorINS_12CwiseUnaryOpINS0_13scalar_abs_opINSt3__17complexIfEEEEKNS_12ArrayWrapperIKNS_6MatrixIS6_Lin1ELi1ELi0ELin1ELi1EEEEEEEEC2ERKSE_, symObjAddr: 0x1F78C, symBinAddr: 0x100021E70, symSize: 0x34 }
  - { offset: 0xC6EB9, size: 0x8, addend: 0x0, symName: __ZN5Eigen8internal9evaluatorINS_12CwiseUnaryOpINS0_13scalar_abs_opINSt3__17complexIfEEEEKNS_12ArrayWrapperIKNS_6MatrixIS6_Lin1ELi1ELi0ELin1ELi1EEEEEEEEC2ERKSE_, symObjAddr: 0x1F7C0, symBinAddr: 0x100021EA4, symSize: 0x34 }
  - { offset: 0xC6EF1, size: 0x8, addend: 0x0, symName: __ZN5Eigen8internal15unary_evaluatorINS_12CwiseUnaryOpINS0_13scalar_abs_opINSt3__17complexIfEEEEKNS_12ArrayWrapperIKNS_6MatrixIS6_Lin1ELi1ELi0ELin1ELi1EEEEEEENS0_10IndexBasedEfEC2ERKSE_, symObjAddr: 0x1F7F4, symBinAddr: 0x100021ED8, symSize: 0x64 }
  - { offset: 0xC6F2A, size: 0x8, addend: 0x0, symName: __ZN5Eigen8internal14evaluator_baseINS_12CwiseUnaryOpINS0_13scalar_abs_opINSt3__17complexIfEEEEKNS_12ArrayWrapperIKNS_6MatrixIS6_Lin1ELi1ELi0ELin1ELi1EEEEEEEEC2Ev, symObjAddr: 0x1F858, symBinAddr: 0x100021F3C, symSize: 0x14 }
  - { offset: 0xC6F54, size: 0x8, addend: 0x0, symName: __ZN5Eigen8internal15unary_evaluatorINS_12CwiseUnaryOpINS0_13scalar_abs_opINSt3__17complexIfEEEEKNS_12ArrayWrapperIKNS_6MatrixIS6_Lin1ELi1ELi0ELin1ELi1EEEEEEENS0_10IndexBasedEfE4DataC1ERKSE_, symObjAddr: 0x1F86C, symBinAddr: 0x100021F50, symSize: 0x34 }
  - { offset: 0xC6F8D, size: 0x8, addend: 0x0, symName: __ZN5Eigen8internal14evaluator_baseINS_12CwiseUnaryOpINS0_13scalar_abs_opINSt3__17complexIfEEEEKNS_12ArrayWrapperIKNS_6MatrixIS6_Lin1ELi1ELi0ELin1ELi1EEEEEEEED2Ev, symObjAddr: 0x1F8A0, symBinAddr: 0x100021F84, symSize: 0x14 }
  - { offset: 0xC6FB7, size: 0x8, addend: 0x0, symName: __ZN5Eigen8internal15unary_evaluatorINS_12CwiseUnaryOpINS0_13scalar_abs_opINSt3__17complexIfEEEEKNS_12ArrayWrapperIKNS_6MatrixIS6_Lin1ELi1ELi0ELin1ELi1EEEEEEENS0_10IndexBasedEfE4DataC2ERKSE_, symObjAddr: 0x1F8B4, symBinAddr: 0x100021F98, symSize: 0x58 }
  - { offset: 0xC6FF0, size: 0x8, addend: 0x0, symName: __ZNK5Eigen12CwiseUnaryOpINS_8internal13scalar_abs_opINSt3__17complexIfEEEEKNS_12ArrayWrapperIKNS_6MatrixIS5_Lin1ELi1ELi0ELin1ELi1EEEEEE7functorEv, symObjAddr: 0x1F90C, symBinAddr: 0x100021FF0, symSize: 0x18 }
  - { offset: 0xC7016, size: 0x8, addend: 0x0, symName: __ZNK5Eigen12CwiseUnaryOpINS_8internal13scalar_abs_opINSt3__17complexIfEEEEKNS_12ArrayWrapperIKNS_6MatrixIS5_Lin1ELi1ELi0ELin1ELi1EEEEEE16nestedExpressionEv, symObjAddr: 0x1F924, symBinAddr: 0x100022008, symSize: 0x14 }
  - { offset: 0xC703C, size: 0x8, addend: 0x0, symName: __ZN5Eigen8internal9evaluatorIKNS_12ArrayWrapperIKNS_6MatrixINSt3__17complexIfEELin1ELi1ELi0ELin1ELi1EEEEEEC1ERSA_, symObjAddr: 0x1F938, symBinAddr: 0x10002201C, symSize: 0x34 }
  - { offset: 0xC7074, size: 0x8, addend: 0x0, symName: __ZN5Eigen8internal9evaluatorIKNS_12ArrayWrapperIKNS_6MatrixINSt3__17complexIfEELin1ELi1ELi0ELin1ELi1EEEEEEC2ERSA_, symObjAddr: 0x1F96C, symBinAddr: 0x100022050, symSize: 0x34 }
  - { offset: 0xC70AC, size: 0x8, addend: 0x0, symName: __ZN5Eigen8internal9evaluatorINS_12ArrayWrapperIKNS_6MatrixINSt3__17complexIfEELin1ELi1ELi0ELin1ELi1EEEEEEC2ERKS9_, symObjAddr: 0x1F9A0, symBinAddr: 0x100022084, symSize: 0x34 }
  - { offset: 0xC70E4, size: 0x8, addend: 0x0, symName: __ZN5Eigen8internal15unary_evaluatorINS_12ArrayWrapperIKNS_6MatrixINSt3__17complexIfEELin1ELi1ELi0ELin1ELi1EEEEENS0_10IndexBasedES6_EC2ERKS9_, symObjAddr: 0x1F9D4, symBinAddr: 0x1000220B8, symSize: 0x40 }
  - { offset: 0xC711D, size: 0x8, addend: 0x0, symName: __ZNK5Eigen12ArrayWrapperIKNS_6MatrixINSt3__17complexIfEELin1ELi1ELi0ELin1ELi1EEEE16nestedExpressionEv, symObjAddr: 0x1FA14, symBinAddr: 0x1000220F8, symSize: 0x18 }
  - { offset: 0xC7143, size: 0x8, addend: 0x0, symName: __ZN5Eigen8internal22evaluator_wrapper_baseINS_12ArrayWrapperIKNS_6MatrixINSt3__17complexIfEELin1ELi1ELi0ELin1ELi1EEEEEEC2ERS8_, symObjAddr: 0x1FA2C, symBinAddr: 0x100022110, symSize: 0x64 }
  - { offset: 0xC717C, size: 0x8, addend: 0x0, symName: __ZN5Eigen8internal14evaluator_baseINS_12ArrayWrapperIKNS_6MatrixINSt3__17complexIfEELin1ELi1ELi0ELin1ELi1EEEEEEC2Ev, symObjAddr: 0x1FA90, symBinAddr: 0x100022174, symSize: 0x14 }
  - { offset: 0xC71A6, size: 0x8, addend: 0x0, symName: __ZN5Eigen8internal9evaluatorINS_6MatrixINSt3__17complexIfEELin1ELi1ELi0ELin1ELi1EEEEC1ERKS6_, symObjAddr: 0x1FAA4, symBinAddr: 0x100022188, symSize: 0x34 }
  - { offset: 0xC71DF, size: 0x8, addend: 0x0, symName: __ZN5Eigen8internal14evaluator_baseINS_12ArrayWrapperIKNS_6MatrixINSt3__17complexIfEELin1ELi1ELi0ELin1ELi1EEEEEED2Ev, symObjAddr: 0x1FAD8, symBinAddr: 0x1000221BC, symSize: 0x14 }
  - { offset: 0xC7209, size: 0x8, addend: 0x0, symName: __ZN5Eigen8internal9evaluatorINS_6MatrixINSt3__17complexIfEELin1ELi1ELi0ELin1ELi1EEEEC2ERKS6_, symObjAddr: 0x1FAEC, symBinAddr: 0x1000221D0, symSize: 0x34 }
  - { offset: 0xC7242, size: 0x8, addend: 0x0, symName: __ZN5Eigen8internal9evaluatorINS_15PlainObjectBaseINS_6MatrixINSt3__17complexIfEELin1ELi1ELi0ELin1ELi1EEEEEEC2ERKS8_, symObjAddr: 0x1FB20, symBinAddr: 0x100022204, symSize: 0x78 }
  - { offset: 0xC727A, size: 0x8, addend: 0x0, symName: __ZN5Eigen8internal14evaluator_baseINS_6MatrixINSt3__17complexIfEELin1ELi1ELi0ELin1ELi1EEEEC2Ev, symObjAddr: 0x1FB98, symBinAddr: 0x10002227C, symSize: 0x14 }
  - { offset: 0xC72A4, size: 0x8, addend: 0x0, symName: __ZNK5Eigen15PlainObjectBaseINS_6MatrixINSt3__17complexIfEELin1ELi1ELi0ELin1ELi1EEEE4dataEv, symObjAddr: 0x1FBAC, symBinAddr: 0x100022290, symSize: 0x24 }
  - { offset: 0xC72CA, size: 0x8, addend: 0x0, symName: __ZN5Eigen8internal30plainobjectbase_evaluator_dataINSt3__17complexIfEELi0EEC1EPKS4_l, symObjAddr: 0x1FBD0, symBinAddr: 0x1000222B4, symSize: 0x3C }
  - { offset: 0xC7310, size: 0x8, addend: 0x0, symName: __ZN5Eigen8internal14evaluator_baseINS_6MatrixINSt3__17complexIfEELin1ELi1ELi0ELin1ELi1EEEED2Ev, symObjAddr: 0x1FC0C, symBinAddr: 0x1000222F0, symSize: 0x14 }
  - { offset: 0xC733A, size: 0x8, addend: 0x0, symName: __ZNK5Eigen12DenseStorageINSt3__17complexIfEELin1ELin1ELi1ELi0EE4dataEv, symObjAddr: 0x1FC20, symBinAddr: 0x100022304, symSize: 0x18 }
  - { offset: 0xC7360, size: 0x8, addend: 0x0, symName: __ZN5Eigen8internal30plainobjectbase_evaluator_dataINSt3__17complexIfEELi0EEC2EPKS4_l, symObjAddr: 0x1FC38, symBinAddr: 0x10002231C, symSize: 0x40 }
  - { offset: 0xC73A6, size: 0x8, addend: 0x0, symName: __ZNK5Eigen8internal15redux_evaluatorINS_12CwiseUnaryOpINS0_13scalar_abs_opINSt3__17complexIfEEEEKNS_12ArrayWrapperIKNS_6MatrixIS6_Lin1ELi1ELi0ELin1ELi1EEEEEEEE17coeffByOuterInnerEll, symObjAddr: 0x1FC88, symBinAddr: 0x10002236C, symSize: 0x34 }
  - { offset: 0xC73EA, size: 0x8, addend: 0x0, symName: __ZNK5Eigen9DenseBaseINS_12CwiseUnaryOpINS_8internal13scalar_abs_opINSt3__17complexIfEEEEKNS_12ArrayWrapperIKNS_6MatrixIS6_Lin1ELi1ELi0ELin1ELi1EEEEEEEE9innerSizeEv, symObjAddr: 0x1FCBC, symBinAddr: 0x1000223A0, symSize: 0x24 }
  - { offset: 0xC7410, size: 0x8, addend: 0x0, symName: __ZNK5Eigen8internal13scalar_max_opIffLi0EEclERKfS4_, symObjAddr: 0x1FCE0, symBinAddr: 0x1000223C4, symSize: 0x30 }
  - { offset: 0xC7452, size: 0x8, addend: 0x0, symName: __ZNK5Eigen9DenseBaseINS_12CwiseUnaryOpINS_8internal13scalar_abs_opINSt3__17complexIfEEEEKNS_12ArrayWrapperIKNS_6MatrixIS6_Lin1ELi1ELi0ELin1ELi1EEEEEEEE9outerSizeEv, symObjAddr: 0x1FD10, symBinAddr: 0x1000223F4, symSize: 0x14 }
  - { offset: 0xC7478, size: 0x8, addend: 0x0, symName: __ZNK5Eigen8internal15unary_evaluatorINS_12CwiseUnaryOpINS0_13scalar_abs_opINSt3__17complexIfEEEEKNS_12ArrayWrapperIKNS_6MatrixIS6_Lin1ELi1ELi0ELin1ELi1EEEEEEENS0_10IndexBasedEfE5coeffEll, symObjAddr: 0x1FD24, symBinAddr: 0x100022408, symSize: 0x54 }
  - { offset: 0xC74BC, size: 0x8, addend: 0x0, symName: __ZNK5Eigen8internal15unary_evaluatorINS_12CwiseUnaryOpINS0_13scalar_abs_opINSt3__17complexIfEEEEKNS_12ArrayWrapperIKNS_6MatrixIS6_Lin1ELi1ELi0ELin1ELi1EEEEEEENS0_10IndexBasedEfE4Data4funcEv, symObjAddr: 0x1FD78, symBinAddr: 0x10002245C, symSize: 0x14 }
  - { offset: 0xC74E2, size: 0x8, addend: 0x0, symName: __ZNK5Eigen8internal13scalar_abs_opINSt3__17complexIfEEEclERKS4_, symObjAddr: 0x1FD8C, symBinAddr: 0x100022470, symSize: 0x30 }
  - { offset: 0xC7533, size: 0x8, addend: 0x0, symName: __ZNK5Eigen8internal22evaluator_wrapper_baseINS_12ArrayWrapperIKNS_6MatrixINSt3__17complexIfEELin1ELi1ELi0ELin1ELi1EEEEEE5coeffEll, symObjAddr: 0x1FDBC, symBinAddr: 0x1000224A0, symSize: 0x34 }
  - { offset: 0xC7577, size: 0x8, addend: 0x0, symName: __ZNK5Eigen8internal9evaluatorINS_15PlainObjectBaseINS_6MatrixINSt3__17complexIfEELin1ELi1ELi0ELin1ELi1EEEEEE5coeffEll, symObjAddr: 0x1FE58, symBinAddr: 0x10002253C, symSize: 0x5C }
  - { offset: 0xC75B9, size: 0x8, addend: 0x0, symName: __ZNK5Eigen8internal30plainobjectbase_evaluator_dataINSt3__17complexIfEELi0EE11outerStrideEv, symObjAddr: 0x1FEB4, symBinAddr: 0x100022598, symSize: 0x14 }
  - { offset: 0xC75DF, size: 0x8, addend: 0x0, symName: __ZNK5Eigen9EigenBaseINS_12CwiseUnaryOpINS_8internal13scalar_abs_opINSt3__17complexIfEEEEKNS_12ArrayWrapperIKNS_6MatrixIS6_Lin1ELi1ELi0ELin1ELi1EEEEEEEE4sizeEv, symObjAddr: 0x1FEC8, symBinAddr: 0x1000225AC, symSize: 0x44 }
  - { offset: 0xC761B, size: 0x8, addend: 0x0, symName: __ZN5Eigen8internal12pminmax_implILi0EE3runIfPFfRKfS5_EEET_RKS8_SA_T0_, symObjAddr: 0x1FF40, symBinAddr: 0x100022624, symSize: 0x34 }
  - { offset: 0xC766F, size: 0x8, addend: 0x0, symName: __ZNKSt3__16__lessIvvEclB8ne180100IffEEbRKT_RKT0_, symObjAddr: 0x20034, symBinAddr: 0x100022718, symSize: 0x34 }
  - { offset: 0xC76C3, size: 0x8, addend: 0x0, symName: __ZN5Eigen8internal15redux_evaluatorINS_12CwiseUnaryOpINS0_13scalar_abs_opINSt3__17complexIfEEEEKNS_12ArrayWrapperIKNS_6MatrixIS6_Lin1ELi1ELi0ELin1ELi1EEEEEEEED2Ev, symObjAddr: 0x20068, symBinAddr: 0x10002274C, symSize: 0x2C }
  - { offset: 0xC76F0, size: 0x8, addend: 0x0, symName: __ZN5Eigen8internal9evaluatorINS_12CwiseUnaryOpINS0_13scalar_abs_opINSt3__17complexIfEEEEKNS_12ArrayWrapperIKNS_6MatrixIS6_Lin1ELi1ELi0ELin1ELi1EEEEEEEED2Ev, symObjAddr: 0x20094, symBinAddr: 0x100022778, symSize: 0x2C }
  - { offset: 0xC771C, size: 0x8, addend: 0x0, symName: __ZN5Eigen8internal15unary_evaluatorINS_12CwiseUnaryOpINS0_13scalar_abs_opINSt3__17complexIfEEEEKNS_12ArrayWrapperIKNS_6MatrixIS6_Lin1ELi1ELi0ELin1ELi1EEEEEEENS0_10IndexBasedEfED2Ev, symObjAddr: 0x200C0, symBinAddr: 0x1000227A4, symSize: 0x34 }
  - { offset: 0xC7748, size: 0x8, addend: 0x0, symName: __ZN5Eigen8internal15unary_evaluatorINS_12CwiseUnaryOpINS0_13scalar_abs_opINSt3__17complexIfEEEEKNS_12ArrayWrapperIKNS_6MatrixIS6_Lin1ELi1ELi0ELin1ELi1EEEEEEENS0_10IndexBasedEfE4DataD1Ev, symObjAddr: 0x200F4, symBinAddr: 0x1000227D8, symSize: 0x2C }
  - { offset: 0xC7775, size: 0x8, addend: 0x0, symName: __ZN5Eigen8internal15unary_evaluatorINS_12CwiseUnaryOpINS0_13scalar_abs_opINSt3__17complexIfEEEEKNS_12ArrayWrapperIKNS_6MatrixIS6_Lin1ELi1ELi0ELin1ELi1EEEEEEENS0_10IndexBasedEfE4DataD2Ev, symObjAddr: 0x20120, symBinAddr: 0x100022804, symSize: 0x30 }
  - { offset: 0xC77A2, size: 0x8, addend: 0x0, symName: __ZN5Eigen8internal9evaluatorIKNS_12ArrayWrapperIKNS_6MatrixINSt3__17complexIfEELin1ELi1ELi0ELin1ELi1EEEEEED1Ev, symObjAddr: 0x20150, symBinAddr: 0x100022834, symSize: 0x2C }
  - { offset: 0xC77CE, size: 0x8, addend: 0x0, symName: __ZN5Eigen8internal9evaluatorIKNS_12ArrayWrapperIKNS_6MatrixINSt3__17complexIfEELin1ELi1ELi0ELin1ELi1EEEEEED2Ev, symObjAddr: 0x2017C, symBinAddr: 0x100022860, symSize: 0x2C }
  - { offset: 0xC77FA, size: 0x8, addend: 0x0, symName: __ZN5Eigen8internal9evaluatorINS_12ArrayWrapperIKNS_6MatrixINSt3__17complexIfEELin1ELi1ELi0ELin1ELi1EEEEEED2Ev, symObjAddr: 0x201A8, symBinAddr: 0x10002288C, symSize: 0x2C }
  - { offset: 0xC7826, size: 0x8, addend: 0x0, symName: __ZN5Eigen8internal15unary_evaluatorINS_12ArrayWrapperIKNS_6MatrixINSt3__17complexIfEELin1ELi1ELi0ELin1ELi1EEEEENS0_10IndexBasedES6_ED2Ev, symObjAddr: 0x201D4, symBinAddr: 0x1000228B8, symSize: 0x2C }
  - { offset: 0xC7853, size: 0x8, addend: 0x0, symName: __ZN5Eigen8internal22evaluator_wrapper_baseINS_12ArrayWrapperIKNS_6MatrixINSt3__17complexIfEELin1ELi1ELi0ELin1ELi1EEEEEED2Ev, symObjAddr: 0x20200, symBinAddr: 0x1000228E4, symSize: 0x34 }
  - { offset: 0xC7880, size: 0x8, addend: 0x0, symName: __ZN5Eigen8internal9evaluatorINS_6MatrixINSt3__17complexIfEELin1ELi1ELi0ELin1ELi1EEEED1Ev, symObjAddr: 0x20234, symBinAddr: 0x100022918, symSize: 0x2C }
  - { offset: 0xC78AD, size: 0x8, addend: 0x0, symName: __ZN5Eigen8internal9evaluatorINS_6MatrixINSt3__17complexIfEELin1ELi1ELi0ELin1ELi1EEEED2Ev, symObjAddr: 0x20260, symBinAddr: 0x100022944, symSize: 0x2C }
  - { offset: 0xC78DA, size: 0x8, addend: 0x0, symName: __ZN5Eigen8internal9evaluatorINS_15PlainObjectBaseINS_6MatrixINSt3__17complexIfEELin1ELi1ELi0ELin1ELi1EEEEEED2Ev, symObjAddr: 0x2028C, symBinAddr: 0x100022970, symSize: 0x2C }
  - { offset: 0xC7906, size: 0x8, addend: 0x0, symName: __ZN5Eigen8internal13scalar_max_opIffLi0EEC2Ev, symObjAddr: 0x202B8, symBinAddr: 0x10002299C, symSize: 0x14 }
  - { offset: 0xC7930, size: 0x8, addend: 0x0, symName: __ZNK5Eigen15DenseCoeffsBaseINS_6MatrixINSt3__17complexIfEELin1ELi1ELi0ELin1ELi1EEELi0EE5coeffEl, symObjAddr: 0x202CC, symBinAddr: 0x1000229B0, symSize: 0x78 }
  - { offset: 0xC7964, size: 0x8, addend: 0x0, symName: __ZNK5Eigen8internal9evaluatorINS_15PlainObjectBaseINS_6MatrixINSt3__17complexIfEELin1ELi1ELi0ELin1ELi1EEEEEE5coeffEl, symObjAddr: 0x20344, symBinAddr: 0x100022A28, symSize: 0x24 }
  - { offset: 0xC7998, size: 0x8, addend: 0x0, symName: __ZN5Eigen8internal18scalar_constant_opINSt3__17complexIfEEEC1ERKS4_, symObjAddr: 0x20368, symBinAddr: 0x100022A4C, symSize: 0x34 }
  - { offset: 0xC79D0, size: 0x8, addend: 0x0, symName: __ZN5Eigen14CwiseNullaryOpINS_8internal18scalar_constant_opINSt3__17complexIfEEEEKNS_5ArrayIS5_Lin1ELi1ELi0ELin1ELi1EEEEC1EllRKS6_, symObjAddr: 0x2039C, symBinAddr: 0x100022A80, symSize: 0x44 }
  - { offset: 0xC7A24, size: 0x8, addend: 0x0, symName: __ZN5Eigen8internal20scalar_difference_opINSt3__17complexIfEES4_EC1Ev, symObjAddr: 0x203E0, symBinAddr: 0x100022AC4, symSize: 0x2C }
  - { offset: 0xC7A4E, size: 0x8, addend: 0x0, symName: __ZN5Eigen13CwiseBinaryOpINS_8internal20scalar_difference_opINSt3__17complexIfEES5_EEKNS_12ArrayWrapperIKNS_6MatrixIS5_Lin1ELi1ELi0ELin1ELi1EEEEEKNS_14CwiseNullaryOpINS1_18scalar_constant_opIS5_EEKNS_5ArrayIS5_Lin1ELi1ELi0ELin1ELi1EEEEEEC1ERSC_RSK_RKS6_, symObjAddr: 0x2040C, symBinAddr: 0x100022AF0, symSize: 0x44 }
  - { offset: 0xC7AA2, size: 0x8, addend: 0x0, symName: __ZN5Eigen8internal18scalar_constant_opINSt3__17complexIfEEEC2ERKS4_, symObjAddr: 0x20450, symBinAddr: 0x100022B34, symSize: 0x24 }
  - { offset: 0xC7ADA, size: 0x8, addend: 0x0, symName: __ZN5Eigen14CwiseNullaryOpINS_8internal18scalar_constant_opINSt3__17complexIfEEEEKNS_5ArrayIS5_Lin1ELi1ELi0ELin1ELi1EEEEC2EllRKS6_, symObjAddr: 0x20474, symBinAddr: 0x100022B58, symSize: 0xE8 }
  - { offset: 0xC7B2E, size: 0x8, addend: 0x0, symName: __ZN5Eigen9ArrayBaseINS_14CwiseNullaryOpINS_8internal18scalar_constant_opINSt3__17complexIfEEEEKNS_5ArrayIS6_Lin1ELi1ELi0ELin1ELi1EEEEEEC2Ev, symObjAddr: 0x2055C, symBinAddr: 0x100022C40, symSize: 0x2C }
  - { offset: 0xC7B58, size: 0x8, addend: 0x0, symName: __ZN5Eigen8internal19variable_if_dynamicIlLin1EEC1El, symObjAddr: 0x20588, symBinAddr: 0x100022C6C, symSize: 0x34 }
