---
triple:          'arm64-apple-darwin'
binary-path:     MWEBug
relocations:
  - { offsetInCU: 0x44, offset: 0x44, size: 0x8, addend: 0x0, symName: __ZN5EigenL4lastE, symObjAddr: 0x13913A0, symBinAddr: 0x1002D4A40, symSize: 0x0 }
  - { offsetInCU: 0x7658, offset: 0x7658, size: 0x8, addend: 0x0, symName: __ZN5Eigen8internal16trig_reduce_hugeEfPi, symObjAddr: 0xA9EB8, symBinAddr: 0x1000AC77C, symSize: 0x4CC }
  - { offsetInCU: 0x7683, offset: 0x7683, size: 0x8, addend: 0x0, symName: __ZZN5Eigen8internal16trig_reduce_hugeEfPiE11two_over_pi, symObjAddr: 0x21CA84, symBinAddr: 0x100228D84, symSize: 0x0 }
  - { offsetInCU: 0x7770, offset: 0x7770, size: 0x8, addend: 0x0, symName: __ZN5Eigen8internal13blueNorm_implINS_5BlockIKNS_6MatrixIfLin1ELin1ELi0ELin1ELin1EEELin1ELi1ELb1EEEEENS_9NumTraitsINS0_6traitsIT_E6ScalarEE4RealERKNS_9EigenBaseIS9_EE, symObjAddr: 0xF2F78, symBinAddr: 0x1000F583C, symSize: 0x1838 }
  - { offsetInCU: 0x7799, offset: 0x7799, size: 0x8, addend: 0x0, symName: __ZZN5Eigen8internal13blueNorm_implINS_5BlockIKNS_6MatrixIfLin1ELin1ELi0ELin1ELin1EEELin1ELi1ELb1EEEEENS_9NumTraitsINS0_6traitsIT_E6ScalarEE4RealERKNS_9EigenBaseIS9_EEE5ibeta, symObjAddr: 0x21CAEC, symBinAddr: 0x100228DEC, symSize: 0x0 }
  - { offsetInCU: 0x77AE, offset: 0x77AE, size: 0x8, addend: 0x0, symName: __ZZN5Eigen8internal13blueNorm_implINS_5BlockIKNS_6MatrixIfLin1ELin1ELi0ELin1ELin1EEELin1ELi1ELb1EEEEENS_9NumTraitsINS0_6traitsIT_E6ScalarEE4RealERKNS_9EigenBaseIS9_EEE2it, symObjAddr: 0x21CAF0, symBinAddr: 0x100228DF0, symSize: 0x0 }
  - { offsetInCU: 0x77C3, offset: 0x77C3, size: 0x8, addend: 0x0, symName: __ZZN5Eigen8internal13blueNorm_implINS_5BlockIKNS_6MatrixIfLin1ELin1ELi0ELin1ELin1EEELin1ELi1ELb1EEEEENS_9NumTraitsINS0_6traitsIT_E6ScalarEE4RealERKNS_9EigenBaseIS9_EEE5iemin, symObjAddr: 0x21CAF4, symBinAddr: 0x100228DF4, symSize: 0x0 }
  - { offsetInCU: 0x77D8, offset: 0x77D8, size: 0x8, addend: 0x0, symName: __ZZN5Eigen8internal13blueNorm_implINS_5BlockIKNS_6MatrixIfLin1ELin1ELi0ELin1ELin1EEELin1ELi1ELb1EEEEENS_9NumTraitsINS0_6traitsIT_E6ScalarEE4RealERKNS_9EigenBaseIS9_EEE5iemax, symObjAddr: 0x21CAF8, symBinAddr: 0x100228DF8, symSize: 0x0 }
  - { offsetInCU: 0x77ED, offset: 0x77ED, size: 0x8, addend: 0x0, symName: __ZZN5Eigen8internal13blueNorm_implINS_5BlockIKNS_6MatrixIfLin1ELin1ELi0ELin1ELin1EEELin1ELi1ELb1EEEEENS_9NumTraitsINS0_6traitsIT_E6ScalarEE4RealERKNS_9EigenBaseIS9_EEE4rbig, symObjAddr: 0x21CAFC, symBinAddr: 0x100228DFC, symSize: 0x0 }
  - { offsetInCU: 0x780D, offset: 0x780D, size: 0x8, addend: 0x0, symName: __ZZN5Eigen8internal13blueNorm_implINS_5BlockIKNS_6MatrixIfLin1ELin1ELi0ELin1ELin1EEELin1ELi1ELb1EEEEENS_9NumTraitsINS0_6traitsIT_E6ScalarEE4RealERKNS_9EigenBaseIS9_EEE2b1, symObjAddr: 0x21C970, symBinAddr: 0x1002D0310, symSize: 0x0 }
  - { offsetInCU: 0x7822, offset: 0x7822, size: 0x8, addend: 0x0, symName: __ZZN5Eigen8internal13blueNorm_implINS_5BlockIKNS_6MatrixIfLin1ELin1ELi0ELin1ELin1EEELin1ELi1ELb1EEEEENS_9NumTraitsINS0_6traitsIT_E6ScalarEE4RealERKNS_9EigenBaseIS9_EEE2b2, symObjAddr: 0x21C980, symBinAddr: 0x1002D0320, symSize: 0x0 }
  - { offsetInCU: 0x7837, offset: 0x7837, size: 0x8, addend: 0x0, symName: __ZZN5Eigen8internal13blueNorm_implINS_5BlockIKNS_6MatrixIfLin1ELin1ELi0ELin1ELin1EEELin1ELi1ELb1EEEEENS_9NumTraitsINS0_6traitsIT_E6ScalarEE4RealERKNS_9EigenBaseIS9_EEE3s1m, symObjAddr: 0x21C990, symBinAddr: 0x1002D0330, symSize: 0x0 }
  - { offsetInCU: 0x784C, offset: 0x784C, size: 0x8, addend: 0x0, symName: __ZZN5Eigen8internal13blueNorm_implINS_5BlockIKNS_6MatrixIfLin1ELin1ELi0ELin1ELin1EEELin1ELi1ELb1EEEEENS_9NumTraitsINS0_6traitsIT_E6ScalarEE4RealERKNS_9EigenBaseIS9_EEE3s2m, symObjAddr: 0x21C9A0, symBinAddr: 0x1002D0340, symSize: 0x0 }
  - { offsetInCU: 0x7861, offset: 0x7861, size: 0x8, addend: 0x0, symName: __ZZN5Eigen8internal13blueNorm_implINS_5BlockIKNS_6MatrixIfLin1ELin1ELi0ELin1ELin1EEELin1ELi1ELb1EEEEENS_9NumTraitsINS0_6traitsIT_E6ScalarEE4RealERKNS_9EigenBaseIS9_EEE3eps, symObjAddr: 0x21C9B0, symBinAddr: 0x1002D0350, symSize: 0x0 }
  - { offsetInCU: 0x7876, offset: 0x7876, size: 0x8, addend: 0x0, symName: __ZZN5Eigen8internal13blueNorm_implINS_5BlockIKNS_6MatrixIfLin1ELin1ELi0ELin1ELin1EEELin1ELi1ELb1EEEEENS_9NumTraitsINS0_6traitsIT_E6ScalarEE4RealERKNS_9EigenBaseIS9_EEE6relerr, symObjAddr: 0x21C9C0, symBinAddr: 0x1002D0360, symSize: 0x0 }
  - { offsetInCU: 0x7AF6, offset: 0x7AF6, size: 0x8, addend: 0x0, symName: __ZN5Eigen8internal20manage_caching_sizesENS_6ActionEPlS2_S2_, symObjAddr: 0x16031C, symBinAddr: 0x100162BE0, symSize: 0x2A8 }
  - { offsetInCU: 0x7B1B, offset: 0x7B1B, size: 0x8, addend: 0x0, symName: __ZZN5Eigen8internal20manage_caching_sizesENS_6ActionEPlS2_S2_E12m_cacheSizes, symObjAddr: 0x21C9D0, symBinAddr: 0x1002D0370, symSize: 0x0 }
  - { offsetInCU: 0x7C2F, offset: 0x7C2F, size: 0x8, addend: 0x0, symName: __ZN5Eigen8internal13blueNorm_implINS_6MatrixIfLin1ELi1ELi0ELin1ELi1EEEEENS_9NumTraitsINS0_6traitsIT_E6ScalarEE4RealERKNS_9EigenBaseIS6_EE, symObjAddr: 0x1CAE58, symBinAddr: 0x1001CD71C, symSize: 0x1818 }
  - { offsetInCU: 0x7C58, offset: 0x7C58, size: 0x8, addend: 0x0, symName: __ZZN5Eigen8internal13blueNorm_implINS_6MatrixIfLin1ELi1ELi0ELin1ELi1EEEEENS_9NumTraitsINS0_6traitsIT_E6ScalarEE4RealERKNS_9EigenBaseIS6_EEE5ibeta, symObjAddr: 0x21CB10, symBinAddr: 0x100228E10, symSize: 0x0 }
  - { offsetInCU: 0x7C6D, offset: 0x7C6D, size: 0x8, addend: 0x0, symName: __ZZN5Eigen8internal13blueNorm_implINS_6MatrixIfLin1ELi1ELi0ELin1ELi1EEEEENS_9NumTraitsINS0_6traitsIT_E6ScalarEE4RealERKNS_9EigenBaseIS6_EEE2it, symObjAddr: 0x21CB14, symBinAddr: 0x100228E14, symSize: 0x0 }
  - { offsetInCU: 0x7C82, offset: 0x7C82, size: 0x8, addend: 0x0, symName: __ZZN5Eigen8internal13blueNorm_implINS_6MatrixIfLin1ELi1ELi0ELin1ELi1EEEEENS_9NumTraitsINS0_6traitsIT_E6ScalarEE4RealERKNS_9EigenBaseIS6_EEE5iemin, symObjAddr: 0x21CB18, symBinAddr: 0x100228E18, symSize: 0x0 }
  - { offsetInCU: 0x7C97, offset: 0x7C97, size: 0x8, addend: 0x0, symName: __ZZN5Eigen8internal13blueNorm_implINS_6MatrixIfLin1ELi1ELi0ELin1ELi1EEEEENS_9NumTraitsINS0_6traitsIT_E6ScalarEE4RealERKNS_9EigenBaseIS6_EEE5iemax, symObjAddr: 0x21CB1C, symBinAddr: 0x100228E1C, symSize: 0x0 }
  - { offsetInCU: 0x7CAC, offset: 0x7CAC, size: 0x8, addend: 0x0, symName: __ZZN5Eigen8internal13blueNorm_implINS_6MatrixIfLin1ELi1ELi0ELin1ELi1EEEEENS_9NumTraitsINS0_6traitsIT_E6ScalarEE4RealERKNS_9EigenBaseIS6_EEE4rbig, symObjAddr: 0x21CB20, symBinAddr: 0x100228E20, symSize: 0x0 }
  - { offsetInCU: 0x7CCC, offset: 0x7CCC, size: 0x8, addend: 0x0, symName: __ZZN5Eigen8internal13blueNorm_implINS_6MatrixIfLin1ELi1ELi0ELin1ELi1EEEEENS_9NumTraitsINS0_6traitsIT_E6ScalarEE4RealERKNS_9EigenBaseIS6_EEE2b1, symObjAddr: 0x21C9F0, symBinAddr: 0x1002D0390, symSize: 0x0 }
  - { offsetInCU: 0x7CE1, offset: 0x7CE1, size: 0x8, addend: 0x0, symName: __ZZN5Eigen8internal13blueNorm_implINS_6MatrixIfLin1ELi1ELi0ELin1ELi1EEEEENS_9NumTraitsINS0_6traitsIT_E6ScalarEE4RealERKNS_9EigenBaseIS6_EEE2b2, symObjAddr: 0x21CA00, symBinAddr: 0x1002D03A0, symSize: 0x0 }
  - { offsetInCU: 0x7CF6, offset: 0x7CF6, size: 0x8, addend: 0x0, symName: __ZZN5Eigen8internal13blueNorm_implINS_6MatrixIfLin1ELi1ELi0ELin1ELi1EEEEENS_9NumTraitsINS0_6traitsIT_E6ScalarEE4RealERKNS_9EigenBaseIS6_EEE3s1m, symObjAddr: 0x21CA10, symBinAddr: 0x1002D03B0, symSize: 0x0 }
  - { offsetInCU: 0x7D0B, offset: 0x7D0B, size: 0x8, addend: 0x0, symName: __ZZN5Eigen8internal13blueNorm_implINS_6MatrixIfLin1ELi1ELi0ELin1ELi1EEEEENS_9NumTraitsINS0_6traitsIT_E6ScalarEE4RealERKNS_9EigenBaseIS6_EEE3s2m, symObjAddr: 0x21CA20, symBinAddr: 0x1002D03C0, symSize: 0x0 }
  - { offsetInCU: 0x7D20, offset: 0x7D20, size: 0x8, addend: 0x0, symName: __ZZN5Eigen8internal13blueNorm_implINS_6MatrixIfLin1ELi1ELi0ELin1ELi1EEEEENS_9NumTraitsINS0_6traitsIT_E6ScalarEE4RealERKNS_9EigenBaseIS6_EEE3eps, symObjAddr: 0x21CA30, symBinAddr: 0x1002D03D0, symSize: 0x0 }
  - { offsetInCU: 0x7D35, offset: 0x7D35, size: 0x8, addend: 0x0, symName: __ZZN5Eigen8internal13blueNorm_implINS_6MatrixIfLin1ELi1ELi0ELin1ELi1EEEEENS_9NumTraitsINS0_6traitsIT_E6ScalarEE4RealERKNS_9EigenBaseIS6_EEE6relerr, symObjAddr: 0x21CA40, symBinAddr: 0x1002D03E0, symSize: 0x0 }
  - { offsetInCU: 0xA0AF, offset: 0xA0AF, size: 0x8, addend: 0x0, symName: __ZN5Eigen8internal14pldexp_genericI19__simd128_float32_tEET_RKS3_S5_, symObjAddr: 0xAE454, symBinAddr: 0x1000B0D18, symSize: 0xA1C }
  - { offsetInCU: 0xAE78, offset: 0xAE78, size: 0x8, addend: 0x0, symName: __ZN5Eigen8internal14pfrexp_genericI19__simd128_float32_tEET_RKS3_RS3_, symObjAddr: 0xB91AC, symBinAddr: 0x1000BBA70, symSize: 0xE34 }
  - { offsetInCU: 0x209D5, offset: 0x209D5, size: 0x8, addend: 0x0, symName: __ZN5Eigen8internal37evaluateProductBlockingSizesHeuristicIffLi4ElEEvRT2_S3_S3_S2_, symObjAddr: 0x15E684, symBinAddr: 0x100160F48, symSize: 0x1C98 }
  - { offsetInCU: 0x33DC8, offset: 0x33DC8, size: 0x8, addend: 0x0, symName: __ZN5Eigen8internal27stable_norm_impl_inner_stepINS_6MatrixIfLin1ELi1ELi0ELin1ELi1EEEfEEvRKT_RT0_S8_S8_, symObjAddr: 0xD7DFC, symBinAddr: 0x1000DA6C0, symSize: 0x4E0 }
  - { offsetInCU: 0x36201, offset: 0x36201, size: 0x8, addend: 0x0, symName: __ZN5Eigen8internal27stable_norm_impl_inner_stepINS_13CwiseBinaryOpINS0_17scalar_product_opIffEEKNS_6MatrixIfLin1ELi1ELi0ELin1ELi1EEES7_EEfEEvRKT_RT0_SD_SD_, symObjAddr: 0x12D184, symBinAddr: 0x10012FA48, symSize: 0x528 }
  - { offsetInCU: 0x3C561, offset: 0x3C561, size: 0x8, addend: 0x0, symName: __ZN5Eigen8internal31conditional_aligned_delete_autoIfLb1EEEvPT_m, symObjAddr: 0x5FEC, symBinAddr: 0x1000088B0, symSize: 0x28 }
  - { offsetInCU: 0x3C5AD, offset: 0x3C5AD, size: 0x8, addend: 0x0, symName: __ZN5Eigen8internal24conditional_aligned_freeILb1EEEvPv, symObjAddr: 0x6014, symBinAddr: 0x1000088D8, symSize: 0x24 }
  - { offsetInCU: 0x3C5E1, offset: 0x3C5E1, size: 0x8, addend: 0x0, symName: __ZN5Eigen8internal12aligned_freeEPv, symObjAddr: 0x6038, symBinAddr: 0x1000088FC, symSize: 0x24 }
  - { offsetInCU: 0x3C66D, offset: 0x3C66D, size: 0x8, addend: 0x0, symName: __ZN5Eigen8internal19throw_std_bad_allocEv, symObjAddr: 0x16E18, symBinAddr: 0x1000196DC, symSize: 0x38 }
  - { offsetInCU: 0x3C6A9, offset: 0x3C6A9, size: 0x8, addend: 0x0, symName: __ZN5Eigen8internal28conditional_aligned_new_autoIfLb1EEEPT_m, symObjAddr: 0x16E50, symBinAddr: 0x100019714, symSize: 0x84 }
  - { offsetInCU: 0x3C717, offset: 0x3C717, size: 0x8, addend: 0x0, symName: __ZN5Eigen8internal26conditional_aligned_mallocILb1EEEPvm, symObjAddr: 0x16ED4, symBinAddr: 0x100019798, symSize: 0x24 }
  - { offsetInCU: 0x3C74D, offset: 0x3C74D, size: 0x8, addend: 0x0, symName: __ZN5Eigen8internal14aligned_mallocEm, symObjAddr: 0x16EF8, symBinAddr: 0x1000197BC, symSize: 0xE0 }
  - { offsetInCU: 0x3C78E, offset: 0x3C78E, size: 0x8, addend: 0x0, symName: __ZN5Eigen8internal28check_that_malloc_is_allowedEv, symObjAddr: 0x16FD8, symBinAddr: 0x10001989C, symSize: 0x4 }
  - { offsetInCU: 0x3C7A7, offset: 0x3C7A7, size: 0x8, addend: 0x0, symName: __ZN5Eigen8internal22ignore_unused_variableIbEEvRKT_, symObjAddr: 0x18584, symBinAddr: 0x10001AE48, symSize: 0x10 }
  - { offsetInCU: 0x3C7D6, offset: 0x3C7D6, size: 0x8, addend: 0x0, symName: __ZN5Eigen8internal22ignore_unused_variableIlEEvRKT_, symObjAddr: 0x18F58, symBinAddr: 0x10001B81C, symSize: 0x10 }
  - { offsetInCU: 0x3CAF7, offset: 0x3CAF7, size: 0x8, addend: 0x0, symName: __ZN5Eigen8internalL21first_default_alignedINS_12CwiseUnaryOpINS0_14scalar_abs2_opIfEEKNS_13CwiseBinaryOpINS0_20scalar_difference_opIffEEKNS_6MatrixIfLin1ELi1ELi0ELin1ELi1EEESA_EEEEEElRKNS_9DenseBaseIT_EE, symObjAddr: 0x1B0DC, symBinAddr: 0x10001D9A0, symSize: 0x24 }
  - { offsetInCU: 0x3CB2E, offset: 0x3CB2E, size: 0x8, addend: 0x0, symName: __ZN5Eigen8internalL13first_alignedILi16ENS_12CwiseUnaryOpINS0_14scalar_abs2_opIfEEKNS_13CwiseBinaryOpINS0_20scalar_difference_opIffEEKNS_6MatrixIfLin1ELi1ELi0ELin1ELi1EEESA_EEEEEElRKNS_9DenseBaseIT0_EE, symObjAddr: 0x1B708, symBinAddr: 0x10001DFCC, symSize: 0x28 }
  - { offsetInCU: 0x3CBAD, offset: 0x3CBAD, size: 0x8, addend: 0x0, symName: __ZN5Eigen8internal4pmulI19__simd128_float32_tEET_RKS3_S5_, symObjAddr: 0x1BA5C, symBinAddr: 0x10001E320, symSize: 0xC8 }
  - { offsetInCU: 0x3CC25, offset: 0x3CC25, size: 0x8, addend: 0x0, symName: __ZN5Eigen8internal4psubI19__simd128_float32_tEET_RKS3_S5_, symObjAddr: 0x1BBE0, symBinAddr: 0x10001E4A4, symSize: 0xC8 }
  - { offsetInCU: 0x3CC6C, offset: 0x3CC6C, size: 0x8, addend: 0x0, symName: __ZN5Eigen8internal5ploadI19__simd128_float32_tEET_PKNS0_15unpacket_traitsIS3_E4typeE, symObjAddr: 0x1BCA8, symBinAddr: 0x10001E56C, symSize: 0xF8 }
  - { offsetInCU: 0x3CCC0, offset: 0x3CCC0, size: 0x8, addend: 0x0, symName: __ZN5Eigen8internal4paddI19__simd128_float32_tEET_RKS3_S5_, symObjAddr: 0x1BDA0, symBinAddr: 0x10001E664, symSize: 0xC8 }
  - { offsetInCU: 0x3CD07, offset: 0x3CD07, size: 0x8, addend: 0x0, symName: __ZN5Eigen8internal6preduxI19__simd128_float32_tEENS0_15unpacket_traitsIT_E4typeERKS4_, symObjAddr: 0x1BE68, symBinAddr: 0x10001E72C, symSize: 0x140 }
  - { offsetInCU: 0x3CDF3, offset: 0x3CDF3, size: 0x8, addend: 0x0, symName: __ZN5Eigen8internal15call_assignmentINS_6MatrixIfLin1ELin1ELi0ELin1ELin1EEES3_EEvRT_RKT0_, symObjAddr: 0x45A60, symBinAddr: 0x100048324, symSize: 0x1F8 }
  - { offsetInCU: 0x3CE40, offset: 0x3CE40, size: 0x8, addend: 0x0, symName: __ZN5Eigen8internal15call_assignmentINS_6MatrixIfLin1ELin1ELi0ELin1ELin1EEES3_NS0_9assign_opIffEEEEvRT_RKT0_RKT1_NS0_9enable_ifIXntsr25evaluator_assume_aliasingIS8_EE5valueEPvE4typeE, symObjAddr: 0x45C58, symBinAddr: 0x10004851C, symSize: 0x38 }
  - { offsetInCU: 0x3CEAE, offset: 0x3CEAE, size: 0x8, addend: 0x0, symName: __ZN5Eigen8internal24call_assignment_no_aliasINS_6MatrixIfLin1ELin1ELi0ELin1ELin1EEES3_NS0_9assign_opIffEEEEvRT_RKT0_RKT1_, symObjAddr: 0x45CBC, symBinAddr: 0x100048580, symSize: 0x3C }
  - { offsetInCU: 0x3CF86, offset: 0x3CF86, size: 0x8, addend: 0x0, symName: __ZN5Eigen8internal18check_for_aliasingINS_6MatrixIfLin1ELin1ELi0ELin1ELin1EEES3_EEvRKT_RKT0_, symObjAddr: 0x45D38, symBinAddr: 0x1000485FC, symSize: 0x60 }
  - { offsetInCU: 0x3CFD1, offset: 0x3CFD1, size: 0x8, addend: 0x0, symName: __ZN5Eigen8internal26call_dense_assignment_loopINS_6MatrixIfLin1ELin1ELi0ELin1ELin1EEES3_NS0_9assign_opIffEEEEvRT_RKT0_RKT1_, symObjAddr: 0x45D98, symBinAddr: 0x10004865C, symSize: 0x3F4 }
  - { offsetInCU: 0x3D0D2, offset: 0x3D0D2, size: 0x8, addend: 0x0, symName: __ZN5Eigen8internal17resize_if_allowedINS_6MatrixIfLin1ELin1ELi0ELin1ELin1EEES3_ffEEvRT_RKT0_RKNS0_9assign_opIT1_T2_EE, symObjAddr: 0x461A0, symBinAddr: 0x100048A64, symSize: 0xFC }
  - { offsetInCU: 0x3DD54, offset: 0x3DD54, size: 0x8, addend: 0x0, symName: __ZN5Eigen8internal6pstoreIf19__simd128_float32_tEEvPT_RKT0_, symObjAddr: 0x46A28, symBinAddr: 0x1000492EC, symSize: 0x138 }
  - { offsetInCU: 0x3DE10, offset: 0x3DE10, size: 0x8, addend: 0x0, symName: __ZN5Eigen8internal15call_assignmentINS_6MatrixIfLin1ELi1ELi0ELin1ELi1EEENS_5BlockINS2_IfLin1ELin1ELi0ELin1ELin1EEELi1ELin1ELb0EEEEEvRT_RKT0_, symObjAddr: 0x54088, symBinAddr: 0x10005694C, symSize: 0x1F8 }
  - { offsetInCU: 0x3DE5D, offset: 0x3DE5D, size: 0x8, addend: 0x0, symName: __ZN5Eigen8internal15call_assignmentINS_6MatrixIfLin1ELi1ELi0ELin1ELi1EEENS_5BlockINS2_IfLin1ELin1ELi0ELin1ELin1EEELi1ELin1ELb0EEENS0_9assign_opIffEEEEvRT_RKT0_RKT1_NS0_9enable_ifIXntsr25evaluator_assume_aliasingISB_EE5valueEPvE4typeE, symObjAddr: 0x54294, symBinAddr: 0x100056B58, symSize: 0x38 }
  - { offsetInCU: 0x3DECB, offset: 0x3DECB, size: 0x8, addend: 0x0, symName: __ZN5Eigen8internal24call_assignment_no_aliasINS_6MatrixIfLin1ELi1ELi0ELin1ELi1EEENS_5BlockINS2_IfLin1ELin1ELi0ELin1ELin1EEELi1ELin1ELb0EEENS0_9assign_opIffEEEEvRT_RKT0_RKT1_, symObjAddr: 0x542CC, symBinAddr: 0x100056B90, symSize: 0x1E8 }
  - { offsetInCU: 0x3DFA0, offset: 0x3DFA0, size: 0x8, addend: 0x0, symName: __ZN5Eigen8internal18check_for_aliasingINS_9TransposeINS_6MatrixIfLin1ELi1ELi0ELin1ELi1EEEEENS_5BlockINS3_IfLin1ELin1ELi0ELin1ELin1EEELi1ELin1ELb0EEEEEvRKT_RKT0_, symObjAddr: 0x54614, symBinAddr: 0x100056ED8, symSize: 0x14 }
  - { offsetInCU: 0x3DFEB, offset: 0x3DFEB, size: 0x8, addend: 0x0, symName: __ZN5Eigen8internal26call_dense_assignment_loopINS_9TransposeINS_6MatrixIfLin1ELi1ELi0ELin1ELi1EEEEENS_5BlockINS3_IfLin1ELin1ELi0ELin1ELin1EEELi1ELin1ELb0EEENS0_9assign_opIffEEEEvRT_RKT0_RKT1_, symObjAddr: 0x54628, symBinAddr: 0x100056EEC, symSize: 0x424 }
  - { offsetInCU: 0x3E15F, offset: 0x3E15F, size: 0x8, addend: 0x0, symName: __ZN5Eigen8internal17resize_if_allowedINS_9TransposeINS_6MatrixIfLin1ELi1ELi0ELin1ELi1EEEEENS_5BlockINS3_IfLin1ELin1ELi0ELin1ELin1EEELi1ELin1ELb0EEEffEEvRT_RKT0_RKNS0_9assign_opIT1_T2_EE, symObjAddr: 0x54A80, symBinAddr: 0x100057344, symSize: 0xFC }
  - { offsetInCU: 0x3E5BA, offset: 0x3E5BA, size: 0x8, addend: 0x0, symName: __ZN5Eigen8internal15call_assignmentINS_6MatrixIfLin1ELi1ELi0ELin1ELi1EEENS_14CwiseNullaryOpINS0_18scalar_constant_opIfEES3_EEEEvRT_RKT0_, symObjAddr: 0x917D8, symBinAddr: 0x10009409C, symSize: 0x1F8 }
  - { offsetInCU: 0x3E607, offset: 0x3E607, size: 0x8, addend: 0x0, symName: __ZN5Eigen8internal15call_assignmentINS_6MatrixIfLin1ELi1ELi0ELin1ELi1EEENS_14CwiseNullaryOpINS0_18scalar_constant_opIfEES3_EENS0_9assign_opIffEEEEvRT_RKT0_RKT1_NS0_9enable_ifIXntsr25evaluator_assume_aliasingISC_EE5valueEPvE4typeE, symObjAddr: 0x919E4, symBinAddr: 0x1000942A8, symSize: 0x38 }
  - { offsetInCU: 0x3E675, offset: 0x3E675, size: 0x8, addend: 0x0, symName: __ZN5Eigen8internal24call_assignment_no_aliasINS_6MatrixIfLin1ELi1ELi0ELin1ELi1EEENS_14CwiseNullaryOpINS0_18scalar_constant_opIfEES3_EENS0_9assign_opIffEEEEvRT_RKT0_RKT1_, symObjAddr: 0x91A1C, symBinAddr: 0x1000942E0, symSize: 0x3C }
  - { offsetInCU: 0x3E743, offset: 0x3E743, size: 0x8, addend: 0x0, symName: __ZN5Eigen8internal18check_for_aliasingINS_6MatrixIfLin1ELi1ELi0ELin1ELi1EEENS_14CwiseNullaryOpINS0_18scalar_constant_opIfEES3_EEEEvRKT_RKT0_, symObjAddr: 0x91A98, symBinAddr: 0x10009435C, symSize: 0x14 }
  - { offsetInCU: 0x3E78E, offset: 0x3E78E, size: 0x8, addend: 0x0, symName: __ZN5Eigen8internal26call_dense_assignment_loopINS_6MatrixIfLin1ELi1ELi0ELin1ELi1EEEEEvRT_RKNS_14CwiseNullaryOpINS0_18scalar_constant_opINS4_6ScalarEEES4_EERKNS0_9assign_opIS8_S8_EE, symObjAddr: 0x91AAC, symBinAddr: 0x100094370, symSize: 0x280 }
  - { offsetInCU: 0x3E7E2, offset: 0x3E7E2, size: 0x8, addend: 0x0, symName: __ZN5Eigen8internal17resize_if_allowedINS_6MatrixIfLin1ELi1ELi0ELin1ELi1EEENS_14CwiseNullaryOpINS0_18scalar_constant_opIfEES3_EEffEEvRT_RKT0_RKNS0_9assign_opIT1_T2_EE, symObjAddr: 0x91D2C, symBinAddr: 0x1000945F0, symSize: 0xFC }
  - { offsetInCU: 0x3E868, offset: 0x3E868, size: 0x8, addend: 0x0, symName: __ZN5Eigen8internal24call_assignment_no_aliasINS_6MatrixIfLin1ELi1ELi0ELin1ELi1EEENS_13CwiseBinaryOpINS0_17scalar_product_opIffEEKNS_14CwiseNullaryOpINS0_18scalar_constant_opIfEES3_EEKNS7_IS9_KS3_EEEENS0_9assign_opIffEEEEvRT_RKT0_RKT1_, symObjAddr: 0xA359C, symBinAddr: 0x1000A5E60, symSize: 0x3C }
  - { offsetInCU: 0x3E936, offset: 0x3E936, size: 0x8, addend: 0x0, symName: __ZN5Eigen8internal18check_for_aliasingINS_6MatrixIfLin1ELi1ELi0ELin1ELi1EEENS_13CwiseBinaryOpINS0_17scalar_product_opIffEEKNS_14CwiseNullaryOpINS0_18scalar_constant_opIfEES3_EEKNS7_IS9_KS3_EEEEEEvRKT_RKT0_, symObjAddr: 0xA3618, symBinAddr: 0x1000A5EDC, symSize: 0x14 }
  - { offsetInCU: 0x3E981, offset: 0x3E981, size: 0x8, addend: 0x0, symName: __ZN5Eigen8internal26call_dense_assignment_loopINS_6MatrixIfLin1ELi1ELi0ELin1ELi1EEENS_13CwiseBinaryOpINS0_17scalar_product_opIffEEKNS_14CwiseNullaryOpINS0_18scalar_constant_opIfEES3_EEKNS7_IS9_KS3_EEEENS0_9assign_opIffEEEEvRT_RKT0_RKT1_, symObjAddr: 0xA362C, symBinAddr: 0x1000A5EF0, symSize: 0x428 }
  - { offsetInCU: 0x3EA45, offset: 0x3EA45, size: 0x8, addend: 0x0, symName: __ZN5Eigen8internal17resize_if_allowedINS_6MatrixIfLin1ELi1ELi0ELin1ELi1EEENS_13CwiseBinaryOpINS0_17scalar_product_opIffEEKNS_14CwiseNullaryOpINS0_18scalar_constant_opIfEES3_EEKNS7_IS9_KS3_EEEEffEEvRT_RKT0_RKNS0_9assign_opIT1_T2_EE, symObjAddr: 0xA3A88, symBinAddr: 0x1000A634C, symSize: 0xFC }
  - { offsetInCU: 0x3EACB, offset: 0x3EACB, size: 0x8, addend: 0x0, symName: __ZN5Eigen8internal5pset1I19__simd128_float32_tEET_RKNS0_15unpacket_traitsIS3_E4typeE, symObjAddr: 0xA4A34, symBinAddr: 0x1000A72F8, symSize: 0xD0 }
  - { offsetInCU: 0x3EB02, offset: 0x3EB02, size: 0x8, addend: 0x0, symName: __ZN5Eigen8internal10smart_copyIfEEvPKT_S4_PS2_, symObjAddr: 0xA5B2C, symBinAddr: 0x1000A83F0, symSize: 0x34 }
  - { offsetInCU: 0x3EB8D, offset: 0x3EB8D, size: 0x8, addend: 0x0, symName: __ZN5Eigen8internal24call_assignment_no_aliasINS_6MatrixIfLin1ELi1ELi0ELin1ELi1EEENS_12CwiseUnaryOpINS0_13scalar_cos_opIfEEKNS_12ArrayWrapperIS3_EEEENS0_9assign_opIffEEEEvRT_RKT0_RKT1_, symObjAddr: 0xA69C4, symBinAddr: 0x1000A9288, symSize: 0x3C }
  - { offsetInCU: 0x3EC5B, offset: 0x3EC5B, size: 0x8, addend: 0x0, symName: __ZN5Eigen8internal18check_for_aliasingINS_6MatrixIfLin1ELi1ELi0ELin1ELi1EEENS_12CwiseUnaryOpINS0_13scalar_cos_opIfEEKNS_12ArrayWrapperIS3_EEEEEEvRKT_RKT0_, symObjAddr: 0xA6A40, symBinAddr: 0x1000A9304, symSize: 0x14 }
  - { offsetInCU: 0x3ECA6, offset: 0x3ECA6, size: 0x8, addend: 0x0, symName: __ZN5Eigen8internal26call_dense_assignment_loopINS_6MatrixIfLin1ELi1ELi0ELin1ELi1EEENS_12CwiseUnaryOpINS0_13scalar_cos_opIfEEKNS_12ArrayWrapperIS3_EEEENS0_9assign_opIffEEEEvRT_RKT0_RKT1_, symObjAddr: 0xA6A54, symBinAddr: 0x1000A9318, symSize: 0x3EC }
  - { offsetInCU: 0x3ED69, offset: 0x3ED69, size: 0x8, addend: 0x0, symName: __ZN5Eigen8internal17resize_if_allowedINS_6MatrixIfLin1ELi1ELi0ELin1ELi1EEENS_12CwiseUnaryOpINS0_13scalar_cos_opIfEEKNS_12ArrayWrapperIS3_EEEEffEEvRT_RKT0_RKNS0_9assign_opIT1_T2_EE, symObjAddr: 0xA6E74, symBinAddr: 0x1000A9738, symSize: 0xFC }
  - { offsetInCU: 0x3EDEF, offset: 0x3EDEF, size: 0x8, addend: 0x0, symName: __ZN5Eigen8internal4pcosI19__simd128_float32_tEET_RKS3_, symObjAddr: 0xA7B94, symBinAddr: 0x1000AA458, symSize: 0x24 }
  - { offsetInCU: 0x3EE26, offset: 0x3EE26, size: 0x8, addend: 0x0, symName: __ZN5Eigen8internal10pcos_floatI19__simd128_float32_tEET_RKS3_, symObjAddr: 0xA7BB8, symBinAddr: 0x1000AA47C, symSize: 0x24 }
  - { offsetInCU: 0x3EE5D, offset: 0x3EE5D, size: 0x8, addend: 0x0, symName: __ZN5Eigen8internal13psincos_floatILb0E19__simd128_float32_tEET0_RKS3_, symObjAddr: 0xA7BDC, symBinAddr: 0x1000AA4A0, symSize: 0x1ABC }
  - { offsetInCU: 0x3F03C, offset: 0x3F03C, size: 0x8, addend: 0x0, symName: __ZN5Eigen8internal5pset1I17__simd128_int32_tEET_RKNS0_15unpacket_traitsIS3_E4typeE, symObjAddr: 0xA9698, symBinAddr: 0x1000ABF5C, symSize: 0xD0 }
  - { offsetInCU: 0x3F073, offset: 0x3F073, size: 0x8, addend: 0x0, symName: __ZN5Eigen8internal13pset1frombitsI19__simd128_float32_tjEET_T0_, symObjAddr: 0xA9768, symBinAddr: 0x1000AC02C, symSize: 0x68 }
  - { offsetInCU: 0x3F0B3, offset: 0x3F0B3, size: 0x8, addend: 0x0, symName: __ZN5Eigen8internal4pabsI19__simd128_float32_tEET_RKS3_, symObjAddr: 0xA97D0, symBinAddr: 0x1000AC094, symSize: 0x74 }
  - { offsetInCU: 0x3F0EA, offset: 0x3F0EA, size: 0x8, addend: 0x0, symName: __ZN5Eigen8internal12preinterpretI17__simd128_int32_t19__simd128_float32_tEET_RKT0_, symObjAddr: 0xA9844, symBinAddr: 0x1000AC108, symSize: 0x70 }
  - { offsetInCU: 0x3F12C, offset: 0x3F12C, size: 0x8, addend: 0x0, symName: __ZN5Eigen8internal5pmaddI19__simd128_float32_tEET_RKS3_S5_S5_, symObjAddr: 0xA98B4, symBinAddr: 0x1000AC178, symSize: 0x118 }
  - { offsetInCU: 0x3F184, offset: 0x3F184, size: 0x8, addend: 0x0, symName: __ZN5Eigen8internal10predux_anyI19__simd128_float32_tEEbRKT_, symObjAddr: 0xA99CC, symBinAddr: 0x1000AC290, symSize: 0x174 }
  - { offsetInCU: 0x3F1FA, offset: 0x3F1FA, size: 0x8, addend: 0x0, symName: __ZN5Eigen8internal7pcmp_leI19__simd128_float32_tEET_RKS3_S5_, symObjAddr: 0xA9B40, symBinAddr: 0x1000AC404, symSize: 0xE0 }
  - { offsetInCU: 0x3F242, offset: 0x3F242, size: 0x8, addend: 0x0, symName: __ZN5Eigen8internal7pstoreuIf19__simd128_float32_tEEvPT_RKT0_, symObjAddr: 0xA9C20, symBinAddr: 0x1000AC4E4, symSize: 0x138 }
  - { offsetInCU: 0x3F2AA, offset: 0x3F2AA, size: 0x8, addend: 0x0, symName: __ZN5Eigen8internal7pstoreuIi17__simd128_int32_tEEvPT_RKT0_, symObjAddr: 0xA9D58, symBinAddr: 0x1000AC61C, symSize: 0x138 }
  - { offsetInCU: 0x3F312, offset: 0x3F312, size: 0x8, addend: 0x0, symName: __ZN5Eigen8internal6ploaduI19__simd128_float32_tEET_PKNS0_15unpacket_traitsIS3_E4typeE, symObjAddr: 0xAA384, symBinAddr: 0x1000ACC48, symSize: 0xF8 }
  - { offsetInCU: 0x3F366, offset: 0x3F366, size: 0x8, addend: 0x0, symName: __ZN5Eigen8internal6ploaduI17__simd128_int32_tEET_PKNS0_15unpacket_traitsIS3_E4typeE, symObjAddr: 0xAA47C, symBinAddr: 0x1000ACD40, symSize: 0xF8 }
  - { offsetInCU: 0x3F3BA, offset: 0x3F3BA, size: 0x8, addend: 0x0, symName: __ZN5Eigen8internal12preinterpretI19__simd128_float32_t17__simd128_int32_tEET_RKT0_, symObjAddr: 0xAA574, symBinAddr: 0x1000ACE38, symSize: 0x70 }
  - { offsetInCU: 0x3F3FC, offset: 0x3F3FC, size: 0x8, addend: 0x0, symName: __ZN5Eigen8internal19plogical_shift_leftILi30EEE17__simd128_int32_tS2_, symObjAddr: 0xAA5E4, symBinAddr: 0x1000ACEA8, symSize: 0x30 }
  - { offsetInCU: 0x3F460, offset: 0x3F460, size: 0x8, addend: 0x0, symName: __ZN5Eigen8internal4paddI17__simd128_int32_tEET_RKS3_S5_, symObjAddr: 0xAA614, symBinAddr: 0x1000ACED8, symSize: 0xC8 }
  - { offsetInCU: 0x3F4A7, offset: 0x3F4A7, size: 0x8, addend: 0x0, symName: __ZN5Eigen8internal4pandI19__simd128_float32_tEET_RKS3_S5_, symObjAddr: 0xAA6DC, symBinAddr: 0x1000ACFA0, symSize: 0xF8 }
  - { offsetInCU: 0x3F4EF, offset: 0x3F4EF, size: 0x8, addend: 0x0, symName: __ZN5Eigen8internal7pcmp_eqI17__simd128_int32_tEET_RKS3_S5_, symObjAddr: 0xAA7D4, symBinAddr: 0x1000AD098, symSize: 0xE0 }
  - { offsetInCU: 0x3F537, offset: 0x3F537, size: 0x8, addend: 0x0, symName: __ZN5Eigen8internal4pandI17__simd128_int32_tEET_RKS3_S5_, symObjAddr: 0xAA8B4, symBinAddr: 0x1000AD178, symSize: 0xC8 }
  - { offsetInCU: 0x3F57E, offset: 0x3F57E, size: 0x8, addend: 0x0, symName: __ZN5Eigen8internal5pzeroI17__simd128_int32_tEET_RKS3_, symObjAddr: 0xAA97C, symBinAddr: 0x1000AD240, symSize: 0x24 }
  - { offsetInCU: 0x3F5B5, offset: 0x3F5B5, size: 0x8, addend: 0x0, symName: __ZN5Eigen8internal7pselectI19__simd128_float32_tEET_RKS3_S5_S5_, symObjAddr: 0xAA9A0, symBinAddr: 0x1000AD264, symSize: 0x128 }
  - { offsetInCU: 0x3F60D, offset: 0x3F60D, size: 0x8, addend: 0x0, symName: __ZN5Eigen8internal4pxorI19__simd128_float32_tEET_RKS3_S5_, symObjAddr: 0xAAAC8, symBinAddr: 0x1000AD38C, symSize: 0xF8 }
  - { offsetInCU: 0x3F655, offset: 0x3F655, size: 0x8, addend: 0x0, symName: __ZN5Eigen8internal13isfinite_implIfEENS0_9enable_ifIXaantsr8internal11is_integralIT_EE5valuentsr9NumTraitsIS3_EE9IsComplexEbE4typeERKS3_, symObjAddr: 0xAABC0, symBinAddr: 0x1000AD484, symSize: 0x90 }
  - { offsetInCU: 0x3F6BB, offset: 0x3F6BB, size: 0x8, addend: 0x0, symName: __ZN5Eigen8internal24call_assignment_no_aliasINS_6MatrixIfLin1ELi1ELi0ELin1ELi1EEENS_12CwiseUnaryOpINS0_13scalar_exp_opIfEEKNS_12ArrayWrapperIS3_EEEENS0_9assign_opIffEEEEvRT_RKT0_RKT1_, symObjAddr: 0xABCEC, symBinAddr: 0x1000AE5B0, symSize: 0x3C }
  - { offsetInCU: 0x3F789, offset: 0x3F789, size: 0x8, addend: 0x0, symName: __ZN5Eigen8internal18check_for_aliasingINS_6MatrixIfLin1ELi1ELi0ELin1ELi1EEENS_12CwiseUnaryOpINS0_13scalar_exp_opIfEEKNS_12ArrayWrapperIS3_EEEEEEvRKT_RKT0_, symObjAddr: 0xABD68, symBinAddr: 0x1000AE62C, symSize: 0x14 }
  - { offsetInCU: 0x3F7D4, offset: 0x3F7D4, size: 0x8, addend: 0x0, symName: __ZN5Eigen8internal26call_dense_assignment_loopINS_6MatrixIfLin1ELi1ELi0ELin1ELi1EEENS_12CwiseUnaryOpINS0_13scalar_exp_opIfEEKNS_12ArrayWrapperIS3_EEEENS0_9assign_opIffEEEEvRT_RKT0_RKT1_, symObjAddr: 0xABD7C, symBinAddr: 0x1000AE640, symSize: 0x3EC }
  - { offsetInCU: 0x3F897, offset: 0x3F897, size: 0x8, addend: 0x0, symName: __ZN5Eigen8internal17resize_if_allowedINS_6MatrixIfLin1ELi1ELi0ELin1ELi1EEENS_12CwiseUnaryOpINS0_13scalar_exp_opIfEEKNS_12ArrayWrapperIS3_EEEEffEEvRT_RKT0_RKNS0_9assign_opIT1_T2_EE, symObjAddr: 0xAC19C, symBinAddr: 0x1000AEA60, symSize: 0xFC }
  - { offsetInCU: 0x3F91D, offset: 0x3F91D, size: 0x8, addend: 0x0, symName: __ZN5Eigen8internal4pexpI19__simd128_float32_tEET_RKS3_, symObjAddr: 0xACCC8, symBinAddr: 0x1000AF58C, symSize: 0x64 }
  - { offsetInCU: 0x3F954, offset: 0x3F954, size: 0x8, addend: 0x0, symName: __ZN5Eigen8internal10pexp_floatI19__simd128_float32_tEET_S3_, symObjAddr: 0xACD2C, symBinAddr: 0x1000AF5F0, symSize: 0x14F0 }
  - { offsetInCU: 0x3FB31, offset: 0x3FB31, size: 0x8, addend: 0x0, symName: __ZN5Eigen8internal4pmaxI19__simd128_float32_tEET_RKS3_S5_, symObjAddr: 0xAE21C, symBinAddr: 0x1000B0AE0, symSize: 0xCC }
  - { offsetInCU: 0x3FB78, offset: 0x3FB78, size: 0x8, addend: 0x0, symName: __ZN5Eigen8internal4pminI19__simd128_float32_tEET_RKS3_S5_, symObjAddr: 0xAE2E8, symBinAddr: 0x1000B0BAC, symSize: 0xCC }
  - { offsetInCU: 0x3FBBF, offset: 0x3FBBF, size: 0x8, addend: 0x0, symName: __ZN5Eigen8internal6pfloorI19__simd128_float32_tEET_RKS3_, symObjAddr: 0xAE3B4, symBinAddr: 0x1000B0C78, symSize: 0x74 }
  - { offsetInCU: 0x3FBF6, offset: 0x3FBF6, size: 0x8, addend: 0x0, symName: __ZN5Eigen8internal6pldexpI19__simd128_float32_tEET_RKS3_S5_, symObjAddr: 0xAE428, symBinAddr: 0x1000B0CEC, symSize: 0x2C }
  - { offsetInCU: 0x3FC3C, offset: 0x3FC3C, size: 0x8, addend: 0x0, symName: __ZN5Eigen8internal5pcastI19__simd128_float32_t17__simd128_int32_tEET0_RKT_, symObjAddr: 0xAEE70, symBinAddr: 0x1000B1734, symSize: 0x74 }
  - { offsetInCU: 0x3FC7C, offset: 0x3FC7C, size: 0x8, addend: 0x0, symName: __ZN5Eigen8internal7pnegateI19__simd128_float32_tEET_RKS3_, symObjAddr: 0xAEEE4, symBinAddr: 0x1000B17A8, symSize: 0x74 }
  - { offsetInCU: 0x3FCB3, offset: 0x3FCB3, size: 0x8, addend: 0x0, symName: __ZN5Eigen8internal23parithmetic_shift_rightILi2EEE17__simd128_int32_tS2_, symObjAddr: 0xAEF58, symBinAddr: 0x1000B181C, symSize: 0x30 }
  - { offsetInCU: 0x3FD17, offset: 0x3FD17, size: 0x8, addend: 0x0, symName: __ZN5Eigen8internal19plogical_shift_leftILi23EEE17__simd128_int32_tS2_, symObjAddr: 0xAEF88, symBinAddr: 0x1000B184C, symSize: 0x30 }
  - { offsetInCU: 0x3FD7B, offset: 0x3FD7B, size: 0x8, addend: 0x0, symName: __ZN5Eigen8internal4psubI17__simd128_int32_tEET_RKS3_S5_, symObjAddr: 0xAEFB8, symBinAddr: 0x1000B187C, symSize: 0xC8 }
  - { offsetInCU: 0x3FDC2, offset: 0x3FDC2, size: 0x8, addend: 0x0, symName: __ZN5Eigen8internal24call_assignment_no_aliasINS_6MatrixIfLin1ELi1ELi0ELin1ELi1EEENS_12CwiseUnaryOpINS0_14scalar_sqrt_opIfEEKNS_12ArrayWrapperIS3_EEEENS0_9assign_opIffEEEEvRT_RKT0_RKT1_, symObjAddr: 0xAFB84, symBinAddr: 0x1000B2448, symSize: 0x3C }
  - { offsetInCU: 0x3FE90, offset: 0x3FE90, size: 0x8, addend: 0x0, symName: __ZN5Eigen8internal18check_for_aliasingINS_6MatrixIfLin1ELi1ELi0ELin1ELi1EEENS_12CwiseUnaryOpINS0_14scalar_sqrt_opIfEEKNS_12ArrayWrapperIS3_EEEEEEvRKT_RKT0_, symObjAddr: 0xAFC00, symBinAddr: 0x1000B24C4, symSize: 0x14 }
  - { offsetInCU: 0x3FEDB, offset: 0x3FEDB, size: 0x8, addend: 0x0, symName: __ZN5Eigen8internal26call_dense_assignment_loopINS_6MatrixIfLin1ELi1ELi0ELin1ELi1EEENS_12CwiseUnaryOpINS0_14scalar_sqrt_opIfEEKNS_12ArrayWrapperIS3_EEEENS0_9assign_opIffEEEEvRT_RKT0_RKT1_, symObjAddr: 0xAFC14, symBinAddr: 0x1000B24D8, symSize: 0x3EC }
  - { offsetInCU: 0x3FF9E, offset: 0x3FF9E, size: 0x8, addend: 0x0, symName: __ZN5Eigen8internal17resize_if_allowedINS_6MatrixIfLin1ELi1ELi0ELin1ELi1EEENS_12CwiseUnaryOpINS0_14scalar_sqrt_opIfEEKNS_12ArrayWrapperIS3_EEEEffEEvRT_RKT0_RKNS0_9assign_opIT1_T2_EE, symObjAddr: 0xB0034, symBinAddr: 0x1000B28F8, symSize: 0xFC }
  - { offsetInCU: 0x40024, offset: 0x40024, size: 0x8, addend: 0x0, symName: __ZN5Eigen8internal5psqrtI19__simd128_float32_tEET_RKS3_, symObjAddr: 0xB0B60, symBinAddr: 0x1000B3424, symSize: 0x74 }
  - { offsetInCU: 0x400A5, offset: 0x400A5, size: 0x8, addend: 0x0, symName: __ZN5Eigen8internal24call_assignment_no_aliasINS_6MatrixIfLin1ELi1ELi0ELin1ELi1EEENS_12CwiseUnaryOpINS0_13scalar_sin_opIfEEKNS_12ArrayWrapperIS3_EEEENS0_9assign_opIffEEEEvRT_RKT0_RKT1_, symObjAddr: 0xB16D4, symBinAddr: 0x1000B3F98, symSize: 0x3C }
  - { offsetInCU: 0x40173, offset: 0x40173, size: 0x8, addend: 0x0, symName: __ZN5Eigen8internal18check_for_aliasingINS_6MatrixIfLin1ELi1ELi0ELin1ELi1EEENS_12CwiseUnaryOpINS0_13scalar_sin_opIfEEKNS_12ArrayWrapperIS3_EEEEEEvRKT_RKT0_, symObjAddr: 0xB1750, symBinAddr: 0x1000B4014, symSize: 0x14 }
  - { offsetInCU: 0x401BE, offset: 0x401BE, size: 0x8, addend: 0x0, symName: __ZN5Eigen8internal26call_dense_assignment_loopINS_6MatrixIfLin1ELi1ELi0ELin1ELi1EEENS_12CwiseUnaryOpINS0_13scalar_sin_opIfEEKNS_12ArrayWrapperIS3_EEEENS0_9assign_opIffEEEEvRT_RKT0_RKT1_, symObjAddr: 0xB1764, symBinAddr: 0x1000B4028, symSize: 0x3EC }
  - { offsetInCU: 0x40281, offset: 0x40281, size: 0x8, addend: 0x0, symName: __ZN5Eigen8internal17resize_if_allowedINS_6MatrixIfLin1ELi1ELi0ELin1ELi1EEENS_12CwiseUnaryOpINS0_13scalar_sin_opIfEEKNS_12ArrayWrapperIS3_EEEEffEEvRT_RKT0_RKNS0_9assign_opIT1_T2_EE, symObjAddr: 0xB1B84, symBinAddr: 0x1000B4448, symSize: 0xFC }
  - { offsetInCU: 0x40307, offset: 0x40307, size: 0x8, addend: 0x0, symName: __ZN5Eigen8internal4psinI19__simd128_float32_tEET_RKS3_, symObjAddr: 0xB26B0, symBinAddr: 0x1000B4F74, symSize: 0x24 }
  - { offsetInCU: 0x4033E, offset: 0x4033E, size: 0x8, addend: 0x0, symName: __ZN5Eigen8internal10psin_floatI19__simd128_float32_tEET_RKS3_, symObjAddr: 0xB26D4, symBinAddr: 0x1000B4F98, symSize: 0x24 }
  - { offsetInCU: 0x40375, offset: 0x40375, size: 0x8, addend: 0x0, symName: __ZN5Eigen8internal13psincos_floatILb1E19__simd128_float32_tEET0_RKS3_, symObjAddr: 0xB26F8, symBinAddr: 0x1000B4FBC, symSize: 0x1B3C }
  - { offsetInCU: 0x40554, offset: 0x40554, size: 0x8, addend: 0x0, symName: __ZN5Eigen8internal24call_assignment_no_aliasINS_6MatrixIfLin1ELi1ELi0ELin1ELi1EEENS_12CwiseUnaryOpINS0_14scalar_asin_opIfEEKNS_12ArrayWrapperIS3_EEEENS0_9assign_opIffEEEEvRT_RKT0_RKT1_, symObjAddr: 0xB4D38, symBinAddr: 0x1000B75FC, symSize: 0x3C }
  - { offsetInCU: 0x40622, offset: 0x40622, size: 0x8, addend: 0x0, symName: __ZN5Eigen8internal18check_for_aliasingINS_6MatrixIfLin1ELi1ELi0ELin1ELi1EEENS_12CwiseUnaryOpINS0_14scalar_asin_opIfEEKNS_12ArrayWrapperIS3_EEEEEEvRKT_RKT0_, symObjAddr: 0xB4DB4, symBinAddr: 0x1000B7678, symSize: 0x14 }
  - { offsetInCU: 0x4066D, offset: 0x4066D, size: 0x8, addend: 0x0, symName: __ZN5Eigen8internal26call_dense_assignment_loopINS_6MatrixIfLin1ELi1ELi0ELin1ELi1EEENS_12CwiseUnaryOpINS0_14scalar_asin_opIfEEKNS_12ArrayWrapperIS3_EEEENS0_9assign_opIffEEEEvRT_RKT0_RKT1_, symObjAddr: 0xB4DC8, symBinAddr: 0x1000B768C, symSize: 0x3EC }
  - { offsetInCU: 0x408C6, offset: 0x408C6, size: 0x8, addend: 0x0, symName: __ZN5Eigen8internal17resize_if_allowedINS_6MatrixIfLin1ELi1ELi0ELin1ELi1EEENS_12CwiseUnaryOpINS0_14scalar_asin_opIfEEKNS_12ArrayWrapperIS3_EEEEffEEvRT_RKT0_RKNS0_9assign_opIT1_T2_EE, symObjAddr: 0xB51E8, symBinAddr: 0x1000B7AAC, symSize: 0xFC }
  - { offsetInCU: 0x40B9E, offset: 0x40B9E, size: 0x8, addend: 0x0, symName: __ZN5Eigen8internal24call_assignment_no_aliasINS_6MatrixIfLin1ELi1ELi0ELin1ELi1EEENS_12CwiseUnaryOpINS0_13scalar_log_opIfEEKNS_12ArrayWrapperIS3_EEEENS0_9assign_opIffEEEEvRT_RKT0_RKT1_, symObjAddr: 0xB620C, symBinAddr: 0x1000B8AD0, symSize: 0x3C }
  - { offsetInCU: 0x40C6C, offset: 0x40C6C, size: 0x8, addend: 0x0, symName: __ZN5Eigen8internal18check_for_aliasingINS_6MatrixIfLin1ELi1ELi0ELin1ELi1EEENS_12CwiseUnaryOpINS0_13scalar_log_opIfEEKNS_12ArrayWrapperIS3_EEEEEEvRKT_RKT0_, symObjAddr: 0xB6288, symBinAddr: 0x1000B8B4C, symSize: 0x14 }
  - { offsetInCU: 0x40CB7, offset: 0x40CB7, size: 0x8, addend: 0x0, symName: __ZN5Eigen8internal26call_dense_assignment_loopINS_6MatrixIfLin1ELi1ELi0ELin1ELi1EEENS_12CwiseUnaryOpINS0_13scalar_log_opIfEEKNS_12ArrayWrapperIS3_EEEENS0_9assign_opIffEEEEvRT_RKT0_RKT1_, symObjAddr: 0xB629C, symBinAddr: 0x1000B8B60, symSize: 0x3EC }
  - { offsetInCU: 0x40D7A, offset: 0x40D7A, size: 0x8, addend: 0x0, symName: __ZN5Eigen8internal17resize_if_allowedINS_6MatrixIfLin1ELi1ELi0ELin1ELi1EEENS_12CwiseUnaryOpINS0_13scalar_log_opIfEEKNS_12ArrayWrapperIS3_EEEEffEEvRT_RKT0_RKNS0_9assign_opIT1_T2_EE, symObjAddr: 0xB66BC, symBinAddr: 0x1000B8F80, symSize: 0xFC }
  - { offsetInCU: 0x40E00, offset: 0x40E00, size: 0x8, addend: 0x0, symName: __ZN5Eigen8internal4plogI19__simd128_float32_tEET_RKS3_, symObjAddr: 0xB71E8, symBinAddr: 0x1000B9AAC, symSize: 0x64 }
  - { offsetInCU: 0x40E37, offset: 0x40E37, size: 0x8, addend: 0x0, symName: __ZN5Eigen8internal10plog_floatI19__simd128_float32_tEET_S3_, symObjAddr: 0xB724C, symBinAddr: 0x1000B9B10, symSize: 0x24 }
  - { offsetInCU: 0x40E6D, offset: 0x40E6D, size: 0x8, addend: 0x0, symName: __ZN5Eigen8internal15plog_impl_floatI19__simd128_float32_tLb0EEET_S3_, symObjAddr: 0xB7270, symBinAddr: 0x1000B9B34, symSize: 0x1B40 }
  - { offsetInCU: 0x410D0, offset: 0x410D0, size: 0x8, addend: 0x0, symName: __ZN5Eigen8internal6pfrexpI19__simd128_float32_tEET_RKS3_RS3_, symObjAddr: 0xB8DB0, symBinAddr: 0x1000BB674, symSize: 0x2C }
  - { offsetInCU: 0x41116, offset: 0x41116, size: 0x8, addend: 0x0, symName: __ZN5Eigen8internal7pcmp_ltI19__simd128_float32_tEET_RKS3_S5_, symObjAddr: 0xB8DDC, symBinAddr: 0x1000BB6A0, symSize: 0xE0 }
  - { offsetInCU: 0x4115E, offset: 0x4115E, size: 0x8, addend: 0x0, symName: __ZN5Eigen8internal14pcmp_lt_or_nanI19__simd128_float32_tEET_RKS3_S5_, symObjAddr: 0xB8EBC, symBinAddr: 0x1000BB780, symSize: 0xF4 }
  - { offsetInCU: 0x411A6, offset: 0x411A6, size: 0x8, addend: 0x0, symName: __ZN5Eigen8internal5pzeroI19__simd128_float32_tEET_RKS3_, symObjAddr: 0xB8FB0, symBinAddr: 0x1000BB874, symSize: 0x24 }
  - { offsetInCU: 0x411DD, offset: 0x411DD, size: 0x8, addend: 0x0, symName: __ZN5Eigen8internal7pcmp_eqI19__simd128_float32_tEET_RKS3_S5_, symObjAddr: 0xB8FD4, symBinAddr: 0x1000BB898, symSize: 0xE0 }
  - { offsetInCU: 0x41225, offset: 0x41225, size: 0x8, addend: 0x0, symName: __ZN5Eigen8internal3porI19__simd128_float32_tEET_RKS3_S5_, symObjAddr: 0xB90B4, symBinAddr: 0x1000BB978, symSize: 0xF8 }
  - { offsetInCU: 0x4126D, offset: 0x4126D, size: 0x8, addend: 0x0, symName: __ZN5Eigen8internal34pfrexp_generic_get_biased_exponentI19__simd128_float32_tEET_RKS3_, symObjAddr: 0xB9FF4, symBinAddr: 0x1000BC8B8, symSize: 0x2A4 }
  - { offsetInCU: 0x412A3, offset: 0x412A3, size: 0x8, addend: 0x0, symName: __ZN5Eigen8internal5pcastI17__simd128_int32_t19__simd128_float32_tEET0_RKT_, symObjAddr: 0xBA2A4, symBinAddr: 0x1000BCB68, symSize: 0x74 }
  - { offsetInCU: 0x412E5, offset: 0x412E5, size: 0x8, addend: 0x0, symName: __ZN5Eigen8internal20plogical_shift_rightILi23EEE17__simd128_int32_tS2_, symObjAddr: 0xBA318, symBinAddr: 0x1000BCBDC, symSize: 0x50 }
  - { offsetInCU: 0x413A2, offset: 0x413A2, size: 0x8, addend: 0x0, symName: __ZN5Eigen8internal24call_assignment_no_aliasINS_6MatrixIfLin1ELi1ELi0ELin1ELi1EEENS_12CwiseUnaryOpINS0_14scalar_tanh_opIfEEKNS_12ArrayWrapperIS3_EEEENS0_9assign_opIffEEEEvRT_RKT0_RKT1_, symObjAddr: 0xBB0A4, symBinAddr: 0x1000BD968, symSize: 0x3C }
  - { offsetInCU: 0x41470, offset: 0x41470, size: 0x8, addend: 0x0, symName: __ZN5Eigen8internal18check_for_aliasingINS_6MatrixIfLin1ELi1ELi0ELin1ELi1EEENS_12CwiseUnaryOpINS0_14scalar_tanh_opIfEEKNS_12ArrayWrapperIS3_EEEEEEvRKT_RKT0_, symObjAddr: 0xBB120, symBinAddr: 0x1000BD9E4, symSize: 0x14 }
  - { offsetInCU: 0x414BB, offset: 0x414BB, size: 0x8, addend: 0x0, symName: __ZN5Eigen8internal26call_dense_assignment_loopINS_6MatrixIfLin1ELi1ELi0ELin1ELi1EEENS_12CwiseUnaryOpINS0_14scalar_tanh_opIfEEKNS_12ArrayWrapperIS3_EEEENS0_9assign_opIffEEEEvRT_RKT0_RKT1_, symObjAddr: 0xBB134, symBinAddr: 0x1000BD9F8, symSize: 0x3EC }
  - { offsetInCU: 0x4157E, offset: 0x4157E, size: 0x8, addend: 0x0, symName: __ZN5Eigen8internal17resize_if_allowedINS_6MatrixIfLin1ELi1ELi0ELin1ELi1EEENS_12CwiseUnaryOpINS0_14scalar_tanh_opIfEEKNS_12ArrayWrapperIS3_EEEEffEEvRT_RKT0_RKNS0_9assign_opIT1_T2_EE, symObjAddr: 0xBB554, symBinAddr: 0x1000BDE18, symSize: 0xFC }
  - { offsetInCU: 0x41604, offset: 0x41604, size: 0x8, addend: 0x0, symName: __ZN5Eigen8internal5ptanhI19__simd128_float32_tEET_RKS3_, symObjAddr: 0xBC080, symBinAddr: 0x1000BE944, symSize: 0x24 }
  - { offsetInCU: 0x4163B, offset: 0x4163B, size: 0x8, addend: 0x0, symName: __ZN5Eigen8internal23generic_fast_tanh_floatI19__simd128_float32_tEET_RKS3_, symObjAddr: 0xBC0A4, symBinAddr: 0x1000BE968, symSize: 0x1550 }
  - { offsetInCU: 0x417ED, offset: 0x417ED, size: 0x8, addend: 0x0, symName: __ZN5Eigen8internal4pdivI19__simd128_float32_tEET_RKS3_S5_, symObjAddr: 0xBD5F4, symBinAddr: 0x1000BFEB8, symSize: 0xC8 }
  - { offsetInCU: 0x41834, offset: 0x41834, size: 0x8, addend: 0x0, symName: __ZN5Eigen8internal23generic_fast_tanh_floatIfEET_RKS2_, symObjAddr: 0xBDC9C, symBinAddr: 0x1000C0560, symSize: 0x19A0 }
  - { offsetInCU: 0x419E5, offset: 0x419E5, size: 0x8, addend: 0x0, symName: __ZN5Eigen8internal5pset1IfEET_RKNS0_15unpacket_traitsIS2_E4typeE, symObjAddr: 0xBF63C, symBinAddr: 0x1000C1F00, symSize: 0x88 }
  - { offsetInCU: 0x41A1C, offset: 0x41A1C, size: 0x8, addend: 0x0, symName: __ZN5Eigen8internal4pmaxIfEET_RKS2_S4_, symObjAddr: 0xBF6C4, symBinAddr: 0x1000C1F88, symSize: 0xAC }
  - { offsetInCU: 0x41A88, offset: 0x41A88, size: 0x8, addend: 0x0, symName: __ZN5Eigen8internal4pminIfEET_RKS2_S4_, symObjAddr: 0xBF770, symBinAddr: 0x1000C2034, symSize: 0xAC }
  - { offsetInCU: 0x41AF4, offset: 0x41AF4, size: 0x8, addend: 0x0, symName: __ZN5Eigen8internal7pcmp_ltIfEET_RKS2_S4_, symObjAddr: 0xBF81C, symBinAddr: 0x1000C20E0, symSize: 0x130 }
  - { offsetInCU: 0x41B64, offset: 0x41B64, size: 0x8, addend: 0x0, symName: __ZN5Eigen8internal4pabsIfEET_RKS2_, symObjAddr: 0xBF94C, symBinAddr: 0x1000C2210, symSize: 0x94 }
  - { offsetInCU: 0x41BC1, offset: 0x41BC1, size: 0x8, addend: 0x0, symName: __ZN5Eigen8internal4pmulIfEET_RKS2_S4_, symObjAddr: 0xBF9E0, symBinAddr: 0x1000C22A4, symSize: 0x100 }
  - { offsetInCU: 0x41C04, offset: 0x41C04, size: 0x8, addend: 0x0, symName: __ZN5Eigen8internal5pmaddIfEET_RKS2_S4_S4_, symObjAddr: 0xBFAE0, symBinAddr: 0x1000C23A4, symSize: 0x258 }
  - { offsetInCU: 0x41C5C, offset: 0x41C5C, size: 0x8, addend: 0x0, symName: __ZN5Eigen8internal7pselectIfEET_RKS2_S4_S4_, symObjAddr: 0xBFD38, symBinAddr: 0x1000C25FC, symSize: 0x34 }
  - { offsetInCU: 0x41CB1, offset: 0x41CB1, size: 0x8, addend: 0x0, symName: __ZN5Eigen8internal4pdivIfEET_RKS2_S4_, symObjAddr: 0xBFD6C, symBinAddr: 0x1000C2630, symSize: 0x100 }
  - { offsetInCU: 0x41CF4, offset: 0x41CF4, size: 0x8, addend: 0x0, symName: __ZN5Eigen8internal5ptrueIfEET_RKS2_, symObjAddr: 0xC03A0, symBinAddr: 0x1000C2C64, symSize: 0x24 }
  - { offsetInCU: 0x41D2B, offset: 0x41D2B, size: 0x8, addend: 0x0, symName: __ZN5Eigen8internal5pzeroIfEET_RKS2_, symObjAddr: 0xC03C4, symBinAddr: 0x1000C2C88, symSize: 0x24 }
  - { offsetInCU: 0x41DBE, offset: 0x41DBE, size: 0x8, addend: 0x0, symName: __ZN5Eigen8internal4paddIfEET_RKS2_S4_, symObjAddr: 0xC0654, symBinAddr: 0x1000C2F18, symSize: 0x100 }
  - { offsetInCU: 0x41E3A, offset: 0x41E3A, size: 0x8, addend: 0x0, symName: __ZN5Eigen8internal24call_assignment_no_aliasINS_6MatrixIfLin1ELi1ELi0ELin1ELi1EEENS_12CwiseUnaryOpINS0_14scalar_acos_opIfEEKNS_12ArrayWrapperIS3_EEEENS0_9assign_opIffEEEEvRT_RKT0_RKT1_, symObjAddr: 0xC1354, symBinAddr: 0x1000C3C18, symSize: 0x3C }
  - { offsetInCU: 0x41F08, offset: 0x41F08, size: 0x8, addend: 0x0, symName: __ZN5Eigen8internal18check_for_aliasingINS_6MatrixIfLin1ELi1ELi0ELin1ELi1EEENS_12CwiseUnaryOpINS0_14scalar_acos_opIfEEKNS_12ArrayWrapperIS3_EEEEEEvRKT_RKT0_, symObjAddr: 0xC13D0, symBinAddr: 0x1000C3C94, symSize: 0x14 }
  - { offsetInCU: 0x41F53, offset: 0x41F53, size: 0x8, addend: 0x0, symName: __ZN5Eigen8internal26call_dense_assignment_loopINS_6MatrixIfLin1ELi1ELi0ELin1ELi1EEENS_12CwiseUnaryOpINS0_14scalar_acos_opIfEEKNS_12ArrayWrapperIS3_EEEENS0_9assign_opIffEEEEvRT_RKT0_RKT1_, symObjAddr: 0xC13E4, symBinAddr: 0x1000C3CA8, symSize: 0x3EC }
  - { offsetInCU: 0x421AC, offset: 0x421AC, size: 0x8, addend: 0x0, symName: __ZN5Eigen8internal17resize_if_allowedINS_6MatrixIfLin1ELi1ELi0ELin1ELi1EEENS_12CwiseUnaryOpINS0_14scalar_acos_opIfEEKNS_12ArrayWrapperIS3_EEEEffEEvRT_RKT0_RKNS0_9assign_opIT1_T2_EE, symObjAddr: 0xC1804, symBinAddr: 0x1000C40C8, symSize: 0xFC }
  - { offsetInCU: 0x42484, offset: 0x42484, size: 0x8, addend: 0x0, symName: __ZN5Eigen8internal24call_assignment_no_aliasINS_6MatrixIfLin1ELi1ELi0ELin1ELi1EEENS_12CwiseUnaryOpINS0_18scalar_opposite_opIfEEKNS_12ArrayWrapperIS3_EEEENS0_9assign_opIffEEEEvRT_RKT0_RKT1_, symObjAddr: 0xC2828, symBinAddr: 0x1000C50EC, symSize: 0x3C }
  - { offsetInCU: 0x42552, offset: 0x42552, size: 0x8, addend: 0x0, symName: __ZN5Eigen8internal18check_for_aliasingINS_6MatrixIfLin1ELi1ELi0ELin1ELi1EEENS_12CwiseUnaryOpINS0_18scalar_opposite_opIfEEKNS_12ArrayWrapperIS3_EEEEEEvRKT_RKT0_, symObjAddr: 0xC28A4, symBinAddr: 0x1000C5168, symSize: 0x14 }
  - { offsetInCU: 0x4259D, offset: 0x4259D, size: 0x8, addend: 0x0, symName: __ZN5Eigen8internal26call_dense_assignment_loopINS_6MatrixIfLin1ELi1ELi0ELin1ELi1EEENS_12CwiseUnaryOpINS0_18scalar_opposite_opIfEEKNS_12ArrayWrapperIS3_EEEENS0_9assign_opIffEEEEvRT_RKT0_RKT1_, symObjAddr: 0xC28B8, symBinAddr: 0x1000C517C, symSize: 0x3EC }
  - { offsetInCU: 0x42660, offset: 0x42660, size: 0x8, addend: 0x0, symName: __ZN5Eigen8internal17resize_if_allowedINS_6MatrixIfLin1ELi1ELi0ELin1ELi1EEENS_12CwiseUnaryOpINS0_18scalar_opposite_opIfEEKNS_12ArrayWrapperIS3_EEEEffEEvRT_RKT0_RKNS0_9assign_opIT1_T2_EE, symObjAddr: 0xC2CD8, symBinAddr: 0x1000C559C, symSize: 0xFC }
  - { offsetInCU: 0x426E6, offset: 0x426E6, size: 0x8, addend: 0x0, symName: __ZN5Eigen8internal24call_assignment_no_aliasINS_6MatrixIfLin1ELi1ELi0ELin1ELi1EEENS_13CwiseBinaryOpINS0_13scalar_sum_opIffEEKNS_12ArrayWrapperIS3_EES9_EENS0_9assign_opIffEEEEvRT_RKT0_RKT1_, symObjAddr: 0xC435C, symBinAddr: 0x1000C6C20, symSize: 0x3C }
  - { offsetInCU: 0x427B4, offset: 0x427B4, size: 0x8, addend: 0x0, symName: __ZN5Eigen8internal18check_for_aliasingINS_6MatrixIfLin1ELi1ELi0ELin1ELi1EEENS_13CwiseBinaryOpINS0_13scalar_sum_opIffEEKNS_12ArrayWrapperIS3_EES9_EEEEvRKT_RKT0_, symObjAddr: 0xC43D8, symBinAddr: 0x1000C6C9C, symSize: 0x14 }
  - { offsetInCU: 0x427FF, offset: 0x427FF, size: 0x8, addend: 0x0, symName: __ZN5Eigen8internal26call_dense_assignment_loopINS_6MatrixIfLin1ELi1ELi0ELin1ELi1EEENS_13CwiseBinaryOpINS0_13scalar_sum_opIffEEKNS_12ArrayWrapperIS3_EES9_EENS0_9assign_opIffEEEEvRT_RKT0_RKT1_, symObjAddr: 0xC43EC, symBinAddr: 0x1000C6CB0, symSize: 0x41C }
  - { offsetInCU: 0x428C3, offset: 0x428C3, size: 0x8, addend: 0x0, symName: __ZN5Eigen8internal17resize_if_allowedINS_6MatrixIfLin1ELi1ELi0ELin1ELi1EEENS_13CwiseBinaryOpINS0_13scalar_sum_opIffEEKNS_12ArrayWrapperIS3_EES9_EEffEEvRT_RKT0_RKNS0_9assign_opIT1_T2_EE, symObjAddr: 0xC483C, symBinAddr: 0x1000C7100, symSize: 0xFC }
  - { offsetInCU: 0x42949, offset: 0x42949, size: 0x8, addend: 0x0, symName: __ZN5Eigen8internal24call_assignment_no_aliasINS_6MatrixIfLin1ELi1ELi0ELin1ELi1EEENS_13CwiseBinaryOpINS0_20scalar_difference_opIffEEKNS_12ArrayWrapperIS3_EES9_EENS0_9assign_opIffEEEEvRT_RKT0_RKT1_, symObjAddr: 0xC5EE0, symBinAddr: 0x1000C87A4, symSize: 0x3C }
  - { offsetInCU: 0x42A17, offset: 0x42A17, size: 0x8, addend: 0x0, symName: __ZN5Eigen8internal18check_for_aliasingINS_6MatrixIfLin1ELi1ELi0ELin1ELi1EEENS_13CwiseBinaryOpINS0_20scalar_difference_opIffEEKNS_12ArrayWrapperIS3_EES9_EEEEvRKT_RKT0_, symObjAddr: 0xC5F5C, symBinAddr: 0x1000C8820, symSize: 0x14 }
  - { offsetInCU: 0x42A62, offset: 0x42A62, size: 0x8, addend: 0x0, symName: __ZN5Eigen8internal26call_dense_assignment_loopINS_6MatrixIfLin1ELi1ELi0ELin1ELi1EEENS_13CwiseBinaryOpINS0_20scalar_difference_opIffEEKNS_12ArrayWrapperIS3_EES9_EENS0_9assign_opIffEEEEvRT_RKT0_RKT1_, symObjAddr: 0xC5F70, symBinAddr: 0x1000C8834, symSize: 0x41C }
  - { offsetInCU: 0x42B26, offset: 0x42B26, size: 0x8, addend: 0x0, symName: __ZN5Eigen8internal17resize_if_allowedINS_6MatrixIfLin1ELi1ELi0ELin1ELi1EEENS_13CwiseBinaryOpINS0_20scalar_difference_opIffEEKNS_12ArrayWrapperIS3_EES9_EEffEEvRT_RKT0_RKNS0_9assign_opIT1_T2_EE, symObjAddr: 0xC63C0, symBinAddr: 0x1000C8C84, symSize: 0xFC }
  - { offsetInCU: 0x42BAC, offset: 0x42BAC, size: 0x8, addend: 0x0, symName: __ZN5Eigen8internal24call_assignment_no_aliasINS_6MatrixIfLin1ELi1ELi0ELin1ELi1EEENS_13CwiseBinaryOpINS0_17scalar_product_opIffEEKNS_12ArrayWrapperIS3_EES9_EENS0_9assign_opIffEEEEvRT_RKT0_RKT1_, symObjAddr: 0xC7A64, symBinAddr: 0x1000CA328, symSize: 0x3C }
  - { offsetInCU: 0x42C7A, offset: 0x42C7A, size: 0x8, addend: 0x0, symName: __ZN5Eigen8internal18check_for_aliasingINS_6MatrixIfLin1ELi1ELi0ELin1ELi1EEENS_13CwiseBinaryOpINS0_17scalar_product_opIffEEKNS_12ArrayWrapperIS3_EES9_EEEEvRKT_RKT0_, symObjAddr: 0xC7AE0, symBinAddr: 0x1000CA3A4, symSize: 0x14 }
  - { offsetInCU: 0x42CC5, offset: 0x42CC5, size: 0x8, addend: 0x0, symName: __ZN5Eigen8internal26call_dense_assignment_loopINS_6MatrixIfLin1ELi1ELi0ELin1ELi1EEENS_13CwiseBinaryOpINS0_17scalar_product_opIffEEKNS_12ArrayWrapperIS3_EES9_EENS0_9assign_opIffEEEEvRT_RKT0_RKT1_, symObjAddr: 0xC7AF4, symBinAddr: 0x1000CA3B8, symSize: 0x41C }
  - { offsetInCU: 0x42D89, offset: 0x42D89, size: 0x8, addend: 0x0, symName: __ZN5Eigen8internal17resize_if_allowedINS_6MatrixIfLin1ELi1ELi0ELin1ELi1EEENS_13CwiseBinaryOpINS0_17scalar_product_opIffEEKNS_12ArrayWrapperIS3_EES9_EEffEEvRT_RKT0_RKNS0_9assign_opIT1_T2_EE, symObjAddr: 0xC7F44, symBinAddr: 0x1000CA808, symSize: 0xFC }
  - { offsetInCU: 0x42E0F, offset: 0x42E0F, size: 0x8, addend: 0x0, symName: __ZN5Eigen8internal24call_assignment_no_aliasINS_6MatrixIfLin1ELi1ELi0ELin1ELi1EEENS_13CwiseBinaryOpINS0_18scalar_quotient_opIffEEKNS_12ArrayWrapperIS3_EES9_EENS0_9assign_opIffEEEEvRT_RKT0_RKT1_, symObjAddr: 0xC9674, symBinAddr: 0x1000CBF38, symSize: 0x3C }
  - { offsetInCU: 0x42EDD, offset: 0x42EDD, size: 0x8, addend: 0x0, symName: __ZN5Eigen8internal18check_for_aliasingINS_6MatrixIfLin1ELi1ELi0ELin1ELi1EEENS_13CwiseBinaryOpINS0_18scalar_quotient_opIffEEKNS_12ArrayWrapperIS3_EES9_EEEEvRKT_RKT0_, symObjAddr: 0xC96F0, symBinAddr: 0x1000CBFB4, symSize: 0x14 }
  - { offsetInCU: 0x42F28, offset: 0x42F28, size: 0x8, addend: 0x0, symName: __ZN5Eigen8internal26call_dense_assignment_loopINS_6MatrixIfLin1ELi1ELi0ELin1ELi1EEENS_13CwiseBinaryOpINS0_18scalar_quotient_opIffEEKNS_12ArrayWrapperIS3_EES9_EENS0_9assign_opIffEEEEvRT_RKT0_RKT1_, symObjAddr: 0xC9704, symBinAddr: 0x1000CBFC8, symSize: 0x41C }
  - { offsetInCU: 0x42FEC, offset: 0x42FEC, size: 0x8, addend: 0x0, symName: __ZN5Eigen8internal17resize_if_allowedINS_6MatrixIfLin1ELi1ELi0ELin1ELi1EEENS_13CwiseBinaryOpINS0_18scalar_quotient_opIffEEKNS_12ArrayWrapperIS3_EES9_EEffEEvRT_RKT0_RKNS0_9assign_opIT1_T2_EE, symObjAddr: 0xC9B54, symBinAddr: 0x1000CC418, symSize: 0xFC }
  - { offsetInCU: 0x43072, offset: 0x43072, size: 0x8, addend: 0x0, symName: __ZN5Eigen8internal24call_assignment_no_aliasINS_6MatrixIfLin1ELi1ELi0ELin1ELi1EEENS_13CwiseBinaryOpINS0_13scalar_pow_opIffEEKNS_12ArrayWrapperIS3_EES9_EENS0_9assign_opIffEEEEvRT_RKT0_RKT1_, symObjAddr: 0xCB3B8, symBinAddr: 0x1000CDC7C, symSize: 0x3C }
  - { offsetInCU: 0x43140, offset: 0x43140, size: 0x8, addend: 0x0, symName: __ZN5Eigen8internal18check_for_aliasingINS_6MatrixIfLin1ELi1ELi0ELin1ELi1EEENS_13CwiseBinaryOpINS0_13scalar_pow_opIffEEKNS_12ArrayWrapperIS3_EES9_EEEEvRKT_RKT0_, symObjAddr: 0xCB434, symBinAddr: 0x1000CDCF8, symSize: 0x14 }
  - { offsetInCU: 0x4318B, offset: 0x4318B, size: 0x8, addend: 0x0, symName: __ZN5Eigen8internal26call_dense_assignment_loopINS_6MatrixIfLin1ELi1ELi0ELin1ELi1EEENS_13CwiseBinaryOpINS0_13scalar_pow_opIffEEKNS_12ArrayWrapperIS3_EES9_EENS0_9assign_opIffEEEEvRT_RKT0_RKT1_, symObjAddr: 0xCB448, symBinAddr: 0x1000CDD0C, symSize: 0x41C }
  - { offsetInCU: 0x43412, offset: 0x43412, size: 0x8, addend: 0x0, symName: __ZN5Eigen8internal17resize_if_allowedINS_6MatrixIfLin1ELi1ELi0ELin1ELi1EEENS_13CwiseBinaryOpINS0_13scalar_pow_opIffEEKNS_12ArrayWrapperIS3_EES9_EEffEEvRT_RKT0_RKNS0_9assign_opIT1_T2_EE, symObjAddr: 0xCB898, symBinAddr: 0x1000CE15C, symSize: 0xFC }
  - { offsetInCU: 0x43738, offset: 0x43738, size: 0x8, addend: 0x0, symName: __ZN5Eigen8internal15call_assignmentINS_6MatrixIfLin1ELi1ELi0ELin1ELi1EEES3_EEvRT_RKT0_, symObjAddr: 0xCED8C, symBinAddr: 0x1000D1650, symSize: 0x1F8 }
  - { offsetInCU: 0x43785, offset: 0x43785, size: 0x8, addend: 0x0, symName: __ZN5Eigen8internal15call_assignmentINS_6MatrixIfLin1ELi1ELi0ELin1ELi1EEES3_NS0_9assign_opIffEEEEvRT_RKT0_RKT1_NS0_9enable_ifIXntsr25evaluator_assume_aliasingIS8_EE5valueEPvE4typeE, symObjAddr: 0xCEF84, symBinAddr: 0x1000D1848, symSize: 0x38 }
  - { offsetInCU: 0x437F3, offset: 0x437F3, size: 0x8, addend: 0x0, symName: __ZN5Eigen8internal24call_assignment_no_aliasINS_6MatrixIfLin1ELi1ELi0ELin1ELi1EEES3_NS0_9assign_opIffEEEEvRT_RKT0_RKT1_, symObjAddr: 0xCEFBC, symBinAddr: 0x1000D1880, symSize: 0x3C }
  - { offsetInCU: 0x438C1, offset: 0x438C1, size: 0x8, addend: 0x0, symName: __ZN5Eigen8internal18check_for_aliasingINS_6MatrixIfLin1ELi1ELi0ELin1ELi1EEES3_EEvRKT_RKT0_, symObjAddr: 0xCF038, symBinAddr: 0x1000D18FC, symSize: 0x14 }
  - { offsetInCU: 0x4390C, offset: 0x4390C, size: 0x8, addend: 0x0, symName: __ZN5Eigen8internal26call_dense_assignment_loopINS_6MatrixIfLin1ELi1ELi0ELin1ELi1EEES3_NS0_9assign_opIffEEEEvRT_RKT0_RKT1_, symObjAddr: 0xCF04C, symBinAddr: 0x1000D1910, symSize: 0x3F0 }
  - { offsetInCU: 0x439CF, offset: 0x439CF, size: 0x8, addend: 0x0, symName: __ZN5Eigen8internal17resize_if_allowedINS_6MatrixIfLin1ELi1ELi0ELin1ELi1EEES3_ffEEvRT_RKT0_RKNS0_9assign_opIT1_T2_EE, symObjAddr: 0xCF43C, symBinAddr: 0x1000D1D00, symSize: 0xFC }
  - { offsetInCU: 0x43A55, offset: 0x43A55, size: 0x8, addend: 0x0, symName: __ZN5Eigen8internal31conditional_aligned_delete_autoIiLb1EEEvPT_m, symObjAddr: 0xD103C, symBinAddr: 0x1000D3900, symSize: 0x28 }
  - { offsetInCU: 0x43AA1, offset: 0x43AA1, size: 0x8, addend: 0x0, symName: __ZN5Eigen8internal15call_assignmentINS_6MatrixIfLin1ELi1ELi0ELin1ELi1EEENS_13CwiseBinaryOpINS0_20scalar_difference_opIffEEKS3_S7_EEEEvRT_RKT0_, symObjAddr: 0xD676C, symBinAddr: 0x1000D9030, symSize: 0x1F8 }
  - { offsetInCU: 0x43AEE, offset: 0x43AEE, size: 0x8, addend: 0x0, symName: __ZN5Eigen8internal15call_assignmentINS_6MatrixIfLin1ELi1ELi0ELin1ELi1EEENS_13CwiseBinaryOpINS0_20scalar_difference_opIffEEKS3_S7_EENS0_9assign_opIffEEEEvRT_RKT0_RKT1_NS0_9enable_ifIXntsr25evaluator_assume_aliasingISD_EE5valueEPvE4typeE, symObjAddr: 0xD6964, symBinAddr: 0x1000D9228, symSize: 0x38 }
  - { offsetInCU: 0x43B5C, offset: 0x43B5C, size: 0x8, addend: 0x0, symName: __ZN5Eigen8internal24call_assignment_no_aliasINS_6MatrixIfLin1ELi1ELi0ELin1ELi1EEENS_13CwiseBinaryOpINS0_20scalar_difference_opIffEEKS3_S7_EENS0_9assign_opIffEEEEvRT_RKT0_RKT1_, symObjAddr: 0xD699C, symBinAddr: 0x1000D9260, symSize: 0x3C }
  - { offsetInCU: 0x43C2A, offset: 0x43C2A, size: 0x8, addend: 0x0, symName: __ZN5Eigen8internal18check_for_aliasingINS_6MatrixIfLin1ELi1ELi0ELin1ELi1EEENS_13CwiseBinaryOpINS0_20scalar_difference_opIffEEKS3_S7_EEEEvRKT_RKT0_, symObjAddr: 0xD6A18, symBinAddr: 0x1000D92DC, symSize: 0x14 }
  - { offsetInCU: 0x43C75, offset: 0x43C75, size: 0x8, addend: 0x0, symName: __ZN5Eigen8internal26call_dense_assignment_loopINS_6MatrixIfLin1ELi1ELi0ELin1ELi1EEENS_13CwiseBinaryOpINS0_20scalar_difference_opIffEEKS3_S7_EENS0_9assign_opIffEEEEvRT_RKT0_RKT1_, symObjAddr: 0xD6A2C, symBinAddr: 0x1000D92F0, symSize: 0x41C }
  - { offsetInCU: 0x43D39, offset: 0x43D39, size: 0x8, addend: 0x0, symName: __ZN5Eigen8internal17resize_if_allowedINS_6MatrixIfLin1ELi1ELi0ELin1ELi1EEENS_13CwiseBinaryOpINS0_20scalar_difference_opIffEEKS3_S7_EEffEEvRT_RKT0_RKNS0_9assign_opIT1_T2_EE, symObjAddr: 0xD6E7C, symBinAddr: 0x1000D9740, symSize: 0xFC }
  - { offsetInCU: 0x43DBF, offset: 0x43DBF, size: 0x8, addend: 0x0, symName: __ZN5Eigen8internal16stable_norm_implINS_6MatrixIfLin1ELi1ELi0ELin1ELi1EEEEENT_10RealScalarERKS4_PNS0_9enable_ifIXsrS4_21IsVectorAtCompileTimeEvE4typeE, symObjAddr: 0xD78C0, symBinAddr: 0x1000DA184, symSize: 0x50C }
  - { offsetInCU: 0x43E5E, offset: 0x43E5E, size: 0x8, addend: 0x0, symName: __ZN5Eigen8internalL21first_default_alignedINS_6MatrixIfLin1ELi1ELi0ELin1ELi1EEEEElRKNS_9DenseBaseIT_EE, symObjAddr: 0xD82DC, symBinAddr: 0x1000DABA0, symSize: 0x24 }
  - { offsetInCU: 0x43E95, offset: 0x43E95, size: 0x8, addend: 0x0, symName: __ZN5Eigen8internal18stable_norm_kernelINS_11VectorBlockIKNS_6MatrixIfLin1ELi1ELi0ELin1ELi1EEELin1EEEfEEvRKT_RT0_SB_SB_, symObjAddr: 0xD8300, symBinAddr: 0x1000DABC4, symSize: 0x9F4 }
  - { offsetInCU: 0x43F29, offset: 0x43F29, size: 0x8, addend: 0x0, symName: __ZN5Eigen8internal18stable_norm_kernelINS_3RefIKNS_6MatrixIfLin1ELi1ELi0ELi4096ELi1EEELi16ENS_11InnerStrideILi1EEEEEfEEvRKT_RT0_SD_SD_, symObjAddr: 0xD8F0C, symBinAddr: 0x1000DB7D0, symSize: 0x9C0 }
  - { offsetInCU: 0x43FE7, offset: 0x43FE7, size: 0x8, addend: 0x0, symName: __ZN5Eigen8internalL13first_alignedILi16ENS_6MatrixIfLin1ELi1ELi0ELin1ELi1EEEEElRKNS_9DenseBaseIT0_EE, symObjAddr: 0xD9B2C, symBinAddr: 0x1000DC3F0, symSize: 0x28 }
  - { offsetInCU: 0x44351, offset: 0x44351, size: 0x8, addend: 0x0, symName: __ZN5Eigen8internalL21first_default_alignedINS_12CwiseUnaryOpINS0_13scalar_abs_opIfEEKNS_5BlockIKNS_6MatrixIfLin1ELi1ELi0ELin1ELi1EEELin1ELi1ELb0EEEEEEElRKNS_9DenseBaseIT_EE, symObjAddr: 0xDBE34, symBinAddr: 0x1000DE6F8, symSize: 0x24 }
  - { offsetInCU: 0x44388, offset: 0x44388, size: 0x8, addend: 0x0, symName: __ZN5Eigen8internalL13first_alignedILi16ENS_12CwiseUnaryOpINS0_13scalar_abs_opIfEEKNS_5BlockIKNS_6MatrixIfLin1ELi1ELi0ELin1ELi1EEELin1ELi1ELb0EEEEEEElRKNS_9DenseBaseIT0_EE, symObjAddr: 0xDC38C, symBinAddr: 0x1000DEC50, symSize: 0x28 }
  - { offsetInCU: 0x44438, offset: 0x44438, size: 0x8, addend: 0x0, symName: __ZN5Eigen8internal4pmaxILi0E19__simd128_float32_tEET0_RKS3_S5_, symObjAddr: 0xDC494, symBinAddr: 0x1000DED58, symSize: 0x34 }
  - { offsetInCU: 0x44501, offset: 0x44501, size: 0x8, addend: 0x0, symName: __ZN5Eigen8internal10predux_maxILi0E19__simd128_float32_tEENS0_15unpacket_traitsIT0_E4typeERKS4_, symObjAddr: 0xDC4FC, symBinAddr: 0x1000DEDC0, symSize: 0x2C }
  - { offsetInCU: 0x44542, offset: 0x44542, size: 0x8, addend: 0x0, symName: __ZN5Eigen8internal13predux_helperI19__simd128_float32_tPFfRKfS4_EEENS0_15unpacket_traitsIT_E4typeERKS8_T0_, symObjAddr: 0xDC528, symBinAddr: 0x1000DEDEC, symSize: 0x36C }
  - { offsetInCU: 0x445FF, offset: 0x445FF, size: 0x8, addend: 0x0, symName: __ZN5Eigen8internal4pmaxILi0EfEET0_RKS2_S4_, symObjAddr: 0xDC894, symBinAddr: 0x1000DF158, symSize: 0x34 }
  - { offsetInCU: 0x44B2B, offset: 0x44B2B, size: 0x8, addend: 0x0, symName: __ZN5Eigen8internalL21first_default_alignedINS_12CwiseUnaryOpINS0_14scalar_abs2_opIfEEKNS_13CwiseBinaryOpINS0_17scalar_product_opIffEEKNS_5BlockIKNS_6MatrixIfLin1ELi1ELi0ELin1ELi1EEELin1ELi1ELb0EEEKNS_14CwiseNullaryOpINS0_18scalar_constant_opIfEESB_EEEEEEEElRKNS_9DenseBaseIT_EE, symObjAddr: 0xDE95C, symBinAddr: 0x1000E1220, symSize: 0x24 }
  - { offsetInCU: 0x44B62, offset: 0x44B62, size: 0x8, addend: 0x0, symName: __ZN5Eigen8internalL13first_alignedILi16ENS_12CwiseUnaryOpINS0_14scalar_abs2_opIfEEKNS_13CwiseBinaryOpINS0_17scalar_product_opIffEEKNS_5BlockIKNS_6MatrixIfLin1ELi1ELi0ELin1ELi1EEELin1ELi1ELb0EEEKNS_14CwiseNullaryOpINS0_18scalar_constant_opIfEESB_EEEEEEEElRKNS_9DenseBaseIT0_EE, symObjAddr: 0xDEE2C, symBinAddr: 0x1000E16F0, symSize: 0x28 }
  - { offsetInCU: 0x44BE1, offset: 0x44BE1, size: 0x8, addend: 0x0, symName: __ZN5Eigen8internal17get_runtime_valueIlEElRKT_, symObjAddr: 0xDF6B0, symBinAddr: 0x1000E1F74, symSize: 0x60 }
  - { offsetInCU: 0x44F45, offset: 0x44F45, size: 0x8, addend: 0x0, symName: __ZN5Eigen8internalL21first_default_alignedINS_12CwiseUnaryOpINS0_13scalar_abs_opIfEEKNS_3RefIKNS_6MatrixIfLin1ELi1ELi0ELi4096ELi1EEELi16ENS_11InnerStrideILi1EEEEEEEEElRKNS_9DenseBaseIT_EE, symObjAddr: 0xE1F4C, symBinAddr: 0x1000E4810, symSize: 0x24 }
  - { offsetInCU: 0x44F7C, offset: 0x44F7C, size: 0x8, addend: 0x0, symName: __ZN5Eigen8internalL13first_alignedILi16ENS_12CwiseUnaryOpINS0_13scalar_abs_opIfEEKNS_3RefIKNS_6MatrixIfLin1ELi1ELi0ELi4096ELi1EEELi16ENS_11InnerStrideILi1EEEEEEEEElRKNS_9DenseBaseIT0_EE, symObjAddr: 0xE241C, symBinAddr: 0x1000E4CE0, symSize: 0x28 }
  - { offsetInCU: 0x4562F, offset: 0x4562F, size: 0x8, addend: 0x0, symName: __ZN5Eigen8internalL21first_default_alignedINS_12CwiseUnaryOpINS0_14scalar_abs2_opIfEEKNS_13CwiseBinaryOpINS0_17scalar_product_opIffEEKNS_3RefIKNS_6MatrixIfLin1ELi1ELi0ELi4096ELi1EEELi16ENS_11InnerStrideILi1EEEEEKNS_14CwiseNullaryOpINS0_18scalar_constant_opIfEESB_EEEEEEEElRKNS_9DenseBaseIT_EE, symObjAddr: 0xE4928, symBinAddr: 0x1000E71EC, symSize: 0x24 }
  - { offsetInCU: 0x45666, offset: 0x45666, size: 0x8, addend: 0x0, symName: __ZN5Eigen8internalL13first_alignedILi16ENS_12CwiseUnaryOpINS0_14scalar_abs2_opIfEEKNS_13CwiseBinaryOpINS0_17scalar_product_opIffEEKNS_3RefIKNS_6MatrixIfLin1ELi1ELi0ELi4096ELi1EEELi16ENS_11InnerStrideILi1EEEEEKNS_14CwiseNullaryOpINS0_18scalar_constant_opIfEESB_EEEEEEEElRKNS_9DenseBaseIT0_EE, symObjAddr: 0xE4DF8, symBinAddr: 0x1000E76BC, symSize: 0x28 }
  - { offsetInCU: 0x456E5, offset: 0x456E5, size: 0x8, addend: 0x0, symName: __ZN5Eigen8internal28check_static_allocation_sizeIfLi4096EEEvv, symObjAddr: 0xE621C, symBinAddr: 0x1000E8AE0, symSize: 0x4 }
  - { offsetInCU: 0x45713, offset: 0x45713, size: 0x8, addend: 0x0, symName: __ZN5Eigen8internal24call_assignment_no_aliasINS_6MatrixIfLin1ELi1ELi0ELi4096ELi1EEENS_5BlockIKNS2_IfLin1ELi1ELi0ELin1ELi1EEELin1ELi1ELb0EEENS0_9assign_opIffEEEEvRT_RKT0_RKT1_, symObjAddr: 0xE6220, symBinAddr: 0x1000E8AE4, symSize: 0x3C }
  - { offsetInCU: 0x457E1, offset: 0x457E1, size: 0x8, addend: 0x0, symName: __ZN5Eigen8internal18check_for_aliasingINS_6MatrixIfLin1ELi1ELi0ELi4096ELi1EEENS_5BlockIKNS2_IfLin1ELi1ELi0ELin1ELi1EEELin1ELi1ELb0EEEEEvRKT_RKT0_, symObjAddr: 0xE6628, symBinAddr: 0x1000E8EEC, symSize: 0x14 }
  - { offsetInCU: 0x4582C, offset: 0x4582C, size: 0x8, addend: 0x0, symName: __ZN5Eigen8internal26call_dense_assignment_loopINS_6MatrixIfLin1ELi1ELi0ELi4096ELi1EEENS_5BlockIKNS2_IfLin1ELi1ELi0ELin1ELi1EEELin1ELi1ELb0EEENS0_9assign_opIffEEEEvRT_RKT0_RKT1_, symObjAddr: 0xE663C, symBinAddr: 0x1000E8F00, symSize: 0x424 }
  - { offsetInCU: 0x458F0, offset: 0x458F0, size: 0x8, addend: 0x0, symName: __ZN5Eigen8internal17resize_if_allowedINS_6MatrixIfLin1ELi1ELi0ELi4096ELi1EEENS_5BlockIKNS2_IfLin1ELi1ELi0ELin1ELi1EEELin1ELi1ELb0EEEffEEvRT_RKT0_RKNS0_9assign_opIT1_T2_EE, symObjAddr: 0xE6A94, symBinAddr: 0x1000E9358, symSize: 0xFC }
  - { offsetInCU: 0x45976, offset: 0x45976, size: 0x8, addend: 0x0, symName: __ZN5Eigen8internal6lmpar2IfEEvRKNS_19ColPivHouseholderQRINS_6MatrixIT_Lin1ELin1ELi0ELin1ELin1EEEEERKNS3_IS4_Lin1ELi1ELi0ELin1ELi1EEESB_S4_RS4_RS9_, symObjAddr: 0xE9E5C, symBinAddr: 0x1000EC720, symSize: 0x2E94 }
  - { offsetInCU: 0x45B2F, offset: 0x45B2F, size: 0x8, addend: 0x0, symName: __ZN5Eigen8internal17get_runtime_valueIiEElRKT_, symObjAddr: 0xEDFE4, symBinAddr: 0x1000F08A8, symSize: 0x88 }
  - { offsetInCU: 0x45B64, offset: 0x45B64, size: 0x8, addend: 0x0, symName: __ZN5Eigen8internal15call_assignmentINS_5BlockINS_6MatrixIfLin1ELin1ELi0ELin1ELin1EEELin1ELin1ELb0EEENS_13CwiseBinaryOpINS0_18scalar_quotient_opIffEEKNS6_INS0_20scalar_difference_opIffEEKNS3_IfLin1ELi1ELi0ELin1ELi1EEESC_EEKNS_14CwiseNullaryOpINS0_18scalar_constant_opIfEESC_EEEEEEvRT_RKT0_, symObjAddr: 0xEE700, symBinAddr: 0x1000F0FC4, symSize: 0x1F8 }
  - { offsetInCU: 0x45BB1, offset: 0x45BB1, size: 0x8, addend: 0x0, symName: __ZN5Eigen8internal15call_assignmentINS_5BlockINS_6MatrixIfLin1ELin1ELi0ELin1ELin1EEELin1ELin1ELb0EEENS_13CwiseBinaryOpINS0_18scalar_quotient_opIffEEKNS6_INS0_20scalar_difference_opIffEEKNS3_IfLin1ELi1ELi0ELin1ELi1EEESC_EEKNS_14CwiseNullaryOpINS0_18scalar_constant_opIfEESC_EEEENS0_9assign_opIffEEEEvRT_RKT0_RKT1_NS0_9enable_ifIXntsr25evaluator_assume_aliasingISP_EE5valueEPvE4typeE, symObjAddr: 0xEE90C, symBinAddr: 0x1000F11D0, symSize: 0x38 }
  - { offsetInCU: 0x45C1F, offset: 0x45C1F, size: 0x8, addend: 0x0, symName: __ZN5Eigen8internal24call_assignment_no_aliasINS_5BlockINS_6MatrixIfLin1ELin1ELi0ELin1ELin1EEELin1ELin1ELb0EEENS_13CwiseBinaryOpINS0_18scalar_quotient_opIffEEKNS6_INS0_20scalar_difference_opIffEEKNS3_IfLin1ELi1ELi0ELin1ELi1EEESC_EEKNS_14CwiseNullaryOpINS0_18scalar_constant_opIfEESC_EEEENS0_9assign_opIffEEEEvRT_RKT0_RKT1_, symObjAddr: 0xEE944, symBinAddr: 0x1000F1208, symSize: 0x3C }
  - { offsetInCU: 0x45CED, offset: 0x45CED, size: 0x8, addend: 0x0, symName: __ZN5Eigen8internal18check_for_aliasingINS_5BlockINS_6MatrixIfLin1ELin1ELi0ELin1ELin1EEELin1ELin1ELb0EEENS_13CwiseBinaryOpINS0_18scalar_quotient_opIffEEKNS6_INS0_20scalar_difference_opIffEEKNS3_IfLin1ELi1ELi0ELin1ELi1EEESC_EEKNS_14CwiseNullaryOpINS0_18scalar_constant_opIfEESC_EEEEEEvRKT_RKT0_, symObjAddr: 0xEE9C0, symBinAddr: 0x1000F1284, symSize: 0x60 }
  - { offsetInCU: 0x45D38, offset: 0x45D38, size: 0x8, addend: 0x0, symName: __ZN5Eigen8internal26call_dense_assignment_loopINS_5BlockINS_6MatrixIfLin1ELin1ELi0ELin1ELin1EEELin1ELin1ELb0EEENS_13CwiseBinaryOpINS0_18scalar_quotient_opIffEEKNS6_INS0_20scalar_difference_opIffEEKNS3_IfLin1ELi1ELi0ELin1ELi1EEESC_EEKNS_14CwiseNullaryOpINS0_18scalar_constant_opIfEESC_EEEENS0_9assign_opIffEEEEvRT_RKT0_RKT1_, symObjAddr: 0xEEA20, symBinAddr: 0x1000F12E4, symSize: 0x468 }
  - { offsetInCU: 0x45E3A, offset: 0x45E3A, size: 0x8, addend: 0x0, symName: __ZN5Eigen8internal17resize_if_allowedINS_5BlockINS_6MatrixIfLin1ELin1ELi0ELin1ELin1EEELin1ELin1ELb0EEENS_13CwiseBinaryOpINS0_18scalar_quotient_opIffEEKNS6_INS0_20scalar_difference_opIffEEKNS3_IfLin1ELi1ELi0ELin1ELi1EEESC_EEKNS_14CwiseNullaryOpINS0_18scalar_constant_opIfEESC_EEEEffEEvRT_RKT0_RKNS0_9assign_opIT1_T2_EE, symObjAddr: 0xEEF20, symBinAddr: 0x1000F17E4, symSize: 0xFC }
  - { offsetInCU: 0x45EFA, offset: 0x45EFA, size: 0x8, addend: 0x0, symName: __ZN5Eigen8internal13first_alignedILi16EflEET1_PKT0_S2_, symObjAddr: 0xF0198, symBinAddr: 0x1000F2A5C, symSize: 0xB4 }
  - { offsetInCU: 0x45F9E, offset: 0x45F9E, size: 0x8, addend: 0x0, symName: __ZN5Eigen8internal15call_assignmentINS_6MatrixIfLin1ELi1ELi0ELin1ELi1EEENS_16PartialReduxExprINS2_IfLin1ELin1ELi0ELin1ELin1EEENS0_15member_blueNormIffEELi0EEEEEvRT_RKT0_, symObjAddr: 0xF1A0C, symBinAddr: 0x1000F42D0, symSize: 0x1F8 }
  - { offsetInCU: 0x45FEB, offset: 0x45FEB, size: 0x8, addend: 0x0, symName: __ZN5Eigen8internal15call_assignmentINS_6MatrixIfLin1ELi1ELi0ELin1ELi1EEENS_16PartialReduxExprINS2_IfLin1ELin1ELi0ELin1ELin1EEENS0_15member_blueNormIffEELi0EEENS0_9assign_opIffEEEEvRT_RKT0_RKT1_NS0_9enable_ifIXntsr25evaluator_assume_aliasingISD_EE5valueEPvE4typeE, symObjAddr: 0xF1C18, symBinAddr: 0x1000F44DC, symSize: 0x38 }
  - { offsetInCU: 0x46059, offset: 0x46059, size: 0x8, addend: 0x0, symName: __ZN5Eigen8internal24call_assignment_no_aliasINS_6MatrixIfLin1ELi1ELi0ELin1ELi1EEENS_16PartialReduxExprINS2_IfLin1ELin1ELi0ELin1ELin1EEENS0_15member_blueNormIffEELi0EEENS0_9assign_opIffEEEEvRT_RKT0_RKT1_, symObjAddr: 0xF1C50, symBinAddr: 0x1000F4514, symSize: 0x1E8 }
  - { offsetInCU: 0x4612E, offset: 0x4612E, size: 0x8, addend: 0x0, symName: __ZN5Eigen8internal18check_for_aliasingINS_9TransposeINS_6MatrixIfLin1ELi1ELi0ELin1ELi1EEEEENS_16PartialReduxExprINS3_IfLin1ELin1ELi0ELin1ELin1EEENS0_15member_blueNormIffEELi0EEEEEvRKT_RKT0_, symObjAddr: 0xF1E78, symBinAddr: 0x1000F473C, symSize: 0x14 }
  - { offsetInCU: 0x46179, offset: 0x46179, size: 0x8, addend: 0x0, symName: __ZN5Eigen8internal26call_dense_assignment_loopINS_9TransposeINS_6MatrixIfLin1ELi1ELi0ELin1ELi1EEEEENS_16PartialReduxExprINS3_IfLin1ELin1ELi0ELin1ELin1EEENS0_15member_blueNormIffEELi0EEENS0_9assign_opIffEEEEvRT_RKT0_RKT1_, symObjAddr: 0xF1E8C, symBinAddr: 0x1000F4750, symSize: 0x424 }
  - { offsetInCU: 0x4634B, offset: 0x4634B, size: 0x8, addend: 0x0, symName: __ZN5Eigen8internal17resize_if_allowedINS_9TransposeINS_6MatrixIfLin1ELi1ELi0ELin1ELi1EEEEENS_16PartialReduxExprINS3_IfLin1ELin1ELi0ELin1ELin1EEENS0_15member_blueNormIffEELi0EEEffEEvRT_RKT0_RKNS0_9assign_opIT1_T2_EE, symObjAddr: 0xF2318, symBinAddr: 0x1000F4BDC, symSize: 0xFC }
  - { offsetInCU: 0x4683E, offset: 0x4683E, size: 0x8, addend: 0x0, symName: __ZN5Eigen8internal28conditional_aligned_new_autoIiLb1EEEPT_m, symObjAddr: 0xF8D38, symBinAddr: 0x1000FB5FC, symSize: 0x84 }
  - { offsetInCU: 0x468AC, offset: 0x468AC, size: 0x8, addend: 0x0, symName: __ZN5Eigen8internal31conditional_aligned_delete_autoIlLb1EEEvPT_m, symObjAddr: 0xF94A0, symBinAddr: 0x1000FBD64, symSize: 0x28 }
  - { offsetInCU: 0x4691B, offset: 0x4691B, size: 0x8, addend: 0x0, symName: __ZN5Eigen8internal28conditional_aligned_new_autoIlLb1EEEPT_m, symObjAddr: 0xF94C8, symBinAddr: 0x1000FBD8C, symSize: 0x84 }
  - { offsetInCU: 0x46C74, offset: 0x46C74, size: 0x8, addend: 0x0, symName: __ZN5Eigen8internalL21first_default_alignedINS_12CwiseUnaryOpINS0_14scalar_abs2_opIfEEKNS_5BlockINS_6MatrixIfLin1ELin1ELi0ELin1ELin1EEELin1ELi1ELb1EEEEEEElRKNS_9DenseBaseIT_EE, symObjAddr: 0xFE038, symBinAddr: 0x1001008FC, symSize: 0x24 }
  - { offsetInCU: 0x46CAB, offset: 0x46CAB, size: 0x8, addend: 0x0, symName: __ZN5Eigen8internalL13first_alignedILi16ENS_12CwiseUnaryOpINS0_14scalar_abs2_opIfEEKNS_5BlockINS_6MatrixIfLin1ELin1ELi0ELin1ELin1EEELin1ELi1ELb1EEEEEEElRKNS_9DenseBaseIT0_EE, symObjAddr: 0xFE2E8, symBinAddr: 0x100100BAC, symSize: 0x28 }
  - { offsetInCU: 0x46FD9, offset: 0x46FD9, size: 0x8, addend: 0x0, symName: __ZN5Eigen8internalL21first_default_alignedINS_6MatrixIfLi1ELin1ELi1ELi1ELin1EEEEElRKNS_9DenseBaseIT_EE, symObjAddr: 0xFF9A0, symBinAddr: 0x100102264, symSize: 0x24 }
  - { offsetInCU: 0x47010, offset: 0x47010, size: 0x8, addend: 0x0, symName: __ZN5Eigen8internalL13first_alignedILi16ENS_6MatrixIfLi1ELin1ELi1ELi1ELin1EEEEElRKNS_9DenseBaseIT0_EE, symObjAddr: 0xFFAA8, symBinAddr: 0x10010236C, symSize: 0x28 }
  - { offsetInCU: 0x472FD, offset: 0x472FD, size: 0x8, addend: 0x0, symName: __ZN5Eigen8internal15call_assignmentINS_5BlockINS_6MatrixIfLin1ELin1ELi0ELin1ELin1EEELin1ELi1ELb1EEES5_NS0_14swap_assign_opIfEEEEvRT_RKT0_RKT1_NS0_9enable_ifIXntsr25evaluator_assume_aliasingISA_EE5valueEPvE4typeE, symObjAddr: 0x1018FC, symBinAddr: 0x1001041C0, symSize: 0x38 }
  - { offsetInCU: 0x4736B, offset: 0x4736B, size: 0x8, addend: 0x0, symName: __ZN5Eigen8internal24call_assignment_no_aliasINS_5BlockINS_6MatrixIfLin1ELin1ELi0ELin1ELin1EEELin1ELi1ELb1EEES5_NS0_14swap_assign_opIfEEEEvRT_RKT0_RKT1_, symObjAddr: 0x101988, symBinAddr: 0x10010424C, symSize: 0x3C }
  - { offsetInCU: 0x47439, offset: 0x47439, size: 0x8, addend: 0x0, symName: __ZN5Eigen8internal18check_for_aliasingINS_5BlockINS_6MatrixIfLin1ELin1ELi0ELin1ELin1EEELin1ELi1ELb1EEES5_EEvRKT_RKT0_, symObjAddr: 0x101A04, symBinAddr: 0x1001042C8, symSize: 0x14 }
  - { offsetInCU: 0x47484, offset: 0x47484, size: 0x8, addend: 0x0, symName: __ZN5Eigen8internal26call_dense_assignment_loopINS_5BlockINS_6MatrixIfLin1ELin1ELi0ELin1ELin1EEELin1ELi1ELb1EEES5_NS0_14swap_assign_opIfEEEEvRT_RKT0_RKT1_, symObjAddr: 0x101A18, symBinAddr: 0x1001042DC, symSize: 0x464 }
  - { offsetInCU: 0x47548, offset: 0x47548, size: 0x8, addend: 0x0, symName: __ZN5Eigen8internal17resize_if_allowedINS_5BlockINS_6MatrixIfLin1ELin1ELi0ELin1ELin1EEELin1ELi1ELb1EEES5_NS0_14swap_assign_opIfEEEEvRT_RKT0_RKT1_, symObjAddr: 0x101EB0, symBinAddr: 0x100104774, symSize: 0xB8 }
  - { offsetInCU: 0x4789E, offset: 0x4789E, size: 0x8, addend: 0x0, symName: __ZN5Eigen8internalL21first_default_alignedINS_12CwiseUnaryOpINS0_14scalar_abs2_opIfEEKNS_5BlockIKNS5_INS5_INS_6MatrixIfLin1ELin1ELi0ELin1ELin1EEELin1ELi1ELb1EEELin1ELi1ELb0EEELin1ELi1ELb0EEEEEEElRKNS_9DenseBaseIT_EE, symObjAddr: 0x10713C, symBinAddr: 0x100109A00, symSize: 0x24 }
  - { offsetInCU: 0x478D5, offset: 0x478D5, size: 0x8, addend: 0x0, symName: __ZN5Eigen8internalL13first_alignedILi16ENS_12CwiseUnaryOpINS0_14scalar_abs2_opIfEEKNS_5BlockIKNS5_INS5_INS_6MatrixIfLin1ELin1ELi0ELin1ELin1EEELin1ELi1ELb1EEELin1ELi1ELb0EEELin1ELi1ELb0EEEEEEElRKNS_9DenseBaseIT0_EE, symObjAddr: 0x10760C, symBinAddr: 0x100109ED0, symSize: 0x28 }
  - { offsetInCU: 0x47954, offset: 0x47954, size: 0x8, addend: 0x0, symName: __ZN5Eigen8internal15call_assignmentINS_5BlockINS2_INS2_INS_6MatrixIfLin1ELin1ELi0ELin1ELin1EEELin1ELi1ELb1EEELin1ELi1ELb0EEELin1ELi1ELb0EEENS_14CwiseNullaryOpINS0_18scalar_constant_opIfEENS3_IfLin1ELi1ELi0ELin1ELi1EEEEEEEvRT_RKT0_, symObjAddr: 0x108350, symBinAddr: 0x10010AC14, symSize: 0x1F8 }
  - { offsetInCU: 0x479A1, offset: 0x479A1, size: 0x8, addend: 0x0, symName: __ZN5Eigen8internal15call_assignmentINS_5BlockINS2_INS2_INS_6MatrixIfLin1ELin1ELi0ELin1ELin1EEELin1ELi1ELb1EEELin1ELi1ELb0EEELin1ELi1ELb0EEENS_14CwiseNullaryOpINS0_18scalar_constant_opIfEENS3_IfLin1ELi1ELi0ELin1ELi1EEEEENS0_9assign_opIffEEEEvRT_RKT0_RKT1_NS0_9enable_ifIXntsr25evaluator_assume_aliasingISH_EE5valueEPvE4typeE, symObjAddr: 0x108548, symBinAddr: 0x10010AE0C, symSize: 0x38 }
  - { offsetInCU: 0x47A0F, offset: 0x47A0F, size: 0x8, addend: 0x0, symName: __ZN5Eigen8internal24call_assignment_no_aliasINS_5BlockINS2_INS2_INS_6MatrixIfLin1ELin1ELi0ELin1ELin1EEELin1ELi1ELb1EEELin1ELi1ELb0EEELin1ELi1ELb0EEENS_14CwiseNullaryOpINS0_18scalar_constant_opIfEENS3_IfLin1ELi1ELi0ELin1ELi1EEEEENS0_9assign_opIffEEEEvRT_RKT0_RKT1_, symObjAddr: 0x108580, symBinAddr: 0x10010AE44, symSize: 0x3C }
  - { offsetInCU: 0x47ADD, offset: 0x47ADD, size: 0x8, addend: 0x0, symName: __ZN5Eigen8internal18check_for_aliasingINS_5BlockINS2_INS2_INS_6MatrixIfLin1ELin1ELi0ELin1ELin1EEELin1ELi1ELb1EEELin1ELi1ELb0EEELin1ELi1ELb0EEENS_14CwiseNullaryOpINS0_18scalar_constant_opIfEENS3_IfLin1ELi1ELi0ELin1ELi1EEEEEEEvRKT_RKT0_, symObjAddr: 0x1085FC, symBinAddr: 0x10010AEC0, symSize: 0x14 }
  - { offsetInCU: 0x47B28, offset: 0x47B28, size: 0x8, addend: 0x0, symName: __ZN5Eigen8internal26call_dense_assignment_loopINS_5BlockINS2_INS2_INS_6MatrixIfLin1ELin1ELi0ELin1ELin1EEELin1ELi1ELb1EEELin1ELi1ELb0EEELin1ELi1ELb0EEENS_14CwiseNullaryOpINS0_18scalar_constant_opIfEENS3_IfLin1ELi1ELi0ELin1ELi1EEEEENS0_9assign_opIffEEEEvRT_RKT0_RKT1_, symObjAddr: 0x108610, symBinAddr: 0x10010AED4, symSize: 0x424 }
  - { offsetInCU: 0x47BEC, offset: 0x47BEC, size: 0x8, addend: 0x0, symName: __ZN5Eigen8internal17resize_if_allowedINS_5BlockINS2_INS2_INS_6MatrixIfLin1ELin1ELi0ELin1ELin1EEELin1ELi1ELb1EEELin1ELi1ELb0EEELin1ELi1ELb0EEENS_14CwiseNullaryOpINS0_18scalar_constant_opIfEENS3_IfLin1ELi1ELi0ELin1ELi1EEEEEffEEvRT_RKT0_RKNS0_9assign_opIT1_T2_EE, symObjAddr: 0x108A68, symBinAddr: 0x10010B32C, symSize: 0xFC }
  - { offsetInCU: 0x47C72, offset: 0x47C72, size: 0x8, addend: 0x0, symName: __ZN5Eigen8internal15call_assignmentINS_5BlockINS2_INS2_INS_6MatrixIfLin1ELin1ELi0ELin1ELin1EEELin1ELi1ELb1EEELin1ELi1ELb0EEELin1ELi1ELb0EEENS_13CwiseBinaryOpINS0_18scalar_quotient_opIffEEKNS2_IKS6_Lin1ELi1ELb0EEEKNS_14CwiseNullaryOpINS0_18scalar_constant_opIfEEKNS3_IfLin1ELi1ELi0ELin1ELi1EEEEEEEEEvRT_RKT0_, symObjAddr: 0x109D98, symBinAddr: 0x10010C65C, symSize: 0x1F8 }
  - { offsetInCU: 0x47CBF, offset: 0x47CBF, size: 0x8, addend: 0x0, symName: __ZN5Eigen8internal15call_assignmentINS_5BlockINS2_INS2_INS_6MatrixIfLin1ELin1ELi0ELin1ELin1EEELin1ELi1ELb1EEELin1ELi1ELb0EEELin1ELi1ELb0EEENS_13CwiseBinaryOpINS0_18scalar_quotient_opIffEEKNS2_IKS6_Lin1ELi1ELb0EEEKNS_14CwiseNullaryOpINS0_18scalar_constant_opIfEEKNS3_IfLin1ELi1ELi0ELin1ELi1EEEEEEENS0_9assign_opIffEEEEvRT_RKT0_RKT1_NS0_9enable_ifIXntsr25evaluator_assume_aliasingISQ_EE5valueEPvE4typeE, symObjAddr: 0x109F90, symBinAddr: 0x10010C854, symSize: 0x38 }
  - { offsetInCU: 0x47D2D, offset: 0x47D2D, size: 0x8, addend: 0x0, symName: __ZN5Eigen8internal24call_assignment_no_aliasINS_5BlockINS2_INS2_INS_6MatrixIfLin1ELin1ELi0ELin1ELin1EEELin1ELi1ELb1EEELin1ELi1ELb0EEELin1ELi1ELb0EEENS_13CwiseBinaryOpINS0_18scalar_quotient_opIffEEKNS2_IKS6_Lin1ELi1ELb0EEEKNS_14CwiseNullaryOpINS0_18scalar_constant_opIfEEKNS3_IfLin1ELi1ELi0ELin1ELi1EEEEEEENS0_9assign_opIffEEEEvRT_RKT0_RKT1_, symObjAddr: 0x109FC8, symBinAddr: 0x10010C88C, symSize: 0x3C }
  - { offsetInCU: 0x47DFB, offset: 0x47DFB, size: 0x8, addend: 0x0, symName: __ZN5Eigen8internal18check_for_aliasingINS_5BlockINS2_INS2_INS_6MatrixIfLin1ELin1ELi0ELin1ELin1EEELin1ELi1ELb1EEELin1ELi1ELb0EEELin1ELi1ELb0EEENS_13CwiseBinaryOpINS0_18scalar_quotient_opIffEEKNS2_IKS6_Lin1ELi1ELb0EEEKNS_14CwiseNullaryOpINS0_18scalar_constant_opIfEEKNS3_IfLin1ELi1ELi0ELin1ELi1EEEEEEEEEvRKT_RKT0_, symObjAddr: 0x10A044, symBinAddr: 0x10010C908, symSize: 0x14 }
  - { offsetInCU: 0x47E46, offset: 0x47E46, size: 0x8, addend: 0x0, symName: __ZN5Eigen8internal26call_dense_assignment_loopINS_5BlockINS2_INS2_INS_6MatrixIfLin1ELin1ELi0ELin1ELin1EEELin1ELi1ELb1EEELin1ELi1ELb0EEELin1ELi1ELb0EEENS_13CwiseBinaryOpINS0_18scalar_quotient_opIffEEKNS2_IKS6_Lin1ELi1ELb0EEEKNS_14CwiseNullaryOpINS0_18scalar_constant_opIfEEKNS3_IfLin1ELi1ELi0ELin1ELi1EEEEEEENS0_9assign_opIffEEEEvRT_RKT0_RKT1_, symObjAddr: 0x10A058, symBinAddr: 0x10010C91C, symSize: 0x460 }
  - { offsetInCU: 0x47F0A, offset: 0x47F0A, size: 0x8, addend: 0x0, symName: __ZN5Eigen8internal17resize_if_allowedINS_5BlockINS2_INS2_INS_6MatrixIfLin1ELin1ELi0ELin1ELin1EEELin1ELi1ELb1EEELin1ELi1ELb0EEELin1ELi1ELb0EEENS_13CwiseBinaryOpINS0_18scalar_quotient_opIffEEKNS2_IKS6_Lin1ELi1ELb0EEEKNS_14CwiseNullaryOpINS0_18scalar_constant_opIfEEKNS3_IfLin1ELi1ELi0ELin1ELi1EEEEEEEffEEvRT_RKT0_RKNS0_9assign_opIT1_T2_EE, symObjAddr: 0x10A4EC, symBinAddr: 0x10010CDB0, symSize: 0xFC }
  - { offsetInCU: 0x47FC2, offset: 0x47FC2, size: 0x8, addend: 0x0, symName: __ZN5Eigen8internal15call_assignmentINS_5BlockINS_6MatrixIfLin1ELin1ELi0ELin1ELin1EEELin1ELin1ELb0EEENS_14CwiseNullaryOpINS0_18scalar_constant_opIfEES4_EENS0_13mul_assign_opIffEEEEvRT_RKT0_RKT1_NS0_9enable_ifIXntsr25evaluator_assume_aliasingISE_EE5valueEPvE4typeE, symObjAddr: 0x10D018, symBinAddr: 0x10010F8DC, symSize: 0x38 }
  - { offsetInCU: 0x48030, offset: 0x48030, size: 0x8, addend: 0x0, symName: __ZN5Eigen8internal24call_assignment_no_aliasINS_5BlockINS_6MatrixIfLin1ELin1ELi0ELin1ELin1EEELin1ELin1ELb0EEENS_14CwiseNullaryOpINS0_18scalar_constant_opIfEES4_EENS0_13mul_assign_opIffEEEEvRT_RKT0_RKT1_, symObjAddr: 0x10D284, symBinAddr: 0x10010FB48, symSize: 0x3C }
  - { offsetInCU: 0x480FE, offset: 0x480FE, size: 0x8, addend: 0x0, symName: __ZN5Eigen8internal18check_for_aliasingINS_5BlockINS_6MatrixIfLin1ELin1ELi0ELin1ELin1EEELin1ELin1ELb0EEENS_14CwiseNullaryOpINS0_18scalar_constant_opIfEES4_EEEEvRKT_RKT0_, symObjAddr: 0x10D300, symBinAddr: 0x10010FBC4, symSize: 0x60 }
  - { offsetInCU: 0x48149, offset: 0x48149, size: 0x8, addend: 0x0, symName: __ZN5Eigen8internal26call_dense_assignment_loopINS_5BlockINS_6MatrixIfLin1ELin1ELi0ELin1ELin1EEELin1ELin1ELb0EEENS_14CwiseNullaryOpINS0_18scalar_constant_opIfEES4_EENS0_13mul_assign_opIffEEEEvRT_RKT0_RKT1_, symObjAddr: 0x10D360, symBinAddr: 0x10010FC24, symSize: 0x41C }
  - { offsetInCU: 0x4824B, offset: 0x4824B, size: 0x8, addend: 0x0, symName: __ZN5Eigen8internal17resize_if_allowedINS_5BlockINS_6MatrixIfLin1ELin1ELi0ELin1ELin1EEELin1ELin1ELb0EEENS_14CwiseNullaryOpINS0_18scalar_constant_opIfEES4_EENS0_13mul_assign_opIffEEEEvRT_RKT0_RKT1_, symObjAddr: 0x10D7C4, symBinAddr: 0x100110088, symSize: 0xB8 }
  - { offsetInCU: 0x482E4, offset: 0x482E4, size: 0x8, addend: 0x0, symName: __ZN5Eigen8internal24call_assignment_no_aliasINS_3MapINS_6MatrixIfLi1ELin1ELi1ELi1ELin1EEELi0ENS_6StrideILi0ELi0EEEEENS_7ProductINS_9TransposeIKNS_5BlockINSA_INS3_IfLin1ELin1ELi0ELin1ELin1EEELin1ELi1ELb1EEELin1ELi1ELb0EEEEENSA_INSA_ISB_Lin1ELin1ELb0EEELin1ELin1ELb0EEELi0EEENS0_9assign_opIffEEEEvRT_RKT0_RKT1_, symObjAddr: 0x10FCE0, symBinAddr: 0x1001125A4, symSize: 0x3C }
  - { offsetInCU: 0x484C9, offset: 0x484C9, size: 0x8, addend: 0x0, symName: __ZN5Eigen8internal15call_assignmentINS_3MapINS_6MatrixIfLi1ELin1ELi1ELi1ELin1EEELi0ENS_6StrideILi0ELi0EEEEENS_14CwiseNullaryOpINS0_18scalar_constant_opIfEES4_EEEEvRT_RKT0_, symObjAddr: 0x110BD8, symBinAddr: 0x10011349C, symSize: 0x1F8 }
  - { offsetInCU: 0x48516, offset: 0x48516, size: 0x8, addend: 0x0, symName: __ZN5Eigen8internal15call_assignmentINS_3MapINS_6MatrixIfLi1ELin1ELi1ELi1ELin1EEELi0ENS_6StrideILi0ELi0EEEEENS_14CwiseNullaryOpINS0_18scalar_constant_opIfEES4_EENS0_9assign_opIffEEEEvRT_RKT0_RKT1_NS0_9enable_ifIXntsr25evaluator_assume_aliasingISG_EE5valueEPvE4typeE, symObjAddr: 0x110DD0, symBinAddr: 0x100113694, symSize: 0x38 }
  - { offsetInCU: 0x48584, offset: 0x48584, size: 0x8, addend: 0x0, symName: __ZN5Eigen8internal24call_assignment_no_aliasINS_3MapINS_6MatrixIfLi1ELin1ELi1ELi1ELin1EEELi0ENS_6StrideILi0ELi0EEEEENS_14CwiseNullaryOpINS0_18scalar_constant_opIfEES4_EENS0_9assign_opIffEEEEvRT_RKT0_RKT1_, symObjAddr: 0x110E08, symBinAddr: 0x1001136CC, symSize: 0x3C }
  - { offsetInCU: 0x48652, offset: 0x48652, size: 0x8, addend: 0x0, symName: __ZN5Eigen8internal18check_for_aliasingINS_3MapINS_6MatrixIfLi1ELin1ELi1ELi1ELin1EEELi0ENS_6StrideILi0ELi0EEEEENS_14CwiseNullaryOpINS0_18scalar_constant_opIfEES4_EEEEvRKT_RKT0_, symObjAddr: 0x110E84, symBinAddr: 0x100113748, symSize: 0x14 }
  - { offsetInCU: 0x4869D, offset: 0x4869D, size: 0x8, addend: 0x0, symName: __ZN5Eigen8internal26call_dense_assignment_loopINS_3MapINS_6MatrixIfLi1ELin1ELi1ELi1ELin1EEELi0ENS_6StrideILi0ELi0EEEEENS_14CwiseNullaryOpINS0_18scalar_constant_opIfEES4_EENS0_9assign_opIffEEEEvRT_RKT0_RKT1_, symObjAddr: 0x110E98, symBinAddr: 0x10011375C, symSize: 0x424 }
  - { offsetInCU: 0x48761, offset: 0x48761, size: 0x8, addend: 0x0, symName: __ZN5Eigen8internal17resize_if_allowedINS_3MapINS_6MatrixIfLi1ELin1ELi1ELi1ELin1EEELi0ENS_6StrideILi0ELi0EEEEENS_14CwiseNullaryOpINS0_18scalar_constant_opIfEES4_EEffEEvRT_RKT0_RKNS0_9assign_opIT1_T2_EE, symObjAddr: 0x1112F0, symBinAddr: 0x100113BB4, symSize: 0xFC }
  - { offsetInCU: 0x48F2A, offset: 0x48F2A, size: 0x8, addend: 0x0, symName: __ZN5Eigen8internalL21first_default_alignedINS_13CwiseBinaryOpINS0_22scalar_conj_product_opIffEEKNS_9TransposeIKNS_5BlockIKNS5_IKNS6_INS6_INS_6MatrixIfLin1ELin1ELi0ELin1ELin1EEELin1ELi1ELb1EEELin1ELi1ELb0EEEEELi1ELin1ELb1EEEEEKNS6_IKNS6_INS6_IS8_Lin1ELin1ELb0EEELin1ELin1ELb0EEELin1ELi1ELb1EEEEEEElRKNS_9DenseBaseIT_EE, symObjAddr: 0x115BA0, symBinAddr: 0x100118464, symSize: 0x24 }
  - { offsetInCU: 0x48F61, offset: 0x48F61, size: 0x8, addend: 0x0, symName: __ZN5Eigen8internalL13first_alignedILi16ENS_13CwiseBinaryOpINS0_22scalar_conj_product_opIffEEKNS_9TransposeIKNS_5BlockIKNS5_IKNS6_INS6_INS_6MatrixIfLin1ELin1ELi0ELin1ELin1EEELin1ELi1ELb1EEELin1ELi1ELb0EEEEELi1ELin1ELb1EEEEEKNS6_IKNS6_INS6_IS8_Lin1ELin1ELb0EEELin1ELin1ELb0EEELin1ELi1ELb1EEEEEEElRKNS_9DenseBaseIT0_EE, symObjAddr: 0x1161A4, symBinAddr: 0x100118A68, symSize: 0x28 }
  - { offsetInCU: 0x4933C, offset: 0x4933C, size: 0x8, addend: 0x0, symName: __ZN5Eigen8internal5pset1I18__simd64_float32_tEET_RKNS0_15unpacket_traitsIS3_E4typeE, symObjAddr: 0x11E31C, symBinAddr: 0x100120BE0, symSize: 0xC4 }
  - { offsetInCU: 0x493E9, offset: 0x493E9, size: 0x8, addend: 0x0, symName: __ZN5Eigen8internal6preduxI18__simd64_float32_tEENS0_15unpacket_traitsIT_E4typeERKS4_, symObjAddr: 0x11E60C, symBinAddr: 0x100120ED0, symSize: 0xE0 }
  - { offsetInCU: 0x4944C, offset: 0x4944C, size: 0x8, addend: 0x0, symName: __ZN5Eigen8internal6ploaduI18__simd64_float32_tEET_PKNS0_15unpacket_traitsIS3_E4typeE, symObjAddr: 0x11E6EC, symBinAddr: 0x100120FB0, symSize: 0xF8 }
  - { offsetInCU: 0x494A0, offset: 0x494A0, size: 0x8, addend: 0x0, symName: __ZN5Eigen8internal5pmaddI18__simd64_float32_tEET_RKS3_S5_S5_, symObjAddr: 0x11E7E4, symBinAddr: 0x1001210A8, symSize: 0x118 }
  - { offsetInCU: 0x494F5, offset: 0x494F5, size: 0x8, addend: 0x0, symName: __ZN5Eigen8internal15call_assignmentINS_3MapINS_6MatrixIfLi1ELin1ELi1ELi1ELin1EEELi0ENS_6StrideILi0ELi0EEEEENS_5BlockINS8_INS3_IfLin1ELin1ELi0ELin1ELin1EEELin1ELin1ELb0EEELi1ELin1ELb0EEENS0_13add_assign_opIffEEEEvRT_RKT0_RKT1_NS0_9enable_ifIXntsr25evaluator_assume_aliasingISG_EE5valueEPvE4typeE, symObjAddr: 0x11F480, symBinAddr: 0x100121D44, symSize: 0x38 }
  - { offsetInCU: 0x49563, offset: 0x49563, size: 0x8, addend: 0x0, symName: __ZN5Eigen8internal24call_assignment_no_aliasINS_3MapINS_6MatrixIfLi1ELin1ELi1ELi1ELin1EEELi0ENS_6StrideILi0ELi0EEEEENS_5BlockINS8_INS3_IfLin1ELin1ELi0ELin1ELin1EEELin1ELin1ELb0EEELi1ELin1ELb0EEENS0_13add_assign_opIffEEEEvRT_RKT0_RKT1_, symObjAddr: 0x11F4F8, symBinAddr: 0x100121DBC, symSize: 0x3C }
  - { offsetInCU: 0x49631, offset: 0x49631, size: 0x8, addend: 0x0, symName: __ZN5Eigen8internal18check_for_aliasingINS_3MapINS_6MatrixIfLi1ELin1ELi1ELi1ELin1EEELi0ENS_6StrideILi0ELi0EEEEENS_5BlockINS8_INS3_IfLin1ELin1ELi0ELin1ELin1EEELin1ELin1ELb0EEELi1ELin1ELb0EEEEEvRKT_RKT0_, symObjAddr: 0x11F574, symBinAddr: 0x100121E38, symSize: 0x14 }
  - { offsetInCU: 0x4967C, offset: 0x4967C, size: 0x8, addend: 0x0, symName: __ZN5Eigen8internal26call_dense_assignment_loopINS_3MapINS_6MatrixIfLi1ELin1ELi1ELi1ELin1EEELi0ENS_6StrideILi0ELi0EEEEENS_5BlockINS8_INS3_IfLin1ELin1ELi0ELin1ELin1EEELin1ELin1ELb0EEELi1ELin1ELb0EEENS0_13add_assign_opIffEEEEvRT_RKT0_RKT1_, symObjAddr: 0x11F588, symBinAddr: 0x100121E4C, symSize: 0x45C }
  - { offsetInCU: 0x497FC, offset: 0x497FC, size: 0x8, addend: 0x0, symName: __ZN5Eigen8internal17resize_if_allowedINS_3MapINS_6MatrixIfLi1ELin1ELi1ELi1ELin1EEELi0ENS_6StrideILi0ELi0EEEEENS_5BlockINS8_INS3_IfLin1ELin1ELi0ELin1ELin1EEELin1ELin1ELb0EEELi1ELin1ELb0EEENS0_13add_assign_opIffEEEEvRT_RKT0_RKT1_, symObjAddr: 0x11FA18, symBinAddr: 0x1001222DC, symSize: 0xB8 }
  - { offsetInCU: 0x49AAD, offset: 0x49AAD, size: 0x8, addend: 0x0, symName: __ZN5Eigen8internal15call_assignmentINS_5BlockINS2_INS_6MatrixIfLin1ELin1ELi0ELin1ELin1EEELin1ELin1ELb0EEELi1ELin1ELb0EEENS_13CwiseBinaryOpINS0_17scalar_product_opIffEEKNS_14CwiseNullaryOpINS0_18scalar_constant_opIfEEKNS3_IfLi1ELin1ELi1ELi1ELin1EEEEEKNS_3MapISD_Li0ENS_6StrideILi0ELi0EEEEEEENS0_13sub_assign_opIffEEEEvRT_RKT0_RKT1_NS0_9enable_ifIXntsr25evaluator_assume_aliasingISR_EE5valueEPvE4typeE, symObjAddr: 0x1207B4, symBinAddr: 0x100123078, symSize: 0x38 }
  - { offsetInCU: 0x49B1B, offset: 0x49B1B, size: 0x8, addend: 0x0, symName: __ZN5Eigen8internal24call_assignment_no_aliasINS_5BlockINS2_INS_6MatrixIfLin1ELin1ELi0ELin1ELin1EEELin1ELin1ELb0EEELi1ELin1ELb0EEENS_13CwiseBinaryOpINS0_17scalar_product_opIffEEKNS_14CwiseNullaryOpINS0_18scalar_constant_opIfEEKNS3_IfLi1ELin1ELi1ELi1ELin1EEEEEKNS_3MapISD_Li0ENS_6StrideILi0ELi0EEEEEEENS0_13sub_assign_opIffEEEEvRT_RKT0_RKT1_, symObjAddr: 0x120840, symBinAddr: 0x100123104, symSize: 0x3C }
  - { offsetInCU: 0x49BE9, offset: 0x49BE9, size: 0x8, addend: 0x0, symName: __ZN5Eigen8internal18check_for_aliasingINS_5BlockINS2_INS_6MatrixIfLin1ELin1ELi0ELin1ELin1EEELin1ELin1ELb0EEELi1ELin1ELb0EEENS_13CwiseBinaryOpINS0_17scalar_product_opIffEEKNS_14CwiseNullaryOpINS0_18scalar_constant_opIfEEKNS3_IfLi1ELin1ELi1ELi1ELin1EEEEEKNS_3MapISD_Li0ENS_6StrideILi0ELi0EEEEEEEEEvRKT_RKT0_, symObjAddr: 0x1208BC, symBinAddr: 0x100123180, symSize: 0x14 }
  - { offsetInCU: 0x49C34, offset: 0x49C34, size: 0x8, addend: 0x0, symName: __ZN5Eigen8internal26call_dense_assignment_loopINS_5BlockINS2_INS_6MatrixIfLin1ELin1ELi0ELin1ELin1EEELin1ELin1ELb0EEELi1ELin1ELb0EEENS_13CwiseBinaryOpINS0_17scalar_product_opIffEEKNS_14CwiseNullaryOpINS0_18scalar_constant_opIfEEKNS3_IfLi1ELin1ELi1ELi1ELin1EEEEEKNS_3MapISD_Li0ENS_6StrideILi0ELi0EEEEEEENS0_13sub_assign_opIffEEEEvRT_RKT0_RKT1_, symObjAddr: 0x1208D0, symBinAddr: 0x100123194, symSize: 0x468 }
  - { offsetInCU: 0x49EF1, offset: 0x49EF1, size: 0x8, addend: 0x0, symName: __ZN5Eigen8internal17resize_if_allowedINS_5BlockINS2_INS_6MatrixIfLin1ELin1ELi0ELin1ELin1EEELin1ELin1ELb0EEELi1ELin1ELb0EEENS_13CwiseBinaryOpINS0_17scalar_product_opIffEEKNS_14CwiseNullaryOpINS0_18scalar_constant_opIfEEKNS3_IfLi1ELin1ELi1ELi1ELin1EEEEEKNS_3MapISD_Li0ENS_6StrideILi0ELi0EEEEEEENS0_13sub_assign_opIffEEEEvRT_RKT0_RKT1_, symObjAddr: 0x120D6C, symBinAddr: 0x100123630, symSize: 0xB8 }
  - { offsetInCU: 0x4A1A2, offset: 0x4A1A2, size: 0x8, addend: 0x0, symName: __ZN5Eigen8internal24call_assignment_no_aliasINS_5BlockINS2_INS_6MatrixIfLin1ELin1ELi0ELin1ELin1EEELin1ELin1ELb0EEELin1ELin1ELb0EEENS_7ProductINS_13CwiseBinaryOpINS0_17scalar_product_opIffEEKNS_14CwiseNullaryOpINS0_18scalar_constant_opIfEEKNS3_IfLin1ELi1ELi0ELin1ELi1EEEEEKNS2_INS2_IS4_Lin1ELi1ELb1EEELin1ELi1ELb0EEEEENS_3MapINS3_IfLi1ELin1ELi1ELi1ELin1EEELi0ENS_6StrideILi0ELi0EEEEELi0EEENS0_13sub_assign_opIffEEEEvRT_RKT0_RKT1_, symObjAddr: 0x1223A4, symBinAddr: 0x100124C68, symSize: 0x3C }
  - { offsetInCU: 0x4A310, offset: 0x4A310, size: 0x8, addend: 0x0, symName: __ZN5Eigen8internal26outer_product_selector_runINS_5BlockINS2_INS_6MatrixIfLin1ELin1ELi0ELin1ELin1EEELin1ELin1ELb0EEELin1ELin1ELb0EEENS_13CwiseBinaryOpINS0_17scalar_product_opIffEEKNS_14CwiseNullaryOpINS0_18scalar_constant_opIfEEKNS3_IfLin1ELi1ELi0ELin1ELi1EEEEEKNS2_INS2_IS4_Lin1ELi1ELb1EEELin1ELi1ELb0EEEEENS_3MapINS3_IfLi1ELin1ELi1ELi1ELin1EEELi0ENS_6StrideILi0ELi0EEEEENS0_20generic_product_implISK_SP_NS_10DenseShapeESR_Li5EE3subEEEvRT_RKT0_RKT1_RKT2_RKNS0_10false_typeE, symObjAddr: 0x12276C, symBinAddr: 0x100125030, symSize: 0x6B0 }
  - { offsetInCU: 0x4A3FB, offset: 0x4A3FB, size: 0x8, addend: 0x0, symName: __ZN5Eigen8internal15call_assignmentINS_3MapINS_6MatrixIfLin1ELi1ELi0ELin1ELi1EEELi16ENS_6StrideILi0ELi0EEEEENS_13CwiseBinaryOpINS0_17scalar_product_opIffEEKNS_14CwiseNullaryOpINS0_18scalar_constant_opIfEEKS4_EEKNS_5BlockINSH_INS3_IfLin1ELin1ELi0ELin1ELin1EEELin1ELi1ELb1EEELin1ELi1ELb0EEEEEEEvRT_RKT0_, symObjAddr: 0x123AB8, symBinAddr: 0x10012637C, symSize: 0x1F8 }
  - { offsetInCU: 0x4A448, offset: 0x4A448, size: 0x8, addend: 0x0, symName: __ZN5Eigen8internal15call_assignmentINS_3MapINS_6MatrixIfLin1ELi1ELi0ELin1ELi1EEELi16ENS_6StrideILi0ELi0EEEEENS_13CwiseBinaryOpINS0_17scalar_product_opIffEEKNS_14CwiseNullaryOpINS0_18scalar_constant_opIfEEKS4_EEKNS_5BlockINSH_INS3_IfLin1ELin1ELi0ELin1ELin1EEELin1ELi1ELb1EEELin1ELi1ELb0EEEEENS0_9assign_opIffEEEEvRT_RKT0_RKT1_NS0_9enable_ifIXntsr25evaluator_assume_aliasingISR_EE5valueEPvE4typeE, symObjAddr: 0x123CC4, symBinAddr: 0x100126588, symSize: 0x38 }
  - { offsetInCU: 0x4A4B6, offset: 0x4A4B6, size: 0x8, addend: 0x0, symName: __ZN5Eigen8internal24call_assignment_no_aliasINS_3MapINS_6MatrixIfLin1ELi1ELi0ELin1ELi1EEELi16ENS_6StrideILi0ELi0EEEEENS_13CwiseBinaryOpINS0_17scalar_product_opIffEEKNS_14CwiseNullaryOpINS0_18scalar_constant_opIfEEKS4_EEKNS_5BlockINSH_INS3_IfLin1ELin1ELi0ELin1ELin1EEELin1ELi1ELb1EEELin1ELi1ELb0EEEEENS0_9assign_opIffEEEEvRT_RKT0_RKT1_, symObjAddr: 0x123CFC, symBinAddr: 0x1001265C0, symSize: 0x3C }
  - { offsetInCU: 0x4A584, offset: 0x4A584, size: 0x8, addend: 0x0, symName: __ZN5Eigen8internal18check_for_aliasingINS_3MapINS_6MatrixIfLin1ELi1ELi0ELin1ELi1EEELi16ENS_6StrideILi0ELi0EEEEENS_13CwiseBinaryOpINS0_17scalar_product_opIffEEKNS_14CwiseNullaryOpINS0_18scalar_constant_opIfEEKS4_EEKNS_5BlockINSH_INS3_IfLin1ELin1ELi0ELin1ELin1EEELin1ELi1ELb1EEELin1ELi1ELb0EEEEEEEvRKT_RKT0_, symObjAddr: 0x123D78, symBinAddr: 0x10012663C, symSize: 0x14 }
  - { offsetInCU: 0x4A5CF, offset: 0x4A5CF, size: 0x8, addend: 0x0, symName: __ZN5Eigen8internal26call_dense_assignment_loopINS_3MapINS_6MatrixIfLin1ELi1ELi0ELin1ELi1EEELi16ENS_6StrideILi0ELi0EEEEENS_13CwiseBinaryOpINS0_17scalar_product_opIffEEKNS_14CwiseNullaryOpINS0_18scalar_constant_opIfEEKS4_EEKNS_5BlockINSH_INS3_IfLin1ELin1ELi0ELin1ELin1EEELin1ELi1ELb1EEELin1ELi1ELb0EEEEENS0_9assign_opIffEEEEvRT_RKT0_RKT1_, symObjAddr: 0x123D8C, symBinAddr: 0x100126650, symSize: 0x468 }
  - { offsetInCU: 0x4A693, offset: 0x4A693, size: 0x8, addend: 0x0, symName: __ZN5Eigen8internal17resize_if_allowedINS_3MapINS_6MatrixIfLin1ELi1ELi0ELin1ELi1EEELi16ENS_6StrideILi0ELi0EEEEENS_13CwiseBinaryOpINS0_17scalar_product_opIffEEKNS_14CwiseNullaryOpINS0_18scalar_constant_opIfEEKS4_EEKNS_5BlockINSH_INS3_IfLin1ELin1ELi0ELin1ELin1EEELin1ELi1ELb1EEELin1ELi1ELb0EEEEEffEEvRT_RKT0_RKNS0_9assign_opIT1_T2_EE, symObjAddr: 0x124228, symBinAddr: 0x100126AEC, symSize: 0xFC }
  - { offsetInCU: 0x4A719, offset: 0x4A719, size: 0x8, addend: 0x0, symName: __ZN5Eigen8internal15call_assignmentINS_5BlockINS2_INS2_INS_6MatrixIfLin1ELin1ELi0ELin1ELin1EEELin1ELin1ELb0EEELin1ELin1ELb0EEELin1ELi1ELb1EEENS_13CwiseBinaryOpINS0_17scalar_product_opIffEEKNS_14CwiseNullaryOpINS0_18scalar_constant_opIfEEKNS3_IfLin1ELi1ELi0ELin1ELi1EEEEEKNS_3MapISE_Li16ENS_6StrideILi0ELi0EEEEEEENS0_13sub_assign_opIffEEEEvRT_RKT0_RKT1_NS0_9enable_ifIXntsr25evaluator_assume_aliasingISS_EE5valueEPvE4typeE, symObjAddr: 0x125D40, symBinAddr: 0x100128604, symSize: 0x38 }
  - { offsetInCU: 0x4A787, offset: 0x4A787, size: 0x8, addend: 0x0, symName: __ZN5Eigen8internal24call_assignment_no_aliasINS_5BlockINS2_INS2_INS_6MatrixIfLin1ELin1ELi0ELin1ELin1EEELin1ELin1ELb0EEELin1ELin1ELb0EEELin1ELi1ELb1EEENS_13CwiseBinaryOpINS0_17scalar_product_opIffEEKNS_14CwiseNullaryOpINS0_18scalar_constant_opIfEEKNS3_IfLin1ELi1ELi0ELin1ELi1EEEEEKNS_3MapISE_Li16ENS_6StrideILi0ELi0EEEEEEENS0_13sub_assign_opIffEEEEvRT_RKT0_RKT1_, symObjAddr: 0x125DA0, symBinAddr: 0x100128664, symSize: 0x3C }
  - { offsetInCU: 0x4A855, offset: 0x4A855, size: 0x8, addend: 0x0, symName: __ZN5Eigen8internal18check_for_aliasingINS_5BlockINS2_INS2_INS_6MatrixIfLin1ELin1ELi0ELin1ELin1EEELin1ELin1ELb0EEELin1ELin1ELb0EEELin1ELi1ELb1EEENS_13CwiseBinaryOpINS0_17scalar_product_opIffEEKNS_14CwiseNullaryOpINS0_18scalar_constant_opIfEEKNS3_IfLin1ELi1ELi0ELin1ELi1EEEEEKNS_3MapISE_Li16ENS_6StrideILi0ELi0EEEEEEEEEvRKT_RKT0_, symObjAddr: 0x125E1C, symBinAddr: 0x1001286E0, symSize: 0x14 }
  - { offsetInCU: 0x4A8A0, offset: 0x4A8A0, size: 0x8, addend: 0x0, symName: __ZN5Eigen8internal26call_dense_assignment_loopINS_5BlockINS2_INS2_INS_6MatrixIfLin1ELin1ELi0ELin1ELin1EEELin1ELin1ELb0EEELin1ELin1ELb0EEELin1ELi1ELb1EEENS_13CwiseBinaryOpINS0_17scalar_product_opIffEEKNS_14CwiseNullaryOpINS0_18scalar_constant_opIfEEKNS3_IfLin1ELi1ELi0ELin1ELi1EEEEEKNS_3MapISE_Li16ENS_6StrideILi0ELi0EEEEEEENS0_13sub_assign_opIffEEEEvRT_RKT0_RKT1_, symObjAddr: 0x125E30, symBinAddr: 0x1001286F4, symSize: 0x460 }
  - { offsetInCU: 0x4A964, offset: 0x4A964, size: 0x8, addend: 0x0, symName: __ZN5Eigen8internal17resize_if_allowedINS_5BlockINS2_INS2_INS_6MatrixIfLin1ELin1ELi0ELin1ELin1EEELin1ELin1ELb0EEELin1ELin1ELb0EEELin1ELi1ELb1EEENS_13CwiseBinaryOpINS0_17scalar_product_opIffEEKNS_14CwiseNullaryOpINS0_18scalar_constant_opIfEEKNS3_IfLin1ELi1ELi0ELin1ELi1EEEEEKNS_3MapISE_Li16ENS_6StrideILi0ELi0EEEEEEENS0_13sub_assign_opIffEEEEvRT_RKT0_RKT1_, symObjAddr: 0x1262C4, symBinAddr: 0x100128B88, symSize: 0xB8 }
  - { offsetInCU: 0x4AC78, offset: 0x4AC78, size: 0x8, addend: 0x0, symName: __ZN5Eigen8internalL21first_default_alignedINS_12CwiseUnaryOpINS0_14scalar_abs2_opIfEEKNS_5BlockINS5_INS_6MatrixIfLin1ELin1ELi0ELin1ELin1EEELin1ELi1ELb1EEELin1ELi1ELb0EEEEEEElRKNS_9DenseBaseIT_EE, symObjAddr: 0x12A2A4, symBinAddr: 0x10012CB68, symSize: 0x24 }
  - { offsetInCU: 0x4ACAF, offset: 0x4ACAF, size: 0x8, addend: 0x0, symName: __ZN5Eigen8internalL13first_alignedILi16ENS_12CwiseUnaryOpINS0_14scalar_abs2_opIfEEKNS_5BlockINS5_INS_6MatrixIfLin1ELin1ELi0ELin1ELin1EEELin1ELi1ELb1EEELin1ELi1ELb0EEEEEEElRKNS_9DenseBaseIT0_EE, symObjAddr: 0x12A554, symBinAddr: 0x10012CE18, symSize: 0x28 }
  - { offsetInCU: 0x4AD2E, offset: 0x4AD2E, size: 0x8, addend: 0x0, symName: __ZN5Eigen8internal15call_assignmentINS_6MatrixIiLin1ELi1ELi0ELin1ELi1EEES3_EEvRT_RKT0_, symObjAddr: 0x12AD88, symBinAddr: 0x10012D64C, symSize: 0x1F8 }
  - { offsetInCU: 0x4AD7B, offset: 0x4AD7B, size: 0x8, addend: 0x0, symName: __ZN5Eigen8internal15call_assignmentINS_6MatrixIiLin1ELi1ELi0ELin1ELi1EEES3_NS0_9assign_opIiiEEEEvRT_RKT0_RKT1_NS0_9enable_ifIXntsr25evaluator_assume_aliasingIS8_EE5valueEPvE4typeE, symObjAddr: 0x12AF94, symBinAddr: 0x10012D858, symSize: 0x38 }
  - { offsetInCU: 0x4ADE9, offset: 0x4ADE9, size: 0x8, addend: 0x0, symName: __ZN5Eigen8internal24call_assignment_no_aliasINS_6MatrixIiLin1ELi1ELi0ELin1ELi1EEES3_NS0_9assign_opIiiEEEEvRT_RKT0_RKT1_, symObjAddr: 0x12AFF8, symBinAddr: 0x10012D8BC, symSize: 0x3C }
  - { offsetInCU: 0x4AEB7, offset: 0x4AEB7, size: 0x8, addend: 0x0, symName: __ZN5Eigen8internal18check_for_aliasingINS_6MatrixIiLin1ELi1ELi0ELin1ELi1EEES3_EEvRKT_RKT0_, symObjAddr: 0x12B074, symBinAddr: 0x10012D938, symSize: 0x14 }
  - { offsetInCU: 0x4AF02, offset: 0x4AF02, size: 0x8, addend: 0x0, symName: __ZN5Eigen8internal26call_dense_assignment_loopINS_6MatrixIiLin1ELi1ELi0ELin1ELi1EEES3_NS0_9assign_opIiiEEEEvRT_RKT0_RKT1_, symObjAddr: 0x12B088, symBinAddr: 0x10012D94C, symSize: 0x3F8 }
  - { offsetInCU: 0x4AFC5, offset: 0x4AFC5, size: 0x8, addend: 0x0, symName: __ZN5Eigen8internal17resize_if_allowedINS_6MatrixIiLin1ELi1ELi0ELin1ELi1EEES3_iiEEvRT_RKT0_RKNS0_9assign_opIT1_T2_EE, symObjAddr: 0x12B4B4, symBinAddr: 0x10012DD78, symSize: 0xFC }
  - { offsetInCU: 0x4B0BE, offset: 0x4B0BE, size: 0x8, addend: 0x0, symName: __ZN5Eigen8internal6pstoreIi17__simd128_int32_tEEvPT_RKT0_, symObjAddr: 0x12C264, symBinAddr: 0x10012EB28, symSize: 0x138 }
  - { offsetInCU: 0x4B126, offset: 0x4B126, size: 0x8, addend: 0x0, symName: __ZN5Eigen8internal5ploadI17__simd128_int32_tEET_PKNS0_15unpacket_traitsIS3_E4typeE, symObjAddr: 0x12C39C, symBinAddr: 0x10012EC60, symSize: 0xF8 }
  - { offsetInCU: 0x4B17A, offset: 0x4B17A, size: 0x8, addend: 0x0, symName: __ZN5Eigen8internal16stable_norm_implINS_13CwiseBinaryOpINS0_17scalar_product_opIffEEKNS_6MatrixIfLin1ELi1ELi0ELin1ELi1EEES7_EEEENT_10RealScalarERKS9_PNS0_9enable_ifIXsrS9_21IsVectorAtCompileTimeEvE4typeE, symObjAddr: 0x12C998, symBinAddr: 0x10012F25C, symSize: 0x4AC }
  - { offsetInCU: 0x4B219, offset: 0x4B219, size: 0x8, addend: 0x0, symName: __ZN5Eigen8internalL21first_default_alignedINS_13CwiseBinaryOpINS0_17scalar_product_opIffEEKNS_6MatrixIfLin1ELi1ELi0ELin1ELi1EEES7_EEEElRKNS_9DenseBaseIT_EE, symObjAddr: 0x12DC4C, symBinAddr: 0x100130510, symSize: 0x24 }
  - { offsetInCU: 0x4B250, offset: 0x4B250, size: 0x8, addend: 0x0, symName: __ZN5Eigen8internal18stable_norm_kernelINS_11VectorBlockIKNS_13CwiseBinaryOpINS0_17scalar_product_opIffEEKNS_6MatrixIfLin1ELi1ELi0ELin1ELi1EEES8_EELin1EEEfEEvRKT_RT0_SG_SG_, symObjAddr: 0x12DC70, symBinAddr: 0x100130534, symSize: 0xA04 }
  - { offsetInCU: 0x4B30E, offset: 0x4B30E, size: 0x8, addend: 0x0, symName: __ZN5Eigen8internalL13first_alignedILi16ENS_13CwiseBinaryOpINS0_17scalar_product_opIffEEKNS_6MatrixIfLin1ELi1ELi0ELin1ELi1EEES7_EEEElRKNS_9DenseBaseIT0_EE, symObjAddr: 0x12EB40, symBinAddr: 0x100131404, symSize: 0x28 }
  - { offsetInCU: 0x4B678, offset: 0x4B678, size: 0x8, addend: 0x0, symName: __ZN5Eigen8internalL21first_default_alignedINS_12CwiseUnaryOpINS0_13scalar_abs_opIfEEKNS_5BlockIKNS_13CwiseBinaryOpINS0_17scalar_product_opIffEEKNS_6MatrixIfLin1ELi1ELi0ELin1ELi1EEESB_EELin1ELi1ELb0EEEEEEElRKNS_9DenseBaseIT_EE, symObjAddr: 0x130DDC, symBinAddr: 0x1001336A0, symSize: 0x24 }
  - { offsetInCU: 0x4B6AF, offset: 0x4B6AF, size: 0x8, addend: 0x0, symName: __ZN5Eigen8internalL13first_alignedILi16ENS_12CwiseUnaryOpINS0_13scalar_abs_opIfEEKNS_5BlockIKNS_13CwiseBinaryOpINS0_17scalar_product_opIffEEKNS_6MatrixIfLin1ELi1ELi0ELin1ELi1EEESB_EELin1ELi1ELb0EEEEEEElRKNS_9DenseBaseIT0_EE, symObjAddr: 0x1312AC, symBinAddr: 0x100133B70, symSize: 0x28 }
  - { offsetInCU: 0x4BC0A, offset: 0x4BC0A, size: 0x8, addend: 0x0, symName: __ZN5Eigen8internalL21first_default_alignedINS_12CwiseUnaryOpINS0_14scalar_abs2_opIfEEKNS_13CwiseBinaryOpINS0_17scalar_product_opIffEEKNS_5BlockIKNS5_IS7_KNS_6MatrixIfLin1ELi1ELi0ELin1ELi1EEESB_EELin1ELi1ELb0EEEKNS_14CwiseNullaryOpINS0_18scalar_constant_opIfEESB_EEEEEEEElRKNS_9DenseBaseIT_EE, symObjAddr: 0x13362C, symBinAddr: 0x100135EF0, symSize: 0x24 }
  - { offsetInCU: 0x4BC41, offset: 0x4BC41, size: 0x8, addend: 0x0, symName: __ZN5Eigen8internalL13first_alignedILi16ENS_12CwiseUnaryOpINS0_14scalar_abs2_opIfEEKNS_13CwiseBinaryOpINS0_17scalar_product_opIffEEKNS_5BlockIKNS5_IS7_KNS_6MatrixIfLin1ELi1ELi0ELin1ELi1EEESB_EELin1ELi1ELb0EEEKNS_14CwiseNullaryOpINS0_18scalar_constant_opIfEESB_EEEEEEEElRKNS_9DenseBaseIT0_EE, symObjAddr: 0x133AFC, symBinAddr: 0x1001363C0, symSize: 0x28 }
  - { offsetInCU: 0x4BCC0, offset: 0x4BCC0, size: 0x8, addend: 0x0, symName: __ZN5Eigen8internal24call_assignment_no_aliasINS_6MatrixIfLin1ELi1ELi0ELi4096ELi1EEENS_5BlockIKNS_13CwiseBinaryOpINS0_17scalar_product_opIffEEKNS2_IfLin1ELi1ELi0ELin1ELi1EEES9_EELin1ELi1ELb0EEENS0_9assign_opIffEEEEvRT_RKT0_RKT1_, symObjAddr: 0x1348F0, symBinAddr: 0x1001371B4, symSize: 0x3C }
  - { offsetInCU: 0x4BD8E, offset: 0x4BD8E, size: 0x8, addend: 0x0, symName: __ZN5Eigen8internal18check_for_aliasingINS_6MatrixIfLin1ELi1ELi0ELi4096ELi1EEENS_5BlockIKNS_13CwiseBinaryOpINS0_17scalar_product_opIffEEKNS2_IfLin1ELi1ELi0ELin1ELi1EEES9_EELin1ELi1ELb0EEEEEvRKT_RKT0_, symObjAddr: 0x13496C, symBinAddr: 0x100137230, symSize: 0x14 }
  - { offsetInCU: 0x4BDD9, offset: 0x4BDD9, size: 0x8, addend: 0x0, symName: __ZN5Eigen8internal26call_dense_assignment_loopINS_6MatrixIfLin1ELi1ELi0ELi4096ELi1EEENS_5BlockIKNS_13CwiseBinaryOpINS0_17scalar_product_opIffEEKNS2_IfLin1ELi1ELi0ELin1ELi1EEES9_EELin1ELi1ELb0EEENS0_9assign_opIffEEEEvRT_RKT0_RKT1_, symObjAddr: 0x134980, symBinAddr: 0x100137244, symSize: 0x43C }
  - { offsetInCU: 0x4BE9D, offset: 0x4BE9D, size: 0x8, addend: 0x0, symName: __ZN5Eigen8internal17resize_if_allowedINS_6MatrixIfLin1ELi1ELi0ELi4096ELi1EEENS_5BlockIKNS_13CwiseBinaryOpINS0_17scalar_product_opIffEEKNS2_IfLin1ELi1ELi0ELin1ELi1EEES9_EELin1ELi1ELb0EEEffEEvRT_RKT0_RKNS0_9assign_opIT1_T2_EE, symObjAddr: 0x134DF0, symBinAddr: 0x1001376B4, symSize: 0xFC }
  - { offsetInCU: 0x4BF23, offset: 0x4BF23, size: 0x8, addend: 0x0, symName: __ZN5Eigen8internal28check_static_allocation_sizeIfLi1EEEvv, symObjAddr: 0x136AF0, symBinAddr: 0x1001393B4, symSize: 0x4 }
  - { offsetInCU: 0x4BF50, offset: 0x4BF50, size: 0x8, addend: 0x0, symName: __ZN5Eigen8internal35apply_block_householder_on_the_leftINS_5BlockINS_6MatrixIfLin1ELi1ELi0ELin1ELi1EEELin1ELin1ELb0EEENS2_INS3_IfLin1ELin1ELi0ELin1ELin1EEELin1ELin1ELb0EEENS_11VectorBlockIKS4_Lin1EEEEEvRT_RKT0_RKT1_b, symObjAddr: 0x136BD8, symBinAddr: 0x10013949C, symSize: 0xA0C }
  - { offsetInCU: 0x4C00B, offset: 0x4C00B, size: 0x8, addend: 0x0, symName: __ZN5Eigen8internal40make_block_householder_triangular_factorINS_6MatrixIfLin1ELin1ELi1ELin1ELin1EEENS_5BlockINS2_IfLin1ELin1ELi0ELin1ELin1EEELin1ELin1ELb0EEENS_11VectorBlockIKNS2_IfLin1ELi1ELi0ELin1ELi1EEELin1EEEEEvRT_RKT0_RKT1_, symObjAddr: 0x138AF8, symBinAddr: 0x10013B3BC, symSize: 0xD68 }
  - { offsetInCU: 0x4C0FB, offset: 0x4C0FB, size: 0x8, addend: 0x0, symName: __ZN5Eigen8internal40make_block_householder_triangular_factorINS_6MatrixIfLin1ELin1ELi1ELin1ELin1EEENS_5BlockINS2_IfLin1ELin1ELi0ELin1ELin1EEELin1ELin1ELb0EEENS4_IKNS2_IfLin1ELi1ELi0ELin1ELi1EEELin1ELi1ELb0EEEEEvRT_RKT0_RKT1_, symObjAddr: 0x139860, symBinAddr: 0x10013C124, symSize: 0xD68 }
  - { offsetInCU: 0x4C1EB, offset: 0x4C1EB, size: 0x8, addend: 0x0, symName: __ZN5Eigen8internal24call_assignment_no_aliasINS_5BlockINS2_INS_6MatrixIfLin1ELin1ELi1ELin1ELin1EEELi1ELin1ELb1EEELi1ELin1ELb0EEENS_7ProductINS_13CwiseBinaryOpINS0_17scalar_product_opIffEEKNS_14CwiseNullaryOpINS0_18scalar_constant_opIfEEKNS3_IfLi1ELin1ELi1ELi1ELin1EEEEEKNS_9TransposeIKNS2_IKNS2_IKNS2_INS3_IfLin1ELin1ELi0ELin1ELin1EEELin1ELin1ELb0EEELin1ELi1ELb1EEELin1ELi1ELb0EEEEEEENS_14TriangularViewIKNS2_ISL_Lin1ELin1ELb0EEELj5EEELi0EEENS0_9assign_opIffEEEEvRT_RKT0_RKT1_, symObjAddr: 0x1400A0, symBinAddr: 0x100142964, symSize: 0x3C }
  - { offsetInCU: 0x4C3B8, offset: 0x4C3B8, size: 0x8, addend: 0x0, symName: __ZN5Eigen8internal15call_assignmentINS_5BlockINS2_INS_6MatrixIfLin1ELin1ELi1ELin1ELin1EEELi1ELin1ELb1EEELi1ELin1ELb0EEENS_14CwiseNullaryOpINS0_18scalar_constant_opIfEENS3_IfLi1ELin1ELi1ELi1ELin1EEEEEEEvRT_RKT0_, symObjAddr: 0x140EA8, symBinAddr: 0x10014376C, symSize: 0x1F8 }
  - { offsetInCU: 0x4C405, offset: 0x4C405, size: 0x8, addend: 0x0, symName: __ZN5Eigen8internal15call_assignmentINS_5BlockINS2_INS_6MatrixIfLin1ELin1ELi1ELin1ELin1EEELi1ELin1ELb1EEELi1ELin1ELb0EEENS_14CwiseNullaryOpINS0_18scalar_constant_opIfEENS3_IfLi1ELin1ELi1ELi1ELin1EEEEENS0_9assign_opIffEEEEvRT_RKT0_RKT1_NS0_9enable_ifIXntsr25evaluator_assume_aliasingISG_EE5valueEPvE4typeE, symObjAddr: 0x1410A0, symBinAddr: 0x100143964, symSize: 0x38 }
  - { offsetInCU: 0x4C473, offset: 0x4C473, size: 0x8, addend: 0x0, symName: __ZN5Eigen8internal24call_assignment_no_aliasINS_5BlockINS2_INS_6MatrixIfLin1ELin1ELi1ELin1ELin1EEELi1ELin1ELb1EEELi1ELin1ELb0EEENS_14CwiseNullaryOpINS0_18scalar_constant_opIfEENS3_IfLi1ELin1ELi1ELi1ELin1EEEEENS0_9assign_opIffEEEEvRT_RKT0_RKT1_, symObjAddr: 0x1410D8, symBinAddr: 0x10014399C, symSize: 0x3C }
  - { offsetInCU: 0x4C541, offset: 0x4C541, size: 0x8, addend: 0x0, symName: __ZN5Eigen8internal18check_for_aliasingINS_5BlockINS2_INS_6MatrixIfLin1ELin1ELi1ELin1ELin1EEELi1ELin1ELb1EEELi1ELin1ELb0EEENS_14CwiseNullaryOpINS0_18scalar_constant_opIfEENS3_IfLi1ELin1ELi1ELi1ELin1EEEEEEEvRKT_RKT0_, symObjAddr: 0x141154, symBinAddr: 0x100143A18, symSize: 0x14 }
  - { offsetInCU: 0x4C58C, offset: 0x4C58C, size: 0x8, addend: 0x0, symName: __ZN5Eigen8internal26call_dense_assignment_loopINS_5BlockINS2_INS_6MatrixIfLin1ELin1ELi1ELin1ELin1EEELi1ELin1ELb1EEELi1ELin1ELb0EEENS_14CwiseNullaryOpINS0_18scalar_constant_opIfEENS3_IfLi1ELin1ELi1ELi1ELin1EEEEENS0_9assign_opIffEEEEvRT_RKT0_RKT1_, symObjAddr: 0x141168, symBinAddr: 0x100143A2C, symSize: 0x424 }
  - { offsetInCU: 0x4C650, offset: 0x4C650, size: 0x8, addend: 0x0, symName: __ZN5Eigen8internal17resize_if_allowedINS_5BlockINS2_INS_6MatrixIfLin1ELin1ELi1ELin1ELin1EEELi1ELin1ELb1EEELi1ELin1ELb0EEENS_14CwiseNullaryOpINS0_18scalar_constant_opIfEENS3_IfLi1ELin1ELi1ELi1ELin1EEEEEffEEvRT_RKT0_RKNS0_9assign_opIT1_T2_EE, symObjAddr: 0x14158C, symBinAddr: 0x100143E50, symSize: 0xFC }
  - { offsetInCU: 0x4CDD8, offset: 0x4CDD8, size: 0x8, addend: 0x0, symName: __ZN5Eigen8internalL21first_default_alignedINS_13CwiseBinaryOpINS0_17scalar_product_opIffEEKNS_5BlockIKNS5_IKNS_3MapIKNS_6MatrixIfLin1ELin1ELi1ELin1ELin1EEELi0ENS_11OuterStrideILin1EEEEELi1ELin1ELb1EEELi1ELin1ELb0EEEKNS_9TransposeIKNS5_IKNS6_IKNS7_IfLin1ELi1ELi0ELin1ELi1EEELi0ENS_6StrideILi0ELi0EEEEELin1ELi1ELb0EEEEEEEEElRKNS_9DenseBaseIT_EE, symObjAddr: 0x14FD40, symBinAddr: 0x100152604, symSize: 0x24 }
  - { offsetInCU: 0x4CE0F, offset: 0x4CE0F, size: 0x8, addend: 0x0, symName: __ZN5Eigen8internalL13first_alignedILi16ENS_13CwiseBinaryOpINS0_17scalar_product_opIffEEKNS_5BlockIKNS5_IKNS_3MapIKNS_6MatrixIfLin1ELin1ELi1ELin1ELin1EEELi0ENS_11OuterStrideILin1EEEEELi1ELin1ELb1EEELi1ELin1ELb0EEEKNS_9TransposeIKNS5_IKNS6_IKNS7_IfLin1ELi1ELi0ELin1ELi1EEELi0ENS_6StrideILi0ELi0EEEEELin1ELi1ELb0EEEEEEEEElRKNS_9DenseBaseIT0_EE, symObjAddr: 0x150344, symBinAddr: 0x100152C08, symSize: 0x28 }
  - { offsetInCU: 0x4CE8E, offset: 0x4CE8E, size: 0x8, addend: 0x0, symName: __ZN5Eigen8internal15call_assignmentINS_5BlockINS_9TransposeINS2_INS2_INS_6MatrixIfLin1ELin1ELi1ELin1ELin1EEELi1ELin1ELb1EEELi1ELin1ELb0EEEEELin1ELi1ELb0EEENS_13CwiseBinaryOpINS0_17scalar_product_opIffEEKNS_14CwiseNullaryOpINS0_18scalar_constant_opIfEEKNS4_IfLin1ELi1ELi0ELin1ELi1EEEEEKNS2_IKNS3_IKNSA_ISC_KNSD_ISF_KNS4_IfLi1ELin1ELi1ELi1ELin1EEEEEKNS3_IKNS2_IKNS2_IKNS2_INS4_IfLin1ELin1ELi0ELin1ELin1EEELin1ELin1ELb0EEELin1ELi1ELb1EEELin1ELi1ELb0EEEEEEEEELin1ELi1ELb0EEEEENS0_13sub_assign_opIffEEEEvRT_RKT0_RKT1_NS0_9enable_ifIXntsr25evaluator_assume_aliasingIS18_EE5valueEPvE4typeE, symObjAddr: 0x1518B0, symBinAddr: 0x100154174, symSize: 0x38 }
  - { offsetInCU: 0x4CEFC, offset: 0x4CEFC, size: 0x8, addend: 0x0, symName: __ZN5Eigen8internal24call_assignment_no_aliasINS_5BlockINS_9TransposeINS2_INS2_INS_6MatrixIfLin1ELin1ELi1ELin1ELin1EEELi1ELin1ELb1EEELi1ELin1ELb0EEEEELin1ELi1ELb0EEENS_13CwiseBinaryOpINS0_17scalar_product_opIffEEKNS_14CwiseNullaryOpINS0_18scalar_constant_opIfEEKNS4_IfLin1ELi1ELi0ELin1ELi1EEEEEKNS2_IKNS3_IKNSA_ISC_KNSD_ISF_KNS4_IfLi1ELin1ELi1ELi1ELin1EEEEEKNS3_IKNS2_IKNS2_IKNS2_INS4_IfLin1ELin1ELi0ELin1ELin1EEELin1ELin1ELb0EEELin1ELi1ELb1EEELin1ELi1ELb0EEEEEEEEELin1ELi1ELb0EEEEENS0_13sub_assign_opIffEEEEvRT_RKT0_RKT1_, symObjAddr: 0x151910, symBinAddr: 0x1001541D4, symSize: 0x3C }
  - { offsetInCU: 0x4CFCA, offset: 0x4CFCA, size: 0x8, addend: 0x0, symName: __ZN5Eigen8internal18check_for_aliasingINS_5BlockINS_9TransposeINS2_INS2_INS_6MatrixIfLin1ELin1ELi1ELin1ELin1EEELi1ELin1ELb1EEELi1ELin1ELb0EEEEELin1ELi1ELb0EEENS_13CwiseBinaryOpINS0_17scalar_product_opIffEEKNS_14CwiseNullaryOpINS0_18scalar_constant_opIfEEKNS4_IfLin1ELi1ELi0ELin1ELi1EEEEEKNS2_IKNS3_IKNSA_ISC_KNSD_ISF_KNS4_IfLi1ELin1ELi1ELi1ELin1EEEEEKNS3_IKNS2_IKNS2_IKNS2_INS4_IfLin1ELin1ELi0ELin1ELin1EEELin1ELin1ELb0EEELin1ELi1ELb1EEELin1ELi1ELb0EEEEEEEEELin1ELi1ELb0EEEEEEEvRKT_RKT0_, symObjAddr: 0x15198C, symBinAddr: 0x100154250, symSize: 0x14 }
  - { offsetInCU: 0x4D015, offset: 0x4D015, size: 0x8, addend: 0x0, symName: __ZN5Eigen8internal26call_dense_assignment_loopINS_5BlockINS_9TransposeINS2_INS2_INS_6MatrixIfLin1ELin1ELi1ELin1ELin1EEELi1ELin1ELb1EEELi1ELin1ELb0EEEEELin1ELi1ELb0EEENS_13CwiseBinaryOpINS0_17scalar_product_opIffEEKNS_14CwiseNullaryOpINS0_18scalar_constant_opIfEEKNS4_IfLin1ELi1ELi0ELin1ELi1EEEEEKNS2_IKNS3_IKNSA_ISC_KNSD_ISF_KNS4_IfLi1ELin1ELi1ELi1ELin1EEEEEKNS3_IKNS2_IKNS2_IKNS2_INS4_IfLin1ELin1ELi0ELin1ELin1EEELin1ELin1ELb0EEELin1ELi1ELb1EEELin1ELi1ELb0EEEEEEEEELin1ELi1ELb0EEEEENS0_13sub_assign_opIffEEEEvRT_RKT0_RKT1_, symObjAddr: 0x1519A0, symBinAddr: 0x100154264, symSize: 0x43C }
  - { offsetInCU: 0x4D0DA, offset: 0x4D0DA, size: 0x8, addend: 0x0, symName: __ZN5Eigen8internal17resize_if_allowedINS_5BlockINS_9TransposeINS2_INS2_INS_6MatrixIfLin1ELin1ELi1ELin1ELin1EEELi1ELin1ELb1EEELi1ELin1ELb0EEEEELin1ELi1ELb0EEENS_13CwiseBinaryOpINS0_17scalar_product_opIffEEKNS_14CwiseNullaryOpINS0_18scalar_constant_opIfEEKNS4_IfLin1ELi1ELi0ELin1ELi1EEEEEKNS2_IKNS3_IKNSA_ISC_KNSD_ISF_KNS4_IfLi1ELin1ELi1ELi1ELin1EEEEEKNS3_IKNS2_IKNS2_IKNS2_INS4_IfLin1ELin1ELi0ELin1ELin1EEELin1ELin1ELb0EEELin1ELi1ELb1EEELin1ELi1ELb0EEEEEEEEELin1ELi1ELb0EEEEENS0_13sub_assign_opIffEEEEvRT_RKT0_RKT1_, symObjAddr: 0x151E10, symBinAddr: 0x1001546D4, symSize: 0xB8 }
  - { offsetInCU: 0x4D139, offset: 0x4D139, size: 0x8, addend: 0x0, symName: __ZN5Eigen8internal15call_assignmentINS_5BlockINS2_INS_6MatrixIfLin1ELin1ELi1ELin1ELin1EEELi1ELin1ELb1EEELi1ELin1ELb0EEENS_13CwiseBinaryOpINS0_17scalar_product_opIffEEKNS_14CwiseNullaryOpINS0_18scalar_constant_opIfEEKNS3_IfLi1ELin1ELi1ELi1ELin1EEEEEKS6_EENS0_13add_assign_opIffEEEEvRT_RKT0_RKT1_NS0_9enable_ifIXntsr25evaluator_assume_aliasingISN_EE5valueEPvE4typeE, symObjAddr: 0x155694, symBinAddr: 0x100157F58, symSize: 0x38 }
  - { offsetInCU: 0x4D1A7, offset: 0x4D1A7, size: 0x8, addend: 0x0, symName: __ZN5Eigen8internal24call_assignment_no_aliasINS_5BlockINS2_INS_6MatrixIfLin1ELin1ELi1ELin1ELin1EEELi1ELin1ELb1EEELi1ELin1ELb0EEENS_13CwiseBinaryOpINS0_17scalar_product_opIffEEKNS_14CwiseNullaryOpINS0_18scalar_constant_opIfEEKNS3_IfLi1ELin1ELi1ELi1ELin1EEEEEKS6_EENS0_13add_assign_opIffEEEEvRT_RKT0_RKT1_, symObjAddr: 0x1556E0, symBinAddr: 0x100157FA4, symSize: 0x3C }
  - { offsetInCU: 0x4D275, offset: 0x4D275, size: 0x8, addend: 0x0, symName: __ZN5Eigen8internal18check_for_aliasingINS_5BlockINS2_INS_6MatrixIfLin1ELin1ELi1ELin1ELin1EEELi1ELin1ELb1EEELi1ELin1ELb0EEENS_13CwiseBinaryOpINS0_17scalar_product_opIffEEKNS_14CwiseNullaryOpINS0_18scalar_constant_opIfEEKNS3_IfLi1ELin1ELi1ELi1ELin1EEEEEKS6_EEEEvRKT_RKT0_, symObjAddr: 0x15575C, symBinAddr: 0x100158020, symSize: 0x14 }
  - { offsetInCU: 0x4D2C0, offset: 0x4D2C0, size: 0x8, addend: 0x0, symName: __ZN5Eigen8internal26call_dense_assignment_loopINS_5BlockINS2_INS_6MatrixIfLin1ELin1ELi1ELin1ELin1EEELi1ELin1ELb1EEELi1ELin1ELb0EEENS_13CwiseBinaryOpINS0_17scalar_product_opIffEEKNS_14CwiseNullaryOpINS0_18scalar_constant_opIfEEKNS3_IfLi1ELin1ELi1ELi1ELin1EEEEEKS6_EENS0_13add_assign_opIffEEEEvRT_RKT0_RKT1_, symObjAddr: 0x155770, symBinAddr: 0x100158034, symSize: 0x460 }
  - { offsetInCU: 0x4D384, offset: 0x4D384, size: 0x8, addend: 0x0, symName: __ZN5Eigen8internal17resize_if_allowedINS_5BlockINS2_INS_6MatrixIfLin1ELin1ELi1ELin1ELin1EEELi1ELin1ELb1EEELi1ELin1ELb0EEENS_13CwiseBinaryOpINS0_17scalar_product_opIffEEKNS_14CwiseNullaryOpINS0_18scalar_constant_opIfEEKNS3_IfLi1ELin1ELi1ELi1ELin1EEEEEKS6_EENS0_13add_assign_opIffEEEEvRT_RKT0_RKT1_, symObjAddr: 0x155C04, symBinAddr: 0x1001584C8, symSize: 0xB8 }
  - { offsetInCU: 0x4D3E3, offset: 0x4D3E3, size: 0x8, addend: 0x0, symName: __ZN5Eigen8internal24call_assignment_no_aliasINS_6MatrixIfLin1ELin1ELi0ELin1ELi1EEENS_7ProductINS_14TriangularViewIKNS_9TransposeIKNS_5BlockINS2_IfLin1ELin1ELi0ELin1ELin1EEELin1ELin1ELb0EEEEELj6EEENS7_INS2_IfLin1ELi1ELi0ELin1ELi1EEELin1ELin1ELb0EEELi0EEENS0_9assign_opIffEEEEvRT_RKT0_RKT1_, symObjAddr: 0x157E9C, symBinAddr: 0x10015A760, symSize: 0x3C }
  - { offsetInCU: 0x4D5B0, offset: 0x4D5B0, size: 0x8, addend: 0x0, symName: __ZN5Eigen8internal15call_assignmentINS_6MatrixIfLin1ELin1ELi0ELin1ELi1EEENS_14CwiseNullaryOpINS0_18scalar_constant_opIfEES3_EEEEvRT_RKT0_, symObjAddr: 0x158BF4, symBinAddr: 0x10015B4B8, symSize: 0x1F8 }
  - { offsetInCU: 0x4D5FD, offset: 0x4D5FD, size: 0x8, addend: 0x0, symName: __ZN5Eigen8internal15call_assignmentINS_6MatrixIfLin1ELin1ELi0ELin1ELi1EEENS_14CwiseNullaryOpINS0_18scalar_constant_opIfEES3_EENS0_9assign_opIffEEEEvRT_RKT0_RKT1_NS0_9enable_ifIXntsr25evaluator_assume_aliasingISC_EE5valueEPvE4typeE, symObjAddr: 0x158E00, symBinAddr: 0x10015B6C4, symSize: 0x38 }
  - { offsetInCU: 0x4D66B, offset: 0x4D66B, size: 0x8, addend: 0x0, symName: __ZN5Eigen8internal24call_assignment_no_aliasINS_6MatrixIfLin1ELin1ELi0ELin1ELi1EEENS_14CwiseNullaryOpINS0_18scalar_constant_opIfEES3_EENS0_9assign_opIffEEEEvRT_RKT0_RKT1_, symObjAddr: 0x158E38, symBinAddr: 0x10015B6FC, symSize: 0x3C }
  - { offsetInCU: 0x4D739, offset: 0x4D739, size: 0x8, addend: 0x0, symName: __ZN5Eigen8internal18check_for_aliasingINS_6MatrixIfLin1ELin1ELi0ELin1ELi1EEENS_14CwiseNullaryOpINS0_18scalar_constant_opIfEES3_EEEEvRKT_RKT0_, symObjAddr: 0x158EB4, symBinAddr: 0x10015B778, symSize: 0x60 }
  - { offsetInCU: 0x4D784, offset: 0x4D784, size: 0x8, addend: 0x0, symName: __ZN5Eigen8internal26call_dense_assignment_loopINS_6MatrixIfLin1ELin1ELi0ELin1ELi1EEEEEvRT_RKNS_14CwiseNullaryOpINS0_18scalar_constant_opINS4_6ScalarEEES4_EERKNS0_9assign_opIS8_S8_EE, symObjAddr: 0x158F14, symBinAddr: 0x10015B7D8, symSize: 0x280 }
  - { offsetInCU: 0x4D816, offset: 0x4D816, size: 0x8, addend: 0x0, symName: __ZN5Eigen8internal17resize_if_allowedINS_6MatrixIfLin1ELin1ELi0ELin1ELi1EEENS_14CwiseNullaryOpINS0_18scalar_constant_opIfEES3_EEffEEvRT_RKT0_RKNS0_9assign_opIT1_T2_EE, symObjAddr: 0x1591A8, symBinAddr: 0x10015BA6C, symSize: 0xFC }
  - { offsetInCU: 0x4D9AD, offset: 0x4D9AD, size: 0x8, addend: 0x0, symName: __ZN5Eigen8internal27computeProductBlockingSizesIffLi4ElEEvRT2_S3_S3_S2_, symObjAddr: 0x15E5E8, symBinAddr: 0x100160EAC, symSize: 0x58 }
  - { offsetInCU: 0x4DA29, offset: 0x4DA29, size: 0x8, addend: 0x0, symName: __ZN5Eigen8internal24useSpecificBlockingSizesIlEEbRT_S3_S3_, symObjAddr: 0x15E640, symBinAddr: 0x100160F04, symSize: 0x44 }
  - { offsetInCU: 0x4DA7E, offset: 0x4DA7E, size: 0x8, addend: 0x0, symName: __ZN5Eigen8internal15queryCacheSizesERiS1_S1_, symObjAddr: 0x160BE0, symBinAddr: 0x1001634A4, symSize: 0x168 }
  - { offsetInCU: 0x4DAC6, offset: 0x4DAC6, size: 0x8, addend: 0x0, symName: __ZN5Eigen8internal27manage_caching_sizes_helperEll, symObjAddr: 0x160D48, symBinAddr: 0x10016360C, symSize: 0x44 }
  - { offsetInCU: 0x4DB00, offset: 0x4DB00, size: 0x8, addend: 0x0, symName: __ZN5Eigen8internal28check_static_allocation_sizeIfLi576EEEvv, symObjAddr: 0x16D2DC, symBinAddr: 0x10016FBA0, symSize: 0x4 }
  - { offsetInCU: 0x4DB2E, offset: 0x4DB2E, size: 0x8, addend: 0x0, symName: __ZN5Eigen8internal15call_assignmentINS_6MatrixIfLi24ELi24ELi1ELi24ELi24EEENS_14CwiseNullaryOpINS0_18scalar_constant_opIfEES3_EEEEvRT_RKT0_, symObjAddr: 0x16DACC, symBinAddr: 0x100170390, symSize: 0x1F8 }
  - { offsetInCU: 0x4DB7B, offset: 0x4DB7B, size: 0x8, addend: 0x0, symName: __ZN5Eigen8internal15call_assignmentINS_6MatrixIfLi24ELi24ELi1ELi24ELi24EEENS_14CwiseNullaryOpINS0_18scalar_constant_opIfEES3_EENS0_9assign_opIffEEEEvRT_RKT0_RKT1_NS0_9enable_ifIXntsr25evaluator_assume_aliasingISC_EE5valueEPvE4typeE, symObjAddr: 0x16DCD8, symBinAddr: 0x10017059C, symSize: 0x38 }
  - { offsetInCU: 0x4DBE9, offset: 0x4DBE9, size: 0x8, addend: 0x0, symName: __ZN5Eigen8internal24call_assignment_no_aliasINS_6MatrixIfLi24ELi24ELi1ELi24ELi24EEENS_14CwiseNullaryOpINS0_18scalar_constant_opIfEES3_EENS0_9assign_opIffEEEEvRT_RKT0_RKT1_, symObjAddr: 0x16DD10, symBinAddr: 0x1001705D4, symSize: 0x3C }
  - { offsetInCU: 0x4DCB7, offset: 0x4DCB7, size: 0x8, addend: 0x0, symName: __ZN5Eigen8internal18check_for_aliasingINS_6MatrixIfLi24ELi24ELi1ELi24ELi24EEENS_14CwiseNullaryOpINS0_18scalar_constant_opIfEES3_EEEEvRKT_RKT0_, symObjAddr: 0x16DD8C, symBinAddr: 0x100170650, symSize: 0x60 }
  - { offsetInCU: 0x4DD02, offset: 0x4DD02, size: 0x8, addend: 0x0, symName: __ZN5Eigen8internal26call_dense_assignment_loopINS_6MatrixIfLi24ELi24ELi1ELi24ELi24EEEEEvRT_RKNS_14CwiseNullaryOpINS0_18scalar_constant_opINS4_6ScalarEEES4_EERKNS0_9assign_opIS8_S8_EE, symObjAddr: 0x16DDEC, symBinAddr: 0x1001706B0, symSize: 0x280 }
  - { offsetInCU: 0x4DD94, offset: 0x4DD94, size: 0x8, addend: 0x0, symName: __ZN5Eigen8internal17resize_if_allowedINS_6MatrixIfLi24ELi24ELi1ELi24ELi24EEENS_14CwiseNullaryOpINS0_18scalar_constant_opIfEES3_EEffEEvRT_RKT0_RKNS0_9assign_opIT1_T2_EE, symObjAddr: 0x16E080, symBinAddr: 0x100170944, symSize: 0xFC }
  - { offsetInCU: 0x4DE1A, offset: 0x4DE1A, size: 0x8, addend: 0x0, symName: __ZN5Eigen8internal15call_assignmentINS_8DiagonalINS_6MatrixIfLi24ELi24ELi1ELi24ELi24EEELi0EEENS_14CwiseNullaryOpINS0_18scalar_constant_opIfEENS3_IfLi24ELi1ELi0ELi24ELi1EEEEEEEvRT_RKT0_, symObjAddr: 0x16F380, symBinAddr: 0x100171C44, symSize: 0x1F8 }
  - { offsetInCU: 0x4DE67, offset: 0x4DE67, size: 0x8, addend: 0x0, symName: __ZN5Eigen8internal15call_assignmentINS_8DiagonalINS_6MatrixIfLi24ELi24ELi1ELi24ELi24EEELi0EEENS_14CwiseNullaryOpINS0_18scalar_constant_opIfEENS3_IfLi24ELi1ELi0ELi24ELi1EEEEENS0_9assign_opIffEEEEvRT_RKT0_RKT1_NS0_9enable_ifIXntsr25evaluator_assume_aliasingISF_EE5valueEPvE4typeE, symObjAddr: 0x16F578, symBinAddr: 0x100171E3C, symSize: 0x38 }
  - { offsetInCU: 0x4DED5, offset: 0x4DED5, size: 0x8, addend: 0x0, symName: __ZN5Eigen8internal24call_assignment_no_aliasINS_8DiagonalINS_6MatrixIfLi24ELi24ELi1ELi24ELi24EEELi0EEENS_14CwiseNullaryOpINS0_18scalar_constant_opIfEENS3_IfLi24ELi1ELi0ELi24ELi1EEEEENS0_9assign_opIffEEEEvRT_RKT0_RKT1_, symObjAddr: 0x16F5B0, symBinAddr: 0x100171E74, symSize: 0x3C }
  - { offsetInCU: 0x4DFA3, offset: 0x4DFA3, size: 0x8, addend: 0x0, symName: __ZN5Eigen8internal18check_for_aliasingINS_8DiagonalINS_6MatrixIfLi24ELi24ELi1ELi24ELi24EEELi0EEENS_14CwiseNullaryOpINS0_18scalar_constant_opIfEENS3_IfLi24ELi1ELi0ELi24ELi1EEEEEEEvRKT_RKT0_, symObjAddr: 0x16F62C, symBinAddr: 0x100171EF0, symSize: 0x14 }
  - { offsetInCU: 0x4DFEE, offset: 0x4DFEE, size: 0x8, addend: 0x0, symName: __ZN5Eigen8internal26call_dense_assignment_loopINS_8DiagonalINS_6MatrixIfLi24ELi24ELi1ELi24ELi24EEELi0EEENS_14CwiseNullaryOpINS0_18scalar_constant_opIfEENS3_IfLi24ELi1ELi0ELi24ELi1EEEEENS0_9assign_opIffEEEEvRT_RKT0_RKT1_, symObjAddr: 0x16F640, symBinAddr: 0x100171F04, symSize: 0x3F0 }
  - { offsetInCU: 0x4E19C, offset: 0x4E19C, size: 0x8, addend: 0x0, symName: __ZN5Eigen8internal17resize_if_allowedINS_8DiagonalINS_6MatrixIfLi24ELi24ELi1ELi24ELi24EEELi0EEENS_14CwiseNullaryOpINS0_18scalar_constant_opIfEENS3_IfLi24ELi1ELi0ELi24ELi1EEEEEffEEvRT_RKT0_RKNS0_9assign_opIT1_T2_EE, symObjAddr: 0x16FA64, symBinAddr: 0x100172328, symSize: 0xFC }
  - { offsetInCU: 0x4ECAD, offset: 0x4ECAD, size: 0x8, addend: 0x0, symName: __ZN5Eigen8internal10ptransposeERNS0_11PacketBlockI19__simd128_float32_tLi4EEE, symObjAddr: 0x170F28, symBinAddr: 0x1001737EC, symSize: 0xE78 }
  - { offsetInCU: 0x4EE01, offset: 0x4EE01, size: 0x8, addend: 0x0, symName: __ZN5Eigen8internal10ptransposeERNS0_11PacketBlockI18__simd64_float32_tLi2EEE, symObjAddr: 0x171DCC, symBinAddr: 0x100174690, symSize: 0x454 }
  - { offsetInCU: 0x4EE7F, offset: 0x4EE7F, size: 0x8, addend: 0x0, symName: __ZN5Eigen8internal6pstoreIf18__simd64_float32_tEEvPT_RKT0_, symObjAddr: 0x172220, symBinAddr: 0x100174AE4, symSize: 0x138 }
  - { offsetInCU: 0x4EEE7, offset: 0x4EEE7, size: 0x8, addend: 0x0, symName: __ZN5Eigen8internal8prefetchIfEEvPKT_, symObjAddr: 0x17237C, symBinAddr: 0x100174C40, symSize: 0x18 }
  - { offsetInCU: 0x4F91D, offset: 0x4F91D, size: 0x8, addend: 0x0, symName: __ZN5Eigen8internal4paddI18__simd64_float32_tEET_RKS3_S5_, symObjAddr: 0x178030, symBinAddr: 0x10017A8F4, symSize: 0xC8 }
  - { offsetInCU: 0x4F963, offset: 0x4F963, size: 0x8, addend: 0x0, symName: __ZN5Eigen8internal5ploadI18__simd64_float32_tEET_PKNS0_15unpacket_traitsIS3_E4typeE, symObjAddr: 0x17872C, symBinAddr: 0x10017AFF0, symSize: 0xF8 }
  - { offsetInCU: 0x4F9B7, offset: 0x4F9B7, size: 0x8, addend: 0x0, symName: __ZN5Eigen8internal11pbroadcast4I18__simd64_float32_tEEvPKNS0_15unpacket_traitsIT_E4typeERS4_S9_S9_S9_, symObjAddr: 0x178824, symBinAddr: 0x10017B0E8, symSize: 0x178 }
  - { offsetInCU: 0x4FA26, offset: 0x4FA26, size: 0x8, addend: 0x0, symName: __ZN5Eigen8internal6pload1I18__simd64_float32_tEET_PKNS0_15unpacket_traitsIS3_E4typeE, symObjAddr: 0x17899C, symBinAddr: 0x10017B260, symSize: 0x24 }
  - { offsetInCU: 0x4FA5D, offset: 0x4FA5D, size: 0x8, addend: 0x0, symName: __ZN5Eigen8internal22ignore_unused_variableI18__simd64_float32_tEEvRKT_, symObjAddr: 0x178C34, symBinAddr: 0x10017B4F8, symSize: 0x10 }
  - { offsetInCU: 0x4FA8C, offset: 0x4FA8C, size: 0x8, addend: 0x0, symName: __ZN5Eigen8internal7pstoreuIf18__simd64_float32_tEEvPT_RKT0_, symObjAddr: 0x1790FC, symBinAddr: 0x10017B9C0, symSize: 0x138 }
  - { offsetInCU: 0x4FAF4, offset: 0x4FAF4, size: 0x8, addend: 0x0, symName: __ZN5Eigen8internal7pgatherIf19__simd128_float32_tEET0_PKT_l, symObjAddr: 0x179234, symBinAddr: 0x10017BAF8, symSize: 0x29C }
  - { offsetInCU: 0x4FBF9, offset: 0x4FBF9, size: 0x8, addend: 0x0, symName: __ZN5Eigen8internal8pscatterIf19__simd128_float32_tEEvPT_RKT0_l, symObjAddr: 0x1794D0, symBinAddr: 0x10017BD94, symSize: 0x330 }
  - { offsetInCU: 0x4FCCA, offset: 0x4FCCA, size: 0x8, addend: 0x0, symName: __ZN5Eigen8internal15call_assignmentINS_5BlockINS_6MatrixIfLin1ELin1ELi0ELin1ELi1EEELin1ELin1ELb0EEENS2_IKNS_13CwiseBinaryOpINS0_17scalar_product_opIffEEKNS_14CwiseNullaryOpINS0_18scalar_constant_opIfEEKS4_EEKNS2_INS3_IfLin1ELi1ELi0ELin1ELi1EEELin1ELin1ELb0EEEEELin1ELin1ELb0EEENS0_13sub_assign_opIffEEEEvRT_RKT0_RKT1_NS0_9enable_ifIXntsr25evaluator_assume_aliasingISP_EE5valueEPvE4typeE, symObjAddr: 0x17A80C, symBinAddr: 0x10017D0D0, symSize: 0x38 }
  - { offsetInCU: 0x4FD38, offset: 0x4FD38, size: 0x8, addend: 0x0, symName: __ZN5Eigen8internal24call_assignment_no_aliasINS_5BlockINS_6MatrixIfLin1ELin1ELi0ELin1ELi1EEELin1ELin1ELb0EEENS2_IKNS_13CwiseBinaryOpINS0_17scalar_product_opIffEEKNS_14CwiseNullaryOpINS0_18scalar_constant_opIfEEKS4_EEKNS2_INS3_IfLin1ELi1ELi0ELin1ELi1EEELin1ELin1ELb0EEEEELin1ELin1ELb0EEENS0_13sub_assign_opIffEEEEvRT_RKT0_RKT1_, symObjAddr: 0x17A86C, symBinAddr: 0x10017D130, symSize: 0x3C }
  - { offsetInCU: 0x4FE06, offset: 0x4FE06, size: 0x8, addend: 0x0, symName: __ZN5Eigen8internal18check_for_aliasingINS_5BlockINS_6MatrixIfLin1ELin1ELi0ELin1ELi1EEELin1ELin1ELb0EEENS2_IKNS_13CwiseBinaryOpINS0_17scalar_product_opIffEEKNS_14CwiseNullaryOpINS0_18scalar_constant_opIfEEKS4_EEKNS2_INS3_IfLin1ELi1ELi0ELin1ELi1EEELin1ELin1ELb0EEEEELin1ELin1ELb0EEEEEvRKT_RKT0_, symObjAddr: 0x17A8E8, symBinAddr: 0x10017D1AC, symSize: 0x60 }
  - { offsetInCU: 0x4FE51, offset: 0x4FE51, size: 0x8, addend: 0x0, symName: __ZN5Eigen8internal26call_dense_assignment_loopINS_5BlockINS_6MatrixIfLin1ELin1ELi0ELin1ELi1EEELin1ELin1ELb0EEENS2_IKNS_13CwiseBinaryOpINS0_17scalar_product_opIffEEKNS_14CwiseNullaryOpINS0_18scalar_constant_opIfEEKS4_EEKNS2_INS3_IfLin1ELi1ELi0ELin1ELi1EEELin1ELin1ELb0EEEEELin1ELin1ELb0EEENS0_13sub_assign_opIffEEEEvRT_RKT0_RKT1_, symObjAddr: 0x17A948, symBinAddr: 0x10017D20C, symSize: 0x444 }
  - { offsetInCU: 0x4FF54, offset: 0x4FF54, size: 0x8, addend: 0x0, symName: __ZN5Eigen8internal17resize_if_allowedINS_5BlockINS_6MatrixIfLin1ELin1ELi0ELin1ELi1EEELin1ELin1ELb0EEENS2_IKNS_13CwiseBinaryOpINS0_17scalar_product_opIffEEKNS_14CwiseNullaryOpINS0_18scalar_constant_opIfEEKS4_EEKNS2_INS3_IfLin1ELi1ELi0ELin1ELi1EEELin1ELin1ELb0EEEEELin1ELin1ELb0EEENS0_13sub_assign_opIffEEEEvRT_RKT0_RKT1_, symObjAddr: 0x17AE24, symBinAddr: 0x10017D6E8, symSize: 0xB8 }
  - { offsetInCU: 0x4FFED, offset: 0x4FFED, size: 0x8, addend: 0x0, symName: __ZN5Eigen8internal14aligned_deleteIfEEvPT_m, symObjAddr: 0x17DBA8, symBinAddr: 0x10018046C, symSize: 0x34 }
  - { offsetInCU: 0x5002F, offset: 0x5002F, size: 0x8, addend: 0x0, symName: __ZN5Eigen8internal26destruct_elements_of_arrayIfEEvPT_m, symObjAddr: 0x17DBDC, symBinAddr: 0x1001804A0, symSize: 0x54 }
  - { offsetInCU: 0x50071, offset: 0x50071, size: 0x8, addend: 0x0, symName: __ZN5Eigen8internal15call_assignmentINS_6MatrixIfLin1ELin1ELi0ELin1ELi1EEENS_7ProductINS_14TriangularViewINS2_IfLin1ELin1ELi1ELin1ELin1EEELj2EEES3_Li0EEEEEvRT_RKT0_, symObjAddr: 0x17DFD4, symBinAddr: 0x100180898, symSize: 0x1F8 }
  - { offsetInCU: 0x500BE, offset: 0x500BE, size: 0x8, addend: 0x0, symName: __ZN5Eigen8internal15call_assignmentINS_6MatrixIfLin1ELin1ELi0ELin1ELi1EEENS_7ProductINS_14TriangularViewINS2_IfLin1ELin1ELi1ELin1ELin1EEELj2EEES3_Li0EEENS0_9assign_opIffEEEEvRT_RKT0_RKT1_NS0_9enable_ifIXsr25evaluator_assume_aliasingISD_EE5valueEPvE4typeE, symObjAddr: 0x17E1E0, symBinAddr: 0x100180AA4, symSize: 0x2E0 }
  - { offsetInCU: 0x50143, offset: 0x50143, size: 0x8, addend: 0x0, symName: __ZN5Eigen8internal24call_assignment_no_aliasINS_6MatrixIfLin1ELin1ELi0ELin1ELi1EEES3_NS0_9assign_opIffEEEEvRT_RKT0_RKT1_, symObjAddr: 0x17E4F4, symBinAddr: 0x100180DB8, symSize: 0x3C }
  - { offsetInCU: 0x501C1, offset: 0x501C1, size: 0x8, addend: 0x0, symName: __ZN5Eigen8internal24call_assignment_no_aliasINS_6MatrixIfLin1ELin1ELi0ELin1ELi1EEENS_7ProductINS_14TriangularViewINS2_IfLin1ELin1ELi1ELin1ELin1EEELj2EEES3_Li0EEENS0_9assign_opIffEEEEvRT_RKT0_RKT1_, symObjAddr: 0x17E840, symBinAddr: 0x100181104, symSize: 0x3C }
  - { offsetInCU: 0x5044D, offset: 0x5044D, size: 0x8, addend: 0x0, symName: __ZN5Eigen8internal18check_for_aliasingINS_6MatrixIfLin1ELin1ELi0ELin1ELi1EEES3_EEvRKT_RKT0_, symObjAddr: 0x182BE4, symBinAddr: 0x1001854A8, symSize: 0x60 }
  - { offsetInCU: 0x50498, offset: 0x50498, size: 0x8, addend: 0x0, symName: __ZN5Eigen8internal26call_dense_assignment_loopINS_6MatrixIfLin1ELin1ELi0ELin1ELi1EEES3_NS0_9assign_opIffEEEEvRT_RKT0_RKT1_, symObjAddr: 0x182C44, symBinAddr: 0x100185508, symSize: 0x3F4 }
  - { offsetInCU: 0x50599, offset: 0x50599, size: 0x8, addend: 0x0, symName: __ZN5Eigen8internal17resize_if_allowedINS_6MatrixIfLin1ELin1ELi0ELin1ELi1EEES3_ffEEvRT_RKT0_RKNS0_9assign_opIT1_T2_EE, symObjAddr: 0x183080, symBinAddr: 0x100185944, symSize: 0xFC }
  - { offsetInCU: 0x5061F, offset: 0x5061F, size: 0x8, addend: 0x0, symName: __ZN5Eigen8internal15call_assignmentINS_6MatrixIfLin1ELin1ELi0ELin1ELi1EEENS_7ProductINS_14TriangularViewIKNS_9TransposeIKNS2_IfLin1ELin1ELi1ELin1ELin1EEEEELj1EEES3_Li0EEEEEvRT_RKT0_, symObjAddr: 0x184480, symBinAddr: 0x100186D44, symSize: 0x1F8 }
  - { offsetInCU: 0x5066C, offset: 0x5066C, size: 0x8, addend: 0x0, symName: __ZN5Eigen8internal15call_assignmentINS_6MatrixIfLin1ELin1ELi0ELin1ELi1EEENS_7ProductINS_14TriangularViewIKNS_9TransposeIKNS2_IfLin1ELin1ELi1ELin1ELin1EEEEELj1EEES3_Li0EEENS0_9assign_opIffEEEEvRT_RKT0_RKT1_NS0_9enable_ifIXsr25evaluator_assume_aliasingISH_EE5valueEPvE4typeE, symObjAddr: 0x18468C, symBinAddr: 0x100186F50, symSize: 0x2E0 }
  - { offsetInCU: 0x506F1, offset: 0x506F1, size: 0x8, addend: 0x0, symName: __ZN5Eigen8internal24call_assignment_no_aliasINS_6MatrixIfLin1ELin1ELi0ELin1ELi1EEENS_7ProductINS_14TriangularViewIKNS_9TransposeIKNS2_IfLin1ELin1ELi1ELin1ELin1EEEEELj1EEES3_Li0EEENS0_9assign_opIffEEEEvRT_RKT0_RKT1_, symObjAddr: 0x184C50, symBinAddr: 0x100187514, symSize: 0x3C }
  - { offsetInCU: 0x5092D, offset: 0x5092D, size: 0x8, addend: 0x0, symName: __ZN5Eigen8internal15call_assignmentINS_6MatrixIfLi24ELi24ELi0ELi24ELi24EEENS_14CwiseNullaryOpINS0_18scalar_constant_opIfEES3_EEEEvRT_RKT0_, symObjAddr: 0x18AE88, symBinAddr: 0x10018D74C, symSize: 0x1F8 }
  - { offsetInCU: 0x5097A, offset: 0x5097A, size: 0x8, addend: 0x0, symName: __ZN5Eigen8internal15call_assignmentINS_6MatrixIfLi24ELi24ELi0ELi24ELi24EEENS_14CwiseNullaryOpINS0_18scalar_constant_opIfEES3_EENS0_9assign_opIffEEEEvRT_RKT0_RKT1_NS0_9enable_ifIXntsr25evaluator_assume_aliasingISC_EE5valueEPvE4typeE, symObjAddr: 0x18B094, symBinAddr: 0x10018D958, symSize: 0x38 }
  - { offsetInCU: 0x509E8, offset: 0x509E8, size: 0x8, addend: 0x0, symName: __ZN5Eigen8internal24call_assignment_no_aliasINS_6MatrixIfLi24ELi24ELi0ELi24ELi24EEENS_14CwiseNullaryOpINS0_18scalar_constant_opIfEES3_EENS0_9assign_opIffEEEEvRT_RKT0_RKT1_, symObjAddr: 0x18B0CC, symBinAddr: 0x10018D990, symSize: 0x3C }
  - { offsetInCU: 0x50AB6, offset: 0x50AB6, size: 0x8, addend: 0x0, symName: __ZN5Eigen8internal18check_for_aliasingINS_6MatrixIfLi24ELi24ELi0ELi24ELi24EEENS_14CwiseNullaryOpINS0_18scalar_constant_opIfEES3_EEEEvRKT_RKT0_, symObjAddr: 0x18B148, symBinAddr: 0x10018DA0C, symSize: 0x60 }
  - { offsetInCU: 0x50B01, offset: 0x50B01, size: 0x8, addend: 0x0, symName: __ZN5Eigen8internal26call_dense_assignment_loopINS_6MatrixIfLi24ELi24ELi0ELi24ELi24EEEEEvRT_RKNS_14CwiseNullaryOpINS0_18scalar_constant_opINS4_6ScalarEEES4_EERKNS0_9assign_opIS8_S8_EE, symObjAddr: 0x18B1A8, symBinAddr: 0x10018DA6C, symSize: 0x280 }
  - { offsetInCU: 0x50B93, offset: 0x50B93, size: 0x8, addend: 0x0, symName: __ZN5Eigen8internal17resize_if_allowedINS_6MatrixIfLi24ELi24ELi0ELi24ELi24EEENS_14CwiseNullaryOpINS0_18scalar_constant_opIfEES3_EEffEEvRT_RKT0_RKNS0_9assign_opIT1_T2_EE, symObjAddr: 0x18B43C, symBinAddr: 0x10018DD00, symSize: 0xFC }
  - { offsetInCU: 0x50C19, offset: 0x50C19, size: 0x8, addend: 0x0, symName: __ZN5Eigen8internal15call_assignmentINS_8DiagonalINS_6MatrixIfLi24ELi24ELi0ELi24ELi24EEELi0EEENS_14CwiseNullaryOpINS0_18scalar_constant_opIfEENS3_IfLi24ELi1ELi0ELi24ELi1EEEEEEEvRT_RKT0_, symObjAddr: 0x18C4EC, symBinAddr: 0x10018EDB0, symSize: 0x1F8 }
  - { offsetInCU: 0x50C66, offset: 0x50C66, size: 0x8, addend: 0x0, symName: __ZN5Eigen8internal15call_assignmentINS_8DiagonalINS_6MatrixIfLi24ELi24ELi0ELi24ELi24EEELi0EEENS_14CwiseNullaryOpINS0_18scalar_constant_opIfEENS3_IfLi24ELi1ELi0ELi24ELi1EEEEENS0_9assign_opIffEEEEvRT_RKT0_RKT1_NS0_9enable_ifIXntsr25evaluator_assume_aliasingISF_EE5valueEPvE4typeE, symObjAddr: 0x18C6E4, symBinAddr: 0x10018EFA8, symSize: 0x38 }
  - { offsetInCU: 0x50CD4, offset: 0x50CD4, size: 0x8, addend: 0x0, symName: __ZN5Eigen8internal24call_assignment_no_aliasINS_8DiagonalINS_6MatrixIfLi24ELi24ELi0ELi24ELi24EEELi0EEENS_14CwiseNullaryOpINS0_18scalar_constant_opIfEENS3_IfLi24ELi1ELi0ELi24ELi1EEEEENS0_9assign_opIffEEEEvRT_RKT0_RKT1_, symObjAddr: 0x18C71C, symBinAddr: 0x10018EFE0, symSize: 0x3C }
  - { offsetInCU: 0x50DA2, offset: 0x50DA2, size: 0x8, addend: 0x0, symName: __ZN5Eigen8internal18check_for_aliasingINS_8DiagonalINS_6MatrixIfLi24ELi24ELi0ELi24ELi24EEELi0EEENS_14CwiseNullaryOpINS0_18scalar_constant_opIfEENS3_IfLi24ELi1ELi0ELi24ELi1EEEEEEEvRKT_RKT0_, symObjAddr: 0x18C798, symBinAddr: 0x10018F05C, symSize: 0x14 }
  - { offsetInCU: 0x50DED, offset: 0x50DED, size: 0x8, addend: 0x0, symName: __ZN5Eigen8internal26call_dense_assignment_loopINS_8DiagonalINS_6MatrixIfLi24ELi24ELi0ELi24ELi24EEELi0EEENS_14CwiseNullaryOpINS0_18scalar_constant_opIfEENS3_IfLi24ELi1ELi0ELi24ELi1EEEEENS0_9assign_opIffEEEEvRT_RKT0_RKT1_, symObjAddr: 0x18C7AC, symBinAddr: 0x10018F070, symSize: 0x3F0 }
  - { offsetInCU: 0x50EB0, offset: 0x50EB0, size: 0x8, addend: 0x0, symName: __ZN5Eigen8internal17resize_if_allowedINS_8DiagonalINS_6MatrixIfLi24ELi24ELi0ELi24ELi24EEELi0EEENS_14CwiseNullaryOpINS0_18scalar_constant_opIfEENS3_IfLi24ELi1ELi0ELi24ELi1EEEEEffEEvRT_RKT0_RKNS0_9assign_opIT1_T2_EE, symObjAddr: 0x18CB9C, symBinAddr: 0x10018F460, symSize: 0xFC }
  - { offsetInCU: 0x518C9, offset: 0x518C9, size: 0x8, addend: 0x0, symName: __ZN5Eigen8internal24call_assignment_no_aliasINS_5BlockINS_6MatrixIfLin1ELi1ELi0ELin1ELi1EEELin1ELin1ELb0EEENS_7ProductINS_14TriangularViewIKNS2_INS3_IfLin1ELin1ELi0ELin1ELin1EEELin1ELin1ELb0EEELj5EEENS3_IfLin1ELin1ELi0ELin1ELi1EEELi0EEENS0_13sub_assign_opIffEEEEvRT_RKT0_RKT1_, symObjAddr: 0x18DF7C, symBinAddr: 0x100190840, symSize: 0x3C }
  - { offsetInCU: 0x51A96, offset: 0x51A96, size: 0x8, addend: 0x0, symName: __ZN5Eigen8internal15call_assignmentINS_5BlockINS2_INS_6MatrixIfLin1ELi1ELi0ELin1ELi1EEELin1ELin1ELb0EEELin1ELin1ELb0EEENS2_IKNS_13CwiseBinaryOpINS0_17scalar_product_opIffEEKNS_14CwiseNullaryOpINS0_18scalar_constant_opIfEEKNS3_IfLin1ELin1ELi0ELin1ELi1EEEEESE_EELin1ELin1ELb0EEENS0_13sub_assign_opIffEEEEvRT_RKT0_RKT1_NS0_9enable_ifIXntsr25evaluator_assume_aliasingISO_EE5valueEPvE4typeE, symObjAddr: 0x1936A8, symBinAddr: 0x100195F6C, symSize: 0x38 }
  - { offsetInCU: 0x51B04, offset: 0x51B04, size: 0x8, addend: 0x0, symName: __ZN5Eigen8internal24call_assignment_no_aliasINS_5BlockINS2_INS_6MatrixIfLin1ELi1ELi0ELin1ELi1EEELin1ELin1ELb0EEELin1ELin1ELb0EEENS2_IKNS_13CwiseBinaryOpINS0_17scalar_product_opIffEEKNS_14CwiseNullaryOpINS0_18scalar_constant_opIfEEKNS3_IfLin1ELin1ELi0ELin1ELi1EEEEESE_EELin1ELin1ELb0EEENS0_13sub_assign_opIffEEEEvRT_RKT0_RKT1_, symObjAddr: 0x193708, symBinAddr: 0x100195FCC, symSize: 0x3C }
  - { offsetInCU: 0x51BD2, offset: 0x51BD2, size: 0x8, addend: 0x0, symName: __ZN5Eigen8internal18check_for_aliasingINS_5BlockINS2_INS_6MatrixIfLin1ELi1ELi0ELin1ELi1EEELin1ELin1ELb0EEELin1ELin1ELb0EEENS2_IKNS_13CwiseBinaryOpINS0_17scalar_product_opIffEEKNS_14CwiseNullaryOpINS0_18scalar_constant_opIfEEKNS3_IfLin1ELin1ELi0ELin1ELi1EEEEESE_EELin1ELin1ELb0EEEEEvRKT_RKT0_, symObjAddr: 0x193784, symBinAddr: 0x100196048, symSize: 0x60 }
  - { offsetInCU: 0x51C1D, offset: 0x51C1D, size: 0x8, addend: 0x0, symName: __ZN5Eigen8internal26call_dense_assignment_loopINS_5BlockINS2_INS_6MatrixIfLin1ELi1ELi0ELin1ELi1EEELin1ELin1ELb0EEELin1ELin1ELb0EEENS2_IKNS_13CwiseBinaryOpINS0_17scalar_product_opIffEEKNS_14CwiseNullaryOpINS0_18scalar_constant_opIfEEKNS3_IfLin1ELin1ELi0ELin1ELi1EEEEESE_EELin1ELin1ELb0EEENS0_13sub_assign_opIffEEEEvRT_RKT0_RKT1_, symObjAddr: 0x1937E4, symBinAddr: 0x1001960A8, symSize: 0x490 }
  - { offsetInCU: 0x51D20, offset: 0x51D20, size: 0x8, addend: 0x0, symName: __ZN5Eigen8internal17resize_if_allowedINS_5BlockINS2_INS_6MatrixIfLin1ELi1ELi0ELin1ELi1EEELin1ELin1ELb0EEELin1ELin1ELb0EEENS2_IKNS_13CwiseBinaryOpINS0_17scalar_product_opIffEEKNS_14CwiseNullaryOpINS0_18scalar_constant_opIfEEKNS3_IfLin1ELin1ELi0ELin1ELi1EEEEESE_EELin1ELin1ELb0EEENS0_13sub_assign_opIffEEEEvRT_RKT0_RKT1_, symObjAddr: 0x193D0C, symBinAddr: 0x1001965D0, symSize: 0xB8 }
  - { offsetInCU: 0x51DB9, offset: 0x51DB9, size: 0x8, addend: 0x0, symName: __ZN5Eigen8internal15call_assignmentINS_5BlockINS_6MatrixIfLin1ELi1ELi0ELin1ELi1EEELin1ELin1ELb0EEENS_14CwiseNullaryOpINS0_18scalar_constant_opIfEENS3_IfLin1ELin1ELi0ELin1ELi1EEEEENS0_13mul_assign_opIffEEEEvRT_RKT0_RKT1_NS0_9enable_ifIXntsr25evaluator_assume_aliasingISF_EE5valueEPvE4typeE, symObjAddr: 0x197AD8, symBinAddr: 0x10019A39C, symSize: 0x38 }
  - { offsetInCU: 0x51E27, offset: 0x51E27, size: 0x8, addend: 0x0, symName: __ZN5Eigen8internal24call_assignment_no_aliasINS_5BlockINS_6MatrixIfLin1ELi1ELi0ELin1ELi1EEELin1ELin1ELb0EEENS_14CwiseNullaryOpINS0_18scalar_constant_opIfEENS3_IfLin1ELin1ELi0ELin1ELi1EEEEENS0_13mul_assign_opIffEEEEvRT_RKT0_RKT1_, symObjAddr: 0x197B10, symBinAddr: 0x10019A3D4, symSize: 0x3C }
  - { offsetInCU: 0x51EF5, offset: 0x51EF5, size: 0x8, addend: 0x0, symName: __ZN5Eigen8internal18check_for_aliasingINS_5BlockINS_6MatrixIfLin1ELi1ELi0ELin1ELi1EEELin1ELin1ELb0EEENS_14CwiseNullaryOpINS0_18scalar_constant_opIfEENS3_IfLin1ELin1ELi0ELin1ELi1EEEEEEEvRKT_RKT0_, symObjAddr: 0x197B8C, symBinAddr: 0x10019A450, symSize: 0x60 }
  - { offsetInCU: 0x51F40, offset: 0x51F40, size: 0x8, addend: 0x0, symName: __ZN5Eigen8internal26call_dense_assignment_loopINS_5BlockINS_6MatrixIfLin1ELi1ELi0ELin1ELi1EEELin1ELin1ELb0EEENS_14CwiseNullaryOpINS0_18scalar_constant_opIfEENS3_IfLin1ELin1ELi0ELin1ELi1EEEEENS0_13mul_assign_opIffEEEEvRT_RKT0_RKT1_, symObjAddr: 0x197BEC, symBinAddr: 0x10019A4B0, symSize: 0x424 }
  - { offsetInCU: 0x52042, offset: 0x52042, size: 0x8, addend: 0x0, symName: __ZN5Eigen8internal17resize_if_allowedINS_5BlockINS_6MatrixIfLin1ELi1ELi0ELin1ELi1EEELin1ELin1ELb0EEENS_14CwiseNullaryOpINS0_18scalar_constant_opIfEENS3_IfLin1ELin1ELi0ELin1ELi1EEEEENS0_13mul_assign_opIffEEEEvRT_RKT0_RKT1_, symObjAddr: 0x198058, symBinAddr: 0x10019A91C, symSize: 0xB8 }
  - { offsetInCU: 0x520DB, offset: 0x520DB, size: 0x8, addend: 0x0, symName: __ZN5Eigen8internal24call_assignment_no_aliasINS_3MapINS_6MatrixIfLi1ELin1ELi1ELi1ELi1EEELi0ENS_6StrideILi0ELi0EEEEENS_7ProductINS_9TransposeIKNS_5BlockIKNS3_IfLin1ELin1ELi0ELin1ELin1EEELin1ELi1ELb0EEEEENSA_INSA_INS3_IfLin1ELi1ELi0ELin1ELi1EEELin1ELin1ELb0EEELin1ELin1ELb0EEELi0EEENS0_9assign_opIffEEEEvRT_RKT0_RKT1_, symObjAddr: 0x199B14, symBinAddr: 0x10019C3D8, symSize: 0x3C }
  - { offsetInCU: 0x52210, offset: 0x52210, size: 0x8, addend: 0x0, symName: __ZN5Eigen8internal24call_assignment_no_aliasINS_3MapINS_6MatrixIfLi1ELin1ELi1ELi1ELi1EEELi0ENS_6StrideILi0ELi0EEEEENS_7ProductINS_9TransposeIKNS_5BlockIKNS3_IfLin1ELin1ELi0ELin1ELin1EEELin1ELi1ELb0EEEEENSA_INSA_INS3_IfLin1ELi1ELi0ELin1ELi1EEELin1ELin1ELb0EEELin1ELin1ELb0EEELi1EEENS0_9assign_opIffEEEEvRT_RKT0_RKT1_, symObjAddr: 0x19A0F4, symBinAddr: 0x10019C9B8, symSize: 0x3C }
  - { offsetInCU: 0x524EA, offset: 0x524EA, size: 0x8, addend: 0x0, symName: __ZN5Eigen8internal18check_for_aliasingINS_3MapINS_6MatrixIfLi1ELin1ELi1ELi1ELi1EEELi0ENS_6StrideILi0ELi0EEEEENS_7ProductINS_9TransposeIKNS_5BlockIKNS3_IfLin1ELin1ELi0ELin1ELin1EEELin1ELi1ELb0EEEEENSA_INSA_INS3_IfLin1ELi1ELi0ELin1ELi1EEELin1ELin1ELb0EEELin1ELin1ELb0EEELi1EEEEEvRKT_RKT0_, symObjAddr: 0x19A1B8, symBinAddr: 0x10019CA7C, symSize: 0x14 }
  - { offsetInCU: 0x52535, offset: 0x52535, size: 0x8, addend: 0x0, symName: __ZN5Eigen8internal26call_dense_assignment_loopINS_3MapINS_6MatrixIfLi1ELin1ELi1ELi1ELi1EEELi0ENS_6StrideILi0ELi0EEEEENS_7ProductINS_9TransposeIKNS_5BlockIKNS3_IfLin1ELin1ELi0ELin1ELin1EEELin1ELi1ELb0EEEEENSA_INSA_INS3_IfLin1ELi1ELi0ELin1ELi1EEELin1ELin1ELb0EEELin1ELin1ELb0EEELi1EEENS0_9assign_opIffEEEEvRT_RKT0_RKT1_, symObjAddr: 0x19A1CC, symBinAddr: 0x10019CA90, symSize: 0x4D0 }
  - { offsetInCU: 0x5296C, offset: 0x5296C, size: 0x8, addend: 0x0, symName: __ZN5Eigen8internal17resize_if_allowedINS_3MapINS_6MatrixIfLi1ELin1ELi1ELi1ELi1EEELi0ENS_6StrideILi0ELi0EEEEENS_7ProductINS_9TransposeIKNS_5BlockIKNS3_IfLin1ELin1ELi0ELin1ELin1EEELin1ELi1ELb0EEEEENSA_INSA_INS3_IfLin1ELi1ELi0ELin1ELi1EEELin1ELin1ELb0EEELin1ELin1ELb0EEELi1EEEffEEvRT_RKT0_RKNS0_9assign_opIT1_T2_EE, symObjAddr: 0x19A6D0, symBinAddr: 0x10019CF94, symSize: 0xFC }
  - { offsetInCU: 0x532D9, offset: 0x532D9, size: 0x8, addend: 0x0, symName: __ZN5Eigen8internalL21first_default_alignedINS_13CwiseBinaryOpINS0_17scalar_product_opIffEEKNS_9TransposeIKNS_5BlockIKNS5_IKNS6_IKNS_6MatrixIfLin1ELin1ELi0ELin1ELin1EEELin1ELi1ELb0EEEEELi1ELin1ELb1EEEEEKNS6_IKNS6_INS6_INS7_IfLin1ELi1ELi0ELin1ELi1EEELin1ELin1ELb0EEELin1ELin1ELb0EEELin1ELi1ELb1EEEEEEElRKNS_9DenseBaseIT_EE, symObjAddr: 0x19EE24, symBinAddr: 0x1001A16E8, symSize: 0x24 }
  - { offsetInCU: 0x53310, offset: 0x53310, size: 0x8, addend: 0x0, symName: __ZN5Eigen8internalL13first_alignedILi16ENS_13CwiseBinaryOpINS0_17scalar_product_opIffEEKNS_9TransposeIKNS_5BlockIKNS5_IKNS6_IKNS_6MatrixIfLin1ELin1ELi0ELin1ELin1EEELin1ELi1ELb0EEEEELi1ELin1ELb1EEEEEKNS6_IKNS6_INS6_INS7_IfLin1ELi1ELi0ELin1ELi1EEELin1ELin1ELb0EEELin1ELin1ELb0EEELin1ELi1ELb1EEEEEEElRKNS_9DenseBaseIT0_EE, symObjAddr: 0x19F428, symBinAddr: 0x1001A1CEC, symSize: 0x28 }
  - { offsetInCU: 0x5338F, offset: 0x5338F, size: 0x8, addend: 0x0, symName: __ZN5Eigen8internal15call_assignmentINS_3MapINS_6MatrixIfLi1ELin1ELi1ELi1ELi1EEELi0ENS_6StrideILi0ELi0EEEEENS_5BlockINS8_INS3_IfLin1ELi1ELi0ELin1ELi1EEELin1ELin1ELb0EEELi1ELin1ELb0EEENS0_13add_assign_opIffEEEEvRT_RKT0_RKT1_NS0_9enable_ifIXntsr25evaluator_assume_aliasingISG_EE5valueEPvE4typeE, symObjAddr: 0x1A0064, symBinAddr: 0x1001A2928, symSize: 0x38 }
  - { offsetInCU: 0x533FD, offset: 0x533FD, size: 0x8, addend: 0x0, symName: __ZN5Eigen8internal24call_assignment_no_aliasINS_3MapINS_6MatrixIfLi1ELin1ELi1ELi1ELi1EEELi0ENS_6StrideILi0ELi0EEEEENS_5BlockINS8_INS3_IfLin1ELi1ELi0ELin1ELi1EEELin1ELin1ELb0EEELi1ELin1ELb0EEENS0_13add_assign_opIffEEEEvRT_RKT0_RKT1_, symObjAddr: 0x1A00B0, symBinAddr: 0x1001A2974, symSize: 0x3C }
  - { offsetInCU: 0x534CB, offset: 0x534CB, size: 0x8, addend: 0x0, symName: __ZN5Eigen8internal18check_for_aliasingINS_3MapINS_6MatrixIfLi1ELin1ELi1ELi1ELi1EEELi0ENS_6StrideILi0ELi0EEEEENS_5BlockINS8_INS3_IfLin1ELi1ELi0ELin1ELi1EEELin1ELin1ELb0EEELi1ELin1ELb0EEEEEvRKT_RKT0_, symObjAddr: 0x1A012C, symBinAddr: 0x1001A29F0, symSize: 0x14 }
  - { offsetInCU: 0x53516, offset: 0x53516, size: 0x8, addend: 0x0, symName: __ZN5Eigen8internal26call_dense_assignment_loopINS_3MapINS_6MatrixIfLi1ELin1ELi1ELi1ELi1EEELi0ENS_6StrideILi0ELi0EEEEENS_5BlockINS8_INS3_IfLin1ELi1ELi0ELin1ELi1EEELin1ELin1ELb0EEELi1ELin1ELb0EEENS0_13add_assign_opIffEEEEvRT_RKT0_RKT1_, symObjAddr: 0x1A0140, symBinAddr: 0x1001A2A04, symSize: 0x45C }
  - { offsetInCU: 0x53696, offset: 0x53696, size: 0x8, addend: 0x0, symName: __ZN5Eigen8internal17resize_if_allowedINS_3MapINS_6MatrixIfLi1ELin1ELi1ELi1ELi1EEELi0ENS_6StrideILi0ELi0EEEEENS_5BlockINS8_INS3_IfLin1ELi1ELi0ELin1ELi1EEELin1ELin1ELb0EEELi1ELin1ELb0EEENS0_13add_assign_opIffEEEEvRT_RKT0_RKT1_, symObjAddr: 0x1A05D0, symBinAddr: 0x1001A2E94, symSize: 0xB8 }
  - { offsetInCU: 0x53947, offset: 0x53947, size: 0x8, addend: 0x0, symName: __ZN5Eigen8internal15call_assignmentINS_5BlockINS2_INS_6MatrixIfLin1ELi1ELi0ELin1ELi1EEELin1ELin1ELb0EEELi1ELin1ELb0EEENS_13CwiseBinaryOpINS0_17scalar_product_opIffEEKNS_14CwiseNullaryOpINS0_18scalar_constant_opIfEEKNS3_IfLi1ELin1ELi1ELi1ELi1EEEEEKNS_3MapISD_Li0ENS_6StrideILi0ELi0EEEEEEENS0_13sub_assign_opIffEEEEvRT_RKT0_RKT1_NS0_9enable_ifIXntsr25evaluator_assume_aliasingISR_EE5valueEPvE4typeE, symObjAddr: 0x1A149C, symBinAddr: 0x1001A3D60, symSize: 0x38 }
  - { offsetInCU: 0x539B5, offset: 0x539B5, size: 0x8, addend: 0x0, symName: __ZN5Eigen8internal24call_assignment_no_aliasINS_5BlockINS2_INS_6MatrixIfLin1ELi1ELi0ELin1ELi1EEELin1ELin1ELb0EEELi1ELin1ELb0EEENS_13CwiseBinaryOpINS0_17scalar_product_opIffEEKNS_14CwiseNullaryOpINS0_18scalar_constant_opIfEEKNS3_IfLi1ELin1ELi1ELi1ELi1EEEEEKNS_3MapISD_Li0ENS_6StrideILi0ELi0EEEEEEENS0_13sub_assign_opIffEEEEvRT_RKT0_RKT1_, symObjAddr: 0x1A14FC, symBinAddr: 0x1001A3DC0, symSize: 0x3C }
  - { offsetInCU: 0x53A83, offset: 0x53A83, size: 0x8, addend: 0x0, symName: __ZN5Eigen8internal18check_for_aliasingINS_5BlockINS2_INS_6MatrixIfLin1ELi1ELi0ELin1ELi1EEELin1ELin1ELb0EEELi1ELin1ELb0EEENS_13CwiseBinaryOpINS0_17scalar_product_opIffEEKNS_14CwiseNullaryOpINS0_18scalar_constant_opIfEEKNS3_IfLi1ELin1ELi1ELi1ELi1EEEEEKNS_3MapISD_Li0ENS_6StrideILi0ELi0EEEEEEEEEvRKT_RKT0_, symObjAddr: 0x1A1578, symBinAddr: 0x1001A3E3C, symSize: 0x14 }
  - { offsetInCU: 0x53ACE, offset: 0x53ACE, size: 0x8, addend: 0x0, symName: __ZN5Eigen8internal26call_dense_assignment_loopINS_5BlockINS2_INS_6MatrixIfLin1ELi1ELi0ELin1ELi1EEELin1ELin1ELb0EEELi1ELin1ELb0EEENS_13CwiseBinaryOpINS0_17scalar_product_opIffEEKNS_14CwiseNullaryOpINS0_18scalar_constant_opIfEEKNS3_IfLi1ELin1ELi1ELi1ELi1EEEEEKNS_3MapISD_Li0ENS_6StrideILi0ELi0EEEEEEENS0_13sub_assign_opIffEEEEvRT_RKT0_RKT1_, symObjAddr: 0x1A158C, symBinAddr: 0x1001A3E50, symSize: 0x468 }
  - { offsetInCU: 0x53EB1, offset: 0x53EB1, size: 0x8, addend: 0x0, symName: __ZN5Eigen8internal17resize_if_allowedINS_5BlockINS2_INS_6MatrixIfLin1ELi1ELi0ELin1ELi1EEELin1ELin1ELb0EEELi1ELin1ELb0EEENS_13CwiseBinaryOpINS0_17scalar_product_opIffEEKNS_14CwiseNullaryOpINS0_18scalar_constant_opIfEEKNS3_IfLi1ELin1ELi1ELi1ELi1EEEEEKNS_3MapISD_Li0ENS_6StrideILi0ELi0EEEEEEENS0_13sub_assign_opIffEEEEvRT_RKT0_RKT1_, symObjAddr: 0x1A1A28, symBinAddr: 0x1001A42EC, symSize: 0xB8 }
  - { offsetInCU: 0x54162, offset: 0x54162, size: 0x8, addend: 0x0, symName: __ZN5Eigen8internal24call_assignment_no_aliasINS_5BlockINS2_INS_6MatrixIfLin1ELi1ELi0ELin1ELi1EEELin1ELin1ELb0EEELin1ELin1ELb0EEENS_7ProductINS_13CwiseBinaryOpINS0_17scalar_product_opIffEEKNS_14CwiseNullaryOpINS0_18scalar_constant_opIfEEKS4_EEKNS2_IKNS3_IfLin1ELin1ELi0ELin1ELin1EEELin1ELi1ELb0EEEEENS_3MapINS3_IfLi1ELin1ELi1ELi1ELi1EEELi0ENS_6StrideILi0ELi0EEEEELi0EEENS0_13sub_assign_opIffEEEEvRT_RKT0_RKT1_, symObjAddr: 0x1A3160, symBinAddr: 0x1001A5A24, symSize: 0x3C }
  - { offsetInCU: 0x54297, offset: 0x54297, size: 0x8, addend: 0x0, symName: __ZN5Eigen8internal24call_assignment_no_aliasINS_5BlockINS2_INS_6MatrixIfLin1ELi1ELi0ELin1ELi1EEELin1ELin1ELb0EEELin1ELin1ELb0EEENS_7ProductINS_13CwiseBinaryOpINS0_17scalar_product_opIffEEKNS_14CwiseNullaryOpINS0_18scalar_constant_opIfEEKS4_EEKNS2_IKNS3_IfLin1ELin1ELi0ELin1ELin1EEELin1ELi1ELb0EEEEENS_3MapINS3_IfLi1ELin1ELi1ELi1ELi1EEELi0ENS_6StrideILi0ELi0EEEEELi1EEENS0_13sub_assign_opIffEEEEvRT_RKT0_RKT1_, symObjAddr: 0x1A35FC, symBinAddr: 0x1001A5EC0, symSize: 0x3C }
  - { offsetInCU: 0x54365, offset: 0x54365, size: 0x8, addend: 0x0, symName: __ZN5Eigen8internal18check_for_aliasingINS_5BlockINS2_INS_6MatrixIfLin1ELi1ELi0ELin1ELi1EEELin1ELin1ELb0EEELin1ELin1ELb0EEENS_7ProductINS_13CwiseBinaryOpINS0_17scalar_product_opIffEEKNS_14CwiseNullaryOpINS0_18scalar_constant_opIfEEKS4_EEKNS2_IKNS3_IfLin1ELin1ELi0ELin1ELin1EEELin1ELi1ELb0EEEEENS_3MapINS3_IfLi1ELin1ELi1ELi1ELi1EEELi0ENS_6StrideILi0ELi0EEEEELi1EEEEEvRKT_RKT0_, symObjAddr: 0x1A36C4, symBinAddr: 0x1001A5F88, symSize: 0x60 }
  - { offsetInCU: 0x543B0, offset: 0x543B0, size: 0x8, addend: 0x0, symName: __ZN5Eigen8internal26call_dense_assignment_loopINS_5BlockINS2_INS_6MatrixIfLin1ELi1ELi0ELin1ELi1EEELin1ELin1ELb0EEELin1ELin1ELb0EEENS_7ProductINS_13CwiseBinaryOpINS0_17scalar_product_opIffEEKNS_14CwiseNullaryOpINS0_18scalar_constant_opIfEEKS4_EEKNS2_IKNS3_IfLin1ELin1ELi0ELin1ELin1EEELin1ELi1ELb0EEEEENS_3MapINS3_IfLi1ELin1ELi1ELi1ELi1EEELi0ENS_6StrideILi0ELi0EEEEELi1EEENS0_13sub_assign_opIffEEEEvRT_RKT0_RKT1_, symObjAddr: 0x1A3724, symBinAddr: 0x1001A5FE8, symSize: 0x458 }
  - { offsetInCU: 0x544B3, offset: 0x544B3, size: 0x8, addend: 0x0, symName: __ZN5Eigen8internal17resize_if_allowedINS_5BlockINS2_INS_6MatrixIfLin1ELi1ELi0ELin1ELi1EEELin1ELin1ELb0EEELin1ELin1ELb0EEENS_7ProductINS_13CwiseBinaryOpINS0_17scalar_product_opIffEEKNS_14CwiseNullaryOpINS0_18scalar_constant_opIfEEKS4_EEKNS2_IKNS3_IfLin1ELin1ELi0ELin1ELin1EEELin1ELi1ELb0EEEEENS_3MapINS3_IfLi1ELin1ELi1ELi1ELi1EEELi0ENS_6StrideILi0ELi0EEEEELi1EEENS0_13sub_assign_opIffEEEEvRT_RKT0_RKT1_, symObjAddr: 0x1A3BC4, symBinAddr: 0x1001A6488, symSize: 0xB8 }
  - { offsetInCU: 0x54512, offset: 0x54512, size: 0x8, addend: 0x0, symName: __ZN5Eigen8internal24call_assignment_no_aliasINS_6MatrixIfLin1ELi1ELi0ELin1ELi1EEENS_13CwiseBinaryOpINS0_17scalar_product_opIffEEKNS_14CwiseNullaryOpINS0_18scalar_constant_opIfEEKS3_EEKNS_5BlockIKNS2_IfLin1ELin1ELi0ELin1ELin1EEELin1ELi1ELb0EEEEENS0_9assign_opIffEEEEvRT_RKT0_RKT1_, symObjAddr: 0x1A479C, symBinAddr: 0x1001A7060, symSize: 0x3C }
  - { offsetInCU: 0x545E0, offset: 0x545E0, size: 0x8, addend: 0x0, symName: __ZN5Eigen8internal18check_for_aliasingINS_6MatrixIfLin1ELi1ELi0ELin1ELi1EEENS_13CwiseBinaryOpINS0_17scalar_product_opIffEEKNS_14CwiseNullaryOpINS0_18scalar_constant_opIfEEKS3_EEKNS_5BlockIKNS2_IfLin1ELin1ELi0ELin1ELin1EEELin1ELi1ELb0EEEEEEEvRKT_RKT0_, symObjAddr: 0x1A4818, symBinAddr: 0x1001A70DC, symSize: 0x14 }
  - { offsetInCU: 0x5462B, offset: 0x5462B, size: 0x8, addend: 0x0, symName: __ZN5Eigen8internal26call_dense_assignment_loopINS_6MatrixIfLin1ELi1ELi0ELin1ELi1EEENS_13CwiseBinaryOpINS0_17scalar_product_opIffEEKNS_14CwiseNullaryOpINS0_18scalar_constant_opIfEEKS3_EEKNS_5BlockIKNS2_IfLin1ELin1ELi0ELin1ELin1EEELin1ELi1ELb0EEEEENS0_9assign_opIffEEEEvRT_RKT0_RKT1_, symObjAddr: 0x1A482C, symBinAddr: 0x1001A70F0, symSize: 0x440 }
  - { offsetInCU: 0x546EF, offset: 0x546EF, size: 0x8, addend: 0x0, symName: __ZN5Eigen8internal17resize_if_allowedINS_6MatrixIfLin1ELi1ELi0ELin1ELi1EEENS_13CwiseBinaryOpINS0_17scalar_product_opIffEEKNS_14CwiseNullaryOpINS0_18scalar_constant_opIfEEKS3_EEKNS_5BlockIKNS2_IfLin1ELin1ELi0ELin1ELin1EEELin1ELi1ELb0EEEEEffEEvRT_RKT0_RKNS0_9assign_opIT1_T2_EE, symObjAddr: 0x1A4CA0, symBinAddr: 0x1001A7564, symSize: 0xFC }
  - { offsetInCU: 0x54884, offset: 0x54884, size: 0x8, addend: 0x0, symName: __ZN5Eigen8internal15call_assignmentINS_6MatrixIfLin1ELi1ELi0ELin1ELi1EEENS_5BlockIS3_Lin1ELi1ELb0EEEEEvRT_RKT0_, symObjAddr: 0x1AB724, symBinAddr: 0x1001ADFE8, symSize: 0x1F8 }
  - { offsetInCU: 0x548D1, offset: 0x548D1, size: 0x8, addend: 0x0, symName: __ZN5Eigen8internal15call_assignmentINS_6MatrixIfLin1ELi1ELi0ELin1ELi1EEENS_5BlockIS3_Lin1ELi1ELb0EEENS0_9assign_opIffEEEEvRT_RKT0_RKT1_NS0_9enable_ifIXntsr25evaluator_assume_aliasingISA_EE5valueEPvE4typeE, symObjAddr: 0x1AB930, symBinAddr: 0x1001AE1F4, symSize: 0x38 }
  - { offsetInCU: 0x5493F, offset: 0x5493F, size: 0x8, addend: 0x0, symName: __ZN5Eigen8internal24call_assignment_no_aliasINS_6MatrixIfLin1ELi1ELi0ELin1ELi1EEENS_5BlockIS3_Lin1ELi1ELb0EEENS0_9assign_opIffEEEEvRT_RKT0_RKT1_, symObjAddr: 0x1AB968, symBinAddr: 0x1001AE22C, symSize: 0x3C }
  - { offsetInCU: 0x54A0D, offset: 0x54A0D, size: 0x8, addend: 0x0, symName: __ZN5Eigen8internal18check_for_aliasingINS_6MatrixIfLin1ELi1ELi0ELin1ELi1EEENS_5BlockIS3_Lin1ELi1ELb0EEEEEvRKT_RKT0_, symObjAddr: 0x1AB9E4, symBinAddr: 0x1001AE2A8, symSize: 0x14 }
  - { offsetInCU: 0x54A58, offset: 0x54A58, size: 0x8, addend: 0x0, symName: __ZN5Eigen8internal26call_dense_assignment_loopINS_6MatrixIfLin1ELi1ELi0ELin1ELi1EEENS_5BlockIS3_Lin1ELi1ELb0EEENS0_9assign_opIffEEEEvRT_RKT0_RKT1_, symObjAddr: 0x1AB9F8, symBinAddr: 0x1001AE2BC, symSize: 0x41C }
  - { offsetInCU: 0x54B1C, offset: 0x54B1C, size: 0x8, addend: 0x0, symName: __ZN5Eigen8internal17resize_if_allowedINS_6MatrixIfLin1ELi1ELi0ELin1ELi1EEENS_5BlockIS3_Lin1ELi1ELb0EEEffEEvRT_RKT0_RKNS0_9assign_opIT1_T2_EE, symObjAddr: 0x1ABE48, symBinAddr: 0x1001AE70C, symSize: 0xFC }
  - { offsetInCU: 0x5512C, offset: 0x5512C, size: 0x8, addend: 0x0, symName: __ZN5Eigen8internalL21first_default_alignedINS_13CwiseBinaryOpINS0_22scalar_conj_product_opIffEEKNS_5BlockINS5_INS_6MatrixIfLin1ELin1ELi0ELin1ELin1EEELin1ELi1ELb1EEELin1ELi1ELb0EEEKNS2_INS0_18scalar_quotient_opIffEEKNS5_INS6_IfLin1ELi1ELi0ELin1ELi1EEELin1ELi1ELb0EEEKNS_14CwiseNullaryOpINS0_18scalar_constant_opIfEEKSD_EEEEEEEElRKNS_9DenseBaseIT_EE, symObjAddr: 0x1AF1A8, symBinAddr: 0x1001B1A6C, symSize: 0x24 }
  - { offsetInCU: 0x55163, offset: 0x55163, size: 0x8, addend: 0x0, symName: __ZN5Eigen8internalL13first_alignedILi16ENS_13CwiseBinaryOpINS0_22scalar_conj_product_opIffEEKNS_5BlockINS5_INS_6MatrixIfLin1ELin1ELi0ELin1ELin1EEELin1ELi1ELb1EEELin1ELi1ELb0EEEKNS2_INS0_18scalar_quotient_opIffEEKNS5_INS6_IfLin1ELi1ELi0ELin1ELi1EEELin1ELi1ELb0EEEKNS_14CwiseNullaryOpINS0_18scalar_constant_opIfEEKSD_EEEEEEEElRKNS_9DenseBaseIT0_EE, symObjAddr: 0x1AF728, symBinAddr: 0x1001B1FEC, symSize: 0x28 }
  - { offsetInCU: 0x551E2, offset: 0x551E2, size: 0x8, addend: 0x0, symName: __ZN5Eigen8internal15call_assignmentINS_6MatrixIfLin1ELi1ELi0ELin1ELi1EEENS_13CwiseBinaryOpINS0_13scalar_max_opIffLi0EEEKS3_S7_EEEEvRT_RKT0_, symObjAddr: 0x1B036C, symBinAddr: 0x1001B2C30, symSize: 0x1F8 }
  - { offsetInCU: 0x5522F, offset: 0x5522F, size: 0x8, addend: 0x0, symName: __ZN5Eigen8internal15call_assignmentINS_6MatrixIfLin1ELi1ELi0ELin1ELi1EEENS_13CwiseBinaryOpINS0_13scalar_max_opIffLi0EEEKS3_S7_EENS0_9assign_opIffEEEEvRT_RKT0_RKT1_NS0_9enable_ifIXntsr25evaluator_assume_aliasingISD_EE5valueEPvE4typeE, symObjAddr: 0x1B0578, symBinAddr: 0x1001B2E3C, symSize: 0x38 }
  - { offsetInCU: 0x5529D, offset: 0x5529D, size: 0x8, addend: 0x0, symName: __ZN5Eigen8internal24call_assignment_no_aliasINS_6MatrixIfLin1ELi1ELi0ELin1ELi1EEENS_13CwiseBinaryOpINS0_13scalar_max_opIffLi0EEEKS3_S7_EENS0_9assign_opIffEEEEvRT_RKT0_RKT1_, symObjAddr: 0x1B05B0, symBinAddr: 0x1001B2E74, symSize: 0x3C }
  - { offsetInCU: 0x5536B, offset: 0x5536B, size: 0x8, addend: 0x0, symName: __ZN5Eigen8internal18check_for_aliasingINS_6MatrixIfLin1ELi1ELi0ELin1ELi1EEENS_13CwiseBinaryOpINS0_13scalar_max_opIffLi0EEEKS3_S7_EEEEvRKT_RKT0_, symObjAddr: 0x1B062C, symBinAddr: 0x1001B2EF0, symSize: 0x14 }
  - { offsetInCU: 0x553B6, offset: 0x553B6, size: 0x8, addend: 0x0, symName: __ZN5Eigen8internal26call_dense_assignment_loopINS_6MatrixIfLin1ELi1ELi0ELin1ELi1EEENS_13CwiseBinaryOpINS0_13scalar_max_opIffLi0EEEKS3_S7_EENS0_9assign_opIffEEEEvRT_RKT0_RKT1_, symObjAddr: 0x1B0640, symBinAddr: 0x1001B2F04, symSize: 0x41C }
  - { offsetInCU: 0x5547A, offset: 0x5547A, size: 0x8, addend: 0x0, symName: __ZN5Eigen8internal17resize_if_allowedINS_6MatrixIfLin1ELi1ELi0ELin1ELi1EEENS_13CwiseBinaryOpINS0_13scalar_max_opIffLi0EEEKS3_S7_EEffEEvRT_RKT0_RKNS0_9assign_opIT1_T2_EE, symObjAddr: 0x1B0A90, symBinAddr: 0x1001B3354, symSize: 0xFC }
  - { offsetInCU: 0x55500, offset: 0x55500, size: 0x8, addend: 0x0, symName: __ZN5Eigen8internal6qrsolvIfEEvRNS_6MatrixIT_Lin1ELin1ELi0ELin1ELin1EEERKNS2_IiLin1ELi1ELi0ELin1ELi1EEERKNS2_IS3_Lin1ELi1ELi0ELin1ELi1EEESB_RS9_SC_, symObjAddr: 0x1B32D8, symBinAddr: 0x1001B5B9C, symSize: 0x1E14 }
  - { offsetInCU: 0x55633, offset: 0x55633, size: 0x8, addend: 0x0, symName: __ZN5Eigen8internal15call_assignmentINS_5BlockINS_6MatrixIfLin1ELi1ELi0ELin1ELi1EEELin1ELi1ELb0EEENS_14CwiseNullaryOpINS0_18scalar_constant_opIfEES4_EEEEvRT_RKT0_, symObjAddr: 0x1B5EAC, symBinAddr: 0x1001B8770, symSize: 0x1F8 }
  - { offsetInCU: 0x55680, offset: 0x55680, size: 0x8, addend: 0x0, symName: __ZN5Eigen8internal15call_assignmentINS_5BlockINS_6MatrixIfLin1ELi1ELi0ELin1ELi1EEELin1ELi1ELb0EEENS_14CwiseNullaryOpINS0_18scalar_constant_opIfEES4_EENS0_9assign_opIffEEEEvRT_RKT0_RKT1_NS0_9enable_ifIXntsr25evaluator_assume_aliasingISE_EE5valueEPvE4typeE, symObjAddr: 0x1B60A4, symBinAddr: 0x1001B8968, symSize: 0x38 }
  - { offsetInCU: 0x556EE, offset: 0x556EE, size: 0x8, addend: 0x0, symName: __ZN5Eigen8internal24call_assignment_no_aliasINS_5BlockINS_6MatrixIfLin1ELi1ELi0ELin1ELi1EEELin1ELi1ELb0EEENS_14CwiseNullaryOpINS0_18scalar_constant_opIfEES4_EENS0_9assign_opIffEEEEvRT_RKT0_RKT1_, symObjAddr: 0x1B60DC, symBinAddr: 0x1001B89A0, symSize: 0x3C }
  - { offsetInCU: 0x557BC, offset: 0x557BC, size: 0x8, addend: 0x0, symName: __ZN5Eigen8internal18check_for_aliasingINS_5BlockINS_6MatrixIfLin1ELi1ELi0ELin1ELi1EEELin1ELi1ELb0EEENS_14CwiseNullaryOpINS0_18scalar_constant_opIfEES4_EEEEvRKT_RKT0_, symObjAddr: 0x1B6158, symBinAddr: 0x1001B8A1C, symSize: 0x14 }
  - { offsetInCU: 0x55807, offset: 0x55807, size: 0x8, addend: 0x0, symName: __ZN5Eigen8internal26call_dense_assignment_loopINS_5BlockINS_6MatrixIfLin1ELi1ELi0ELin1ELi1EEELin1ELi1ELb0EEENS_14CwiseNullaryOpINS0_18scalar_constant_opIfEES4_EENS0_9assign_opIffEEEEvRT_RKT0_RKT1_, symObjAddr: 0x1B616C, symBinAddr: 0x1001B8A30, symSize: 0x424 }
  - { offsetInCU: 0x558CB, offset: 0x558CB, size: 0x8, addend: 0x0, symName: __ZN5Eigen8internal17resize_if_allowedINS_5BlockINS_6MatrixIfLin1ELi1ELi0ELin1ELi1EEELin1ELi1ELb0EEENS_14CwiseNullaryOpINS0_18scalar_constant_opIfEES4_EEffEEvRT_RKT0_RKNS0_9assign_opIT1_T2_EE, symObjAddr: 0x1B6590, symBinAddr: 0x1001B8E54, symSize: 0xFC }
  - { offsetInCU: 0x55951, offset: 0x55951, size: 0x8, addend: 0x0, symName: __ZN5Eigen8internal15call_assignmentINS_3MapINS_6MatrixIfLin1ELi1ELi0ELin1ELi1EEELi16ENS_6StrideILi0ELi0EEEEENS_5BlockIS4_Lin1ELi1ELb0EEEEEvRT_RKT0_, symObjAddr: 0x1B90C4, symBinAddr: 0x1001BB988, symSize: 0x1F8 }
  - { offsetInCU: 0x5599E, offset: 0x5599E, size: 0x8, addend: 0x0, symName: __ZN5Eigen8internal15call_assignmentINS_3MapINS_6MatrixIfLin1ELi1ELi0ELin1ELi1EEELi16ENS_6StrideILi0ELi0EEEEENS_5BlockIS4_Lin1ELi1ELb0EEENS0_9assign_opIffEEEEvRT_RKT0_RKT1_NS0_9enable_ifIXntsr25evaluator_assume_aliasingISE_EE5valueEPvE4typeE, symObjAddr: 0x1B92BC, symBinAddr: 0x1001BBB80, symSize: 0x38 }
  - { offsetInCU: 0x55A0C, offset: 0x55A0C, size: 0x8, addend: 0x0, symName: __ZN5Eigen8internal24call_assignment_no_aliasINS_3MapINS_6MatrixIfLin1ELi1ELi0ELin1ELi1EEELi16ENS_6StrideILi0ELi0EEEEENS_5BlockIS4_Lin1ELi1ELb0EEENS0_9assign_opIffEEEEvRT_RKT0_RKT1_, symObjAddr: 0x1B92F4, symBinAddr: 0x1001BBBB8, symSize: 0x3C }
  - { offsetInCU: 0x55ADA, offset: 0x55ADA, size: 0x8, addend: 0x0, symName: __ZN5Eigen8internal18check_for_aliasingINS_3MapINS_6MatrixIfLin1ELi1ELi0ELin1ELi1EEELi16ENS_6StrideILi0ELi0EEEEENS_5BlockIS4_Lin1ELi1ELb0EEEEEvRKT_RKT0_, symObjAddr: 0x1B9370, symBinAddr: 0x1001BBC34, symSize: 0x14 }
  - { offsetInCU: 0x55B25, offset: 0x55B25, size: 0x8, addend: 0x0, symName: __ZN5Eigen8internal26call_dense_assignment_loopINS_3MapINS_6MatrixIfLin1ELi1ELi0ELin1ELi1EEELi16ENS_6StrideILi0ELi0EEEEENS_5BlockIS4_Lin1ELi1ELb0EEENS0_9assign_opIffEEEEvRT_RKT0_RKT1_, symObjAddr: 0x1B9384, symBinAddr: 0x1001BBC48, symSize: 0x45C }
  - { offsetInCU: 0x55BE9, offset: 0x55BE9, size: 0x8, addend: 0x0, symName: __ZN5Eigen8internal17resize_if_allowedINS_3MapINS_6MatrixIfLin1ELi1ELi0ELin1ELi1EEELi16ENS_6StrideILi0ELi0EEEEENS_5BlockIS4_Lin1ELi1ELb0EEEffEEvRT_RKT0_RKNS0_9assign_opIT1_T2_EE, symObjAddr: 0x1B97E0, symBinAddr: 0x1001BC0A4, symSize: 0xFC }
  - { offsetInCU: 0x55C6F, offset: 0x55C6F, size: 0x8, addend: 0x0, symName: __ZN5Eigen8internal15call_assignmentINS_3MapINS_6MatrixIfLin1ELi1ELi0ELin1ELi1EEELi0ENS_6StrideILi0ELi0EEEEENS_13CwiseBinaryOpINS0_17scalar_product_opIffEEKNS_14CwiseNullaryOpINS0_18scalar_constant_opIfEEKS4_EEKNS_5BlockIKNSH_IKNS2_IKNS3_IfLin1ELin1ELi0ELin1ELin1EEELi0ENS_11OuterStrideILin1EEEEELin1ELi1ELb1EEELin1ELi1ELb0EEEEENS0_13sub_assign_opIffEEEEvRT_RKT0_RKT1_NS0_9enable_ifIXntsr25evaluator_assume_aliasingISX_EE5valueEPvE4typeE, symObjAddr: 0x1C180C, symBinAddr: 0x1001C40D0, symSize: 0x38 }
  - { offsetInCU: 0x55CDD, offset: 0x55CDD, size: 0x8, addend: 0x0, symName: __ZN5Eigen8internal24call_assignment_no_aliasINS_3MapINS_6MatrixIfLin1ELi1ELi0ELin1ELi1EEELi0ENS_6StrideILi0ELi0EEEEENS_13CwiseBinaryOpINS0_17scalar_product_opIffEEKNS_14CwiseNullaryOpINS0_18scalar_constant_opIfEEKS4_EEKNS_5BlockIKNSH_IKNS2_IKNS3_IfLin1ELin1ELi0ELin1ELin1EEELi0ENS_11OuterStrideILin1EEEEELin1ELi1ELb1EEELin1ELi1ELb0EEEEENS0_13sub_assign_opIffEEEEvRT_RKT0_RKT1_, symObjAddr: 0x1C186C, symBinAddr: 0x1001C4130, symSize: 0x3C }
  - { offsetInCU: 0x55DAB, offset: 0x55DAB, size: 0x8, addend: 0x0, symName: __ZN5Eigen8internal18check_for_aliasingINS_3MapINS_6MatrixIfLin1ELi1ELi0ELin1ELi1EEELi0ENS_6StrideILi0ELi0EEEEENS_13CwiseBinaryOpINS0_17scalar_product_opIffEEKNS_14CwiseNullaryOpINS0_18scalar_constant_opIfEEKS4_EEKNS_5BlockIKNSH_IKNS2_IKNS3_IfLin1ELin1ELi0ELin1ELin1EEELi0ENS_11OuterStrideILin1EEEEELin1ELi1ELb1EEELin1ELi1ELb0EEEEEEEvRKT_RKT0_, symObjAddr: 0x1C18E8, symBinAddr: 0x1001C41AC, symSize: 0x14 }
  - { offsetInCU: 0x55DF6, offset: 0x55DF6, size: 0x8, addend: 0x0, symName: __ZN5Eigen8internal26call_dense_assignment_loopINS_3MapINS_6MatrixIfLin1ELi1ELi0ELin1ELi1EEELi0ENS_6StrideILi0ELi0EEEEENS_13CwiseBinaryOpINS0_17scalar_product_opIffEEKNS_14CwiseNullaryOpINS0_18scalar_constant_opIfEEKS4_EEKNS_5BlockIKNSH_IKNS2_IKNS3_IfLin1ELin1ELi0ELin1ELin1EEELi0ENS_11OuterStrideILin1EEEEELin1ELi1ELb1EEELin1ELi1ELb0EEEEENS0_13sub_assign_opIffEEEEvRT_RKT0_RKT1_, symObjAddr: 0x1C18FC, symBinAddr: 0x1001C41C0, symSize: 0x468 }
  - { offsetInCU: 0x55EBA, offset: 0x55EBA, size: 0x8, addend: 0x0, symName: __ZN5Eigen8internal17resize_if_allowedINS_3MapINS_6MatrixIfLin1ELi1ELi0ELin1ELi1EEELi0ENS_6StrideILi0ELi0EEEEENS_13CwiseBinaryOpINS0_17scalar_product_opIffEEKNS_14CwiseNullaryOpINS0_18scalar_constant_opIfEEKS4_EEKNS_5BlockIKNSH_IKNS2_IKNS3_IfLin1ELin1ELi0ELin1ELin1EEELi0ENS_11OuterStrideILin1EEEEELin1ELi1ELb1EEELin1ELi1ELb0EEEEENS0_13sub_assign_opIffEEEEvRT_RKT0_RKT1_, symObjAddr: 0x1C1D98, symBinAddr: 0x1001C465C, symSize: 0xB8 }
  - { offsetInCU: 0x55F19, offset: 0x55F19, size: 0x8, addend: 0x0, symName: __ZN5Eigen8internal15call_assignmentINS_5BlockINS_6MatrixIfLin1ELi1ELi0ELin1ELi1EEELin1ELi1ELb0EEENS_3MapIS4_Li16ENS_6StrideILi0ELi0EEEEEEEvRT_RKT0_, symObjAddr: 0x1C3C88, symBinAddr: 0x1001C654C, symSize: 0x1F8 }
  - { offsetInCU: 0x55F66, offset: 0x55F66, size: 0x8, addend: 0x0, symName: __ZN5Eigen8internal15call_assignmentINS_5BlockINS_6MatrixIfLin1ELi1ELi0ELin1ELi1EEELin1ELi1ELb0EEENS_3MapIS4_Li16ENS_6StrideILi0ELi0EEEEENS0_9assign_opIffEEEEvRT_RKT0_RKT1_NS0_9enable_ifIXntsr25evaluator_assume_aliasingISE_EE5valueEPvE4typeE, symObjAddr: 0x1C3E80, symBinAddr: 0x1001C6744, symSize: 0x38 }
  - { offsetInCU: 0x55FD4, offset: 0x55FD4, size: 0x8, addend: 0x0, symName: __ZN5Eigen8internal24call_assignment_no_aliasINS_5BlockINS_6MatrixIfLin1ELi1ELi0ELin1ELi1EEELin1ELi1ELb0EEENS_3MapIS4_Li16ENS_6StrideILi0ELi0EEEEENS0_9assign_opIffEEEEvRT_RKT0_RKT1_, symObjAddr: 0x1C3EB8, symBinAddr: 0x1001C677C, symSize: 0x3C }
  - { offsetInCU: 0x560A2, offset: 0x560A2, size: 0x8, addend: 0x0, symName: __ZN5Eigen8internal18check_for_aliasingINS_5BlockINS_6MatrixIfLin1ELi1ELi0ELin1ELi1EEELin1ELi1ELb0EEENS_3MapIS4_Li16ENS_6StrideILi0ELi0EEEEEEEvRKT_RKT0_, symObjAddr: 0x1C3F34, symBinAddr: 0x1001C67F8, symSize: 0x14 }
  - { offsetInCU: 0x560ED, offset: 0x560ED, size: 0x8, addend: 0x0, symName: __ZN5Eigen8internal26call_dense_assignment_loopINS_5BlockINS_6MatrixIfLin1ELi1ELi0ELin1ELi1EEELin1ELi1ELb0EEENS_3MapIS4_Li16ENS_6StrideILi0ELi0EEEEENS0_9assign_opIffEEEEvRT_RKT0_RKT1_, symObjAddr: 0x1C3F48, symBinAddr: 0x1001C680C, symSize: 0x45C }
  - { offsetInCU: 0x561B1, offset: 0x561B1, size: 0x8, addend: 0x0, symName: __ZN5Eigen8internal17resize_if_allowedINS_5BlockINS_6MatrixIfLin1ELi1ELi0ELin1ELi1EEELin1ELi1ELb0EEENS_3MapIS4_Li16ENS_6StrideILi0ELi0EEEEEffEEvRT_RKT0_RKNS0_9assign_opIT1_T2_EE, symObjAddr: 0x1C43A4, symBinAddr: 0x1001C6C68, symSize: 0xFC }
  - { offsetInCU: 0x56237, offset: 0x56237, size: 0x8, addend: 0x0, symName: __ZN5Eigen8internal15call_assignmentINS_6MatrixIfLin1ELi1ELi0ELin1ELi1EEENS_7ProductINS_17PermutationMatrixILin1ELin1EiEES3_Li2EEEEEvRT_RKT0_, symObjAddr: 0x1C4EAC, symBinAddr: 0x1001C7770, symSize: 0x1F8 }
  - { offsetInCU: 0x56284, offset: 0x56284, size: 0x8, addend: 0x0, symName: __ZN5Eigen8internal15call_assignmentINS_6MatrixIfLin1ELi1ELi0ELin1ELi1EEENS_7ProductINS_17PermutationMatrixILin1ELin1EiEES3_Li2EEENS0_9assign_opIffEEEEvRT_RKT0_RKT1_NS0_9enable_ifIXntsr25evaluator_assume_aliasingISC_EE5valueEPvE4typeE, symObjAddr: 0x1C50B8, symBinAddr: 0x1001C797C, symSize: 0x38 }
  - { offsetInCU: 0x562F2, offset: 0x562F2, size: 0x8, addend: 0x0, symName: __ZN5Eigen8internal24call_assignment_no_aliasINS_6MatrixIfLin1ELi1ELi0ELin1ELi1EEENS_7ProductINS_17PermutationMatrixILin1ELin1EiEES3_Li2EEENS0_9assign_opIffEEEEvRT_RKT0_RKT1_, symObjAddr: 0x1C50F0, symBinAddr: 0x1001C79B4, symSize: 0x3C }
  - { offsetInCU: 0x56492, offset: 0x56492, size: 0x8, addend: 0x0, symName: __ZN5Eigen8internal13is_same_denseINS_6MatrixIfLin1ELi1ELi0ELin1ELi1EEES3_EEbRKT_RKT0_PNS0_9enable_ifIXsr19possibly_same_denseIS4_S7_EE5valueEvE4typeE, symObjAddr: 0x1C5E40, symBinAddr: 0x1001C8704, symSize: 0xC0 }
  - { offsetInCU: 0x564EC, offset: 0x564EC, size: 0x8, addend: 0x0, symName: __ZN5Eigen8internal31conditional_aligned_delete_autoIbLb1EEEvPT_m, symObjAddr: 0x1C6A90, symBinAddr: 0x1001C9354, symSize: 0x28 }
  - { offsetInCU: 0x56538, offset: 0x56538, size: 0x8, addend: 0x0, symName: __ZN5Eigen8internal28conditional_aligned_new_autoIbLb1EEEPT_m, symObjAddr: 0x1C6AB8, symBinAddr: 0x1001C937C, symSize: 0x64 }
  - { offsetInCU: 0x56588, offset: 0x56588, size: 0x8, addend: 0x0, symName: __ZN5Eigen8internal15call_assignmentINS_6MatrixIbLin1ELi1ELi0ELin1ELi1EEENS_14CwiseNullaryOpINS0_18scalar_constant_opIbEES3_EEEEvRT_RKT0_, symObjAddr: 0x1C7624, symBinAddr: 0x1001C9EE8, symSize: 0x1F8 }
  - { offsetInCU: 0x565D5, offset: 0x565D5, size: 0x8, addend: 0x0, symName: __ZN5Eigen8internal15call_assignmentINS_6MatrixIbLin1ELi1ELi0ELin1ELi1EEENS_14CwiseNullaryOpINS0_18scalar_constant_opIbEES3_EENS0_9assign_opIbbEEEEvRT_RKT0_RKT1_NS0_9enable_ifIXntsr25evaluator_assume_aliasingISC_EE5valueEPvE4typeE, symObjAddr: 0x1C7830, symBinAddr: 0x1001CA0F4, symSize: 0x38 }
  - { offsetInCU: 0x56699, offset: 0x56699, size: 0x8, addend: 0x0, symName: __ZN5Eigen8internal24call_assignment_no_aliasINS_6MatrixIbLin1ELi1ELi0ELin1ELi1EEENS_14CwiseNullaryOpINS0_18scalar_constant_opIbEES3_EENS0_9assign_opIbbEEEEvRT_RKT0_RKT1_, symObjAddr: 0x1C7894, symBinAddr: 0x1001CA158, symSize: 0x3C }
  - { offsetInCU: 0x56767, offset: 0x56767, size: 0x8, addend: 0x0, symName: __ZN5Eigen8internal18check_for_aliasingINS_6MatrixIbLin1ELi1ELi0ELin1ELi1EEENS_14CwiseNullaryOpINS0_18scalar_constant_opIbEES3_EEEEvRKT_RKT0_, symObjAddr: 0x1C7910, symBinAddr: 0x1001CA1D4, symSize: 0x14 }
  - { offsetInCU: 0x567B2, offset: 0x567B2, size: 0x8, addend: 0x0, symName: __ZN5Eigen8internal26call_dense_assignment_loopINS_6MatrixIbLin1ELi1ELi0ELin1ELi1EEEEEvRT_RKNS_14CwiseNullaryOpINS0_18scalar_constant_opINS4_6ScalarEEES4_EERKNS0_9assign_opIS8_S8_EE, symObjAddr: 0x1C7924, symBinAddr: 0x1001CA1E8, symSize: 0x284 }
  - { offsetInCU: 0x56806, offset: 0x56806, size: 0x8, addend: 0x0, symName: __ZN5Eigen8internal17resize_if_allowedINS_6MatrixIbLin1ELi1ELi0ELin1ELi1EEENS_14CwiseNullaryOpINS0_18scalar_constant_opIbEES3_EEbbEEvRT_RKT0_RKNS0_9assign_opIT1_T2_EE, symObjAddr: 0x1C7BA8, symBinAddr: 0x1001CA46C, symSize: 0xFC }
  - { offsetInCU: 0x5688C, offset: 0x5688C, size: 0x8, addend: 0x0, symName: __ZN5Eigen8internal15call_assignmentINS_5BlockINS_6MatrixIfLin1ELi1ELi0ELin1ELi1EEELi1ELi1ELb0EEES5_NS0_14swap_assign_opIfEEEEvRT_RKT0_RKT1_NS0_9enable_ifIXntsr25evaluator_assume_aliasingISA_EE5valueEPvE4typeE, symObjAddr: 0x1C8E1C, symBinAddr: 0x1001CB6E0, symSize: 0x38 }
  - { offsetInCU: 0x568FA, offset: 0x568FA, size: 0x8, addend: 0x0, symName: __ZN5Eigen8internal24call_assignment_no_aliasINS_5BlockINS_6MatrixIfLin1ELi1ELi0ELin1ELi1EEELi1ELi1ELb0EEES5_NS0_14swap_assign_opIfEEEEvRT_RKT0_RKT1_, symObjAddr: 0x1C8ED0, symBinAddr: 0x1001CB794, symSize: 0x3C }
  - { offsetInCU: 0x569C8, offset: 0x569C8, size: 0x8, addend: 0x0, symName: __ZN5Eigen8internal18check_for_aliasingINS_5BlockINS_6MatrixIfLin1ELi1ELi0ELin1ELi1EEELi1ELi1ELb0EEES5_EEvRKT_RKT0_, symObjAddr: 0x1C8F4C, symBinAddr: 0x1001CB810, symSize: 0x14 }
  - { offsetInCU: 0x56A13, offset: 0x56A13, size: 0x8, addend: 0x0, symName: __ZN5Eigen8internal26call_dense_assignment_loopINS_5BlockINS_6MatrixIfLin1ELi1ELi0ELin1ELi1EEELi1ELi1ELb0EEES5_NS0_14swap_assign_opIfEEEEvRT_RKT0_RKT1_, symObjAddr: 0x1C8F60, symBinAddr: 0x1001CB824, symSize: 0x464 }
  - { offsetInCU: 0x56AD7, offset: 0x56AD7, size: 0x8, addend: 0x0, symName: __ZN5Eigen8internal17resize_if_allowedINS_5BlockINS_6MatrixIfLin1ELi1ELi0ELin1ELi1EEELi1ELi1ELb0EEES5_NS0_14swap_assign_opIfEEEEvRT_RKT0_RKT1_, symObjAddr: 0x1C93F8, symBinAddr: 0x1001CBCBC, symSize: 0xB8 }
  - { offsetInCU: 0x56BE2, offset: 0x56BE2, size: 0x8, addend: 0x0, symName: __ZN5Eigen8internal15call_assignmentINS_5BlockINS_6MatrixIfLin1ELi1ELi0ELin1ELi1EEELi1ELi1ELb0EEENS2_IKS4_Li1ELi1ELb0EEEEEvRT_RKT0_, symObjAddr: 0x1C9F60, symBinAddr: 0x1001CC824, symSize: 0x1F8 }
  - { offsetInCU: 0x56C2F, offset: 0x56C2F, size: 0x8, addend: 0x0, symName: __ZN5Eigen8internal15call_assignmentINS_5BlockINS_6MatrixIfLin1ELi1ELi0ELin1ELi1EEELi1ELi1ELb0EEENS2_IKS4_Li1ELi1ELb0EEENS0_9assign_opIffEEEEvRT_RKT0_RKT1_NS0_9enable_ifIXntsr25evaluator_assume_aliasingISC_EE5valueEPvE4typeE, symObjAddr: 0x1CA158, symBinAddr: 0x1001CCA1C, symSize: 0x38 }
  - { offsetInCU: 0x56C9D, offset: 0x56C9D, size: 0x8, addend: 0x0, symName: __ZN5Eigen8internal24call_assignment_no_aliasINS_5BlockINS_6MatrixIfLin1ELi1ELi0ELin1ELi1EEELi1ELi1ELb0EEENS2_IKS4_Li1ELi1ELb0EEENS0_9assign_opIffEEEEvRT_RKT0_RKT1_, symObjAddr: 0x1CA190, symBinAddr: 0x1001CCA54, symSize: 0x3C }
  - { offsetInCU: 0x56D6B, offset: 0x56D6B, size: 0x8, addend: 0x0, symName: __ZN5Eigen8internal18check_for_aliasingINS_5BlockINS_6MatrixIfLin1ELi1ELi0ELin1ELi1EEELi1ELi1ELb0EEENS2_IKS4_Li1ELi1ELb0EEEEEvRKT_RKT0_, symObjAddr: 0x1CA20C, symBinAddr: 0x1001CCAD0, symSize: 0x14 }
  - { offsetInCU: 0x56DB6, offset: 0x56DB6, size: 0x8, addend: 0x0, symName: __ZN5Eigen8internal26call_dense_assignment_loopINS_5BlockINS_6MatrixIfLin1ELi1ELi0ELin1ELi1EEELi1ELi1ELb0EEENS2_IKS4_Li1ELi1ELb0EEENS0_9assign_opIffEEEEvRT_RKT0_RKT1_, symObjAddr: 0x1CA220, symBinAddr: 0x1001CCAE4, symSize: 0x45C }
  - { offsetInCU: 0x56E7A, offset: 0x56E7A, size: 0x8, addend: 0x0, symName: __ZN5Eigen8internal17resize_if_allowedINS_5BlockINS_6MatrixIfLin1ELi1ELi0ELin1ELi1EEELi1ELi1ELb0EEENS2_IKS4_Li1ELi1ELb0EEEffEEvRT_RKT0_RKNS0_9assign_opIT1_T2_EE, symObjAddr: 0x1CA6B0, symBinAddr: 0x1001CCF74, symSize: 0xFC }
  - { offsetInCU: 0x570C3, offset: 0x570C3, size: 0x8, addend: 0x0, symName: __ZN5Eigen8internal15call_assignmentINS_6MatrixIfLin1ELi1ELi0ELin1ELi1EEENS_13CwiseBinaryOpINS0_18scalar_quotient_opIffEEKNS_7ProductINS_7InverseINS_17PermutationMatrixILin1ELin1EiEEEENS4_INS0_17scalar_product_opIffEEKS3_SE_EELi2EEEKNS_14CwiseNullaryOpINS0_18scalar_constant_opIfEESE_EEEEEEvRT_RKT0_, symObjAddr: 0x1CD4E4, symBinAddr: 0x1001CFDA8, symSize: 0x1F8 }
  - { offsetInCU: 0x57110, offset: 0x57110, size: 0x8, addend: 0x0, symName: __ZN5Eigen8internal15call_assignmentINS_6MatrixIfLin1ELi1ELi0ELin1ELi1EEENS_13CwiseBinaryOpINS0_18scalar_quotient_opIffEEKNS_7ProductINS_7InverseINS_17PermutationMatrixILin1ELin1EiEEEENS4_INS0_17scalar_product_opIffEEKS3_SE_EELi2EEEKNS_14CwiseNullaryOpINS0_18scalar_constant_opIfEESE_EEEENS0_9assign_opIffEEEEvRT_RKT0_RKT1_NS0_9enable_ifIXntsr25evaluator_assume_aliasingISS_EE5valueEPvE4typeE, symObjAddr: 0x1CD6F0, symBinAddr: 0x1001CFFB4, symSize: 0x38 }
  - { offsetInCU: 0x5717E, offset: 0x5717E, size: 0x8, addend: 0x0, symName: __ZN5Eigen8internal24call_assignment_no_aliasINS_6MatrixIfLin1ELi1ELi0ELin1ELi1EEENS_13CwiseBinaryOpINS0_18scalar_quotient_opIffEEKNS_7ProductINS_7InverseINS_17PermutationMatrixILin1ELin1EiEEEENS4_INS0_17scalar_product_opIffEEKS3_SE_EELi2EEEKNS_14CwiseNullaryOpINS0_18scalar_constant_opIfEESE_EEEENS0_9assign_opIffEEEEvRT_RKT0_RKT1_, symObjAddr: 0x1CD728, symBinAddr: 0x1001CFFEC, symSize: 0x3C }
  - { offsetInCU: 0x5724C, offset: 0x5724C, size: 0x8, addend: 0x0, symName: __ZN5Eigen8internal18check_for_aliasingINS_6MatrixIfLin1ELi1ELi0ELin1ELi1EEENS_13CwiseBinaryOpINS0_18scalar_quotient_opIffEEKNS_7ProductINS_7InverseINS_17PermutationMatrixILin1ELin1EiEEEENS4_INS0_17scalar_product_opIffEEKS3_SE_EELi2EEEKNS_14CwiseNullaryOpINS0_18scalar_constant_opIfEESE_EEEEEEvRKT_RKT0_, symObjAddr: 0x1CD7A4, symBinAddr: 0x1001D0068, symSize: 0x14 }
  - { offsetInCU: 0x57297, offset: 0x57297, size: 0x8, addend: 0x0, symName: __ZN5Eigen8internal26call_dense_assignment_loopINS_6MatrixIfLin1ELi1ELi0ELin1ELi1EEENS_13CwiseBinaryOpINS0_18scalar_quotient_opIffEEKNS_7ProductINS_7InverseINS_17PermutationMatrixILin1ELin1EiEEEENS4_INS0_17scalar_product_opIffEEKS3_SE_EELi2EEEKNS_14CwiseNullaryOpINS0_18scalar_constant_opIfEESE_EEEENS0_9assign_opIffEEEEvRT_RKT0_RKT1_, symObjAddr: 0x1CD7B8, symBinAddr: 0x1001D007C, symSize: 0x440 }
  - { offsetInCU: 0x5735B, offset: 0x5735B, size: 0x8, addend: 0x0, symName: __ZN5Eigen8internal17resize_if_allowedINS_6MatrixIfLin1ELi1ELi0ELin1ELi1EEENS_13CwiseBinaryOpINS0_18scalar_quotient_opIffEEKNS_7ProductINS_7InverseINS_17PermutationMatrixILin1ELin1EiEEEENS4_INS0_17scalar_product_opIffEEKS3_SE_EELi2EEEKNS_14CwiseNullaryOpINS0_18scalar_constant_opIfEESE_EEEEffEEvRT_RKT0_RKNS0_9assign_opIT1_T2_EE, symObjAddr: 0x1CDC2C, symBinAddr: 0x1001D04F0, symSize: 0xFC }
  - { offsetInCU: 0x574AA, offset: 0x574AA, size: 0x8, addend: 0x0, symName: __ZN5Eigen8internal13is_same_denseINS_6MatrixIfLin1ELi1ELi0ELin1ELi1EEENS_13CwiseBinaryOpINS0_17scalar_product_opIffEEKS3_S7_EEEEbRKT_RKT0_PNS0_9enable_ifIXntsr19possibly_same_denseIS9_SC_EE5valueEvE4typeE, symObjAddr: 0x1CF1D4, symBinAddr: 0x1001D1A98, symSize: 0x20 }
  - { offsetInCU: 0x574FC, offset: 0x574FC, size: 0x8, addend: 0x0, symName: __ZN5Eigen8internal15call_assignmentINS_5BlockINS_6MatrixIfLin1ELi1ELi0ELin1ELi1EEELi1ELi1ELb0EEENS2_IKNS_13CwiseBinaryOpINS0_17scalar_product_opIffEEKS4_S9_EELi1ELi1ELb0EEEEEvRT_RKT0_, symObjAddr: 0x1CF520, symBinAddr: 0x1001D1DE4, symSize: 0x1F8 }
  - { offsetInCU: 0x57549, offset: 0x57549, size: 0x8, addend: 0x0, symName: __ZN5Eigen8internal15call_assignmentINS_5BlockINS_6MatrixIfLin1ELi1ELi0ELin1ELi1EEELi1ELi1ELb0EEENS2_IKNS_13CwiseBinaryOpINS0_17scalar_product_opIffEEKS4_S9_EELi1ELi1ELb0EEENS0_9assign_opIffEEEEvRT_RKT0_RKT1_NS0_9enable_ifIXntsr25evaluator_assume_aliasingISH_EE5valueEPvE4typeE, symObjAddr: 0x1CF718, symBinAddr: 0x1001D1FDC, symSize: 0x38 }
  - { offsetInCU: 0x575B7, offset: 0x575B7, size: 0x8, addend: 0x0, symName: __ZN5Eigen8internal24call_assignment_no_aliasINS_5BlockINS_6MatrixIfLin1ELi1ELi0ELin1ELi1EEELi1ELi1ELb0EEENS2_IKNS_13CwiseBinaryOpINS0_17scalar_product_opIffEEKS4_S9_EELi1ELi1ELb0EEENS0_9assign_opIffEEEEvRT_RKT0_RKT1_, symObjAddr: 0x1CF750, symBinAddr: 0x1001D2014, symSize: 0x3C }
  - { offsetInCU: 0x57685, offset: 0x57685, size: 0x8, addend: 0x0, symName: __ZN5Eigen8internal18check_for_aliasingINS_5BlockINS_6MatrixIfLin1ELi1ELi0ELin1ELi1EEELi1ELi1ELb0EEENS2_IKNS_13CwiseBinaryOpINS0_17scalar_product_opIffEEKS4_S9_EELi1ELi1ELb0EEEEEvRKT_RKT0_, symObjAddr: 0x1CF7CC, symBinAddr: 0x1001D2090, symSize: 0x14 }
  - { offsetInCU: 0x576D0, offset: 0x576D0, size: 0x8, addend: 0x0, symName: __ZN5Eigen8internal26call_dense_assignment_loopINS_5BlockINS_6MatrixIfLin1ELi1ELi0ELin1ELi1EEELi1ELi1ELb0EEENS2_IKNS_13CwiseBinaryOpINS0_17scalar_product_opIffEEKS4_S9_EELi1ELi1ELb0EEENS0_9assign_opIffEEEEvRT_RKT0_RKT1_, symObjAddr: 0x1CF7E0, symBinAddr: 0x1001D20A4, symSize: 0x464 }
  - { offsetInCU: 0x57794, offset: 0x57794, size: 0x8, addend: 0x0, symName: __ZN5Eigen8internal17resize_if_allowedINS_5BlockINS_6MatrixIfLin1ELi1ELi0ELin1ELi1EEELi1ELi1ELb0EEENS2_IKNS_13CwiseBinaryOpINS0_17scalar_product_opIffEEKS4_S9_EELi1ELi1ELb0EEEffEEvRT_RKT0_RKNS0_9assign_opIT1_T2_EE, symObjAddr: 0x1CFC78, symBinAddr: 0x1001D253C, symSize: 0xFC }
  - { offsetInCU: 0x578C6, offset: 0x578C6, size: 0x8, addend: 0x0, symName: __ZN5Eigen8internal15call_assignmentINS_3MapINS_6MatrixIfLin1ELi1ELi0ELin1ELi1EEELi16ENS_6StrideILi0ELi0EEEEES4_EEvRT_RKT0_, symObjAddr: 0x1D2E58, symBinAddr: 0x1001D571C, symSize: 0x1F8 }
  - { offsetInCU: 0x57913, offset: 0x57913, size: 0x8, addend: 0x0, symName: __ZN5Eigen8internal15call_assignmentINS_3MapINS_6MatrixIfLin1ELi1ELi0ELin1ELi1EEELi16ENS_6StrideILi0ELi0EEEEES4_NS0_9assign_opIffEEEEvRT_RKT0_RKT1_NS0_9enable_ifIXntsr25evaluator_assume_aliasingISC_EE5valueEPvE4typeE, symObjAddr: 0x1D3050, symBinAddr: 0x1001D5914, symSize: 0x38 }
  - { offsetInCU: 0x57981, offset: 0x57981, size: 0x8, addend: 0x0, symName: __ZN5Eigen8internal24call_assignment_no_aliasINS_3MapINS_6MatrixIfLin1ELi1ELi0ELin1ELi1EEELi16ENS_6StrideILi0ELi0EEEEES4_NS0_9assign_opIffEEEEvRT_RKT0_RKT1_, symObjAddr: 0x1D3088, symBinAddr: 0x1001D594C, symSize: 0x3C }
  - { offsetInCU: 0x57A4F, offset: 0x57A4F, size: 0x8, addend: 0x0, symName: __ZN5Eigen8internal18check_for_aliasingINS_3MapINS_6MatrixIfLin1ELi1ELi0ELin1ELi1EEELi16ENS_6StrideILi0ELi0EEEEES4_EEvRKT_RKT0_, symObjAddr: 0x1D3104, symBinAddr: 0x1001D59C8, symSize: 0x14 }
  - { offsetInCU: 0x57A9A, offset: 0x57A9A, size: 0x8, addend: 0x0, symName: __ZN5Eigen8internal26call_dense_assignment_loopINS_3MapINS_6MatrixIfLin1ELi1ELi0ELin1ELi1EEELi16ENS_6StrideILi0ELi0EEEEES4_NS0_9assign_opIffEEEEvRT_RKT0_RKT1_, symObjAddr: 0x1D3118, symBinAddr: 0x1001D59DC, symSize: 0x41C }
  - { offsetInCU: 0x57B5E, offset: 0x57B5E, size: 0x8, addend: 0x0, symName: __ZN5Eigen8internal17resize_if_allowedINS_3MapINS_6MatrixIfLin1ELi1ELi0ELin1ELi1EEELi16ENS_6StrideILi0ELi0EEEEES4_ffEEvRT_RKT0_RKNS0_9assign_opIT1_T2_EE, symObjAddr: 0x1D3534, symBinAddr: 0x1001D5DF8, symSize: 0xFC }
  - { offsetInCU: 0x58127, offset: 0x58127, size: 0x8, addend: 0x0, symName: __ZN5Eigen8internalL21first_default_alignedINS_13CwiseBinaryOpINS0_17scalar_product_opIffEEKNS_9TransposeIKNS_5BlockIKNS6_IKNS_3MapIKNS_6MatrixIfLin1ELin1ELi1ELin1ELin1EEELi0ENS_11OuterStrideILin1EEEEELi1ELin1ELb1EEELi1ELin1ELb0EEEEEKNS7_IKNS8_IfLin1ELi1ELi0ELin1ELi1EEELi0ENS_6StrideILi0ELi0EEEEEEEEElRKNS_9DenseBaseIT_EE, symObjAddr: 0x1D5D38, symBinAddr: 0x1001D85FC, symSize: 0x24 }
  - { offsetInCU: 0x5815E, offset: 0x5815E, size: 0x8, addend: 0x0, symName: __ZN5Eigen8internalL13first_alignedILi16ENS_13CwiseBinaryOpINS0_17scalar_product_opIffEEKNS_9TransposeIKNS_5BlockIKNS6_IKNS_3MapIKNS_6MatrixIfLin1ELin1ELi1ELin1ELin1EEELi0ENS_11OuterStrideILin1EEEEELi1ELin1ELb1EEELi1ELin1ELb0EEEEEKNS7_IKNS8_IfLin1ELi1ELi0ELin1ELi1EEELi0ENS_6StrideILi0ELi0EEEEEEEEElRKNS_9DenseBaseIT0_EE, symObjAddr: 0x1D633C, symBinAddr: 0x1001D8C00, symSize: 0x28 }
  - { offsetInCU: 0x581DD, offset: 0x581DD, size: 0x8, addend: 0x0, symName: __ZN5Eigen8internal15call_assignmentINS_6MatrixIfLin1ELi1ELi0ELin1ELi1EEENS_3MapIS3_Li16ENS_6StrideILi0ELi0EEEEEEEvRT_RKT0_, symObjAddr: 0x1D6E10, symBinAddr: 0x1001D96D4, symSize: 0x1F8 }
  - { offsetInCU: 0x5822A, offset: 0x5822A, size: 0x8, addend: 0x0, symName: __ZN5Eigen8internal15call_assignmentINS_6MatrixIfLin1ELi1ELi0ELin1ELi1EEENS_3MapIS3_Li16ENS_6StrideILi0ELi0EEEEENS0_9assign_opIffEEEEvRT_RKT0_RKT1_NS0_9enable_ifIXntsr25evaluator_assume_aliasingISC_EE5valueEPvE4typeE, symObjAddr: 0x1D7008, symBinAddr: 0x1001D98CC, symSize: 0x38 }
  - { offsetInCU: 0x58298, offset: 0x58298, size: 0x8, addend: 0x0, symName: __ZN5Eigen8internal24call_assignment_no_aliasINS_6MatrixIfLin1ELi1ELi0ELin1ELi1EEENS_3MapIS3_Li16ENS_6StrideILi0ELi0EEEEENS0_9assign_opIffEEEEvRT_RKT0_RKT1_, symObjAddr: 0x1D7040, symBinAddr: 0x1001D9904, symSize: 0x3C }
  - { offsetInCU: 0x58366, offset: 0x58366, size: 0x8, addend: 0x0, symName: __ZN5Eigen8internal18check_for_aliasingINS_6MatrixIfLin1ELi1ELi0ELin1ELi1EEENS_3MapIS3_Li16ENS_6StrideILi0ELi0EEEEEEEvRKT_RKT0_, symObjAddr: 0x1D70BC, symBinAddr: 0x1001D9980, symSize: 0x14 }
  - { offsetInCU: 0x583B1, offset: 0x583B1, size: 0x8, addend: 0x0, symName: __ZN5Eigen8internal26call_dense_assignment_loopINS_6MatrixIfLin1ELi1ELi0ELin1ELi1EEENS_3MapIS3_Li16ENS_6StrideILi0ELi0EEEEENS0_9assign_opIffEEEEvRT_RKT0_RKT1_, symObjAddr: 0x1D70D0, symBinAddr: 0x1001D9994, symSize: 0x41C }
  - { offsetInCU: 0x58475, offset: 0x58475, size: 0x8, addend: 0x0, symName: __ZN5Eigen8internal17resize_if_allowedINS_6MatrixIfLin1ELi1ELi0ELin1ELi1EEENS_3MapIS3_Li16ENS_6StrideILi0ELi0EEEEEffEEvRT_RKT0_RKNS0_9assign_opIT1_T2_EE, symObjAddr: 0x1D74EC, symBinAddr: 0x1001D9DB0, symSize: 0xFC }
  - { offsetInCU: 0x5890E, offset: 0x5890E, size: 0x8, addend: 0x0, symName: __ZN5Eigen8internalL21first_default_alignedINS_13CwiseBinaryOpINS0_22scalar_conj_product_opIffEEKNS_5BlockIKNS5_IKNS_6MatrixIfLin1ELin1ELi0ELin1ELin1EEELin1ELi1ELb1EEELin1ELi1ELb0EEEKNS5_IKNS6_IfLin1ELi1ELi0ELin1ELi1EEELin1ELi1ELb0EEEEEEElRKNS_9DenseBaseIT_EE, symObjAddr: 0x1DA2A4, symBinAddr: 0x1001DCB68, symSize: 0x24 }
  - { offsetInCU: 0x58945, offset: 0x58945, size: 0x8, addend: 0x0, symName: __ZN5Eigen8internalL13first_alignedILi16ENS_13CwiseBinaryOpINS0_22scalar_conj_product_opIffEEKNS_5BlockIKNS5_IKNS_6MatrixIfLin1ELin1ELi0ELin1ELin1EEELin1ELi1ELb1EEELin1ELi1ELb0EEEKNS5_IKNS6_IfLin1ELi1ELi0ELin1ELi1EEELin1ELi1ELb0EEEEEEElRKNS_9DenseBaseIT0_EE, symObjAddr: 0x1DA8A8, symBinAddr: 0x1001DD16C, symSize: 0x28 }
  - { offsetInCU: 0x589C4, offset: 0x589C4, size: 0x8, addend: 0x0, symName: __ZN5Eigen8internal15call_assignmentINS_6MatrixIfLin1ELi1ELi0ELin1ELi1EEENS_13CwiseBinaryOpINS0_17scalar_product_opIffEEKNS_14CwiseNullaryOpINS0_18scalar_constant_opIfEEKS3_EESA_EEEEvRT_RKT0_, symObjAddr: 0x1DAFA8, symBinAddr: 0x1001DD86C, symSize: 0x1F8 }
  - { offsetInCU: 0x58A11, offset: 0x58A11, size: 0x8, addend: 0x0, symName: __ZN5Eigen8internal15call_assignmentINS_6MatrixIfLin1ELi1ELi0ELin1ELi1EEENS_13CwiseBinaryOpINS0_17scalar_product_opIffEEKNS_14CwiseNullaryOpINS0_18scalar_constant_opIfEEKS3_EESA_EENS0_9assign_opIffEEEEvRT_RKT0_RKT1_NS0_9enable_ifIXntsr25evaluator_assume_aliasingISI_EE5valueEPvE4typeE, symObjAddr: 0x1DB1B4, symBinAddr: 0x1001DDA78, symSize: 0x38 }
  - { offsetInCU: 0x58A7F, offset: 0x58A7F, size: 0x8, addend: 0x0, symName: __ZN5Eigen8internal24call_assignment_no_aliasINS_6MatrixIfLin1ELi1ELi0ELin1ELi1EEENS_13CwiseBinaryOpINS0_17scalar_product_opIffEEKNS_14CwiseNullaryOpINS0_18scalar_constant_opIfEEKS3_EESA_EENS0_9assign_opIffEEEEvRT_RKT0_RKT1_, symObjAddr: 0x1DB1EC, symBinAddr: 0x1001DDAB0, symSize: 0x3C }
  - { offsetInCU: 0x58B4D, offset: 0x58B4D, size: 0x8, addend: 0x0, symName: __ZN5Eigen8internal18check_for_aliasingINS_6MatrixIfLin1ELi1ELi0ELin1ELi1EEENS_13CwiseBinaryOpINS0_17scalar_product_opIffEEKNS_14CwiseNullaryOpINS0_18scalar_constant_opIfEEKS3_EESA_EEEEvRKT_RKT0_, symObjAddr: 0x1DB268, symBinAddr: 0x1001DDB2C, symSize: 0x14 }
  - { offsetInCU: 0x58B98, offset: 0x58B98, size: 0x8, addend: 0x0, symName: __ZN5Eigen8internal26call_dense_assignment_loopINS_6MatrixIfLin1ELi1ELi0ELin1ELi1EEENS_13CwiseBinaryOpINS0_17scalar_product_opIffEEKNS_14CwiseNullaryOpINS0_18scalar_constant_opIfEEKS3_EESA_EENS0_9assign_opIffEEEEvRT_RKT0_RKT1_, symObjAddr: 0x1DB27C, symBinAddr: 0x1001DDB40, symSize: 0x41C }
  - { offsetInCU: 0x58C5C, offset: 0x58C5C, size: 0x8, addend: 0x0, symName: __ZN5Eigen8internal17resize_if_allowedINS_6MatrixIfLin1ELi1ELi0ELin1ELi1EEENS_13CwiseBinaryOpINS0_17scalar_product_opIffEEKNS_14CwiseNullaryOpINS0_18scalar_constant_opIfEEKS3_EESA_EEffEEvRT_RKT0_RKNS0_9assign_opIT1_T2_EE, symObjAddr: 0x1DB6CC, symBinAddr: 0x1001DDF90, symSize: 0xFC }
  - { offsetInCU: 0x58CE2, offset: 0x58CE2, size: 0x8, addend: 0x0, symName: __ZN5Eigen8internal15call_assignmentINS_6MatrixIfLin1ELi1ELi0ELin1ELi1EEENS_8DiagonalINS2_IfLin1ELin1ELi0ELin1ELin1EEELi0EEEEEvRT_RKT0_, symObjAddr: 0x1DD3EC, symBinAddr: 0x1001DFCB0, symSize: 0x1F8 }
  - { offsetInCU: 0x58D2F, offset: 0x58D2F, size: 0x8, addend: 0x0, symName: __ZN5Eigen8internal15call_assignmentINS_6MatrixIfLin1ELi1ELi0ELin1ELi1EEENS_8DiagonalINS2_IfLin1ELin1ELi0ELin1ELin1EEELi0EEENS0_9assign_opIffEEEEvRT_RKT0_RKT1_NS0_9enable_ifIXntsr25evaluator_assume_aliasingISB_EE5valueEPvE4typeE, symObjAddr: 0x1DD5F8, symBinAddr: 0x1001DFEBC, symSize: 0x38 }
  - { offsetInCU: 0x58D9D, offset: 0x58D9D, size: 0x8, addend: 0x0, symName: __ZN5Eigen8internal24call_assignment_no_aliasINS_6MatrixIfLin1ELi1ELi0ELin1ELi1EEENS_8DiagonalINS2_IfLin1ELin1ELi0ELin1ELin1EEELi0EEENS0_9assign_opIffEEEEvRT_RKT0_RKT1_, symObjAddr: 0x1DD630, symBinAddr: 0x1001DFEF4, symSize: 0x3C }
  - { offsetInCU: 0x58E6B, offset: 0x58E6B, size: 0x8, addend: 0x0, symName: __ZN5Eigen8internal18check_for_aliasingINS_6MatrixIfLin1ELi1ELi0ELin1ELi1EEENS_8DiagonalINS2_IfLin1ELin1ELi0ELin1ELin1EEELi0EEEEEvRKT_RKT0_, symObjAddr: 0x1DD6AC, symBinAddr: 0x1001DFF70, symSize: 0x14 }
  - { offsetInCU: 0x58EB6, offset: 0x58EB6, size: 0x8, addend: 0x0, symName: __ZN5Eigen8internal26call_dense_assignment_loopINS_6MatrixIfLin1ELi1ELi0ELin1ELi1EEENS_8DiagonalINS2_IfLin1ELin1ELi0ELin1ELin1EEELi0EEENS0_9assign_opIffEEEEvRT_RKT0_RKT1_, symObjAddr: 0x1DD6C0, symBinAddr: 0x1001DFF84, symSize: 0x41C }
  - { offsetInCU: 0x590F1, offset: 0x590F1, size: 0x8, addend: 0x0, symName: __ZN5Eigen8internal17resize_if_allowedINS_6MatrixIfLin1ELi1ELi0ELin1ELi1EEENS_8DiagonalINS2_IfLin1ELin1ELi0ELin1ELin1EEELi0EEEffEEvRT_RKT0_RKNS0_9assign_opIT1_T2_EE, symObjAddr: 0x1DDB10, symBinAddr: 0x1001E03D4, symSize: 0xFC }
  - { offsetInCU: 0x593C9, offset: 0x593C9, size: 0x8, addend: 0x0, symName: __ZN5Eigen8internal24call_assignment_no_aliasINS_14TriangularViewINS_5BlockINS_6MatrixIfLin1ELin1ELi0ELin1ELin1EEELin1ELin1ELb0EEELj9EEENS_9TransposeIS6_EENS0_9assign_opIffEEEEvRT_RKT0_RKT1_, symObjAddr: 0x1DEAD0, symBinAddr: 0x1001E1394, symSize: 0x3C }
  - { offsetInCU: 0x594A1, offset: 0x594A1, size: 0x8, addend: 0x0, symName: __ZN5Eigen8internal31call_triangular_assignment_loopILi9ELb0ENS_14TriangularViewINS_5BlockINS_6MatrixIfLin1ELin1ELi0ELin1ELin1EEELin1ELin1ELb0EEELj9EEENS_9TransposeIS6_EENS0_9assign_opIffEEEEvRT1_RKT2_RKT3_, symObjAddr: 0x1DEB68, symBinAddr: 0x1001E142C, symSize: 0x4B8 }
  - { offsetInCU: 0x59AD8, offset: 0x59AD8, size: 0x8, addend: 0x0, symName: __ZN5Eigen8internal15call_assignmentINS_8DiagonalINS_6MatrixIfLin1ELin1ELi0ELin1ELin1EEELi0EEENS3_IfLin1ELi1ELi0ELin1ELi1EEEEEvRT_RKT0_, symObjAddr: 0x1E2874, symBinAddr: 0x1001E5138, symSize: 0x1F8 }
  - { offsetInCU: 0x59B25, offset: 0x59B25, size: 0x8, addend: 0x0, symName: __ZN5Eigen8internal15call_assignmentINS_8DiagonalINS_6MatrixIfLin1ELin1ELi0ELin1ELin1EEELi0EEENS3_IfLin1ELi1ELi0ELin1ELi1EEENS0_9assign_opIffEEEEvRT_RKT0_RKT1_NS0_9enable_ifIXntsr25evaluator_assume_aliasingISB_EE5valueEPvE4typeE, symObjAddr: 0x1E2A80, symBinAddr: 0x1001E5344, symSize: 0x38 }
  - { offsetInCU: 0x59B93, offset: 0x59B93, size: 0x8, addend: 0x0, symName: __ZN5Eigen8internal24call_assignment_no_aliasINS_8DiagonalINS_6MatrixIfLin1ELin1ELi0ELin1ELin1EEELi0EEENS3_IfLin1ELi1ELi0ELin1ELi1EEENS0_9assign_opIffEEEEvRT_RKT0_RKT1_, symObjAddr: 0x1E2AB8, symBinAddr: 0x1001E537C, symSize: 0x3C }
  - { offsetInCU: 0x59C61, offset: 0x59C61, size: 0x8, addend: 0x0, symName: __ZN5Eigen8internal18check_for_aliasingINS_8DiagonalINS_6MatrixIfLin1ELin1ELi0ELin1ELin1EEELi0EEENS3_IfLin1ELi1ELi0ELin1ELi1EEEEEvRKT_RKT0_, symObjAddr: 0x1E2B34, symBinAddr: 0x1001E53F8, symSize: 0x14 }
  - { offsetInCU: 0x59CAC, offset: 0x59CAC, size: 0x8, addend: 0x0, symName: __ZN5Eigen8internal26call_dense_assignment_loopINS_8DiagonalINS_6MatrixIfLin1ELin1ELi0ELin1ELin1EEELi0EEENS3_IfLin1ELi1ELi0ELin1ELi1EEENS0_9assign_opIffEEEEvRT_RKT0_RKT1_, symObjAddr: 0x1E2B48, symBinAddr: 0x1001E540C, symSize: 0x424 }
  - { offsetInCU: 0x59D70, offset: 0x59D70, size: 0x8, addend: 0x0, symName: __ZN5Eigen8internal17resize_if_allowedINS_8DiagonalINS_6MatrixIfLin1ELin1ELi0ELin1ELin1EEELi0EEENS3_IfLin1ELi1ELi0ELin1ELi1EEEffEEvRT_RKT0_RKNS0_9assign_opIT1_T2_EE, symObjAddr: 0x1E2F6C, symBinAddr: 0x1001E5830, symSize: 0xFC }
  - { offsetInCU: 0x5A048, offset: 0x5A048, size: 0x8, addend: 0x0, symName: __ZN5Eigen8internal15call_assignmentINS_6MatrixIfLin1ELi1ELi0ELin1ELi1EEENS_7ProductINS_7InverseINS_17PermutationMatrixILin1ELin1EiEEEENS_13CwiseBinaryOpINS0_17scalar_product_opIffEEKS3_KNS9_INS0_18scalar_quotient_opIffEESC_KNS_14CwiseNullaryOpINS0_18scalar_constant_opIfEESC_EEEEEELi2EEEEEvRT_RKT0_, symObjAddr: 0x1E3E90, symBinAddr: 0x1001E6754, symSize: 0x1F8 }
  - { offsetInCU: 0x5A095, offset: 0x5A095, size: 0x8, addend: 0x0, symName: __ZN5Eigen8internal15call_assignmentINS_6MatrixIfLin1ELi1ELi0ELin1ELi1EEENS_7ProductINS_7InverseINS_17PermutationMatrixILin1ELin1EiEEEENS_13CwiseBinaryOpINS0_17scalar_product_opIffEEKS3_KNS9_INS0_18scalar_quotient_opIffEESC_KNS_14CwiseNullaryOpINS0_18scalar_constant_opIfEESC_EEEEEELi2EEENS0_9assign_opIffEEEEvRT_RKT0_RKT1_NS0_9enable_ifIXntsr25evaluator_assume_aliasingISS_EE5valueEPvE4typeE, symObjAddr: 0x1E409C, symBinAddr: 0x1001E6960, symSize: 0x38 }
  - { offsetInCU: 0x5A103, offset: 0x5A103, size: 0x8, addend: 0x0, symName: __ZN5Eigen8internal24call_assignment_no_aliasINS_6MatrixIfLin1ELi1ELi0ELin1ELi1EEENS_7ProductINS_7InverseINS_17PermutationMatrixILin1ELin1EiEEEENS_13CwiseBinaryOpINS0_17scalar_product_opIffEEKS3_KNS9_INS0_18scalar_quotient_opIffEESC_KNS_14CwiseNullaryOpINS0_18scalar_constant_opIfEESC_EEEEEELi2EEENS0_9assign_opIffEEEEvRT_RKT0_RKT1_, symObjAddr: 0x1E40D4, symBinAddr: 0x1001E6998, symSize: 0x3C }
  - { offsetInCU: 0x5A2A3, offset: 0x5A2A3, size: 0x8, addend: 0x0, symName: __ZN5Eigen8internal13is_same_denseINS_6MatrixIfLin1ELi1ELi0ELin1ELi1EEENS_13CwiseBinaryOpINS0_17scalar_product_opIffEEKS3_KNS4_INS0_18scalar_quotient_opIffEES7_KNS_14CwiseNullaryOpINS0_18scalar_constant_opIfEES7_EEEEEEEEbRKT_RKT0_PNS0_9enable_ifIXntsr19possibly_same_denseISI_SL_EE5valueEvE4typeE, symObjAddr: 0x1E4CF0, symBinAddr: 0x1001E75B4, symSize: 0x20 }
  - { offsetInCU: 0x5A2F5, offset: 0x5A2F5, size: 0x8, addend: 0x0, symName: __ZN5Eigen8internal15call_assignmentINS_5BlockINS_6MatrixIfLin1ELi1ELi0ELin1ELi1EEELi1ELi1ELb0EEENS2_IKNS_13CwiseBinaryOpINS0_17scalar_product_opIffEEKS4_KNS6_INS0_18scalar_quotient_opIffEES9_KNS_14CwiseNullaryOpINS0_18scalar_constant_opIfEES9_EEEEEELi1ELi1ELb0EEEEEvRT_RKT0_, symObjAddr: 0x1E503C, symBinAddr: 0x1001E7900, symSize: 0x1F8 }
  - { offsetInCU: 0x5A342, offset: 0x5A342, size: 0x8, addend: 0x0, symName: __ZN5Eigen8internal15call_assignmentINS_5BlockINS_6MatrixIfLin1ELi1ELi0ELin1ELi1EEELi1ELi1ELb0EEENS2_IKNS_13CwiseBinaryOpINS0_17scalar_product_opIffEEKS4_KNS6_INS0_18scalar_quotient_opIffEES9_KNS_14CwiseNullaryOpINS0_18scalar_constant_opIfEES9_EEEEEELi1ELi1ELb0EEENS0_9assign_opIffEEEEvRT_RKT0_RKT1_NS0_9enable_ifIXntsr25evaluator_assume_aliasingISQ_EE5valueEPvE4typeE, symObjAddr: 0x1E5234, symBinAddr: 0x1001E7AF8, symSize: 0x38 }
  - { offsetInCU: 0x5A3B0, offset: 0x5A3B0, size: 0x8, addend: 0x0, symName: __ZN5Eigen8internal24call_assignment_no_aliasINS_5BlockINS_6MatrixIfLin1ELi1ELi0ELin1ELi1EEELi1ELi1ELb0EEENS2_IKNS_13CwiseBinaryOpINS0_17scalar_product_opIffEEKS4_KNS6_INS0_18scalar_quotient_opIffEES9_KNS_14CwiseNullaryOpINS0_18scalar_constant_opIfEES9_EEEEEELi1ELi1ELb0EEENS0_9assign_opIffEEEEvRT_RKT0_RKT1_, symObjAddr: 0x1E526C, symBinAddr: 0x1001E7B30, symSize: 0x3C }
  - { offsetInCU: 0x5A47E, offset: 0x5A47E, size: 0x8, addend: 0x0, symName: __ZN5Eigen8internal18check_for_aliasingINS_5BlockINS_6MatrixIfLin1ELi1ELi0ELin1ELi1EEELi1ELi1ELb0EEENS2_IKNS_13CwiseBinaryOpINS0_17scalar_product_opIffEEKS4_KNS6_INS0_18scalar_quotient_opIffEES9_KNS_14CwiseNullaryOpINS0_18scalar_constant_opIfEES9_EEEEEELi1ELi1ELb0EEEEEvRKT_RKT0_, symObjAddr: 0x1E52E8, symBinAddr: 0x1001E7BAC, symSize: 0x14 }
  - { offsetInCU: 0x5A4C9, offset: 0x5A4C9, size: 0x8, addend: 0x0, symName: __ZN5Eigen8internal26call_dense_assignment_loopINS_5BlockINS_6MatrixIfLin1ELi1ELi0ELin1ELi1EEELi1ELi1ELb0EEENS2_IKNS_13CwiseBinaryOpINS0_17scalar_product_opIffEEKS4_KNS6_INS0_18scalar_quotient_opIffEES9_KNS_14CwiseNullaryOpINS0_18scalar_constant_opIfEES9_EEEEEELi1ELi1ELb0EEENS0_9assign_opIffEEEEvRT_RKT0_RKT1_, symObjAddr: 0x1E52FC, symBinAddr: 0x1001E7BC0, symSize: 0x43C }
  - { offsetInCU: 0x5A58E, offset: 0x5A58E, size: 0x8, addend: 0x0, symName: __ZN5Eigen8internal17resize_if_allowedINS_5BlockINS_6MatrixIfLin1ELi1ELi0ELin1ELi1EEELi1ELi1ELb0EEENS2_IKNS_13CwiseBinaryOpINS0_17scalar_product_opIffEEKS4_KNS6_INS0_18scalar_quotient_opIffEES9_KNS_14CwiseNullaryOpINS0_18scalar_constant_opIfEES9_EEEEEELi1ELi1ELb0EEEffEEvRT_RKT0_RKNS0_9assign_opIT1_T2_EE, symObjAddr: 0x1E576C, symBinAddr: 0x1001E8030, symSize: 0xFC }
  - { offsetInCU: 0x5A6C0, offset: 0x5A6C0, size: 0x8, addend: 0x0, symName: __ZN5Eigen8internal15call_assignmentINS_6MatrixIfLin1ELi1ELi0ELin1ELi1EEENS_12CwiseUnaryOpINS0_18scalar_opposite_opIfEEKS3_EEEEvRT_RKT0_, symObjAddr: 0x1E6FCC, symBinAddr: 0x1001E9890, symSize: 0x1F8 }
  - { offsetInCU: 0x5A70D, offset: 0x5A70D, size: 0x8, addend: 0x0, symName: __ZN5Eigen8internal15call_assignmentINS_6MatrixIfLin1ELi1ELi0ELin1ELi1EEENS_12CwiseUnaryOpINS0_18scalar_opposite_opIfEEKS3_EENS0_9assign_opIffEEEEvRT_RKT0_RKT1_NS0_9enable_ifIXntsr25evaluator_assume_aliasingISD_EE5valueEPvE4typeE, symObjAddr: 0x1E71D8, symBinAddr: 0x1001E9A9C, symSize: 0x38 }
  - { offsetInCU: 0x5A77B, offset: 0x5A77B, size: 0x8, addend: 0x0, symName: __ZN5Eigen8internal24call_assignment_no_aliasINS_6MatrixIfLin1ELi1ELi0ELin1ELi1EEENS_12CwiseUnaryOpINS0_18scalar_opposite_opIfEEKS3_EENS0_9assign_opIffEEEEvRT_RKT0_RKT1_, symObjAddr: 0x1E7210, symBinAddr: 0x1001E9AD4, symSize: 0x3C }
  - { offsetInCU: 0x5A849, offset: 0x5A849, size: 0x8, addend: 0x0, symName: __ZN5Eigen8internal18check_for_aliasingINS_6MatrixIfLin1ELi1ELi0ELin1ELi1EEENS_12CwiseUnaryOpINS0_18scalar_opposite_opIfEEKS3_EEEEvRKT_RKT0_, symObjAddr: 0x1E728C, symBinAddr: 0x1001E9B50, symSize: 0x14 }
  - { offsetInCU: 0x5A894, offset: 0x5A894, size: 0x8, addend: 0x0, symName: __ZN5Eigen8internal26call_dense_assignment_loopINS_6MatrixIfLin1ELi1ELi0ELin1ELi1EEENS_12CwiseUnaryOpINS0_18scalar_opposite_opIfEEKS3_EENS0_9assign_opIffEEEEvRT_RKT0_RKT1_, symObjAddr: 0x1E72A0, symBinAddr: 0x1001E9B64, symSize: 0x3EC }
  - { offsetInCU: 0x5A957, offset: 0x5A957, size: 0x8, addend: 0x0, symName: __ZN5Eigen8internal17resize_if_allowedINS_6MatrixIfLin1ELi1ELi0ELin1ELi1EEENS_12CwiseUnaryOpINS0_18scalar_opposite_opIfEEKS3_EEffEEvRT_RKT0_RKNS0_9assign_opIT1_T2_EE, symObjAddr: 0x1E76C0, symBinAddr: 0x1001E9F84, symSize: 0xFC }
  - { offsetInCU: 0x5A9DD, offset: 0x5A9DD, size: 0x8, addend: 0x0, symName: __ZN5Eigen8internal15call_assignmentINS_6MatrixIfLin1ELi1ELi0ELin1ELi1EEENS_13CwiseBinaryOpINS0_13scalar_sum_opIffEEKS3_S7_EEEEvRT_RKT0_, symObjAddr: 0x1E8960, symBinAddr: 0x1001EB224, symSize: 0x1F8 }
  - { offsetInCU: 0x5AA2A, offset: 0x5AA2A, size: 0x8, addend: 0x0, symName: __ZN5Eigen8internal15call_assignmentINS_6MatrixIfLin1ELi1ELi0ELin1ELi1EEENS_13CwiseBinaryOpINS0_13scalar_sum_opIffEEKS3_S7_EENS0_9assign_opIffEEEEvRT_RKT0_RKT1_NS0_9enable_ifIXntsr25evaluator_assume_aliasingISD_EE5valueEPvE4typeE, symObjAddr: 0x1E8B6C, symBinAddr: 0x1001EB430, symSize: 0x38 }
  - { offsetInCU: 0x5AA98, offset: 0x5AA98, size: 0x8, addend: 0x0, symName: __ZN5Eigen8internal24call_assignment_no_aliasINS_6MatrixIfLin1ELi1ELi0ELin1ELi1EEENS_13CwiseBinaryOpINS0_13scalar_sum_opIffEEKS3_S7_EENS0_9assign_opIffEEEEvRT_RKT0_RKT1_, symObjAddr: 0x1E8BA4, symBinAddr: 0x1001EB468, symSize: 0x3C }
  - { offsetInCU: 0x5AB66, offset: 0x5AB66, size: 0x8, addend: 0x0, symName: __ZN5Eigen8internal18check_for_aliasingINS_6MatrixIfLin1ELi1ELi0ELin1ELi1EEENS_13CwiseBinaryOpINS0_13scalar_sum_opIffEEKS3_S7_EEEEvRKT_RKT0_, symObjAddr: 0x1E8C20, symBinAddr: 0x1001EB4E4, symSize: 0x14 }
  - { offsetInCU: 0x5ABB1, offset: 0x5ABB1, size: 0x8, addend: 0x0, symName: __ZN5Eigen8internal26call_dense_assignment_loopINS_6MatrixIfLin1ELi1ELi0ELin1ELi1EEENS_13CwiseBinaryOpINS0_13scalar_sum_opIffEEKS3_S7_EENS0_9assign_opIffEEEEvRT_RKT0_RKT1_, symObjAddr: 0x1E8C34, symBinAddr: 0x1001EB4F8, symSize: 0x41C }
  - { offsetInCU: 0x5AC75, offset: 0x5AC75, size: 0x8, addend: 0x0, symName: __ZN5Eigen8internal17resize_if_allowedINS_6MatrixIfLin1ELi1ELi0ELin1ELi1EEENS_13CwiseBinaryOpINS0_13scalar_sum_opIffEEKS3_S7_EEffEEvRT_RKT0_RKNS0_9assign_opIT1_T2_EE, symObjAddr: 0x1E9084, symBinAddr: 0x1001EB948, symSize: 0xFC }
  - { offsetInCU: 0x5ACFB, offset: 0x5ACFB, size: 0x8, addend: 0x0, symName: __ZN5Eigen8internal15call_assignmentINS_6MatrixIfLin1ELi1ELi0ELin1ELi1EEENS_7ProductINS_14TriangularViewINS2_IfLin1ELin1ELi0ELin1ELin1EEELj2EEENS4_INS_7InverseINS_17PermutationMatrixILin1ELin1EiEEEES3_Li2EEELi0EEEEEvRT_RKT0_, symObjAddr: 0x1EA86C, symBinAddr: 0x1001ED130, symSize: 0x1F8 }
  - { offsetInCU: 0x5AD48, offset: 0x5AD48, size: 0x8, addend: 0x0, symName: __ZN5Eigen8internal15call_assignmentINS_6MatrixIfLin1ELi1ELi0ELin1ELi1EEENS_7ProductINS_14TriangularViewINS2_IfLin1ELin1ELi0ELin1ELin1EEELj2EEENS4_INS_7InverseINS_17PermutationMatrixILin1ELin1EiEEEES3_Li2EEELi0EEENS0_9assign_opIffEEEEvRT_RKT0_RKT1_NS0_9enable_ifIXsr25evaluator_assume_aliasingISI_EE5valueEPvE4typeE, symObjAddr: 0x1EAA78, symBinAddr: 0x1001ED33C, symSize: 0x294 }
  - { offsetInCU: 0x5ADCD, offset: 0x5ADCD, size: 0x8, addend: 0x0, symName: __ZN5Eigen8internal24call_assignment_no_aliasINS_6MatrixIfLin1ELi1ELi0ELin1ELi1EEENS_7ProductINS_14TriangularViewINS2_IfLin1ELin1ELi0ELin1ELin1EEELj2EEENS4_INS_7InverseINS_17PermutationMatrixILin1ELin1EiEEEES3_Li2EEELi0EEENS0_9assign_opIffEEEEvRT_RKT0_RKT1_, symObjAddr: 0x1EAFF0, symBinAddr: 0x1001ED8B4, symSize: 0x3C }
  - { offsetInCU: 0x5B07E, offset: 0x5B07E, size: 0x8, addend: 0x0, symName: __ZN5Eigen8internal24call_assignment_no_aliasINS_6MatrixIfLin1ELi1ELi0ELin1ELi1EEENS_7ProductINS_7InverseINS_17PermutationMatrixILin1ELin1EiEEEES3_Li2EEENS0_9assign_opIffEEEEvRT_RKT0_RKT1_, symObjAddr: 0x1EE420, symBinAddr: 0x1001F0CE4, symSize: 0x3C }
  - { offsetInCU: 0x5B21E, offset: 0x5B21E, size: 0x8, addend: 0x0, symName: __ZN5Eigen8internal15call_assignmentINS_3MapINS_6MatrixIfLin1ELi1ELi0ELin1ELi1EEELi4ENS_6StrideILi0ELi0EEEEENS_14CwiseNullaryOpINS0_18scalar_constant_opIfEES4_EEEEvRT_RKT0_, symObjAddr: 0x1EF91C, symBinAddr: 0x1001F21E0, symSize: 0x1F8 }
  - { offsetInCU: 0x5B26B, offset: 0x5B26B, size: 0x8, addend: 0x0, symName: __ZN5Eigen8internal15call_assignmentINS_3MapINS_6MatrixIfLin1ELi1ELi0ELin1ELi1EEELi4ENS_6StrideILi0ELi0EEEEENS_14CwiseNullaryOpINS0_18scalar_constant_opIfEES4_EENS0_9assign_opIffEEEEvRT_RKT0_RKT1_NS0_9enable_ifIXntsr25evaluator_assume_aliasingISG_EE5valueEPvE4typeE, symObjAddr: 0x1EFB14, symBinAddr: 0x1001F23D8, symSize: 0x38 }
  - { offsetInCU: 0x5B2D9, offset: 0x5B2D9, size: 0x8, addend: 0x0, symName: __ZN5Eigen8internal24call_assignment_no_aliasINS_3MapINS_6MatrixIfLin1ELi1ELi0ELin1ELi1EEELi4ENS_6StrideILi0ELi0EEEEENS_14CwiseNullaryOpINS0_18scalar_constant_opIfEES4_EENS0_9assign_opIffEEEEvRT_RKT0_RKT1_, symObjAddr: 0x1EFB4C, symBinAddr: 0x1001F2410, symSize: 0x3C }
  - { offsetInCU: 0x5B3A7, offset: 0x5B3A7, size: 0x8, addend: 0x0, symName: __ZN5Eigen8internal18check_for_aliasingINS_3MapINS_6MatrixIfLin1ELi1ELi0ELin1ELi1EEELi4ENS_6StrideILi0ELi0EEEEENS_14CwiseNullaryOpINS0_18scalar_constant_opIfEES4_EEEEvRKT_RKT0_, symObjAddr: 0x1EFBC8, symBinAddr: 0x1001F248C, symSize: 0x14 }
  - { offsetInCU: 0x5B3F2, offset: 0x5B3F2, size: 0x8, addend: 0x0, symName: __ZN5Eigen8internal26call_dense_assignment_loopINS_3MapINS_6MatrixIfLin1ELi1ELi0ELin1ELi1EEELi4ENS_6StrideILi0ELi0EEEEENS_14CwiseNullaryOpINS0_18scalar_constant_opIfEES4_EENS0_9assign_opIffEEEEvRT_RKT0_RKT1_, symObjAddr: 0x1EFBDC, symBinAddr: 0x1001F24A0, symSize: 0x424 }
  - { offsetInCU: 0x5B4B6, offset: 0x5B4B6, size: 0x8, addend: 0x0, symName: __ZN5Eigen8internal17resize_if_allowedINS_3MapINS_6MatrixIfLin1ELi1ELi0ELin1ELi1EEELi4ENS_6StrideILi0ELi0EEEEENS_14CwiseNullaryOpINS0_18scalar_constant_opIfEES4_EEffEEvRT_RKT0_RKNS0_9assign_opIT1_T2_EE, symObjAddr: 0x1F0000, symBinAddr: 0x1001F28C4, symSize: 0xFC }
  - { offsetInCU: 0x5B53C, offset: 0x5B53C, size: 0x8, addend: 0x0, symName: __ZN5Eigen8internal15call_assignmentINS_3MapINS_6MatrixIfLin1ELi1ELi0ELin1ELi1EEELi4ENS_6StrideILi0ELi0EEEEES4_EEvRT_RKT0_, symObjAddr: 0x1F0FCC, symBinAddr: 0x1001F3890, symSize: 0x1F8 }
  - { offsetInCU: 0x5B589, offset: 0x5B589, size: 0x8, addend: 0x0, symName: __ZN5Eigen8internal15call_assignmentINS_3MapINS_6MatrixIfLin1ELi1ELi0ELin1ELi1EEELi4ENS_6StrideILi0ELi0EEEEES4_NS0_9assign_opIffEEEEvRT_RKT0_RKT1_NS0_9enable_ifIXntsr25evaluator_assume_aliasingISC_EE5valueEPvE4typeE, symObjAddr: 0x1F11C4, symBinAddr: 0x1001F3A88, symSize: 0x38 }
  - { offsetInCU: 0x5B5F7, offset: 0x5B5F7, size: 0x8, addend: 0x0, symName: __ZN5Eigen8internal24call_assignment_no_aliasINS_3MapINS_6MatrixIfLin1ELi1ELi0ELin1ELi1EEELi4ENS_6StrideILi0ELi0EEEEES4_NS0_9assign_opIffEEEEvRT_RKT0_RKT1_, symObjAddr: 0x1F11FC, symBinAddr: 0x1001F3AC0, symSize: 0x3C }
  - { offsetInCU: 0x5B6C5, offset: 0x5B6C5, size: 0x8, addend: 0x0, symName: __ZN5Eigen8internal18check_for_aliasingINS_3MapINS_6MatrixIfLin1ELi1ELi0ELin1ELi1EEELi4ENS_6StrideILi0ELi0EEEEES4_EEvRKT_RKT0_, symObjAddr: 0x1F1278, symBinAddr: 0x1001F3B3C, symSize: 0x14 }
  - { offsetInCU: 0x5B710, offset: 0x5B710, size: 0x8, addend: 0x0, symName: __ZN5Eigen8internal26call_dense_assignment_loopINS_3MapINS_6MatrixIfLin1ELi1ELi0ELin1ELi1EEELi4ENS_6StrideILi0ELi0EEEEES4_NS0_9assign_opIffEEEEvRT_RKT0_RKT1_, symObjAddr: 0x1F128C, symBinAddr: 0x1001F3B50, symSize: 0x41C }
  - { offsetInCU: 0x5B7D4, offset: 0x5B7D4, size: 0x8, addend: 0x0, symName: __ZN5Eigen8internal17resize_if_allowedINS_3MapINS_6MatrixIfLin1ELi1ELi0ELin1ELi1EEELi4ENS_6StrideILi0ELi0EEEEES4_ffEEvRT_RKT0_RKNS0_9assign_opIT1_T2_EE, symObjAddr: 0x1F16A8, symBinAddr: 0x1001F3F6C, symSize: 0xFC }
  - { offsetInCU: 0x5B88B, offset: 0x5B88B, size: 0x8, addend: 0x0, symName: __ZN5Eigen8internal15call_assignmentINS_5BlockINS_3MapINS_6MatrixIfLin1ELi1ELi0ELin1ELi1EEELi0ENS_6StrideILi0ELi0EEEEELin1ELi1ELb0EEENS_13CwiseBinaryOpINS0_17scalar_product_opIffEEKNS_14CwiseNullaryOpINS0_18scalar_constant_opIfEEKS5_EEKNS2_IKNS2_IKNS3_IKNS4_IfLin1ELin1ELi0ELin1ELin1EEELi0ENS_11OuterStrideILin1EEEEELin1ELi1ELb1EEELin1ELi1ELb0EEEEENS0_13add_assign_opIffEEEEvRT_RKT0_RKT1_NS0_9enable_ifIXntsr25evaluator_assume_aliasingISY_EE5valueEPvE4typeE, symObjAddr: 0x1FDBA0, symBinAddr: 0x100200464, symSize: 0x38 }
  - { offsetInCU: 0x5B8F9, offset: 0x5B8F9, size: 0x8, addend: 0x0, symName: __ZN5Eigen8internal24call_assignment_no_aliasINS_5BlockINS_3MapINS_6MatrixIfLin1ELi1ELi0ELin1ELi1EEELi0ENS_6StrideILi0ELi0EEEEELin1ELi1ELb0EEENS_13CwiseBinaryOpINS0_17scalar_product_opIffEEKNS_14CwiseNullaryOpINS0_18scalar_constant_opIfEEKS5_EEKNS2_IKNS2_IKNS3_IKNS4_IfLin1ELin1ELi0ELin1ELin1EEELi0ENS_11OuterStrideILin1EEEEELin1ELi1ELb1EEELin1ELi1ELb0EEEEENS0_13add_assign_opIffEEEEvRT_RKT0_RKT1_, symObjAddr: 0x1FDBEC, symBinAddr: 0x1002004B0, symSize: 0x3C }
  - { offsetInCU: 0x5B9C7, offset: 0x5B9C7, size: 0x8, addend: 0x0, symName: __ZN5Eigen8internal18check_for_aliasingINS_5BlockINS_3MapINS_6MatrixIfLin1ELi1ELi0ELin1ELi1EEELi0ENS_6StrideILi0ELi0EEEEELin1ELi1ELb0EEENS_13CwiseBinaryOpINS0_17scalar_product_opIffEEKNS_14CwiseNullaryOpINS0_18scalar_constant_opIfEEKS5_EEKNS2_IKNS2_IKNS3_IKNS4_IfLin1ELin1ELi0ELin1ELin1EEELi0ENS_11OuterStrideILin1EEEEELin1ELi1ELb1EEELin1ELi1ELb0EEEEEEEvRKT_RKT0_, symObjAddr: 0x1FDC68, symBinAddr: 0x10020052C, symSize: 0x14 }
  - { offsetInCU: 0x5BA12, offset: 0x5BA12, size: 0x8, addend: 0x0, symName: __ZN5Eigen8internal26call_dense_assignment_loopINS_5BlockINS_3MapINS_6MatrixIfLin1ELi1ELi0ELin1ELi1EEELi0ENS_6StrideILi0ELi0EEEEELin1ELi1ELb0EEENS_13CwiseBinaryOpINS0_17scalar_product_opIffEEKNS_14CwiseNullaryOpINS0_18scalar_constant_opIfEEKS5_EEKNS2_IKNS2_IKNS3_IKNS4_IfLin1ELin1ELi0ELin1ELin1EEELi0ENS_11OuterStrideILin1EEEEELin1ELi1ELb1EEELin1ELi1ELb0EEEEENS0_13add_assign_opIffEEEEvRT_RKT0_RKT1_, symObjAddr: 0x1FDC7C, symBinAddr: 0x100200540, symSize: 0x468 }
  - { offsetInCU: 0x5BAD6, offset: 0x5BAD6, size: 0x8, addend: 0x0, symName: __ZN5Eigen8internal17resize_if_allowedINS_5BlockINS_3MapINS_6MatrixIfLin1ELi1ELi0ELin1ELi1EEELi0ENS_6StrideILi0ELi0EEEEELin1ELi1ELb0EEENS_13CwiseBinaryOpINS0_17scalar_product_opIffEEKNS_14CwiseNullaryOpINS0_18scalar_constant_opIfEEKS5_EEKNS2_IKNS2_IKNS3_IKNS4_IfLin1ELin1ELi0ELin1ELin1EEELi0ENS_11OuterStrideILin1EEEEELin1ELi1ELb1EEELin1ELi1ELb0EEEEENS0_13add_assign_opIffEEEEvRT_RKT0_RKT1_, symObjAddr: 0x1FE0E4, symBinAddr: 0x1002009A8, symSize: 0xB8 }
  - { offsetInCU: 0x5BB35, offset: 0x5BB35, size: 0x8, addend: 0x0, symName: __ZN5Eigen8internal15call_assignmentINS_6MatrixIfLin1ELi1ELi0ELin1ELi1EEENS_13CwiseBinaryOpINS0_17scalar_product_opIffEEKNS_14CwiseNullaryOpINS0_18scalar_constant_opIfEEKS3_EEKNS_3MapIS3_Li4ENS_6StrideILi0ELi0EEEEEEENS0_13add_assign_opIffEEEEvRT_RKT0_RKT1_NS0_9enable_ifIXntsr25evaluator_assume_aliasingISN_EE5valueEPvE4typeE, symObjAddr: 0x1FF33C, symBinAddr: 0x100201C00, symSize: 0x38 }
  - { offsetInCU: 0x5BBA3, offset: 0x5BBA3, size: 0x8, addend: 0x0, symName: __ZN5Eigen8internal24call_assignment_no_aliasINS_6MatrixIfLin1ELi1ELi0ELin1ELi1EEENS_13CwiseBinaryOpINS0_17scalar_product_opIffEEKNS_14CwiseNullaryOpINS0_18scalar_constant_opIfEEKS3_EEKNS_3MapIS3_Li4ENS_6StrideILi0ELi0EEEEEEENS0_13add_assign_opIffEEEEvRT_RKT0_RKT1_, symObjAddr: 0x1FF388, symBinAddr: 0x100201C4C, symSize: 0x3C }
  - { offsetInCU: 0x5BC71, offset: 0x5BC71, size: 0x8, addend: 0x0, symName: __ZN5Eigen8internal18check_for_aliasingINS_6MatrixIfLin1ELi1ELi0ELin1ELi1EEENS_13CwiseBinaryOpINS0_17scalar_product_opIffEEKNS_14CwiseNullaryOpINS0_18scalar_constant_opIfEEKS3_EEKNS_3MapIS3_Li4ENS_6StrideILi0ELi0EEEEEEEEEvRKT_RKT0_, symObjAddr: 0x1FF404, symBinAddr: 0x100201CC8, symSize: 0x14 }
  - { offsetInCU: 0x5BCBC, offset: 0x5BCBC, size: 0x8, addend: 0x0, symName: __ZN5Eigen8internal26call_dense_assignment_loopINS_6MatrixIfLin1ELi1ELi0ELin1ELi1EEENS_13CwiseBinaryOpINS0_17scalar_product_opIffEEKNS_14CwiseNullaryOpINS0_18scalar_constant_opIfEEKS3_EEKNS_3MapIS3_Li4ENS_6StrideILi0ELi0EEEEEEENS0_13add_assign_opIffEEEEvRT_RKT0_RKT1_, symObjAddr: 0x1FF418, symBinAddr: 0x100201CDC, symSize: 0x440 }
  - { offsetInCU: 0x5BD80, offset: 0x5BD80, size: 0x8, addend: 0x0, symName: __ZN5Eigen8internal17resize_if_allowedINS_6MatrixIfLin1ELi1ELi0ELin1ELi1EEENS_13CwiseBinaryOpINS0_17scalar_product_opIffEEKNS_14CwiseNullaryOpINS0_18scalar_constant_opIfEEKS3_EEKNS_3MapIS3_Li4ENS_6StrideILi0ELi0EEEEEEENS0_13add_assign_opIffEEEEvRT_RKT0_RKT1_, symObjAddr: 0x1FF88C, symBinAddr: 0x100202150, symSize: 0xB8 }
  - { offsetInCU: 0x5BDDF, offset: 0x5BDDF, size: 0x8, addend: 0x0, symName: __ZN5Eigen8internal15call_assignmentINS_6MatrixIfLin1ELi1ELi0ELin1ELi1EEENS_3MapIS3_Li4ENS_6StrideILi0ELi0EEEEEEEvRT_RKT0_, symObjAddr: 0x200D50, symBinAddr: 0x100203614, symSize: 0x1F8 }
  - { offsetInCU: 0x5BE2C, offset: 0x5BE2C, size: 0x8, addend: 0x0, symName: __ZN5Eigen8internal15call_assignmentINS_6MatrixIfLin1ELi1ELi0ELin1ELi1EEENS_3MapIS3_Li4ENS_6StrideILi0ELi0EEEEENS0_9assign_opIffEEEEvRT_RKT0_RKT1_NS0_9enable_ifIXntsr25evaluator_assume_aliasingISC_EE5valueEPvE4typeE, symObjAddr: 0x200F48, symBinAddr: 0x10020380C, symSize: 0x38 }
  - { offsetInCU: 0x5BE9A, offset: 0x5BE9A, size: 0x8, addend: 0x0, symName: __ZN5Eigen8internal24call_assignment_no_aliasINS_6MatrixIfLin1ELi1ELi0ELin1ELi1EEENS_3MapIS3_Li4ENS_6StrideILi0ELi0EEEEENS0_9assign_opIffEEEEvRT_RKT0_RKT1_, symObjAddr: 0x200F80, symBinAddr: 0x100203844, symSize: 0x3C }
  - { offsetInCU: 0x5BF68, offset: 0x5BF68, size: 0x8, addend: 0x0, symName: __ZN5Eigen8internal18check_for_aliasingINS_6MatrixIfLin1ELi1ELi0ELin1ELi1EEENS_3MapIS3_Li4ENS_6StrideILi0ELi0EEEEEEEvRKT_RKT0_, symObjAddr: 0x200FFC, symBinAddr: 0x1002038C0, symSize: 0x14 }
  - { offsetInCU: 0x5BFB3, offset: 0x5BFB3, size: 0x8, addend: 0x0, symName: __ZN5Eigen8internal26call_dense_assignment_loopINS_6MatrixIfLin1ELi1ELi0ELin1ELi1EEENS_3MapIS3_Li4ENS_6StrideILi0ELi0EEEEENS0_9assign_opIffEEEEvRT_RKT0_RKT1_, symObjAddr: 0x201010, symBinAddr: 0x1002038D4, symSize: 0x41C }
  - { offsetInCU: 0x5C077, offset: 0x5C077, size: 0x8, addend: 0x0, symName: __ZN5Eigen8internal17resize_if_allowedINS_6MatrixIfLin1ELi1ELi0ELin1ELi1EEENS_3MapIS3_Li4ENS_6StrideILi0ELi0EEEEEffEEvRT_RKT0_RKNS0_9assign_opIT1_T2_EE, symObjAddr: 0x20142C, symBinAddr: 0x100203CF0, symSize: 0xFC }
  - { offsetInCU: 0x5C0FD, offset: 0x5C0FD, size: 0x8, addend: 0x0, symName: __ZN5Eigen8internal15call_assignmentINS_6MatrixIfLin1ELi1ELi0ELin1ELi1EEENS_13CwiseBinaryOpINS0_17scalar_product_opIffEEKS3_S7_EEEEvRT_RKT0_, symObjAddr: 0x201C88, symBinAddr: 0x10020454C, symSize: 0x1F8 }
  - { offsetInCU: 0x5C14A, offset: 0x5C14A, size: 0x8, addend: 0x0, symName: __ZN5Eigen8internal15call_assignmentINS_6MatrixIfLin1ELi1ELi0ELin1ELi1EEENS_13CwiseBinaryOpINS0_17scalar_product_opIffEEKS3_S7_EENS0_9assign_opIffEEEEvRT_RKT0_RKT1_NS0_9enable_ifIXntsr25evaluator_assume_aliasingISD_EE5valueEPvE4typeE, symObjAddr: 0x201E80, symBinAddr: 0x100204744, symSize: 0x38 }
  - { offsetInCU: 0x5C1B8, offset: 0x5C1B8, size: 0x8, addend: 0x0, symName: __ZN5Eigen8internal24call_assignment_no_aliasINS_6MatrixIfLin1ELi1ELi0ELin1ELi1EEENS_13CwiseBinaryOpINS0_17scalar_product_opIffEEKS3_S7_EENS0_9assign_opIffEEEEvRT_RKT0_RKT1_, symObjAddr: 0x201EB8, symBinAddr: 0x10020477C, symSize: 0x3C }
  - { offsetInCU: 0x5C286, offset: 0x5C286, size: 0x8, addend: 0x0, symName: __ZN5Eigen8internal18check_for_aliasingINS_6MatrixIfLin1ELi1ELi0ELin1ELi1EEENS_13CwiseBinaryOpINS0_17scalar_product_opIffEEKS3_S7_EEEEvRKT_RKT0_, symObjAddr: 0x201F34, symBinAddr: 0x1002047F8, symSize: 0x14 }
  - { offsetInCU: 0x5C2D1, offset: 0x5C2D1, size: 0x8, addend: 0x0, symName: __ZN5Eigen8internal26call_dense_assignment_loopINS_6MatrixIfLin1ELi1ELi0ELin1ELi1EEENS_13CwiseBinaryOpINS0_17scalar_product_opIffEEKS3_S7_EENS0_9assign_opIffEEEEvRT_RKT0_RKT1_, symObjAddr: 0x201F48, symBinAddr: 0x10020480C, symSize: 0x41C }
  - { offsetInCU: 0x5C395, offset: 0x5C395, size: 0x8, addend: 0x0, symName: __ZN5Eigen8internal17resize_if_allowedINS_6MatrixIfLin1ELi1ELi0ELin1ELi1EEENS_13CwiseBinaryOpINS0_17scalar_product_opIffEEKS3_S7_EEffEEvRT_RKT0_RKNS0_9assign_opIT1_T2_EE, symObjAddr: 0x202364, symBinAddr: 0x100204C28, symSize: 0xFC }
  - { offsetInCU: 0x5D59F, offset: 0x5D59F, size: 0x8, addend: 0x0, symName: __ZN5EigenL6lastp1E, symObjAddr: 0x13913C0, symBinAddr: 0x1002D4A60, symSize: 0x0 }
  - { offsetInCU: 0x5D5B8, offset: 0x5D5B8, size: 0x8, addend: 0x0, symName: __ZN5EigenL3allE, symObjAddr: 0x1391400, symBinAddr: 0x1002D4AA0, symSize: 0x0 }
  - { offsetInCU: 0xAA3D9, offset: 0xAA3D9, size: 0x8, addend: 0x0, symName: __ZN5EigenL3fixILi1EEE, symObjAddr: 0x13913E0, symBinAddr: 0x1002D4A80, symSize: 0x0 }
  - { offsetInCU: 0xAA3FD, offset: 0xAA3FD, size: 0x8, addend: 0x0, symName: __ZN5EigenL3fixILi0EEE, symObjAddr: 0x1391420, symBinAddr: 0x1002D4AC0, symSize: 0x0 }
  - { offsetInCU: 0xAA421, offset: 0xAA421, size: 0x8, addend: 0x0, symName: __ZN5EigenL3fixILi2EEE, symObjAddr: 0x1391440, symBinAddr: 0x1002D4AE0, symSize: 0x0 }
  - { offsetInCU: 0xAA445, offset: 0xAA445, size: 0x8, addend: 0x0, symName: __ZN5EigenL3fixILi3EEE, symObjAddr: 0x1391460, symBinAddr: 0x1002D4B00, symSize: 0x0 }
  - { offsetInCU: 0xAA483, offset: 0xAA483, size: 0x8, addend: 0x0, symName: __ZN5Eigen6numext4realIfEENS_8internal11real_retvalINS2_36global_math_functions_filtering_baseIT_vE4typeEE4typeERKS5_, symObjAddr: 0x19274, symBinAddr: 0x10001BB38, symSize: 0x24 }
  - { offsetInCU: 0xAA4BA, offset: 0xAA4BA, size: 0x8, addend: 0x0, symName: __ZN5Eigen6numext4abs2IfEENS_8internal11abs2_retvalINS2_36global_math_functions_filtering_baseIT_vE4typeEE4typeERKS5_, symObjAddr: 0x1C034, symBinAddr: 0x10001E8F8, symSize: 0x24 }
  - { offsetInCU: 0xAA4F1, offset: 0xAA4F1, size: 0x8, addend: 0x0, symName: __ZN5Eigen6numext4swapIPfEEvRT_S4_, symObjAddr: 0x4DCA0, symBinAddr: 0x100050564, symSize: 0x2C }
  - { offsetInCU: 0xAA533, offset: 0xAA533, size: 0x8, addend: 0x0, symName: __ZN5Eigen6numext4swapIlEEvRT_S3_, symObjAddr: 0x4DCCC, symBinAddr: 0x100050590, symSize: 0x2C }
  - { offsetInCU: 0xAA575, offset: 0xAA575, size: 0x8, addend: 0x0, symName: __ZN5Eigen6numext8isfiniteIfEEbRKT_, symObjAddr: 0xA9E90, symBinAddr: 0x1000AC754, symSize: 0x28 }
  - { offsetInCU: 0xAA5B7, offset: 0xAA5B7, size: 0x8, addend: 0x0, symName: __ZN5Eigen6numext8bit_castIjfEET_RKT0_, symObjAddr: 0xAAC84, symBinAddr: 0x1000AD548, symSize: 0x240 }
  - { offsetInCU: 0xAA7CC, offset: 0xAA7CC, size: 0x8, addend: 0x0, symName: __ZN5Eigen6numext12equal_strictIffEEbRKT_RKT0_, symObjAddr: 0xC0A80, symBinAddr: 0x1000C3344, symSize: 0x1E4 }
  - { offsetInCU: 0xAA84C, offset: 0xAA84C, size: 0x8, addend: 0x0, symName: __ZN5Eigen6numext3powIffEENS_8internal8pow_implIT_T0_Xaasr9NumTraitsIS4_EE9IsIntegersr9NumTraitsIS5_EE9IsIntegerEE11result_typeERKS4_RKS5_, symObjAddr: 0xCC1C0, symBinAddr: 0x1000CEA84, symSize: 0x2C }
  - { offsetInCU: 0xAA8CE, offset: 0xAA8CE, size: 0x8, addend: 0x0, symName: __ZN5Eigen6numext4imagIfEENS_8internal11imag_retvalINS2_36global_math_functions_filtering_baseIT_vE4typeEE4typeERKS5_, symObjAddr: 0x104A4C, symBinAddr: 0x100107310, symSize: 0x24 }
  - { offsetInCU: 0xAA905, offset: 0xAA905, size: 0x8, addend: 0x0, symName: __ZN5Eigen6numext4conjIfEENS_8internal11conj_retvalINS2_36global_math_functions_filtering_baseIT_vE4typeEE4typeERKS5_, symObjAddr: 0x104FB0, symBinAddr: 0x100107874, symSize: 0x24 }
  - { offsetInCU: 0xAA96F, offset: 0xAA96F, size: 0x8, addend: 0x0, symName: __ZN5Eigen6numext8div_ceilIlEET_RKS2_S4_, symObjAddr: 0x1605C4, symBinAddr: 0x100162E88, symSize: 0xFC }
  - { offsetInCU: 0xAA9B5, offset: 0xAA9B5, size: 0x8, addend: 0x0, symName: __ZN5Eigen6numext16not_equal_strictIffEEbRKT_RKT0_, symObjAddr: 0x1BA03C, symBinAddr: 0x1001BC900, symSize: 0x1E4 }
  - { offsetInCU: 0x1B0280, offset: 0x1B0280, size: 0x8, addend: 0x0, symName: __ZN5EigenmlIfEEKNS_13CwiseBinaryOpINS_8internal17scalar_product_opINS2_18promote_scalar_argIfT_Xsr5Eigen8internal14has_ReturnTypeINS_20ScalarBinaryOpTraitsIS5_fNS3_IS5_fEEEEEE5valueEE4typeEfEEKNS2_19plain_constant_typeINS_3MapINS_6MatrixIfLi1ELin1ELi1ELi1ELin1EEELi0ENS_6StrideILi0ELi0EEEEESA_E4typeEKSI_EERKS5_RKNS_10MatrixBaseISI_EE, symObjAddr: 0x10C3B0, symBinAddr: 0x10010EC74, symSize: 0x2CC }
  - { offsetInCU: 0x1B02C5, offset: 0x1B02C5, size: 0x8, addend: 0x0, symName: __ZN5EigenmlIfEEKNS_13CwiseBinaryOpINS_8internal17scalar_product_opINS2_18promote_scalar_argIfT_Xsr5Eigen8internal14has_ReturnTypeINS_20ScalarBinaryOpTraitsIS5_fNS3_IS5_fEEEEEE5valueEE4typeEfEEKNS2_19plain_constant_typeINS_5BlockINSD_INS_6MatrixIfLin1ELin1ELi0ELin1ELin1EEELin1ELi1ELb1EEELin1ELi1ELb0EEESA_E4typeEKSH_EERKS5_RKNS_10MatrixBaseISH_EE, symObjAddr: 0x10C89C, symBinAddr: 0x10010F160, symSize: 0x2B4 }
  - { offsetInCU: 0x1B030A, offset: 0x1B030A, size: 0x8, addend: 0x0, symName: __ZN5EigenmlIfEEKNS_13CwiseBinaryOpINS_8internal17scalar_product_opINS2_18promote_scalar_argIfT_Xsr5Eigen8internal14has_ReturnTypeINS_20ScalarBinaryOpTraitsIS5_fNS3_IS5_fEEEEEE5valueEE4typeEfEEKNS2_19plain_constant_typeINS_3MapINS_6MatrixIfLin1ELi1ELi0ELin1ELi1EEELi16ENS_6StrideILi0ELi0EEEEESA_E4typeEKSI_EERKS5_RKNS_10MatrixBaseISI_EE, symObjAddr: 0x122F48, symBinAddr: 0x10012580C, symSize: 0x2B4 }
  - { offsetInCU: 0x1B034F, offset: 0x1B034F, size: 0x8, addend: 0x0, symName: __ZN5EigenmlINS_13CwiseBinaryOpINS_8internal17scalar_product_opIffEEKNS_14CwiseNullaryOpINS2_18scalar_constant_opIfEEKNS_6MatrixIfLi1ELin1ELi1ELi1ELin1EEEEEKNS_9TransposeIKNS_5BlockIKNSE_IKNSE_INS8_IfLin1ELin1ELi0ELin1ELin1EEELin1ELin1ELb0EEELin1ELi1ELb1EEELin1ELi1ELb0EEEEEEEEEKNS_7ProductIT_NS_14TriangularViewIKNSE_ISH_Lin1ELin1ELb0EEELj5EEELi0EEERKNS_10MatrixBaseISQ_EERKNS_18TriangularViewImplIST_Lj5ENS_5DenseEEE, symObjAddr: 0x13BFBC, symBinAddr: 0x10013E880, symSize: 0x4C }
  - { offsetInCU: 0x1B0395, offset: 0x1B0395, size: 0x8, addend: 0x0, symName: __ZN5EigenmlIfEEKNS_13CwiseBinaryOpINS_8internal17scalar_product_opINS2_18promote_scalar_argIfT_Xsr5Eigen8internal14has_ReturnTypeINS_20ScalarBinaryOpTraitsIS5_fNS3_IS5_fEEEEEE5valueEE4typeEfEEKNS2_19plain_constant_typeINS_9TransposeIKNS_5BlockIKNSE_IKNSE_INS_6MatrixIfLin1ELin1ELi0ELin1ELin1EEELin1ELin1ELb0EEELin1ELi1ELb1EEELin1ELi1ELb0EEEEESA_E4typeEKSN_EERKS5_RKNS_10MatrixBaseISN_EE, symObjAddr: 0x13C008, symBinAddr: 0x10013E8CC, symSize: 0x2CC }
  - { offsetInCU: 0x1B048C, offset: 0x1B048C, size: 0x8, addend: 0x0, symName: __ZN5EigenmlIfEEKNS_13CwiseBinaryOpINS_8internal17scalar_product_opINS2_18promote_scalar_argIfT_Xsr5Eigen8internal14has_ReturnTypeINS_20ScalarBinaryOpTraitsIS5_fNS3_IS5_fEEEEEE5valueEE4typeEfEEKNS2_19plain_constant_typeINS_5BlockINSD_INS_6MatrixIfLin1ELin1ELi1ELin1ELin1EEELi1ELin1ELb1EEELi1ELin1ELb0EEESA_E4typeEKSH_EERKS5_RKNS_10MatrixBaseISH_EE, symObjAddr: 0x13D14C, symBinAddr: 0x10013FA10, symSize: 0x2CC }
  - { offsetInCU: 0x1B04EC, offset: 0x1B04EC, size: 0x8, addend: 0x0, symName: __ZN5EigenmlIfEEKNS_13CwiseBinaryOpINS_8internal17scalar_product_opINS2_18promote_scalar_argIfT_Xsr5Eigen8internal14has_ReturnTypeINS_20ScalarBinaryOpTraitsIS5_fNS3_IS5_fEEEEEE5valueEE4typeEfEEKNS2_19plain_constant_typeINS_5BlockIKNS_9TransposeIKNS1_INS3_IffEEKNS_14CwiseNullaryOpINS2_18scalar_constant_opIfEEKNS_6MatrixIfLi1ELin1ELi1ELi1ELin1EEEEEKNSE_IKNSD_IKNSD_IKNSD_INSJ_IfLin1ELin1ELi0ELin1ELin1EEELin1ELin1ELb0EEELin1ELi1ELb1EEELin1ELi1ELb0EEEEEEEEELin1ELi1ELb0EEESA_E4typeEKS11_EERKS5_RKNS_10MatrixBaseIS11_EE, symObjAddr: 0x144A64, symBinAddr: 0x100147328, symSize: 0x2B4 }
  - { offsetInCU: 0x1B0695, offset: 0x1B0695, size: 0x8, addend: 0x0, symName: __ZN5EigenmlIfEEKNS_13CwiseBinaryOpINS_8internal17scalar_product_opINS2_18promote_scalar_argIfT_Xsr5Eigen8internal14has_ReturnTypeINS_20ScalarBinaryOpTraitsIS5_fNS3_IS5_fEEEEEE5valueEE4typeEfEEKNS2_19plain_constant_typeINS_5BlockINS_6MatrixIfLin1ELi1ELi0ELin1ELi1EEELin1ELin1ELb0EEESA_E4typeEKSG_EERKS5_RKNS_10MatrixBaseISG_EE, symObjAddr: 0x15D5D4, symBinAddr: 0x10015FE98, symSize: 0x2CC }
  - { offsetInCU: 0x1B06DA, offset: 0x1B06DA, size: 0x8, addend: 0x0, symName: __ZN5EigenmlIfEEKNS_13CwiseBinaryOpINS_8internal17scalar_product_opINS2_18promote_scalar_argIfT_Xsr5Eigen8internal14has_ReturnTypeINS_20ScalarBinaryOpTraitsIS5_fNS3_IS5_fEEEEEE5valueEE4typeEfEEKNS2_19plain_constant_typeINS_6MatrixIfLin1ELin1ELi0ELin1ELi1EEESA_E4typeEKSE_EERKS5_RKNS_10MatrixBaseISE_EE, symObjAddr: 0x192098, symBinAddr: 0x10019495C, symSize: 0x2CC }
  - { offsetInCU: 0x1B071F, offset: 0x1B071F, size: 0x8, addend: 0x0, symName: __ZN5EigenmlIfEEKNS_13CwiseBinaryOpINS_8internal17scalar_product_opINS2_18promote_scalar_argIfT_Xsr5Eigen8internal14has_ReturnTypeINS_20ScalarBinaryOpTraitsIS5_fNS3_IS5_fEEEEEE5valueEE4typeEfEEKNS2_19plain_constant_typeINS_3MapINS_6MatrixIfLi1ELin1ELi1ELi1ELi1EEELi0ENS_6StrideILi0ELi0EEEEESA_E4typeEKSI_EERKS5_RKNS_10MatrixBaseISI_EE, symObjAddr: 0x196E70, symBinAddr: 0x100199734, symSize: 0x2CC }
  - { offsetInCU: 0x1B0764, offset: 0x1B0764, size: 0x8, addend: 0x0, symName: __ZN5EigenmlIfEEKNS_13CwiseBinaryOpINS_8internal17scalar_product_opINS2_18promote_scalar_argIfT_Xsr5Eigen8internal14has_ReturnTypeINS_20ScalarBinaryOpTraitsIS5_fNS3_IS5_fEEEEEE5valueEE4typeEfEEKNS2_19plain_constant_typeINS_5BlockIKNS_6MatrixIfLin1ELin1ELi0ELin1ELin1EEELin1ELi1ELb0EEESA_E4typeEKSH_EERKS5_RKNS_10MatrixBaseISH_EE, symObjAddr: 0x19735C, symBinAddr: 0x100199C20, symSize: 0x2B4 }
  - { offsetInCU: 0x1B219D, offset: 0x1B219D, size: 0x8, addend: 0x0, symName: __ZN5EigenmlINS_17PermutationMatrixILin1ELin1EiEENS_6MatrixIfLin1ELi1ELi0ELin1ELi1EEEEEKNS_7ProductIT_T0_Li2EEERKNS_15PermutationBaseIS6_EERKNS_10MatrixBaseIS7_EE, symObjAddr: 0x1B2638, symBinAddr: 0x1001B4EFC, symSize: 0x224 }
  - { offsetInCU: 0x1B2247, offset: 0x1B2247, size: 0x8, addend: 0x0, symName: __ZN5EigenmlIfEEKNS_13CwiseBinaryOpINS_8internal17scalar_product_opINS2_18promote_scalar_argIfT_Xsr5Eigen8internal14has_ReturnTypeINS_20ScalarBinaryOpTraitsIS5_fNS3_IS5_fEEEEEE5valueEE4typeEfEEKNS2_19plain_constant_typeINS_6MatrixIfLin1ELi1ELi0ELin1ELi1EEESA_E4typeEKSE_EERKS5_RKNS_10MatrixBaseISE_EE, symObjAddr: 0x1B2FF8, symBinAddr: 0x1001B58BC, symSize: 0x2B4 }
  - { offsetInCU: 0x1B228C, offset: 0x1B228C, size: 0x8, addend: 0x0, symName: __ZN5EigenmlIfEEKNS_13CwiseBinaryOpINS_8internal17scalar_product_opINS2_18promote_scalar_argIfT_Xsr5Eigen8internal14has_ReturnTypeINS_20ScalarBinaryOpTraitsIS5_fNS3_IS5_fEEEEEE5valueEE4typeEfEEKNS2_19plain_constant_typeINS_5BlockIKNSD_IKNS_3MapIKNS_6MatrixIfLin1ELin1ELi0ELin1ELin1EEELi0ENS_11OuterStrideILin1EEEEELin1ELi1ELb1EEELin1ELi1ELb0EEESA_E4typeEKSO_EERKS5_RKNS_10MatrixBaseISO_EE, symObjAddr: 0x1BA2D0, symBinAddr: 0x1001BCB94, symSize: 0x2B4 }
  - { offsetInCU: 0x1B2609, offset: 0x1B2609, size: 0x8, addend: 0x0, symName: __ZN5EigenmlIfEEKNS_13CwiseBinaryOpINS_8internal17scalar_product_opINS2_18promote_scalar_argIfT_Xsr5Eigen8internal14has_ReturnTypeINS_20ScalarBinaryOpTraitsIS5_fNS3_IS5_fEEEEEE5valueEE4typeEfEEKNS2_19plain_constant_typeINS_3MapINS_6MatrixIfLin1ELi1ELi0ELin1ELi1EEELi4ENS_6StrideILi0ELi0EEEEESA_E4typeEKSI_EERKS5_RKNS_10MatrixBaseISI_EE, symObjAddr: 0x1EDAD0, symBinAddr: 0x1001F0394, symSize: 0x2B4 }
  - { offsetInCU: 0x1D0CD2, offset: 0x1D0CD2, size: 0x8, addend: 0x0, symName: __ZNSt3__16chronomiB8ue170006IxNS_5ratioILl1ELl1000000000EEExS3_EENS_11common_typeIJNS0_8durationIT_T0_EENS5_IT1_T2_EEEE4typeERKS8_RKSB_, symObjAddr: 0x2754C, symBinAddr: 0x100029E10, symSize: 0x334 }
  - { offsetInCU: 0x1D0D41, offset: 0x1D0D41, size: 0x8, addend: 0x0, symName: __ZNSt3__16chronossB8ue170006IxNS_5ratioILl1ELl1EEExS3_EEDaRKNS0_8durationIT_T0_EERKNS5_IT1_T2_EE, symObjAddr: 0x27CF0, symBinAddr: 0x10002A5B4, symSize: 0x354 }
  - { offsetInCU: 0x1D0DB0, offset: 0x1D0DB0, size: 0x8, addend: 0x0, symName: __ZNSt3__16chronossB8ue170006IxNS_5ratioILl1ELl1EEEeS3_EEDaRKNS0_8durationIT_T0_EERKNS5_IT1_T2_EE, symObjAddr: 0x285A8, symBinAddr: 0x10002AE6C, symSize: 0x368 }
  - { offsetInCU: 0x1D1080, offset: 0x1D1080, size: 0x8, addend: 0x0, symName: __ZNSt3__16chronossB8ue170006IxNS_5ratioILl1ELl1000000000EEExNS2_ILl1ELl1EEEEEDaRKNS0_8durationIT_T0_EERKNS6_IT1_T2_EE, symObjAddr: 0x28E00, symBinAddr: 0x10002B6C4, symSize: 0x350 }
  - { offsetInCU: 0x1D10EF, offset: 0x1D10EF, size: 0x8, addend: 0x0, symName: __ZNSt3__16chronossB8ue170006IxNS_5ratioILl1ELl1000000000EEExS3_EEDaRKNS0_8durationIT_T0_EERKNS5_IT1_T2_EE, symObjAddr: 0x7D4DC, symBinAddr: 0x10007FDA0, symSize: 0x354 }
  - { offsetInCU: 0x1D115E, offset: 0x1D115E, size: 0x8, addend: 0x0, symName: __ZNSt3__16chronossB8ue170006IxNS_5ratioILl1ELl1000000000EEExNS2_ILl1ELl1000000EEEEEDaRKNS0_8durationIT_T0_EERKNS6_IT1_T2_EE, symObjAddr: 0x7E0D8, symBinAddr: 0x10008099C, symSize: 0x350 }
  - { offsetInCU: 0x1D122B, offset: 0x1D122B, size: 0x8, addend: 0x0, symName: __ZNSt3__16chrono13duration_castB8ue170006INS0_8durationIxNS_5ratioILl1ELl1000000000EEEEExS4_EENS_9enable_ifIXsr13__is_durationIT_EE5valueES7_E4typeERKNS2_IT0_T1_EE, symObjAddr: 0x26BB8, symBinAddr: 0x10002947C, symSize: 0x27C }
  - { offsetInCU: 0x1D1273, offset: 0x1D1273, size: 0x8, addend: 0x0, symName: __ZNSt3__16chronomiB8ue170006INS0_12steady_clockENS0_8durationIxNS_5ratioILl1ELl1000000000EEEEES6_EENS_11common_typeIJT0_T1_EE4typeERKNS0_10time_pointIT_S8_EERKNSC_ISD_S9_EE, symObjAddr: 0x26E34, symBinAddr: 0x1000296F8, symSize: 0x338 }
  - { offsetInCU: 0x1D131A, offset: 0x1D131A, size: 0x8, addend: 0x0, symName: __ZNSt3__16chrono13duration_castB8ue170006INS0_8durationIxNS_5ratioILl1ELl1000000000EEEEExNS3_ILl1ELl1EEEEENS_9enable_ifIXsr13__is_durationIT_EE5valueES8_E4typeERKNS2_IT0_T1_EE, symObjAddr: 0x28910, symBinAddr: 0x10002B1D4, symSize: 0x27C }
  - { offsetInCU: 0x1D13A2, offset: 0x1D13A2, size: 0x8, addend: 0x0, symName: __ZNSt3__16chrono13duration_castB8ue170006INS0_8durationIeNS_5ratioILl1ELl1EEEEExS4_EENS_9enable_ifIXsr13__is_durationIT_EE5valueES7_E4typeERKNS2_IT0_T1_EE, symObjAddr: 0x29954, symBinAddr: 0x10002C218, symSize: 0x27C }
  - { offsetInCU: 0x1D1437, offset: 0x1D1437, size: 0x8, addend: 0x0, symName: __ZNSt3__16chronoeqB8ue170006IxNS_5ratioILl1ELl1000000000EEExS3_EEbRKNS0_8durationIT_T0_EERKNS4_IT1_T2_EE, symObjAddr: 0x7D2F8, symBinAddr: 0x10007FBBC, symSize: 0x1E4 }
  - { offsetInCU: 0x1D14E3, offset: 0x1D14E3, size: 0x8, addend: 0x0, symName: __ZNSt3__16chrono13duration_castB8ue170006INS0_8durationIxNS_5ratioILl1ELl1000000000EEEEExNS3_ILl1ELl1000000EEEEENS_9enable_ifIXsr13__is_durationIT_EE5valueES8_E4typeERKNS2_IT0_T1_EE, symObjAddr: 0x7E71C, symBinAddr: 0x100080FE0, symSize: 0x27C }
  - { offsetInCU: 0x1D1E05, offset: 0x1D1E05, size: 0x8, addend: 0x0, symName: __ZNSt3__119piecewise_constructE, symObjAddr: 0x21CA80, symBinAddr: 0x100228D80, symSize: 0x0 }
  - { offsetInCU: 0x1D1E65, offset: 0x1D1E65, size: 0x8, addend: 0x0, symName: __ZNSt3__16ranges5__cpo9iter_moveE, symObjAddr: 0x21CA81, symBinAddr: 0x100228D81, symSize: 0x0 }
  - { offsetInCU: 0x1E5F9A, offset: 0x1E5F9A, size: 0x8, addend: 0x0, symName: __ZNSt3__17advanceB8ue170006IPNS_4pairIifEEllvEEvRT_T0_, symObjAddr: 0x2DB9C, symBinAddr: 0x100030460, symSize: 0x38 }
  - { offsetInCU: 0x1E621E, offset: 0x1E621E, size: 0x8, addend: 0x0, symName: __ZNSt3__17advanceB8ue170006INS_16reverse_iteratorIPNS_4pairIifEEEEllvEEvRT_T0_, symObjAddr: 0x2EE20, symBinAddr: 0x1000316E4, symSize: 0x38 }
  - { offsetInCU: 0x1E65AB, offset: 0x1E65AB, size: 0x8, addend: 0x0, symName: __ZNSt3__17advanceB8ue170006IPKfllvEEvRT_T0_, symObjAddr: 0x36F54, symBinAddr: 0x100039818, symSize: 0x38 }
  - { offsetInCU: 0x1E730F, offset: 0x1E730F, size: 0x8, addend: 0x0, symName: __ZNSt3__17advanceB8ue170006IPN5Eigen6MatrixIfLin1ELi1ELi0ELin1ELi1EEEllvEEvRT_T0_, symObjAddr: 0x51F0C, symBinAddr: 0x1000547D0, symSize: 0x38 }
  - { offsetInCU: 0x1E7593, offset: 0x1E7593, size: 0x8, addend: 0x0, symName: __ZNSt3__17advanceB8ue170006INS_16reverse_iteratorIPN5Eigen6MatrixIfLin1ELi1ELi0ELin1ELi1EEEEEllvEEvRT_T0_, symObjAddr: 0x5317C, symBinAddr: 0x100055A40, symSize: 0x38 }
  - { offsetInCU: 0x1E7931, offset: 0x1E7931, size: 0x8, addend: 0x0, symName: __ZNSt3__17advanceB8ue170006IPNS_12basic_stringIcNS_11char_traitsIcEENS_9allocatorIcEEEEllvEEvRT_T0_, symObjAddr: 0x58480, symBinAddr: 0x10005AD44, symSize: 0x38 }
  - { offsetInCU: 0x1E7BB5, offset: 0x1E7BB5, size: 0x8, addend: 0x0, symName: __ZNSt3__17advanceB8ue170006INS_16reverse_iteratorIPNS_12basic_stringIcNS_11char_traitsIcEENS_9allocatorIcEEEEEEllvEEvRT_T0_, symObjAddr: 0x596F8, symBinAddr: 0x10005BFBC, symSize: 0x38 }
  - { offsetInCU: 0x1E7C21, offset: 0x1E7C21, size: 0x8, addend: 0x0, symName: __ZNSt3__17advanceB8ue170006IPKNS_12basic_stringIcNS_11char_traitsIcEENS_9allocatorIcEEEEllvEEvRT_T0_, symObjAddr: 0x5C5F4, symBinAddr: 0x10005EEB8, symSize: 0x38 }
  - { offsetInCU: 0x1E8621, offset: 0x1E8621, size: 0x8, addend: 0x0, symName: __ZNSt3__17advanceB8ue170006IPfllvEEvRT_T0_, symObjAddr: 0x78C48, symBinAddr: 0x10007B50C, symSize: 0x38 }
  - { offsetInCU: 0x1E868D, offset: 0x1E868D, size: 0x8, addend: 0x0, symName: __ZNSt3__117__cxx_atomic_loadB8ue170006IlEET_PKNS_22__cxx_atomic_base_implIS1_EENS_12memory_orderE, symObjAddr: 0x7DF60, symBinAddr: 0x100080824, symSize: 0x12C }
  - { offsetInCU: 0x1E9C3F, offset: 0x1E9C3F, size: 0x8, addend: 0x0, symName: __ZNSt3__124__put_character_sequenceB8ue170006IcNS_11char_traitsIcEEEERNS_13basic_ostreamIT_T0_EES7_PKS4_m, symObjAddr: 0x210488, symBinAddr: 0x100212D4C, symSize: 0x744 }
  - { offsetInCU: 0x1EC839, offset: 0x1EC839, size: 0x8, addend: 0x0, symName: __ZNSt3__1neB8ue170006IPNS_4pairIifEEEEbRKNS_11__wrap_iterIT_EES8_, symObjAddr: 0x3F40, symBinAddr: 0x100006804, symSize: 0x34 }
  - { offsetInCU: 0x1EC87C, offset: 0x1EC87C, size: 0x8, addend: 0x0, symName: __ZNSt3__1lsB8ue170006INS_11char_traitsIcEEEERNS_13basic_ostreamIcT_EES6_c, symObjAddr: 0x4430, symBinAddr: 0x100006CF4, symSize: 0x220 }
  - { offsetInCU: 0x1EC8C7, offset: 0x1EC8C7, size: 0x8, addend: 0x0, symName: __ZNSt3__1lsB8ue170006INS_11char_traitsIcEEEERNS_13basic_ostreamIcT_EES6_PKc, symObjAddr: 0x4650, symBinAddr: 0x100006F14, symSize: 0x48 }
  - { offsetInCU: 0x1ED18A, offset: 0x1ED18A, size: 0x8, addend: 0x0, symName: __ZNSt3__1neB8ue170006ERKNS_14__map_iteratorINS_15__tree_iteratorINS_12__value_typeIiNS_6vectorIdNS_9allocatorIdEEEEEEPNS_11__tree_nodeIS7_PvEElEEEESF_, symObjAddr: 0x4EFC, symBinAddr: 0x1000077C0, symSize: 0x30 }
  - { offsetInCU: 0x1ED1C7, offset: 0x1ED1C7, size: 0x8, addend: 0x0, symName: __ZNSt3__1neB8ue170006IPdEEbRKNS_11__wrap_iterIT_EES6_, symObjAddr: 0x5428, symBinAddr: 0x100007CEC, symSize: 0x34 }
  - { offsetInCU: 0x1ED215, offset: 0x1ED215, size: 0x8, addend: 0x0, symName: __ZNSt3__118__constexpr_strlenB8ue170006EPKc, symObjAddr: 0x5E70, symBinAddr: 0x100008734, symSize: 0x24 }
  - { offsetInCU: 0x1ED241, offset: 0x1ED241, size: 0x8, addend: 0x0, symName: __ZNSt3__112__to_addressB8ue170006INS_12basic_stringIcNS_11char_traitsIcEENS_9allocatorIcEEEEEEPT_S8_, symObjAddr: 0x6C20, symBinAddr: 0x1000094E4, symSize: 0x14 }
  - { offsetInCU: 0x1ED276, offset: 0x1ED276, size: 0x8, addend: 0x0, symName: __ZNSt3__110destroy_atB8ue170006INS_12basic_stringIcNS_11char_traitsIcEENS_9allocatorIcEEEELi0EEEvPT_, symObjAddr: 0x6C34, symBinAddr: 0x1000094F8, symSize: 0x24 }
  - { offsetInCU: 0x1ED2AE, offset: 0x1ED2AE, size: 0x8, addend: 0x0, symName: __ZNSt3__112__destroy_atB8ue170006INS_12basic_stringIcNS_11char_traitsIcEENS_9allocatorIcEEEELi0EEEvPT_, symObjAddr: 0x6C58, symBinAddr: 0x10000951C, symSize: 0x24 }
  - { offsetInCU: 0x1ED2E6, offset: 0x1ED2E6, size: 0x8, addend: 0x0, symName: __ZNSt3__119__libcpp_deallocateB8ue170006EPvmm, symObjAddr: 0x6E38, symBinAddr: 0x1000096FC, symSize: 0x60 }
  - { offsetInCU: 0x1ED34B, offset: 0x1ED34B, size: 0x8, addend: 0x0, symName: __ZNSt3__124__is_overaligned_for_newB8ue170006Em, symObjAddr: 0x6E98, symBinAddr: 0x10000975C, symSize: 0x20 }
  - { offsetInCU: 0x1ED379, offset: 0x1ED379, size: 0x8, addend: 0x0, symName: __ZNSt3__127__do_deallocate_handle_sizeB8ue170006IJSt11align_val_tEEEvPvmDpT_, symObjAddr: 0x6EB8, symBinAddr: 0x10000977C, symSize: 0x30 }
  - { offsetInCU: 0x1ED3CE, offset: 0x1ED3CE, size: 0x8, addend: 0x0, symName: __ZNSt3__127__do_deallocate_handle_sizeB8ue170006IJEEEvPvmDpT_, symObjAddr: 0x6EE8, symBinAddr: 0x1000097AC, symSize: 0x28 }
  - { offsetInCU: 0x1ED40D, offset: 0x1ED40D, size: 0x8, addend: 0x0, symName: __ZNSt3__124__libcpp_operator_deleteB8ue170006IJPvSt11align_val_tEEEvDpT_, symObjAddr: 0x6F10, symBinAddr: 0x1000097D4, symSize: 0x2C }
  - { offsetInCU: 0x1ED459, offset: 0x1ED459, size: 0x8, addend: 0x0, symName: __ZNSt3__124__libcpp_operator_deleteB8ue170006IJPvEEEvDpT_, symObjAddr: 0x6F3C, symBinAddr: 0x100009800, symSize: 0x24 }
  - { offsetInCU: 0x1ED490, offset: 0x1ED490, size: 0x8, addend: 0x0, symName: __ZNSt3__112__to_addressB8ue170006IfEEPT_S2_, symObjAddr: 0x7840, symBinAddr: 0x10000A104, symSize: 0x14 }
  - { offsetInCU: 0x1ED4C5, offset: 0x1ED4C5, size: 0x8, addend: 0x0, symName: __ZNSt3__110destroy_atB8ue170006IfLi0EEEvPT_, symObjAddr: 0x7854, symBinAddr: 0x10000A118, symSize: 0x24 }
  - { offsetInCU: 0x1ED4FD, offset: 0x1ED4FD, size: 0x8, addend: 0x0, symName: __ZNSt3__112__destroy_atB8ue170006IfLi0EEEvPT_, symObjAddr: 0x7878, symBinAddr: 0x10000A13C, symSize: 0x10 }
  - { offsetInCU: 0x1ED535, offset: 0x1ED535, size: 0x8, addend: 0x0, symName: __ZNSt3__112__to_addressB8ue170006IN5Eigen6MatrixIfLin1ELi1ELi0ELin1ELi1EEEEEPT_S5_, symObjAddr: 0x99F8, symBinAddr: 0x10000C2BC, symSize: 0x14 }
  - { offsetInCU: 0x1ED56A, offset: 0x1ED56A, size: 0x8, addend: 0x0, symName: __ZNSt3__110destroy_atB8ue170006IN5Eigen6MatrixIfLin1ELi1ELi0ELin1ELi1EEELi0EEEvPT_, symObjAddr: 0x9A0C, symBinAddr: 0x10000C2D0, symSize: 0x24 }
  - { offsetInCU: 0x1ED5A2, offset: 0x1ED5A2, size: 0x8, addend: 0x0, symName: __ZNSt3__112__destroy_atB8ue170006IN5Eigen6MatrixIfLin1ELi1ELi0ELin1ELi1EEELi0EEEvPT_, symObjAddr: 0x9A30, symBinAddr: 0x10000C2F4, symSize: 0x24 }
  - { offsetInCU: 0x1ED60D, offset: 0x1ED60D, size: 0x8, addend: 0x0, symName: __ZNSt3__110destroy_atB8ue170006INS_4pairIKNS_12basic_stringIcNS_11char_traitsIcEENS_9allocatorIcEEEEN5Eigen6MatrixIfLin1ELi1ELi0ELin1ELi1EEEEELi0EEEvPT_, symObjAddr: 0x9FE4, symBinAddr: 0x10000C8A8, symSize: 0x24 }
  - { offsetInCU: 0x1ED645, offset: 0x1ED645, size: 0x8, addend: 0x0, symName: __ZNSt3__112__destroy_atB8ue170006INS_4pairIKNS_12basic_stringIcNS_11char_traitsIcEENS_9allocatorIcEEEEN5Eigen6MatrixIfLin1ELi1ELi0ELin1ELi1EEEEELi0EEEvPT_, symObjAddr: 0xA008, symBinAddr: 0x10000C8CC, symSize: 0x24 }
  - { offsetInCU: 0x1ED67D, offset: 0x1ED67D, size: 0x8, addend: 0x0, symName: __ZNSt3__17launderB8ue170006INS_4pairIKNS_12basic_stringIcNS_11char_traitsIcEENS_9allocatorIcEEEEN5Eigen6MatrixIfLin1ELi1ELi0ELin1ELi1EEEEEEEPT_SE_, symObjAddr: 0xA0B4, symBinAddr: 0x10000C978, symSize: 0x24 }
  - { offsetInCU: 0x1ED6B4, offset: 0x1ED6B4, size: 0x8, addend: 0x0, symName: __ZNSt3__19__launderB8ue170006INS_4pairIKNS_12basic_stringIcNS_11char_traitsIcEENS_9allocatorIcEEEEN5Eigen6MatrixIfLin1ELi1ELi0ELin1ELi1EEEEEEEPT_SE_, symObjAddr: 0xA0D8, symBinAddr: 0x10000C99C, symSize: 0x14 }
  - { offsetInCU: 0x1ED6EB, offset: 0x1ED6EB, size: 0x8, addend: 0x0, symName: __ZNSt3__122__make_exception_guardB8ue170006INS_6vectorINS_6threadENS_9allocatorIS2_EEE16__destroy_vectorEEENS_28__exception_guard_exceptionsIT_EES8_, symObjAddr: 0xA970, symBinAddr: 0x10000D234, symSize: 0x278 }
  - { offsetInCU: 0x1ED724, offset: 0x1ED724, size: 0x8, addend: 0x0, symName: __ZNSt3__119__allocate_at_leastB8ue170006INS_9allocatorINS_6threadEEEEENS_19__allocation_resultINS_16allocator_traitsIT_E7pointerEEERS6_m, symObjAddr: 0xBE10, symBinAddr: 0x10000E6D4, symSize: 0x28C }
  - { offsetInCU: 0x1ED769, offset: 0x1ED769, size: 0x8, addend: 0x0, symName: __ZNSt3__13minB8ue170006ImEERKT_S3_S3_, symObjAddr: 0xC1AC, symBinAddr: 0x10000EA70, symSize: 0x2C }
  - { offsetInCU: 0x1ED9AF, offset: 0x1ED9AF, size: 0x8, addend: 0x0, symName: __ZNSt3__13minB8ue170006ImNS_6__lessIvvEEEERKT_S5_S5_T0_, symObjAddr: 0xC23C, symBinAddr: 0x10000EB00, symSize: 0x1E8 }
  - { offsetInCU: 0x1EDAE8, offset: 0x1EDAE8, size: 0x8, addend: 0x0, symName: __ZNSt3__120__throw_length_errorB8ue170006EPKc, symObjAddr: 0xC53C, symBinAddr: 0x10000EE00, symSize: 0x68 }
  - { offsetInCU: 0x1EDB12, offset: 0x1EDB12, size: 0x8, addend: 0x0, symName: __ZNSt3__117__libcpp_allocateB8ue170006Emm, symObjAddr: 0xC6F8, symBinAddr: 0x10000EFBC, symSize: 0x60 }
  - { offsetInCU: 0x1EDB6C, offset: 0x1EDB6C, size: 0x8, addend: 0x0, symName: __ZNSt3__121__libcpp_operator_newB8ue170006IJmSt11align_val_tEEEPvDpT_, symObjAddr: 0xC758, symBinAddr: 0x10000F01C, symSize: 0x2C }
  - { offsetInCU: 0x1EDBBC, offset: 0x1EDBBC, size: 0x8, addend: 0x0, symName: __ZNSt3__121__libcpp_operator_newB8ue170006IJmEEEPvDpT_, symObjAddr: 0xC784, symBinAddr: 0x10000F048, symSize: 0x24 }
  - { offsetInCU: 0x1EDBF7, offset: 0x1EDBF7, size: 0x8, addend: 0x0, symName: __ZNSt3__112__to_addressB8ue170006INS_6threadEEEPT_S3_, symObjAddr: 0xC990, symBinAddr: 0x10000F254, symSize: 0x14 }
  - { offsetInCU: 0x1EDC53, offset: 0x1EDC53, size: 0x8, addend: 0x0, symName: __ZNSt3__112construct_atB8ue170006INS_6threadEJEPS1_EEPT_S4_DpOT0_, symObjAddr: 0xCDEC, symBinAddr: 0x10000F6B0, symSize: 0x34 }
  - { offsetInCU: 0x1EDCB1, offset: 0x1EDCB1, size: 0x8, addend: 0x0, symName: __ZNSt3__110destroy_atB8ue170006INS_6threadELi0EEEvPT_, symObjAddr: 0xD770, symBinAddr: 0x100010034, symSize: 0x24 }
  - { offsetInCU: 0x1EDCE9, offset: 0x1EDCE9, size: 0x8, addend: 0x0, symName: __ZNSt3__112__destroy_atB8ue170006INS_6threadELi0EEEvPT_, symObjAddr: 0xD794, symBinAddr: 0x100010058, symSize: 0x24 }
  - { offsetInCU: 0x1EDD21, offset: 0x1EDD21, size: 0x8, addend: 0x0, symName: __ZNSt3__122__libcpp_thread_isnullB8ue170006EPKP17_opaque_pthread_t, symObjAddr: 0xDDE0, symBinAddr: 0x1000106A4, symSize: 0x30 }
  - { offsetInCU: 0x1EDD4F, offset: 0x1EDD4F, size: 0x8, addend: 0x0, symName: __ZNSt3__122__libcpp_thread_get_idB8ue170006EPKP17_opaque_pthread_t, symObjAddr: 0xDE10, symBinAddr: 0x1000106D4, symSize: 0x60 }
  - { offsetInCU: 0x1EDD7D, offset: 0x1EDD7D, size: 0x8, addend: 0x0, symName: __ZNSt3__1eqB8ue170006IPNS_4pairIifEEEEbRKNS_11__wrap_iterIT_EES8_, symObjAddr: 0xE110, symBinAddr: 0x1000109D4, symSize: 0x48 }
  - { offsetInCU: 0x1EDDC0, offset: 0x1EDDC0, size: 0x8, addend: 0x0, symName: __ZNSt3__112__to_addressB8ue170006IdEEPT_S2_, symObjAddr: 0xE9D8, symBinAddr: 0x10001129C, symSize: 0x14 }
  - { offsetInCU: 0x1EDE1C, offset: 0x1EDE1C, size: 0x8, addend: 0x0, symName: __ZNSt3__112construct_atB8ue170006IdJdEPdEEPT_S3_DpOT0_, symObjAddr: 0xEF48, symBinAddr: 0x10001180C, symSize: 0xB8 }
  - { offsetInCU: 0x1EDE8F, offset: 0x1EDE8F, size: 0x8, addend: 0x0, symName: __ZNSt3__13maxB8ue170006ImEERKT_S3_S3_, symObjAddr: 0xFFF4, symBinAddr: 0x1000128B8, symSize: 0x2C }
  - { offsetInCU: 0x1EDED2, offset: 0x1EDED2, size: 0x8, addend: 0x0, symName: __ZNSt3__13maxB8ue170006ImNS_6__lessIvvEEEERKT_S5_S5_T0_, symObjAddr: 0x100A8, symBinAddr: 0x10001296C, symSize: 0x1E8 }
  - { offsetInCU: 0x1EDF32, offset: 0x1EDF32, size: 0x8, addend: 0x0, symName: __ZNSt3__119__allocate_at_leastB8ue170006INS_9allocatorIdEEEENS_19__allocation_resultINS_16allocator_traitsIT_E7pointerEEERS5_m, symObjAddr: 0x107EC, symBinAddr: 0x1000130B0, symSize: 0x28C }
  - { offsetInCU: 0x1EDF77, offset: 0x1EDF77, size: 0x8, addend: 0x0, symName: __ZNSt3__142__uninitialized_allocator_move_if_noexceptB8ue170006INS_9allocatorIdEENS_16reverse_iteratorIPdEES5_dvEET1_RT_T0_S9_S6_, symObjAddr: 0x10DB8, symBinAddr: 0x10001367C, symSize: 0x4A8 }
  - { offsetInCU: 0x1EE002, offset: 0x1EE002, size: 0x8, addend: 0x0, symName: __ZNSt3__14swapB8ue170006IPdEENS_9enable_ifIXaasr21is_move_constructibleIT_EE5valuesr18is_move_assignableIS3_EE5valueEvE4typeERS3_S6_, symObjAddr: 0x112F8, symBinAddr: 0x100013BBC, symSize: 0x134 }
  - { offsetInCU: 0x1EE053, offset: 0x1EE053, size: 0x8, addend: 0x0, symName: __ZNSt3__14moveB8ue170006INS_16reverse_iteratorIPdEES3_EET0_T_S5_S4_, symObjAddr: 0x114EC, symBinAddr: 0x100013DB0, symSize: 0x4B0 }
  - { offsetInCU: 0x1EE0BA, offset: 0x1EE0BA, size: 0x8, addend: 0x0, symName: __ZNSt3__16__moveB8ue170006INS_17_ClassicAlgPolicyENS_16reverse_iteratorIPdEES4_S4_EENS_4pairIT0_T2_EES6_T1_S7_, symObjAddr: 0x1199C, symBinAddr: 0x100014260, symSize: 0x424 }
  - { offsetInCU: 0x1EE132, offset: 0x1EE132, size: 0x8, addend: 0x0, symName: __ZNSt3__123__dispatch_copy_or_moveB8ue170006INS_17_ClassicAlgPolicyENS_11__move_loopIS1_EENS_14__move_trivialENS_16reverse_iteratorIPdEES7_S7_EENS_4pairIT2_T4_EES9_T3_SA_, symObjAddr: 0x11DC0, symBinAddr: 0x100014684, symSize: 0x424 }
  - { offsetInCU: 0x1EE1BC, offset: 0x1EE1BC, size: 0x8, addend: 0x0, symName: __ZNSt3__121__unwrap_and_dispatchB8ue170006INS_10__overloadINS_11__move_loopINS_17_ClassicAlgPolicyEEENS_14__move_trivialEEENS_16reverse_iteratorIPdEES9_S9_Li0EEENS_4pairIT0_T2_EESB_T1_SC_, symObjAddr: 0x121E4, symBinAddr: 0x100014AA8, symSize: 0x880 }
  - { offsetInCU: 0x1EE261, offset: 0x1EE261, size: 0x8, addend: 0x0, symName: __ZNSt3__114__unwrap_rangeB8ue170006INS_16reverse_iteratorIPdEES3_EEDaT_T0_, symObjAddr: 0x12A64, symBinAddr: 0x100015328, symSize: 0x35C }
  - { offsetInCU: 0x1EE463, offset: 0x1EE463, size: 0x8, addend: 0x0, symName: __ZNSt3__113__unwrap_iterB8ue170006INS_16reverse_iteratorIPdEENS_18__unwrap_iter_implIS3_Lb0EEELi0EEEDTclsrT0_8__unwrapclsr3stdE7declvalIT_EEEES7_, symObjAddr: 0x13168, symBinAddr: 0x100015A2C, symSize: 0x2EC }
  - { offsetInCU: 0x1EE4AC, offset: 0x1EE4AC, size: 0x8, addend: 0x0, symName: __ZNSt3__19make_pairB8ue170006INS_16reverse_iteratorIPdEES3_EENS_4pairINS_18__unwrap_ref_decayIT_E4typeENS5_IT0_E4typeEEEOS6_OS9_, symObjAddr: 0x13454, symBinAddr: 0x100015D18, symSize: 0x38 }
  - { offsetInCU: 0x1EE4FB, offset: 0x1EE4FB, size: 0x8, addend: 0x0, symName: __ZNSt3__114__rewrap_rangeB8ue170006INS_16reverse_iteratorIPdEES3_S3_EET0_S4_T1_, symObjAddr: 0x1348C, symBinAddr: 0x100015D50, symSize: 0x3D4 }
  - { offsetInCU: 0x1EE558, offset: 0x1EE558, size: 0x8, addend: 0x0, symName: __ZNSt3__113__rewrap_iterB8ue170006INS_16reverse_iteratorIPdEES3_NS_18__unwrap_iter_implIS3_Lb0EEEEET_S6_T0_, symObjAddr: 0x13860, symBinAddr: 0x100016124, symSize: 0x3E8 }
  - { offsetInCU: 0x1EE605, offset: 0x1EE605, size: 0x8, addend: 0x0, symName: __ZNSt3__1neB8ue170006IPdS1_EEbRKNS_16reverse_iteratorIT_EERKNS2_IT0_EE, symObjAddr: 0x14120, symBinAddr: 0x1000169E4, symSize: 0x48 }
  - { offsetInCU: 0x1EE76B, offset: 0x1EE76B, size: 0x8, addend: 0x0, symName: __ZNSt3__110destroy_atB8ue170006IdLi0EEEvPT_, symObjAddr: 0x15010, symBinAddr: 0x1000178D4, symSize: 0x24 }
  - { offsetInCU: 0x1EE7A3, offset: 0x1EE7A3, size: 0x8, addend: 0x0, symName: __ZNSt3__112__destroy_atB8ue170006IdLi0EEEvPT_, symObjAddr: 0x15034, symBinAddr: 0x1000178F8, symSize: 0x10 }
  - { offsetInCU: 0x1EE7DB, offset: 0x1EE7DB, size: 0x8, addend: 0x0, symName: __ZNSt3__112__to_addressB8ue170006INS_4pairIifEEEEPT_S4_, symObjAddr: 0x15924, symBinAddr: 0x1000181E8, symSize: 0x14 }
  - { offsetInCU: 0x1EE810, offset: 0x1EE810, size: 0x8, addend: 0x0, symName: __ZNSt3__110destroy_atB8ue170006INS_4pairIifEELi0EEEvPT_, symObjAddr: 0x15938, symBinAddr: 0x1000181FC, symSize: 0x24 }
  - { offsetInCU: 0x1EE848, offset: 0x1EE848, size: 0x8, addend: 0x0, symName: __ZNSt3__112__destroy_atB8ue170006INS_4pairIifEELi0EEEvPT_, symObjAddr: 0x1595C, symBinAddr: 0x100018220, symSize: 0x10 }
  - { offsetInCU: 0x1EE880, offset: 0x1EE880, size: 0x8, addend: 0x0, symName: __ZNSt3__1eqB8ue170006IPdEEbRKNS_11__wrap_iterIT_EES6_, symObjAddr: 0x15E5C, symBinAddr: 0x100018720, symSize: 0x48 }
  - { offsetInCU: 0x1EE8E8, offset: 0x1EE8E8, size: 0x8, addend: 0x0, symName: __ZNSt3__118generate_canonicalB8ue170006IfLm24ENS_23mersenne_twister_engineIjLm32ELm624ELm397ELm31ELj2567483615ELm11ELj4294967295ELm7ELj2636928640ELm15ELj4022730752ELm18ELj1812433253EEEEET_RT1_, symObjAddr: 0x17A3C, symBinAddr: 0x10001A300, symSize: 0x11C }
  - { offsetInCU: 0x1EE9E1, offset: 0x1EE9E1, size: 0x8, addend: 0x0, symName: __ZNSt3__110destroy_atB8ue170006INS_4pairIKNS_12basic_stringIcNS_11char_traitsIcEENS_9allocatorIcEEEENS1_IN5Eigen6MatrixIfLin1ELi1ELi0ELin1ELi1EEEbEEEELi0EEEvPT_, symObjAddr: 0x1D5DC, symBinAddr: 0x10001FEA0, symSize: 0x24 }
  - { offsetInCU: 0x1EEA19, offset: 0x1EEA19, size: 0x8, addend: 0x0, symName: __ZNSt3__112__destroy_atB8ue170006INS_4pairIKNS_12basic_stringIcNS_11char_traitsIcEENS_9allocatorIcEEEENS1_IN5Eigen6MatrixIfLin1ELi1ELi0ELin1ELi1EEEbEEEELi0EEEvPT_, symObjAddr: 0x1D600, symBinAddr: 0x10001FEC4, symSize: 0x24 }
  - { offsetInCU: 0x1EEA51, offset: 0x1EEA51, size: 0x8, addend: 0x0, symName: __ZNSt3__17launderB8ue170006INS_4pairIKNS_12basic_stringIcNS_11char_traitsIcEENS_9allocatorIcEEEENS1_IN5Eigen6MatrixIfLin1ELi1ELi0ELin1ELi1EEEbEEEEEEPT_SF_, symObjAddr: 0x1D704, symBinAddr: 0x10001FFC8, symSize: 0x24 }
  - { offsetInCU: 0x1EEA88, offset: 0x1EEA88, size: 0x8, addend: 0x0, symName: __ZNSt3__19__launderB8ue170006INS_4pairIKNS_12basic_stringIcNS_11char_traitsIcEENS_9allocatorIcEEEENS1_IN5Eigen6MatrixIfLin1ELi1ELi0ELin1ELi1EEEbEEEEEEPT_SF_, symObjAddr: 0x1D728, symBinAddr: 0x10001FFEC, symSize: 0x14 }
  - { offsetInCU: 0x1EEAF2, offset: 0x1EEAF2, size: 0x8, addend: 0x0, symName: __ZNSt3__110destroy_atB8ue170006INS_4pairIKfNS_12basic_stringIcNS_11char_traitsIcEENS_9allocatorIcEEEEEELi0EEEvPT_, symObjAddr: 0x1EBB4, symBinAddr: 0x100021478, symSize: 0x24 }
  - { offsetInCU: 0x1EEB2A, offset: 0x1EEB2A, size: 0x8, addend: 0x0, symName: __ZNSt3__112__destroy_atB8ue170006INS_4pairIKfNS_12basic_stringIcNS_11char_traitsIcEENS_9allocatorIcEEEEEELi0EEEvPT_, symObjAddr: 0x1EBD8, symBinAddr: 0x10002149C, symSize: 0x24 }
  - { offsetInCU: 0x1EEB62, offset: 0x1EEB62, size: 0x8, addend: 0x0, symName: __ZNSt3__17launderB8ue170006INS_4pairIKfNS_12basic_stringIcNS_11char_traitsIcEENS_9allocatorIcEEEEEEEEPT_SB_, symObjAddr: 0x1EC7C, symBinAddr: 0x100021540, symSize: 0x24 }
  - { offsetInCU: 0x1EEB99, offset: 0x1EEB99, size: 0x8, addend: 0x0, symName: __ZNSt3__19__launderB8ue170006INS_4pairIKfNS_12basic_stringIcNS_11char_traitsIcEENS_9allocatorIcEEEEEEEEPT_SB_, symObjAddr: 0x1ECA0, symBinAddr: 0x100021564, symSize: 0x14 }
  - { offsetInCU: 0x1EEC03, offset: 0x1EEC03, size: 0x8, addend: 0x0, symName: __ZNSt3__110destroy_atB8ue170006INS_4pairIKNS_12basic_stringIcNS_11char_traitsIcEENS_9allocatorIcEEEEfEELi0EEEvPT_, symObjAddr: 0x20130, symBinAddr: 0x1000229F4, symSize: 0x24 }
  - { offsetInCU: 0x1EEC3B, offset: 0x1EEC3B, size: 0x8, addend: 0x0, symName: __ZNSt3__112__destroy_atB8ue170006INS_4pairIKNS_12basic_stringIcNS_11char_traitsIcEENS_9allocatorIcEEEEfEELi0EEEvPT_, symObjAddr: 0x20154, symBinAddr: 0x100022A18, symSize: 0x24 }
  - { offsetInCU: 0x1EEC73, offset: 0x1EEC73, size: 0x8, addend: 0x0, symName: __ZNSt3__17launderB8ue170006INS_4pairIKNS_12basic_stringIcNS_11char_traitsIcEENS_9allocatorIcEEEEfEEEEPT_SB_, symObjAddr: 0x201F4, symBinAddr: 0x100022AB8, symSize: 0x24 }
  - { offsetInCU: 0x1EECAA, offset: 0x1EECAA, size: 0x8, addend: 0x0, symName: __ZNSt3__19__launderB8ue170006INS_4pairIKNS_12basic_stringIcNS_11char_traitsIcEENS_9allocatorIcEEEEfEEEEPT_SB_, symObjAddr: 0x20218, symBinAddr: 0x100022ADC, symSize: 0x14 }
  - { offsetInCU: 0x1EED14, offset: 0x1EED14, size: 0x8, addend: 0x0, symName: __ZNSt3__110destroy_atB8ue170006INS_4pairIKbNS_13unordered_mapIbNS3_IbNS_6vectorIfNS_9allocatorIfEEEENS_4hashIbEENS_8equal_toIbEENS5_INS1_IS2_S7_EEEEEES9_SB_NS5_INS1_IS2_SE_EEEEEEEELi0EEEvPT_, symObjAddr: 0x216A8, symBinAddr: 0x100023F6C, symSize: 0x24 }
  - { offsetInCU: 0x1EED4C, offset: 0x1EED4C, size: 0x8, addend: 0x0, symName: __ZNSt3__112__destroy_atB8ue170006INS_4pairIKbNS_13unordered_mapIbNS3_IbNS_6vectorIfNS_9allocatorIfEEEENS_4hashIbEENS_8equal_toIbEENS5_INS1_IS2_S7_EEEEEES9_SB_NS5_INS1_IS2_SE_EEEEEEEELi0EEEvPT_, symObjAddr: 0x216CC, symBinAddr: 0x100023F90, symSize: 0x24 }
  - { offsetInCU: 0x1EEDB7, offset: 0x1EEDB7, size: 0x8, addend: 0x0, symName: __ZNSt3__110destroy_atB8ue170006INS_4pairIKbNS_13unordered_mapIbNS_6vectorIfNS_9allocatorIfEEEENS_4hashIbEENS_8equal_toIbEENS5_INS1_IS2_S7_EEEEEEEELi0EEEvPT_, symObjAddr: 0x21AB8, symBinAddr: 0x10002437C, symSize: 0x24 }
  - { offsetInCU: 0x1EEDEF, offset: 0x1EEDEF, size: 0x8, addend: 0x0, symName: __ZNSt3__112__destroy_atB8ue170006INS_4pairIKbNS_13unordered_mapIbNS_6vectorIfNS_9allocatorIfEEEENS_4hashIbEENS_8equal_toIbEENS5_INS1_IS2_S7_EEEEEEEELi0EEEvPT_, symObjAddr: 0x21ADC, symBinAddr: 0x1000243A0, symSize: 0x24 }
  - { offsetInCU: 0x1EEE5A, offset: 0x1EEE5A, size: 0x8, addend: 0x0, symName: __ZNSt3__110destroy_atB8ue170006INS_4pairIKbNS_6vectorIfNS_9allocatorIfEEEEEELi0EEEvPT_, symObjAddr: 0x21EC8, symBinAddr: 0x10002478C, symSize: 0x24 }
  - { offsetInCU: 0x1EEE92, offset: 0x1EEE92, size: 0x8, addend: 0x0, symName: __ZNSt3__112__destroy_atB8ue170006INS_4pairIKbNS_6vectorIfNS_9allocatorIfEEEEEELi0EEEvPT_, symObjAddr: 0x21EEC, symBinAddr: 0x1000247B0, symSize: 0x24 }
  - { offsetInCU: 0x1EEECA, offset: 0x1EEECA, size: 0x8, addend: 0x0, symName: __ZNSt3__17launderB8ue170006INS_4pairIKbNS_6vectorIfNS_9allocatorIfEEEEEEEEPT_S9_, symObjAddr: 0x21F90, symBinAddr: 0x100024854, symSize: 0x24 }
  - { offsetInCU: 0x1EEF01, offset: 0x1EEF01, size: 0x8, addend: 0x0, symName: __ZNSt3__19__launderB8ue170006INS_4pairIKbNS_6vectorIfNS_9allocatorIfEEEEEEEEPT_S9_, symObjAddr: 0x21FB4, symBinAddr: 0x100024878, symSize: 0x14 }
  - { offsetInCU: 0x1EEF38, offset: 0x1EEF38, size: 0x8, addend: 0x0, symName: __ZNSt3__17launderB8ue170006INS_4pairIKbNS_13unordered_mapIbNS_6vectorIfNS_9allocatorIfEEEENS_4hashIbEENS_8equal_toIbEENS5_INS1_IS2_S7_EEEEEEEEEEPT_SH_, symObjAddr: 0x22390, symBinAddr: 0x100024C54, symSize: 0x24 }
  - { offsetInCU: 0x1EEF6F, offset: 0x1EEF6F, size: 0x8, addend: 0x0, symName: __ZNSt3__19__launderB8ue170006INS_4pairIKbNS_13unordered_mapIbNS_6vectorIfNS_9allocatorIfEEEENS_4hashIbEENS_8equal_toIbEENS5_INS1_IS2_S7_EEEEEEEEEEPT_SH_, symObjAddr: 0x223B4, symBinAddr: 0x100024C78, symSize: 0x14 }
  - { offsetInCU: 0x1EEFA6, offset: 0x1EEFA6, size: 0x8, addend: 0x0, symName: __ZNSt3__17launderB8ue170006INS_4pairIKbNS_13unordered_mapIbNS3_IbNS_6vectorIfNS_9allocatorIfEEEENS_4hashIbEENS_8equal_toIbEENS5_INS1_IS2_S7_EEEEEES9_SB_NS5_INS1_IS2_SE_EEEEEEEEEEPT_SK_, symObjAddr: 0x2278C, symBinAddr: 0x100025050, symSize: 0x24 }
  - { offsetInCU: 0x1EEFDD, offset: 0x1EEFDD, size: 0x8, addend: 0x0, symName: __ZNSt3__19__launderB8ue170006INS_4pairIKbNS_13unordered_mapIbNS3_IbNS_6vectorIfNS_9allocatorIfEEEENS_4hashIbEENS_8equal_toIbEENS5_INS1_IS2_S7_EEEEEES9_SB_NS5_INS1_IS2_SE_EEEEEEEEEEPT_SK_, symObjAddr: 0x227B0, symBinAddr: 0x100025074, symSize: 0x14 }
  - { offsetInCU: 0x1EF047, offset: 0x1EF047, size: 0x8, addend: 0x0, symName: __ZNSt3__110destroy_atB8ue170006INS_4pairIKiNS_6vectorIdNS_9allocatorIdEEEEEELi0EEEvPT_, symObjAddr: 0x23880, symBinAddr: 0x100026144, symSize: 0x24 }
  - { offsetInCU: 0x1EF07F, offset: 0x1EF07F, size: 0x8, addend: 0x0, symName: __ZNSt3__112__destroy_atB8ue170006INS_4pairIKiNS_6vectorIdNS_9allocatorIdEEEEEELi0EEEvPT_, symObjAddr: 0x238A4, symBinAddr: 0x100026168, symSize: 0x24 }
  - { offsetInCU: 0x1EF0B7, offset: 0x1EF0B7, size: 0x8, addend: 0x0, symName: __ZNSt3__17launderB8ue170006INS_4pairIKiNS_6vectorIdNS_9allocatorIdEEEEEEEEPT_S9_, symObjAddr: 0x23FB0, symBinAddr: 0x100026874, symSize: 0x24 }
  - { offsetInCU: 0x1EF0EE, offset: 0x1EF0EE, size: 0x8, addend: 0x0, symName: __ZNSt3__19__launderB8ue170006INS_4pairIKiNS_6vectorIdNS_9allocatorIdEEEEEEEEPT_S9_, symObjAddr: 0x23FD4, symBinAddr: 0x100026898, symSize: 0x14 }
  - { offsetInCU: 0x1EF546, offset: 0x1EF546, size: 0x8, addend: 0x0, symName: __ZNSt3__122__libcpp_thread_createB8ue170006EPP17_opaque_pthread_tPFPvS3_ES3_, symObjAddr: 0x24520, symBinAddr: 0x100026DE4, symSize: 0x38 }
  - { offsetInCU: 0x1EF593, offset: 0x1EF593, size: 0x8, addend: 0x0, symName: '__ZNSt3__114__thread_proxyB8ue170006INS_5tupleIJNS_10unique_ptrINS_15__thread_structENS_14default_deleteIS3_EEEEZ12RandomSearchRKN5Eigen6MatrixIfLin1ELin1ELi0ELin1ELin1EEEiidiPKcijE3$_0EEEEEPvSG_', symObjAddr: 0x24558, symBinAddr: 0x100026E1C, symSize: 0x2B4 }
  - { offsetInCU: 0x1EF6FB, offset: 0x1EF6FB, size: 0x8, addend: 0x0, symName: '__ZNSt3__13getB8ue170006ILm0EJNS_10unique_ptrINS_15__thread_structENS_14default_deleteIS2_EEEEZ12RandomSearchRKN5Eigen6MatrixIfLin1ELin1ELi0ELin1ELin1EEEiidiPKcijE3$_0EEERNS_13tuple_elementIXT_ENS_5tupleIJDpT0_EEEE4typeERSI_', symObjAddr: 0x25774, symBinAddr: 0x100028038, symSize: 0x24 }
  - { offsetInCU: 0x1EF747, offset: 0x1EF747, size: 0x8, addend: 0x0, symName: '__ZNSt3__116__thread_executeB8ue170006INS_10unique_ptrINS_15__thread_structENS_14default_deleteIS2_EEEEZ12RandomSearchRKN5Eigen6MatrixIfLin1ELin1ELi0ELin1ELin1EEEiidiPKcijE3$_0JEJEEEvRNS_5tupleIJT_T0_DpT1_EEENS_15__tuple_indicesIJXspT2_EEEE', symObjAddr: 0x25798, symBinAddr: 0x10002805C, symSize: 0x28 }
  - { offsetInCU: 0x1EF797, offset: 0x1EF797, size: 0x8, addend: 0x0, symName: __ZNSt3__116__libcpp_tls_setB8ue170006EmPv, symObjAddr: 0x257C0, symBinAddr: 0x100028084, symSize: 0x2C }
  - { offsetInCU: 0x1EF7D5, offset: 0x1EF7D5, size: 0x8, addend: 0x0, symName: '__ZNSt3__18__invokeB8ue170006IZ12RandomSearchRKN5Eigen6MatrixIfLin1ELin1ELi0ELin1ELin1EEEiidiPKcijE3$_0JEEEDTclclsr3stdE7declvalIT_EEspclsr3stdE7declvalIT0_EEEEOS9_DpOSA_', symObjAddr: 0x25800, symBinAddr: 0x1000280C4, symSize: 0x24 }
  - { offsetInCU: 0x1EF80E, offset: 0x1EF80E, size: 0x8, addend: 0x0, symName: '__ZNSt3__13getB8ue170006ILm1EJNS_10unique_ptrINS_15__thread_structENS_14default_deleteIS2_EEEEZ12RandomSearchRKN5Eigen6MatrixIfLin1ELin1ELi0ELin1ELin1EEEiidiPKcijE3$_0EEERNS_13tuple_elementIXT_ENS_5tupleIJDpT0_EEEE4typeERSI_', symObjAddr: 0x25824, symBinAddr: 0x1000280E8, symSize: 0x28 }
  - { offsetInCU: 0x1EF85E, offset: 0x1EF85E, size: 0x8, addend: 0x0, symName: __ZNSt3__111this_thread9sleep_forB8ue170006IxNS_5ratioILl1ELl1EEEEEvRKNS_6chrono8durationIT_T0_EE, symObjAddr: 0x2619C, symBinAddr: 0x100028A60, symSize: 0x6C0 }
  - { offsetInCU: 0x1EF8E2, offset: 0x1EF8E2, size: 0x8, addend: 0x0, symName: __ZNSt3__19make_pairB8ue170006ImRfEENS_4pairINS_18__unwrap_ref_decayIT_E4typeENS3_IT0_E4typeEEEOS4_OS7_, symObjAddr: 0x26978, symBinAddr: 0x10002923C, symSize: 0x20C }
  - { offsetInCU: 0x1EFA08, offset: 0x1EFA08, size: 0x8, addend: 0x0, symName: __ZNSt3__1gtB8ue170006ENS_15strong_orderingENS_20_CmpUnspecifiedParamE, symObjAddr: 0x27A7C, symBinAddr: 0x10002A340, symSize: 0x274 }
  - { offsetInCU: 0x1EFA62, offset: 0x1EFA62, size: 0x8, addend: 0x0, symName: __ZNSt3__1ltB8ue170006ENS_16partial_orderingENS_20_CmpUnspecifiedParamE, symObjAddr: 0x28310, symBinAddr: 0x10002ABD4, symSize: 0x298 }
  - { offsetInCU: 0x1EFA9D, offset: 0x1EFA9D, size: 0x8, addend: 0x0, symName: __ZNSt3__1ltB8ue170006ENS_15strong_orderingENS_20_CmpUnspecifiedParamE, symObjAddr: 0x28B8C, symBinAddr: 0x10002B450, symSize: 0x274 }
  - { offsetInCU: 0x1EFD03, offset: 0x1EFD03, size: 0x8, addend: 0x0, symName: __ZNSt3__112construct_atB8ue170006INS_4pairIifEEJS2_EPS2_EEPT_S5_DpOT0_, symObjAddr: 0x2B044, symBinAddr: 0x10002D908, symSize: 0x40 }
  - { offsetInCU: 0x1EFD76, offset: 0x1EFD76, size: 0x8, addend: 0x0, symName: __ZNSt3__119__allocate_at_leastB8ue170006INS_9allocatorINS_4pairIifEEEEEENS_19__allocation_resultINS_16allocator_traitsIT_E7pointerEEERS7_m, symObjAddr: 0x2C624, symBinAddr: 0x10002EEE8, symSize: 0x28C }
  - { offsetInCU: 0x1EFDBB, offset: 0x1EFDBB, size: 0x8, addend: 0x0, symName: __ZNSt3__142__uninitialized_allocator_move_if_noexceptB8ue170006INS_9allocatorINS_4pairIifEEEENS_16reverse_iteratorIPS3_EES7_S7_EET2_RT_T0_T1_S8_, symObjAddr: 0x2CAC0, symBinAddr: 0x10002F384, symSize: 0x544 }
  - { offsetInCU: 0x1EFE70, offset: 0x1EFE70, size: 0x8, addend: 0x0, symName: __ZNSt3__14swapB8ue170006IPNS_4pairIifEEEENS_9enable_ifIXaasr21is_move_constructibleIT_EE5valuesr18is_move_assignableIS5_EE5valueEvE4typeERS5_S8_, symObjAddr: 0x2D09C, symBinAddr: 0x10002F960, symSize: 0x134 }
  - { offsetInCU: 0x1EFEC1, offset: 0x1EFEC1, size: 0x8, addend: 0x0, symName: __ZNSt3__122__make_exception_guardB8ue170006INS_29_AllocatorDestroyRangeReverseINS_9allocatorINS_4pairIifEEEENS_16reverse_iteratorIPS4_EEEEEENS_28__exception_guard_exceptionsIT_EESB_, symObjAddr: 0x2D290, symBinAddr: 0x10002FB54, symSize: 0x1F8 }
  - { offsetInCU: 0x1EFEF8, offset: 0x1EFEF8, size: 0x8, addend: 0x0, symName: __ZNSt3__1neB8ue170006IPNS_4pairIifEES3_EEbRKNS_16reverse_iteratorIT_EERKNS4_IT0_EE, symObjAddr: 0x2D4CC, symBinAddr: 0x10002FD90, symSize: 0x48 }
  - { offsetInCU: 0x1EFF44, offset: 0x1EFF44, size: 0x8, addend: 0x0, symName: __ZNSt3__112__to_addressB8ue170006INS_16reverse_iteratorIPNS_4pairIifEEEEvEEu7__decayIDTclsr19__to_address_helperIT_EE6__callclsr3stdE7declvalIRKS6_EEEEES8_, symObjAddr: 0x2D514, symBinAddr: 0x10002FDD8, symSize: 0x24 }
  - { offsetInCU: 0x1EFFA5, offset: 0x1EFFA5, size: 0x8, addend: 0x0, symName: __ZNSt3__14prevB8ue170006IPNS_4pairIifEEEENS_9enable_ifIXsr29__has_input_iterator_categoryIT_EE5valueES5_E4typeES5_NS_15iterator_traitsIS5_E15difference_typeE, symObjAddr: 0x2D95C, symBinAddr: 0x100030220, symSize: 0x240 }
  - { offsetInCU: 0x1EFFEE, offset: 0x1EFFEE, size: 0x8, addend: 0x0, symName: __ZNSt3__121__convert_to_integralB8ue170006El, symObjAddr: 0x2DBD4, symBinAddr: 0x100030498, symSize: 0x14 }
  - { offsetInCU: 0x1F001C, offset: 0x1F001C, size: 0x8, addend: 0x0, symName: __ZNSt3__19__advanceB8ue170006IPNS_4pairIifEEEEvRT_NS_15iterator_traitsIS4_E15difference_typeENS_26random_access_iterator_tagE, symObjAddr: 0x2DBE8, symBinAddr: 0x1000304AC, symSize: 0x78 }
  - { offsetInCU: 0x1F0065, offset: 0x1F0065, size: 0x8, addend: 0x0, symName: __ZNSt3__119__allocator_destroyB8ue170006INS_9allocatorINS_4pairIifEEEENS_16reverse_iteratorINS5_IPS3_EEEES8_EEvRT_T0_T1_, symObjAddr: 0x2E0C4, symBinAddr: 0x100030988, symSize: 0x70 }
  - { offsetInCU: 0x1F00CA, offset: 0x1F00CA, size: 0x8, addend: 0x0, symName: __ZNSt3__1neB8ue170006INS_16reverse_iteratorIPNS_4pairIifEEEES5_EEbRKNS1_IT_EERKNS1_IT0_EE, symObjAddr: 0x2E37C, symBinAddr: 0x100030C40, symSize: 0x2CC }
  - { offsetInCU: 0x1F0118, offset: 0x1F0118, size: 0x8, addend: 0x0, symName: __ZNSt3__112__to_addressB8ue170006INS_16reverse_iteratorINS1_IPNS_4pairIifEEEEEEvEEu7__decayIDTclsr19__to_address_helperIT_EE6__callclsr3stdE7declvalIRKS7_EEEEES9_, symObjAddr: 0x2E648, symBinAddr: 0x100030F0C, symSize: 0x24 }
  - { offsetInCU: 0x1F0179, offset: 0x1F0179, size: 0x8, addend: 0x0, symName: __ZNSt3__14prevB8ue170006INS_16reverse_iteratorIPNS_4pairIifEEEEEENS_9enable_ifIXsr29__has_input_iterator_categoryIT_EE5valueES7_E4typeES7_NS_15iterator_traitsIS7_E15difference_typeE, symObjAddr: 0x2EB8C, symBinAddr: 0x100031450, symSize: 0x294 }
  - { offsetInCU: 0x1F01C1, offset: 0x1F01C1, size: 0x8, addend: 0x0, symName: __ZNSt3__19__advanceB8ue170006INS_16reverse_iteratorIPNS_4pairIifEEEEEEvRT_NS_15iterator_traitsIS6_E15difference_typeENS_26random_access_iterator_tagE, symObjAddr: 0x2EE58, symBinAddr: 0x10003171C, symSize: 0x2C }
  - { offsetInCU: 0x1F062C, offset: 0x1F062C, size: 0x8, addend: 0x0, symName: '__ZNSt3__114__thread_proxyB8ue170006INS_5tupleIJNS_10unique_ptrINS_15__thread_structENS_14default_deleteIS3_EEEEZ12RandomSearchRKN5Eigen6MatrixIfLin1ELin1ELi0ELin1ELin1EEEiidiPKcijE3$_1EEEEEPvSG_', symObjAddr: 0x30234, symBinAddr: 0x100032AF8, symSize: 0x2B4 }
  - { offsetInCU: 0x1F0691, offset: 0x1F0691, size: 0x8, addend: 0x0, symName: '__ZNSt3__13getB8ue170006ILm0EJNS_10unique_ptrINS_15__thread_structENS_14default_deleteIS2_EEEEZ12RandomSearchRKN5Eigen6MatrixIfLin1ELin1ELi0ELin1ELin1EEEiidiPKcijE3$_1EEERNS_13tuple_elementIXT_ENS_5tupleIJDpT0_EEEE4typeERSI_', symObjAddr: 0x30AD0, symBinAddr: 0x100033394, symSize: 0x24 }
  - { offsetInCU: 0x1F06DD, offset: 0x1F06DD, size: 0x8, addend: 0x0, symName: '__ZNSt3__116__thread_executeB8ue170006INS_10unique_ptrINS_15__thread_structENS_14default_deleteIS2_EEEEZ12RandomSearchRKN5Eigen6MatrixIfLin1ELin1ELi0ELin1ELin1EEEiidiPKcijE3$_1JEJEEEvRNS_5tupleIJT_T0_DpT1_EEENS_15__tuple_indicesIJXspT2_EEEE', symObjAddr: 0x30AF4, symBinAddr: 0x1000333B8, symSize: 0x28 }
  - { offsetInCU: 0x1F072E, offset: 0x1F072E, size: 0x8, addend: 0x0, symName: '__ZNSt3__18__invokeB8ue170006IZ12RandomSearchRKN5Eigen6MatrixIfLin1ELin1ELi0ELin1ELin1EEEiidiPKcijE3$_1JEEEDTclclsr3stdE7declvalIT_EEspclsr3stdE7declvalIT0_EEEEOS9_DpOSA_', symObjAddr: 0x30B1C, symBinAddr: 0x1000333E0, symSize: 0x24 }
  - { offsetInCU: 0x1F0767, offset: 0x1F0767, size: 0x8, addend: 0x0, symName: '__ZNSt3__13getB8ue170006ILm1EJNS_10unique_ptrINS_15__thread_structENS_14default_deleteIS2_EEEEZ12RandomSearchRKN5Eigen6MatrixIfLin1ELin1ELi0ELin1ELin1EEEiidiPKcijE3$_1EEERNS_13tuple_elementIXT_ENS_5tupleIJDpT0_EEEE4typeERSI_', symObjAddr: 0x30B40, symBinAddr: 0x100033404, symSize: 0x28 }
  - { offsetInCU: 0x1F0850, offset: 0x1F0850, size: 0x8, addend: 0x0, symName: __ZNSt3__19call_onceB8ue170006IZN5BoardC1EbiiRKN5Eigen6MatrixIfLin1ELin1ELi0ELin1ELin1EEEEUlvE_JEEEvRNS_9once_flagEOT_DpOT0_, symObjAddr: 0x349F0, symBinAddr: 0x1000372B4, symSize: 0x25C }
  - { offsetInCU: 0x1F08D2, offset: 0x1F08D2, size: 0x8, addend: 0x0, symName: __ZNSt3__18distanceB8ue170006IPKfEENS_15iterator_traitsIT_E15difference_typeES4_S4_, symObjAddr: 0x35B54, symBinAddr: 0x100038418, symSize: 0x2C }
  - { offsetInCU: 0x1F0918, offset: 0x1F0918, size: 0x8, addend: 0x0, symName: __ZNSt3__14nextB8ue170006IPKfEENS_9enable_ifIXsr29__has_input_iterator_categoryIT_EE5valueES4_E4typeES4_NS_15iterator_traitsIS4_E15difference_typeE, symObjAddr: 0x35B80, symBinAddr: 0x100038444, symSize: 0x238 }
  - { offsetInCU: 0x1F0963, offset: 0x1F0963, size: 0x8, addend: 0x0, symName: __ZNSt3__14copyB8ue170006IPKfPfEET0_T_S5_S4_, symObjAddr: 0x35DB8, symBinAddr: 0x10003867C, symSize: 0x26C }
  - { offsetInCU: 0x1F09C4, offset: 0x1F09C4, size: 0x8, addend: 0x0, symName: __ZNSt3__16__copyB8ue170006INS_17_ClassicAlgPolicyEPKfS3_PfEENS_4pairIT0_T2_EES6_T1_S7_, symObjAddr: 0x363A4, symBinAddr: 0x100038C68, symSize: 0x22C }
  - { offsetInCU: 0x1F0A37, offset: 0x1F0A37, size: 0x8, addend: 0x0, symName: __ZNSt3__19__advanceB8ue170006IPKfEEvRT_NS_15iterator_traitsIS3_E15difference_typeENS_26random_access_iterator_tagE, symObjAddr: 0x36F8C, symBinAddr: 0x100039850, symSize: 0x78 }
  - { offsetInCU: 0x1F0A80, offset: 0x1F0A80, size: 0x8, addend: 0x0, symName: __ZNSt3__130__uninitialized_allocator_copyB8ue170006INS_9allocatorIfEEPKfS4_PfEET2_RT_T0_T1_S6_, symObjAddr: 0x37040, symBinAddr: 0x100039904, symSize: 0x2DC }
  - { offsetInCU: 0x1F0B26, offset: 0x1F0B26, size: 0x8, addend: 0x0, symName: __ZNSt3__114__unwrap_rangeB8ue170006IPKfS2_EEDaT_T0_, symObjAddr: 0x375F0, symBinAddr: 0x100039EB4, symSize: 0x224 }
  - { offsetInCU: 0x1F0B74, offset: 0x1F0B74, size: 0x8, addend: 0x0, symName: __ZNSt3__135__uninitialized_allocator_copy_implB8ue170006INS_9allocatorIfEEKfffLPv0EEEPT2_RT_PT0_SA_S6_, symObjAddr: 0x37814, symBinAddr: 0x10003A0D8, symSize: 0x38 }
  - { offsetInCU: 0x1F0BF6, offset: 0x1F0BF6, size: 0x8, addend: 0x0, symName: __ZNSt3__113__unwrap_iterB8ue170006IPfNS_18__unwrap_iter_implIS1_Lb1EEELi0EEEDTclsrT0_8__unwrapclsr3stdE7declvalIT_EEEES5_, symObjAddr: 0x3784C, symBinAddr: 0x10003A110, symSize: 0x24 }
  - { offsetInCU: 0x1F0C3B, offset: 0x1F0C3B, size: 0x8, addend: 0x0, symName: __ZNSt3__113__rewrap_iterB8ue170006IPfS1_NS_18__unwrap_iter_implIS1_Lb1EEEEET_S4_T0_, symObjAddr: 0x37870, symBinAddr: 0x10003A134, symSize: 0x48 }
  - { offsetInCU: 0x1F0DAF, offset: 0x1F0DAF, size: 0x8, addend: 0x0, symName: __ZNSt3__113__unwrap_iterB8ue170006IPKfNS_18__unwrap_iter_implIS2_Lb1EEELi0EEEDTclsrT0_8__unwrapclsr3stdE7declvalIT_EEEES6_, symObjAddr: 0x37BC4, symBinAddr: 0x10003A488, symSize: 0x24 }
  - { offsetInCU: 0x1F0E48, offset: 0x1F0E48, size: 0x8, addend: 0x0, symName: __ZNSt3__112__to_addressB8ue170006IKfEEPT_S3_, symObjAddr: 0x37C48, symBinAddr: 0x10003A50C, symSize: 0x14 }
  - { offsetInCU: 0x1F0ED1, offset: 0x1F0ED1, size: 0x8, addend: 0x0, symName: __ZNSt3__123__dispatch_copy_or_moveB8ue170006INS_17_ClassicAlgPolicyENS_11__copy_loopIS1_EENS_14__copy_trivialEPKfS6_PfEENS_4pairIT2_T4_EES9_T3_SA_, symObjAddr: 0x38148, symBinAddr: 0x10003AA0C, symSize: 0x22C }
  - { offsetInCU: 0x1F0F52, offset: 0x1F0F52, size: 0x8, addend: 0x0, symName: __ZNSt3__121__unwrap_and_dispatchB8ue170006INS_10__overloadINS_11__copy_loopINS_17_ClassicAlgPolicyEEENS_14__copy_trivialEEEPKfS8_PfLi0EEENS_4pairIT0_T2_EESB_T1_SC_, symObjAddr: 0x38374, symBinAddr: 0x10003AC38, symSize: 0x5A4 }
  - { offsetInCU: 0x1F1178, offset: 0x1F1178, size: 0x8, addend: 0x0, symName: __ZNSt3__19make_pairB8ue170006IPKfPfEENS_4pairINS_18__unwrap_ref_decayIT_E4typeENS5_IT0_E4typeEEEOS6_OS9_, symObjAddr: 0x38B48, symBinAddr: 0x10003B40C, symSize: 0x20C }
  - { offsetInCU: 0x1F11C9, offset: 0x1F11C9, size: 0x8, addend: 0x0, symName: __ZNSt3__114__rewrap_rangeB8ue170006IPKfS2_S2_EET0_S3_T1_, symObjAddr: 0x38D54, symBinAddr: 0x10003B618, symSize: 0x2C }
  - { offsetInCU: 0x1F121E, offset: 0x1F121E, size: 0x8, addend: 0x0, symName: __ZNSt3__119__copy_trivial_implB8ue170006IKffEENS_4pairIPT_PT0_EES4_S4_S6_, symObjAddr: 0x38D80, symBinAddr: 0x10003B644, symSize: 0x3B4 }
  - { offsetInCU: 0x1F128D, offset: 0x1F128D, size: 0x8, addend: 0x0, symName: __ZNSt3__119__constexpr_memmoveB8ue170006IfKfLi0EEEPT_S3_PT0_NS_15__element_countE, symObjAddr: 0x39134, symBinAddr: 0x10003B9F8, symSize: 0x64 }
  - { offsetInCU: 0x1F12FC, offset: 0x1F12FC, size: 0x8, addend: 0x0, symName: __ZNSt3__19make_pairB8ue170006IRPKfPfEENS_4pairINS_18__unwrap_ref_decayIT_E4typeENS6_IT0_E4typeEEEOS7_OSA_, symObjAddr: 0x39198, symBinAddr: 0x10003BA5C, symSize: 0x20C }
  - { offsetInCU: 0x1F134D, offset: 0x1F134D, size: 0x8, addend: 0x0, symName: __ZNSt3__113__rewrap_iterB8ue170006IPKfS2_NS_18__unwrap_iter_implIS2_Lb1EEEEET_S5_T0_, symObjAddr: 0x396B8, symBinAddr: 0x10003BF7C, symSize: 0x48 }
  - { offsetInCU: 0x1F13A2, offset: 0x1F13A2, size: 0x8, addend: 0x0, symName: __ZNSt3__119__allocate_at_leastB8ue170006INS_9allocatorIfEEEENS_19__allocation_resultINS_16allocator_traitsIT_E7pointerEEERS5_m, symObjAddr: 0x39ACC, symBinAddr: 0x10003C390, symSize: 0x28C }
  - { offsetInCU: 0x1F13E8, offset: 0x1F13E8, size: 0x8, addend: 0x0, symName: __ZNSt3__110__distanceB8ue170006IPKfEENS_15iterator_traitsIT_E15difference_typeES4_S4_NS_26random_access_iterator_tagE, symObjAddr: 0x39EFC, symBinAddr: 0x10003C7C0, symSize: 0x28 }
  - { offsetInCU: 0x1F143A, offset: 0x1F143A, size: 0x8, addend: 0x0, symName: __ZNSt3__142__uninitialized_allocator_move_if_noexceptB8ue170006INS_9allocatorIfEENS_16reverse_iteratorIPfEES5_fvEET1_RT_T0_S9_S6_, symObjAddr: 0x3AC74, symBinAddr: 0x10003D538, symSize: 0x4A8 }
  - { offsetInCU: 0x1F14C5, offset: 0x1F14C5, size: 0x8, addend: 0x0, symName: __ZNSt3__14swapB8ue170006IPfEENS_9enable_ifIXaasr21is_move_constructibleIT_EE5valuesr18is_move_assignableIS3_EE5valueEvE4typeERS3_S6_, symObjAddr: 0x3B1B4, symBinAddr: 0x10003DA78, symSize: 0x134 }
  - { offsetInCU: 0x1F1516, offset: 0x1F1516, size: 0x8, addend: 0x0, symName: __ZNSt3__14moveB8ue170006INS_16reverse_iteratorIPfEES3_EET0_T_S5_S4_, symObjAddr: 0x3B2E8, symBinAddr: 0x10003DBAC, symSize: 0x4B0 }
  - { offsetInCU: 0x1F157D, offset: 0x1F157D, size: 0x8, addend: 0x0, symName: __ZNSt3__16__moveB8ue170006INS_17_ClassicAlgPolicyENS_16reverse_iteratorIPfEES4_S4_EENS_4pairIT0_T2_EES6_T1_S7_, symObjAddr: 0x3B798, symBinAddr: 0x10003E05C, symSize: 0x424 }
  - { offsetInCU: 0x1F15F5, offset: 0x1F15F5, size: 0x8, addend: 0x0, symName: __ZNSt3__123__dispatch_copy_or_moveB8ue170006INS_17_ClassicAlgPolicyENS_11__move_loopIS1_EENS_14__move_trivialENS_16reverse_iteratorIPfEES7_S7_EENS_4pairIT2_T4_EES9_T3_SA_, symObjAddr: 0x3BBBC, symBinAddr: 0x10003E480, symSize: 0x424 }
  - { offsetInCU: 0x1F167F, offset: 0x1F167F, size: 0x8, addend: 0x0, symName: __ZNSt3__121__unwrap_and_dispatchB8ue170006INS_10__overloadINS_11__move_loopINS_17_ClassicAlgPolicyEEENS_14__move_trivialEEENS_16reverse_iteratorIPfEES9_S9_Li0EEENS_4pairIT0_T2_EESB_T1_SC_, symObjAddr: 0x3BFE0, symBinAddr: 0x10003E8A4, symSize: 0x880 }
  - { offsetInCU: 0x1F1724, offset: 0x1F1724, size: 0x8, addend: 0x0, symName: __ZNSt3__114__unwrap_rangeB8ue170006INS_16reverse_iteratorIPfEES3_EEDaT_T0_, symObjAddr: 0x3C860, symBinAddr: 0x10003F124, symSize: 0x35C }
  - { offsetInCU: 0x1F184D, offset: 0x1F184D, size: 0x8, addend: 0x0, symName: __ZNSt3__113__unwrap_iterB8ue170006INS_16reverse_iteratorIPfEENS_18__unwrap_iter_implIS3_Lb0EEELi0EEEDTclsrT0_8__unwrapclsr3stdE7declvalIT_EEEES7_, symObjAddr: 0x3CFB4, symBinAddr: 0x10003F878, symSize: 0x2EC }
  - { offsetInCU: 0x1F1896, offset: 0x1F1896, size: 0x8, addend: 0x0, symName: __ZNSt3__19make_pairB8ue170006INS_16reverse_iteratorIPfEES3_EENS_4pairINS_18__unwrap_ref_decayIT_E4typeENS5_IT0_E4typeEEEOS6_OS9_, symObjAddr: 0x3D2A0, symBinAddr: 0x10003FB64, symSize: 0x38 }
  - { offsetInCU: 0x1F18E5, offset: 0x1F18E5, size: 0x8, addend: 0x0, symName: __ZNSt3__114__rewrap_rangeB8ue170006INS_16reverse_iteratorIPfEES3_S3_EET0_S4_T1_, symObjAddr: 0x3D2D8, symBinAddr: 0x10003FB9C, symSize: 0x3D4 }
  - { offsetInCU: 0x1F1942, offset: 0x1F1942, size: 0x8, addend: 0x0, symName: __ZNSt3__113__rewrap_iterB8ue170006INS_16reverse_iteratorIPfEES3_NS_18__unwrap_iter_implIS3_Lb0EEEEET_S6_T0_, symObjAddr: 0x3D6AC, symBinAddr: 0x10003FF70, symSize: 0x3E8 }
  - { offsetInCU: 0x1F19EF, offset: 0x1F19EF, size: 0x8, addend: 0x0, symName: __ZNSt3__1neB8ue170006IPfS1_EEbRKNS_16reverse_iteratorIT_EERKNS2_IT0_EE, symObjAddr: 0x3DF6C, symBinAddr: 0x100040830, symSize: 0x48 }
  - { offsetInCU: 0x1F1AA9, offset: 0x1F1AA9, size: 0x8, addend: 0x0, symName: __ZNSt3__121__libcpp_acquire_loadB8ue170006ImEET_PKS1_, symObjAddr: 0x3EE4C, symBinAddr: 0x100041710, symSize: 0x68 }
  - { offsetInCU: 0x1F1ADE, offset: 0x1F1ADE, size: 0x8, addend: 0x0, symName: __ZNSt3__117__call_once_proxyB8ue170006INS_5tupleIJOZN5BoardC1EbiiRKN5Eigen6MatrixIfLin1ELin1ELi0ELin1ELin1EEEEUlvE_EEEEEvPv, symObjAddr: 0x3EF1C, symBinAddr: 0x1000417E0, symSize: 0x2C }
  - { offsetInCU: 0x1F1B37, offset: 0x1F1B37, size: 0x8, addend: 0x0, symName: __ZNSt3__18__invokeB8ue170006IZN5BoardC1EbiiRKN5Eigen6MatrixIfLin1ELin1ELi0ELin1ELin1EEEEUlvE_JEEEDTclclsr3stdE7declvalIT_EEspclsr3stdE7declvalIT0_EEEEOS8_DpOS9_, symObjAddr: 0x3F150, symBinAddr: 0x100041A14, symSize: 0x24 }
  - { offsetInCU: 0x1F1B70, offset: 0x1F1B70, size: 0x8, addend: 0x0, symName: __ZNSt3__13getB8ue170006ILm0EJOZN5BoardC1EbiiRKN5Eigen6MatrixIfLin1ELin1ELi0ELin1ELin1EEEEUlvE_EEEONS_13tuple_elementIXT_ENS_5tupleIJDpT0_EEEE4typeEOSD_, symObjAddr: 0x3F174, symBinAddr: 0x100041A38, symSize: 0x24 }
  - { offsetInCU: 0x1F1BB5, offset: 0x1F1BB5, size: 0x8, addend: 0x0, symName: __ZNSt3__1plB8ue170006IcNS_11char_traitsIcEENS_9allocatorIcEEEENS_12basic_stringIT_T0_T1_EEPKS6_OS9_, symObjAddr: 0x43238, symBinAddr: 0x100045AFC, symSize: 0x44 }
  - { offsetInCU: 0x1F1C0D, offset: 0x1F1C0D, size: 0x8, addend: 0x0, symName: __ZNSt3__1neB8ue170006IPNS_12basic_stringIcNS_11char_traitsIcEENS_9allocatorIcEEEEEEbRKNS_11__wrap_iterIT_EESC_, symObjAddr: 0x439A8, symBinAddr: 0x10004626C, symSize: 0x34 }
  - { offsetInCU: 0x1F1C50, offset: 0x1F1C50, size: 0x8, addend: 0x0, symName: __ZNSt3__1neB8ue170006IPfEEbRKNS_11__wrap_iterIT_EES6_, symObjAddr: 0x452E8, symBinAddr: 0x100047BAC, symSize: 0x34 }
  - { offsetInCU: 0x1F1CCB, offset: 0x1F1CCB, size: 0x8, addend: 0x0, symName: __ZNSt3__116forward_as_tupleB8ue170006IJNS_12basic_stringIcNS_11char_traitsIcEENS_9allocatorIcEEEEEEENS_5tupleIJDpOT_EEESA_, symObjAddr: 0x47F2C, symBinAddr: 0x10004A7F0, symSize: 0x1F8 }
  - { offsetInCU: 0x1F1D07, offset: 0x1F1D07, size: 0x8, addend: 0x0, symName: __ZNSt3__116forward_as_tupleB8ue170006IJEEENS_5tupleIJDpOT_EEES4_, symObjAddr: 0x48124, symBinAddr: 0x10004A9E8, symSize: 0x4 }
  - { offsetInCU: 0x1F1D2C, offset: 0x1F1D2C, size: 0x8, addend: 0x0, symName: __ZNSt3__116__constrain_hashB8ue170006Emm, symObjAddr: 0x48210, symBinAddr: 0x10004AAD4, symSize: 0x98 }
  - { offsetInCU: 0x1F1D66, offset: 0x1F1D66, size: 0x8, addend: 0x0, symName: __ZNSt3__116__is_hash_power2B8ue170006Em, symObjAddr: 0x48898, symBinAddr: 0x10004B15C, symSize: 0x50 }
  - { offsetInCU: 0x1F1D92, offset: 0x1F1D92, size: 0x8, addend: 0x0, symName: __ZNSt3__116__do_string_hashB8ue170006IPKcEEmT_S3_, symObjAddr: 0x48BF8, symBinAddr: 0x10004B4BC, symSize: 0x1EC }
  - { offsetInCU: 0x1F1DDA, offset: 0x1F1DDA, size: 0x8, addend: 0x0, symName: __ZNSt3__110__loadwordB8ue170006ImEET_PKv, symObjAddr: 0x4A324, symBinAddr: 0x10004CBE8, symSize: 0x214 }
  - { offsetInCU: 0x1F1E22, offset: 0x1F1E22, size: 0x8, addend: 0x0, symName: __ZNSt3__14swapB8ue170006ImEENS_9enable_ifIXaasr21is_move_constructibleIT_EE5valuesr18is_move_assignableIS2_EE5valueEvE4typeERS2_S5_, symObjAddr: 0x4A9C0, symBinAddr: 0x10004D284, symSize: 0x134 }
  - { offsetInCU: 0x1F1E73, offset: 0x1F1E73, size: 0x8, addend: 0x0, symName: __ZNSt3__110__loadwordB8ue170006IjEET_PKv, symObjAddr: 0x4AB48, symBinAddr: 0x10004D40C, symSize: 0x240 }
  - { offsetInCU: 0x1F1EBB, offset: 0x1F1EBB, size: 0x8, addend: 0x0, symName: __ZNSt3__112__to_addressB8ue170006IKcEEPT_S3_, symObjAddr: 0x4B294, symBinAddr: 0x10004DB58, symSize: 0x14 }
  - { offsetInCU: 0x1F1F23, offset: 0x1F1F23, size: 0x8, addend: 0x0, symName: __ZNSt3__1eqB8ue170006INS_9allocatorIcEEEEbRKNS_12basic_stringIcNS_11char_traitsIcEET_EES9_, symObjAddr: 0x4B75C, symBinAddr: 0x10004E020, symSize: 0x234 }
  - { offsetInCU: 0x1F1F96, offset: 0x1F1F96, size: 0x8, addend: 0x0, symName: __ZNSt3__17launderB8ue170006IKNS_4pairIKNS_12basic_stringIcNS_11char_traitsIcEENS_9allocatorIcEEEEN5Eigen6MatrixIfLin1ELi1ELi0ELin1ELi1EEEEEEEPT_SF_, symObjAddr: 0x4B9C4, symBinAddr: 0x10004E288, symSize: 0x24 }
  - { offsetInCU: 0x1F1FCD, offset: 0x1F1FCD, size: 0x8, addend: 0x0, symName: __ZNSt3__19__launderB8ue170006IKNS_4pairIKNS_12basic_stringIcNS_11char_traitsIcEENS_9allocatorIcEEEEN5Eigen6MatrixIfLin1ELi1ELi0ELin1ELi1EEEEEEEPT_SF_, symObjAddr: 0x4B9E8, symBinAddr: 0x10004E2AC, symSize: 0x14 }
  - { offsetInCU: 0x1F2049, offset: 0x1F2049, size: 0x8, addend: 0x0, symName: __ZNSt3__112construct_atB8ue170006INS_4pairIKNS_12basic_stringIcNS_11char_traitsIcEENS_9allocatorIcEEEEN5Eigen6MatrixIfLin1ELi1ELi0ELin1ELi1EEEEEJRKNS_21piecewise_construct_tENS_5tupleIJOS7_EEENSG_IJEEEEPSC_EEPT_SM_DpOT0_, symObjAddr: 0x4C010, symBinAddr: 0x10004E8D4, symSize: 0x21C }
  - { offsetInCU: 0x1F20E9, offset: 0x1F20E9, size: 0x8, addend: 0x0, symName: __ZNSt3__13getB8ue170006ILm0EJONS_12basic_stringIcNS_11char_traitsIcEENS_9allocatorIcEEEEEEERNS_13tuple_elementIXT_ENS_5tupleIJDpT0_EEEE4typeERSC_, symObjAddr: 0x4C514, symBinAddr: 0x10004EDD8, symSize: 0x24 }
  - { offsetInCU: 0x1F212E, offset: 0x1F212E, size: 0x8, addend: 0x0, symName: __ZNSt3__116__next_hash_pow2B8ue170006Em, symObjAddr: 0x4D3E4, symBinAddr: 0x10004FCA8, symSize: 0x6C }
  - { offsetInCU: 0x1F215B, offset: 0x1F215B, size: 0x8, addend: 0x0, symName: __ZNSt3__112__libcpp_clzB8ue170006Em, symObjAddr: 0x4D610, symBinAddr: 0x10004FED4, symSize: 0x1C }
  - { offsetInCU: 0x1F21D3, offset: 0x1F21D3, size: 0x8, addend: 0x0, symName: __ZNSt3__14swapB8ue170006IlEENS_9enable_ifIXaasr21is_move_constructibleIT_EE5valuesr18is_move_assignableIS2_EE5valueEvE4typeERS2_S5_, symObjAddr: 0x4DCF8, symBinAddr: 0x1000505BC, symSize: 0x134 }
  - { offsetInCU: 0x1F224B, offset: 0x1F224B, size: 0x8, addend: 0x0, symName: __ZNSt3__112construct_atB8ue170006IN5Eigen6MatrixIfLin1ELi1ELi0ELin1ELi1EEEJEPS3_EEPT_S6_DpOT0_, symObjAddr: 0x4F740, symBinAddr: 0x100052004, symSize: 0x34 }
  - { offsetInCU: 0x1F22A9, offset: 0x1F22A9, size: 0x8, addend: 0x0, symName: __ZNSt3__119__allocate_at_leastB8ue170006INS_9allocatorIN5Eigen6MatrixIfLin1ELi1ELi0ELin1ELi1EEEEEEENS_19__allocation_resultINS_16allocator_traitsIT_E7pointerEEERS8_m, symObjAddr: 0x503B4, symBinAddr: 0x100052C78, symSize: 0x28C }
  - { offsetInCU: 0x1F22EE, offset: 0x1F22EE, size: 0x8, addend: 0x0, symName: __ZNSt3__142__uninitialized_allocator_move_if_noexceptB8ue170006INS_9allocatorIN5Eigen6MatrixIfLin1ELi1ELi0ELin1ELi1EEEEENS_16reverse_iteratorIPS4_EES8_S8_EET2_RT_T0_T1_S9_, symObjAddr: 0x50B1C, symBinAddr: 0x1000533E0, symSize: 0x544 }
  - { offsetInCU: 0x1F23A3, offset: 0x1F23A3, size: 0x8, addend: 0x0, symName: __ZNSt3__14swapB8ue170006IPN5Eigen6MatrixIfLin1ELi1ELi0ELin1ELi1EEEEENS_9enable_ifIXaasr21is_move_constructibleIT_EE5valuesr18is_move_assignableIS6_EE5valueEvE4typeERS6_S9_, symObjAddr: 0x510F8, symBinAddr: 0x1000539BC, symSize: 0x134 }
  - { offsetInCU: 0x1F23F4, offset: 0x1F23F4, size: 0x8, addend: 0x0, symName: __ZNSt3__122__make_exception_guardB8ue170006INS_29_AllocatorDestroyRangeReverseINS_9allocatorIN5Eigen6MatrixIfLin1ELi1ELi0ELin1ELi1EEEEENS_16reverse_iteratorIPS5_EEEEEENS_28__exception_guard_exceptionsIT_EESC_, symObjAddr: 0x512EC, symBinAddr: 0x100053BB0, symSize: 0x1F8 }
  - { offsetInCU: 0x1F242B, offset: 0x1F242B, size: 0x8, addend: 0x0, symName: __ZNSt3__1neB8ue170006IPN5Eigen6MatrixIfLin1ELi1ELi0ELin1ELi1EEES4_EEbRKNS_16reverse_iteratorIT_EERKNS5_IT0_EE, symObjAddr: 0x51528, symBinAddr: 0x100053DEC, symSize: 0x48 }
  - { offsetInCU: 0x1F2477, offset: 0x1F2477, size: 0x8, addend: 0x0, symName: __ZNSt3__112__to_addressB8ue170006INS_16reverse_iteratorIPN5Eigen6MatrixIfLin1ELi1ELi0ELin1ELi1EEEEEvEEu7__decayIDTclsr19__to_address_helperIT_EE6__callclsr3stdE7declvalIRKS7_EEEEES9_, symObjAddr: 0x515A0, symBinAddr: 0x100053E64, symSize: 0x24 }
  - { offsetInCU: 0x1F24AE, offset: 0x1F24AE, size: 0x8, addend: 0x0, symName: __ZNSt3__112construct_atB8ue170006IN5Eigen6MatrixIfLin1ELi1ELi0ELin1ELi1EEEJS3_EPS3_EEPT_S6_DpOT0_, symObjAddr: 0x51938, symBinAddr: 0x1000541FC, symSize: 0x3C }
  - { offsetInCU: 0x1F254B, offset: 0x1F254B, size: 0x8, addend: 0x0, symName: __ZNSt3__14prevB8ue170006IPN5Eigen6MatrixIfLin1ELi1ELi0ELin1ELi1EEEEENS_9enable_ifIXsr29__has_input_iterator_categoryIT_EE5valueES6_E4typeES6_NS_15iterator_traitsIS6_E15difference_typeE, symObjAddr: 0x51CCC, symBinAddr: 0x100054590, symSize: 0x240 }
  - { offsetInCU: 0x1F2593, offset: 0x1F2593, size: 0x8, addend: 0x0, symName: __ZNSt3__19__advanceB8ue170006IPN5Eigen6MatrixIfLin1ELi1ELi0ELin1ELi1EEEEEvRT_NS_15iterator_traitsIS5_E15difference_typeENS_26random_access_iterator_tagE, symObjAddr: 0x51F44, symBinAddr: 0x100054808, symSize: 0x78 }
  - { offsetInCU: 0x1F25DC, offset: 0x1F25DC, size: 0x8, addend: 0x0, symName: __ZNSt3__119__allocator_destroyB8ue170006INS_9allocatorIN5Eigen6MatrixIfLin1ELi1ELi0ELin1ELi1EEEEENS_16reverse_iteratorINS6_IPS4_EEEES9_EEvRT_T0_T1_, symObjAddr: 0x52420, symBinAddr: 0x100054CE4, symSize: 0x70 }
  - { offsetInCU: 0x1F2641, offset: 0x1F2641, size: 0x8, addend: 0x0, symName: __ZNSt3__1neB8ue170006INS_16reverse_iteratorIPN5Eigen6MatrixIfLin1ELi1ELi0ELin1ELi1EEEEES6_EEbRKNS1_IT_EERKNS1_IT0_EE, symObjAddr: 0x526D8, symBinAddr: 0x100054F9C, symSize: 0x2CC }
  - { offsetInCU: 0x1F268F, offset: 0x1F268F, size: 0x8, addend: 0x0, symName: __ZNSt3__112__to_addressB8ue170006INS_16reverse_iteratorINS1_IPN5Eigen6MatrixIfLin1ELi1ELi0ELin1ELi1EEEEEEEvEEu7__decayIDTclsr19__to_address_helperIT_EE6__callclsr3stdE7declvalIRKS8_EEEEESA_, symObjAddr: 0x529A4, symBinAddr: 0x100055268, symSize: 0x24 }
  - { offsetInCU: 0x1F26F0, offset: 0x1F26F0, size: 0x8, addend: 0x0, symName: __ZNSt3__14prevB8ue170006INS_16reverse_iteratorIPN5Eigen6MatrixIfLin1ELi1ELi0ELin1ELi1EEEEEEENS_9enable_ifIXsr29__has_input_iterator_categoryIT_EE5valueES8_E4typeES8_NS_15iterator_traitsIS8_E15difference_typeE, symObjAddr: 0x52EE8, symBinAddr: 0x1000557AC, symSize: 0x294 }
  - { offsetInCU: 0x1F2738, offset: 0x1F2738, size: 0x8, addend: 0x0, symName: __ZNSt3__19__advanceB8ue170006INS_16reverse_iteratorIPN5Eigen6MatrixIfLin1ELi1ELi0ELin1ELi1EEEEEEEvRT_NS_15iterator_traitsIS7_E15difference_typeENS_26random_access_iterator_tagE, symObjAddr: 0x531B4, symBinAddr: 0x100055A78, symSize: 0x2C }
  - { offsetInCU: 0x1F2781, offset: 0x1F2781, size: 0x8, addend: 0x0, symName: __ZNSt3__119__allocate_at_leastB8ue170006INS_9allocatorINS_12basic_stringIcNS_11char_traitsIcEENS1_IcEEEEEEEENS_19__allocation_resultINS_16allocator_traitsIT_E7pointerEEERSA_m, symObjAddr: 0x56DDC, symBinAddr: 0x1000596A0, symSize: 0x28C }
  - { offsetInCU: 0x1F27C6, offset: 0x1F27C6, size: 0x8, addend: 0x0, symName: __ZNSt3__142__uninitialized_allocator_move_if_noexceptB8ue170006INS_9allocatorINS_12basic_stringIcNS_11char_traitsIcEENS1_IcEEEEEENS_16reverse_iteratorIPS6_EESA_SA_EET2_RT_T0_T1_SB_, symObjAddr: 0x572F4, symBinAddr: 0x100059BB8, symSize: 0x544 }
  - { offsetInCU: 0x1F287B, offset: 0x1F287B, size: 0x8, addend: 0x0, symName: __ZNSt3__14swapB8ue170006IPNS_12basic_stringIcNS_11char_traitsIcEENS_9allocatorIcEEEEEENS_9enable_ifIXaasr21is_move_constructibleIT_EE5valuesr18is_move_assignableIS9_EE5valueEvE4typeERS9_SC_, symObjAddr: 0x578D0, symBinAddr: 0x10005A194, symSize: 0x134 }
  - { offsetInCU: 0x1F28CC, offset: 0x1F28CC, size: 0x8, addend: 0x0, symName: __ZNSt3__122__make_exception_guardB8ue170006INS_29_AllocatorDestroyRangeReverseINS_9allocatorINS_12basic_stringIcNS_11char_traitsIcEENS2_IcEEEEEENS_16reverse_iteratorIPS7_EEEEEENS_28__exception_guard_exceptionsIT_EESE_, symObjAddr: 0x57B08, symBinAddr: 0x10005A3CC, symSize: 0x1F8 }
  - { offsetInCU: 0x1F2903, offset: 0x1F2903, size: 0x8, addend: 0x0, symName: __ZNSt3__1neB8ue170006IPNS_12basic_stringIcNS_11char_traitsIcEENS_9allocatorIcEEEES7_EEbRKNS_16reverse_iteratorIT_EERKNS8_IT0_EE, symObjAddr: 0x57D44, symBinAddr: 0x10005A608, symSize: 0x48 }
  - { offsetInCU: 0x1F294F, offset: 0x1F294F, size: 0x8, addend: 0x0, symName: __ZNSt3__112__to_addressB8ue170006INS_16reverse_iteratorIPNS_12basic_stringIcNS_11char_traitsIcEENS_9allocatorIcEEEEEEvEEu7__decayIDTclsr19__to_address_helperIT_EE6__callclsr3stdE7declvalIRKSA_EEEEESC_, symObjAddr: 0x57DBC, symBinAddr: 0x10005A680, symSize: 0x24 }
  - { offsetInCU: 0x1F29AD, offset: 0x1F29AD, size: 0x8, addend: 0x0, symName: __ZNSt3__112construct_atB8ue170006INS_12basic_stringIcNS_11char_traitsIcEENS_9allocatorIcEEEEJS6_EPS6_EEPT_S9_DpOT0_, symObjAddr: 0x58154, symBinAddr: 0x10005AA18, symSize: 0x3C }
  - { offsetInCU: 0x1F2A4A, offset: 0x1F2A4A, size: 0x8, addend: 0x0, symName: __ZNSt3__14prevB8ue170006IPNS_12basic_stringIcNS_11char_traitsIcEENS_9allocatorIcEEEEEENS_9enable_ifIXsr29__has_input_iterator_categoryIT_EE5valueES9_E4typeES9_NS_15iterator_traitsIS9_E15difference_typeE, symObjAddr: 0x58240, symBinAddr: 0x10005AB04, symSize: 0x240 }
  - { offsetInCU: 0x1F2A92, offset: 0x1F2A92, size: 0x8, addend: 0x0, symName: __ZNSt3__19__advanceB8ue170006IPNS_12basic_stringIcNS_11char_traitsIcEENS_9allocatorIcEEEEEEvRT_NS_15iterator_traitsIS8_E15difference_typeENS_26random_access_iterator_tagE, symObjAddr: 0x584B8, symBinAddr: 0x10005AD7C, symSize: 0x80 }
  - { offsetInCU: 0x1F2ADB, offset: 0x1F2ADB, size: 0x8, addend: 0x0, symName: __ZNSt3__119__allocator_destroyB8ue170006INS_9allocatorINS_12basic_stringIcNS_11char_traitsIcEENS1_IcEEEEEENS_16reverse_iteratorINS8_IPS6_EEEESB_EEvRT_T0_T1_, symObjAddr: 0x5899C, symBinAddr: 0x10005B260, symSize: 0x70 }
  - { offsetInCU: 0x1F2B40, offset: 0x1F2B40, size: 0x8, addend: 0x0, symName: __ZNSt3__1neB8ue170006INS_16reverse_iteratorIPNS_12basic_stringIcNS_11char_traitsIcEENS_9allocatorIcEEEEEES9_EEbRKNS1_IT_EERKNS1_IT0_EE, symObjAddr: 0x58C54, symBinAddr: 0x10005B518, symSize: 0x2CC }
  - { offsetInCU: 0x1F2B8E, offset: 0x1F2B8E, size: 0x8, addend: 0x0, symName: __ZNSt3__112__to_addressB8ue170006INS_16reverse_iteratorINS1_IPNS_12basic_stringIcNS_11char_traitsIcEENS_9allocatorIcEEEEEEEEvEEu7__decayIDTclsr19__to_address_helperIT_EE6__callclsr3stdE7declvalIRKSB_EEEEESD_, symObjAddr: 0x58F20, symBinAddr: 0x10005B7E4, symSize: 0x24 }
  - { offsetInCU: 0x1F2BEF, offset: 0x1F2BEF, size: 0x8, addend: 0x0, symName: __ZNSt3__14prevB8ue170006INS_16reverse_iteratorIPNS_12basic_stringIcNS_11char_traitsIcEENS_9allocatorIcEEEEEEEENS_9enable_ifIXsr29__has_input_iterator_categoryIT_EE5valueESB_E4typeESB_NS_15iterator_traitsISB_E15difference_typeE, symObjAddr: 0x59464, symBinAddr: 0x10005BD28, symSize: 0x294 }
  - { offsetInCU: 0x1F2C37, offset: 0x1F2C37, size: 0x8, addend: 0x0, symName: __ZNSt3__19__advanceB8ue170006INS_16reverse_iteratorIPNS_12basic_stringIcNS_11char_traitsIcEENS_9allocatorIcEEEEEEEEvRT_NS_15iterator_traitsISA_E15difference_typeENS_26random_access_iterator_tagE, symObjAddr: 0x59730, symBinAddr: 0x10005BFF4, symSize: 0x2C }
  - { offsetInCU: 0x1F2C80, offset: 0x1F2C80, size: 0x8, addend: 0x0, symName: __ZNSt3__18distanceB8ue170006IPKNS_12basic_stringIcNS_11char_traitsIcEENS_9allocatorIcEEEEEENS_15iterator_traitsIT_E15difference_typeESA_SA_, symObjAddr: 0x5B570, symBinAddr: 0x10005DE34, symSize: 0x2C }
  - { offsetInCU: 0x1F2CC6, offset: 0x1F2CC6, size: 0x8, addend: 0x0, symName: __ZNSt3__14nextB8ue170006IPKNS_12basic_stringIcNS_11char_traitsIcEENS_9allocatorIcEEEEEENS_9enable_ifIXsr29__has_input_iterator_categoryIT_EE5valueESA_E4typeESA_NS_15iterator_traitsISA_E15difference_typeE, symObjAddr: 0x5B59C, symBinAddr: 0x10005DE60, symSize: 0x238 }
  - { offsetInCU: 0x1F2D11, offset: 0x1F2D11, size: 0x8, addend: 0x0, symName: __ZNSt3__14copyB8ue170006IPKNS_12basic_stringIcNS_11char_traitsIcEENS_9allocatorIcEEEEPS6_EET0_T_SB_SA_, symObjAddr: 0x5B7D4, symBinAddr: 0x10005E098, symSize: 0x26C }
  - { offsetInCU: 0x1F2D72, offset: 0x1F2D72, size: 0x8, addend: 0x0, symName: __ZNSt3__16__copyB8ue170006INS_17_ClassicAlgPolicyEPKNS_12basic_stringIcNS_11char_traitsIcEENS_9allocatorIcEEEES9_PS7_EENS_4pairIT0_T2_EESC_T1_SD_, symObjAddr: 0x5BDC0, symBinAddr: 0x10005E684, symSize: 0x22C }
  - { offsetInCU: 0x1F2DE5, offset: 0x1F2DE5, size: 0x8, addend: 0x0, symName: __ZNSt3__19__advanceB8ue170006IPKNS_12basic_stringIcNS_11char_traitsIcEENS_9allocatorIcEEEEEEvRT_NS_15iterator_traitsIS9_E15difference_typeENS_26random_access_iterator_tagE, symObjAddr: 0x5C62C, symBinAddr: 0x10005EEF0, symSize: 0x80 }
  - { offsetInCU: 0x1F2E2E, offset: 0x1F2E2E, size: 0x8, addend: 0x0, symName: __ZNSt3__130__uninitialized_allocator_copyB8ue170006INS_9allocatorINS_12basic_stringIcNS_11char_traitsIcEENS1_IcEEEEEEPKS6_S9_PS6_EET2_RT_T0_T1_SB_, symObjAddr: 0x5C6AC, symBinAddr: 0x10005EF70, symSize: 0x2DC }
  - { offsetInCU: 0x1F2ED4, offset: 0x1F2ED4, size: 0x8, addend: 0x0, symName: __ZNSt3__114__unwrap_rangeB8ue170006IPKNS_12basic_stringIcNS_11char_traitsIcEENS_9allocatorIcEEEES8_EEDaT_T0_, symObjAddr: 0x5C988, symBinAddr: 0x10005F24C, symSize: 0x224 }
  - { offsetInCU: 0x1F2F22, offset: 0x1F2F22, size: 0x8, addend: 0x0, symName: __ZNSt3__135__uninitialized_allocator_copy_implB8ue170006INS_9allocatorINS_12basic_stringIcNS_11char_traitsIcEENS1_IcEEEEEEPKS6_S9_PS6_EET2_RT_T0_T1_SB_, symObjAddr: 0x5CBAC, symBinAddr: 0x10005F470, symSize: 0x520 }
  - { offsetInCU: 0x1F2FCE, offset: 0x1F2FCE, size: 0x8, addend: 0x0, symName: __ZNSt3__113__unwrap_iterB8ue170006IPNS_12basic_stringIcNS_11char_traitsIcEENS_9allocatorIcEEEENS_18__unwrap_iter_implIS7_Lb1EEELi0EEEDTclsrT0_8__unwrapclsr3stdE7declvalIT_EEEESB_, symObjAddr: 0x5D0CC, symBinAddr: 0x10005F990, symSize: 0x24 }
  - { offsetInCU: 0x1F3013, offset: 0x1F3013, size: 0x8, addend: 0x0, symName: __ZNSt3__113__rewrap_iterB8ue170006IPNS_12basic_stringIcNS_11char_traitsIcEENS_9allocatorIcEEEES7_NS_18__unwrap_iter_implIS7_Lb1EEEEET_SA_T0_, symObjAddr: 0x5D0F0, symBinAddr: 0x10005F9B4, symSize: 0x48 }
  - { offsetInCU: 0x1F3187, offset: 0x1F3187, size: 0x8, addend: 0x0, symName: __ZNSt3__113__unwrap_iterB8ue170006IPKNS_12basic_stringIcNS_11char_traitsIcEENS_9allocatorIcEEEENS_18__unwrap_iter_implIS8_Lb1EEELi0EEEDTclsrT0_8__unwrapclsr3stdE7declvalIT_EEEESC_, symObjAddr: 0x5D444, symBinAddr: 0x10005FD08, symSize: 0x24 }
  - { offsetInCU: 0x1F3220, offset: 0x1F3220, size: 0x8, addend: 0x0, symName: __ZNSt3__112__to_addressB8ue170006IKNS_12basic_stringIcNS_11char_traitsIcEENS_9allocatorIcEEEEEEPT_S9_, symObjAddr: 0x5D4C8, symBinAddr: 0x10005FD8C, symSize: 0x14 }
  - { offsetInCU: 0x1F3255, offset: 0x1F3255, size: 0x8, addend: 0x0, symName: __ZNSt3__122__make_exception_guardB8ue170006INS_29_AllocatorDestroyRangeReverseINS_9allocatorINS_12basic_stringIcNS_11char_traitsIcEENS2_IcEEEEEEPS7_EEEENS_28__exception_guard_exceptionsIT_EESC_, symObjAddr: 0x5D614, symBinAddr: 0x10005FED8, symSize: 0x1F8 }
  - { offsetInCU: 0x1F328C, offset: 0x1F328C, size: 0x8, addend: 0x0, symName: __ZNSt3__112construct_atB8ue170006INS_12basic_stringIcNS_11char_traitsIcEENS_9allocatorIcEEEEJRKS6_EPS6_EEPT_SB_DpOT0_, symObjAddr: 0x5DB14, symBinAddr: 0x1000603D8, symSize: 0x3C }
  - { offsetInCU: 0x1F32FF, offset: 0x1F32FF, size: 0x8, addend: 0x0, symName: __ZNSt3__119__allocator_destroyB8ue170006INS_9allocatorINS_12basic_stringIcNS_11char_traitsIcEENS1_IcEEEEEENS_16reverse_iteratorIPS6_EESA_EEvRT_T0_T1_, symObjAddr: 0x5DFA8, symBinAddr: 0x10006086C, symSize: 0x2B8 }
  - { offsetInCU: 0x1F33BF, offset: 0x1F33BF, size: 0x8, addend: 0x0, symName: __ZNSt3__123__dispatch_copy_or_moveB8ue170006INS_17_ClassicAlgPolicyENS_11__copy_loopIS1_EENS_14__copy_trivialEPKNS_12basic_stringIcNS_11char_traitsIcEENS_9allocatorIcEEEESC_PSA_EENS_4pairIT2_T4_EESF_T3_SG_, symObjAddr: 0x5E2DC, symBinAddr: 0x100060BA0, symSize: 0x22C }
  - { offsetInCU: 0x1F3440, offset: 0x1F3440, size: 0x8, addend: 0x0, symName: __ZNSt3__121__unwrap_and_dispatchB8ue170006INS_10__overloadINS_11__copy_loopINS_17_ClassicAlgPolicyEEENS_14__copy_trivialEEEPKNS_12basic_stringIcNS_11char_traitsIcEENS_9allocatorIcEEEESE_PSC_Li0EEENS_4pairIT0_T2_EESH_T1_SI_, symObjAddr: 0x5E508, symBinAddr: 0x100060DCC, symSize: 0x5A4 }
  - { offsetInCU: 0x1F3643, offset: 0x1F3643, size: 0x8, addend: 0x0, symName: __ZNSt3__19make_pairB8ue170006IPKNS_12basic_stringIcNS_11char_traitsIcEENS_9allocatorIcEEEEPS6_EENS_4pairINS_18__unwrap_ref_decayIT_E4typeENSB_IT0_E4typeEEEOSC_OSF_, symObjAddr: 0x5EF04, symBinAddr: 0x1000617C8, symSize: 0x20C }
  - { offsetInCU: 0x1F3694, offset: 0x1F3694, size: 0x8, addend: 0x0, symName: __ZNSt3__114__rewrap_rangeB8ue170006IPKNS_12basic_stringIcNS_11char_traitsIcEENS_9allocatorIcEEEES8_S8_EET0_S9_T1_, symObjAddr: 0x5F110, symBinAddr: 0x1000619D4, symSize: 0x2C }
  - { offsetInCU: 0x1F36E9, offset: 0x1F36E9, size: 0x8, addend: 0x0, symName: __ZNSt3__113__rewrap_iterB8ue170006IPKNS_12basic_stringIcNS_11char_traitsIcEENS_9allocatorIcEEEES8_NS_18__unwrap_iter_implIS8_Lb1EEEEET_SB_T0_, symObjAddr: 0x5F2DC, symBinAddr: 0x100061BA0, symSize: 0x48 }
  - { offsetInCU: 0x1F373F, offset: 0x1F373F, size: 0x8, addend: 0x0, symName: __ZNSt3__110__distanceB8ue170006IPKNS_12basic_stringIcNS_11char_traitsIcEENS_9allocatorIcEEEEEENS_15iterator_traitsIT_E15difference_typeESA_SA_NS_26random_access_iterator_tagE, symObjAddr: 0x5F37C, symBinAddr: 0x100061C40, symSize: 0x28 }
  - { offsetInCU: 0x1F3791, offset: 0x1F3791, size: 0x8, addend: 0x0, symName: __ZNSt3__1eqB8ue170006IPNS_12basic_stringIcNS_11char_traitsIcEENS_9allocatorIcEEEEEEbRKNS_11__wrap_iterIT_EESC_, symObjAddr: 0x5F644, symBinAddr: 0x100061F08, symSize: 0x48 }
  - { offsetInCU: 0x1F37D4, offset: 0x1F37D4, size: 0x8, addend: 0x0, symName: __ZNSt3__18distanceB8ue170006IPNS_12basic_stringIcNS_11char_traitsIcEENS_9allocatorIcEEEEEENS_15iterator_traitsIT_E15difference_typeES9_S9_, symObjAddr: 0x602BC, symBinAddr: 0x100062B80, symSize: 0x2C }
  - { offsetInCU: 0x1F381A, offset: 0x1F381A, size: 0x8, addend: 0x0, symName: __ZNSt3__14nextB8ue170006IPNS_12basic_stringIcNS_11char_traitsIcEENS_9allocatorIcEEEEEENS_9enable_ifIXsr29__has_input_iterator_categoryIT_EE5valueES9_E4typeES9_NS_15iterator_traitsIS9_E15difference_typeE, symObjAddr: 0x602E8, symBinAddr: 0x100062BAC, symSize: 0x238 }
  - { offsetInCU: 0x1F3865, offset: 0x1F3865, size: 0x8, addend: 0x0, symName: __ZNSt3__14copyB8ue170006IPNS_12basic_stringIcNS_11char_traitsIcEENS_9allocatorIcEEEES7_EET0_T_S9_S8_, symObjAddr: 0x60520, symBinAddr: 0x100062DE4, symSize: 0x26C }
  - { offsetInCU: 0x1F38C6, offset: 0x1F38C6, size: 0x8, addend: 0x0, symName: __ZNSt3__16__copyB8ue170006INS_17_ClassicAlgPolicyEPNS_12basic_stringIcNS_11char_traitsIcEENS_9allocatorIcEEEES8_S8_EENS_4pairIT0_T2_EESA_T1_SB_, symObjAddr: 0x60B0C, symBinAddr: 0x1000633D0, symSize: 0x22C }
  - { offsetInCU: 0x1F3939, offset: 0x1F3939, size: 0x8, addend: 0x0, symName: __ZNSt3__130__uninitialized_allocator_copyB8ue170006INS_9allocatorINS_12basic_stringIcNS_11char_traitsIcEENS1_IcEEEEEEPS6_S8_S8_EET2_RT_T0_T1_S9_, symObjAddr: 0x60D38, symBinAddr: 0x1000635FC, symSize: 0x2DC }
  - { offsetInCU: 0x1F39DF, offset: 0x1F39DF, size: 0x8, addend: 0x0, symName: __ZNSt3__114__unwrap_rangeB8ue170006IPNS_12basic_stringIcNS_11char_traitsIcEENS_9allocatorIcEEEES7_EEDaT_T0_, symObjAddr: 0x61014, symBinAddr: 0x1000638D8, symSize: 0x224 }
  - { offsetInCU: 0x1F3A2D, offset: 0x1F3A2D, size: 0x8, addend: 0x0, symName: __ZNSt3__135__uninitialized_allocator_copy_implB8ue170006INS_9allocatorINS_12basic_stringIcNS_11char_traitsIcEENS1_IcEEEEEEPS6_S8_S8_EET2_RT_T0_T1_S9_, symObjAddr: 0x61238, symBinAddr: 0x100063AFC, symSize: 0x520 }
  - { offsetInCU: 0x1F3BFE, offset: 0x1F3BFE, size: 0x8, addend: 0x0, symName: __ZNSt3__112construct_atB8ue170006INS_12basic_stringIcNS_11char_traitsIcEENS_9allocatorIcEEEEJRS6_EPS6_EEPT_SA_DpOT0_, symObjAddr: 0x61C08, symBinAddr: 0x1000644CC, symSize: 0x3C }
  - { offsetInCU: 0x1F3C71, offset: 0x1F3C71, size: 0x8, addend: 0x0, symName: __ZNSt3__123__dispatch_copy_or_moveB8ue170006INS_17_ClassicAlgPolicyENS_11__copy_loopIS1_EENS_14__copy_trivialEPNS_12basic_stringIcNS_11char_traitsIcEENS_9allocatorIcEEEESB_SB_EENS_4pairIT2_T4_EESD_T3_SE_, symObjAddr: 0x61C44, symBinAddr: 0x100064508, symSize: 0x22C }
  - { offsetInCU: 0x1F3CF2, offset: 0x1F3CF2, size: 0x8, addend: 0x0, symName: __ZNSt3__121__unwrap_and_dispatchB8ue170006INS_10__overloadINS_11__copy_loopINS_17_ClassicAlgPolicyEEENS_14__copy_trivialEEEPNS_12basic_stringIcNS_11char_traitsIcEENS_9allocatorIcEEEESD_SD_Li0EEENS_4pairIT0_T2_EESF_T1_SG_, symObjAddr: 0x61E70, symBinAddr: 0x100064734, symSize: 0x5A4 }
  - { offsetInCU: 0x1F3D8C, offset: 0x1F3D8C, size: 0x8, addend: 0x0, symName: __ZNSt3__19make_pairB8ue170006IPNS_12basic_stringIcNS_11char_traitsIcEENS_9allocatorIcEEEES7_EENS_4pairINS_18__unwrap_ref_decayIT_E4typeENS9_IT0_E4typeEEEOSA_OSD_, symObjAddr: 0x6286C, symBinAddr: 0x100065130, symSize: 0x20C }
  - { offsetInCU: 0x1F3DDD, offset: 0x1F3DDD, size: 0x8, addend: 0x0, symName: __ZNSt3__114__rewrap_rangeB8ue170006IPNS_12basic_stringIcNS_11char_traitsIcEENS_9allocatorIcEEEES7_S7_EET0_S8_T1_, symObjAddr: 0x62A78, symBinAddr: 0x10006533C, symSize: 0x2C }
  - { offsetInCU: 0x1F3E33, offset: 0x1F3E33, size: 0x8, addend: 0x0, symName: __ZNSt3__110__distanceB8ue170006IPNS_12basic_stringIcNS_11char_traitsIcEENS_9allocatorIcEEEEEENS_15iterator_traitsIT_E15difference_typeES9_S9_NS_26random_access_iterator_tagE, symObjAddr: 0x62AD0, symBinAddr: 0x100065394, symSize: 0x28 }
  - { offsetInCU: 0x1F3EAC, offset: 0x1F3EAC, size: 0x8, addend: 0x0, symName: __ZNSt3__112construct_atB8ue170006IfJfEPfEEPT_S3_DpOT0_, symObjAddr: 0x63254, symBinAddr: 0x100065B18, symSize: 0x108 }
  - { offsetInCU: 0x1F3F1F, offset: 0x1F3F1F, size: 0x8, addend: 0x0, symName: __ZNSt3__116forward_as_tupleB8ue170006IJRKfEEENS_5tupleIJDpOT_EEES6_, symObjAddr: 0x64160, symBinAddr: 0x100066A24, symSize: 0x1F8 }
  - { offsetInCU: 0x1F3F5B, offset: 0x1F3F5B, size: 0x8, addend: 0x0, symName: __ZNSt3__17launderB8ue170006IKNS_4pairIKfNS_12basic_stringIcNS_11char_traitsIcEENS_9allocatorIcEEEEEEEEPT_SC_, symObjAddr: 0x65224, symBinAddr: 0x100067AE8, symSize: 0x24 }
  - { offsetInCU: 0x1F3F92, offset: 0x1F3F92, size: 0x8, addend: 0x0, symName: __ZNSt3__19__launderB8ue170006IKNS_4pairIKfNS_12basic_stringIcNS_11char_traitsIcEENS_9allocatorIcEEEEEEEEPT_SC_, symObjAddr: 0x65248, symBinAddr: 0x100067B0C, symSize: 0x14 }
  - { offsetInCU: 0x1F400E, offset: 0x1F400E, size: 0x8, addend: 0x0, symName: __ZNSt3__112construct_atB8ue170006INS_4pairIKfNS_12basic_stringIcNS_11char_traitsIcEENS_9allocatorIcEEEEEEJRKNS_21piecewise_construct_tENS_5tupleIJRS2_EEENSD_IJEEEEPS9_EEPT_SJ_DpOT0_, symObjAddr: 0x65870, symBinAddr: 0x100068134, symSize: 0x21C }
  - { offsetInCU: 0x1F40AE, offset: 0x1F40AE, size: 0x8, addend: 0x0, symName: __ZNSt3__13getB8ue170006ILm0EJRKfEEERNS_13tuple_elementIXT_ENS_5tupleIJDpT0_EEEE4typeERS7_, symObjAddr: 0x65E28, symBinAddr: 0x1000686EC, symSize: 0x24 }
  - { offsetInCU: 0x1F413D, offset: 0x1F413D, size: 0x8, addend: 0x0, symName: __ZNSt3__116forward_as_tupleB8ue170006IJRKNS_12basic_stringIcNS_11char_traitsIcEENS_9allocatorIcEEEEEEENS_5tupleIJDpOT_EEESC_, symObjAddr: 0x6820C, symBinAddr: 0x10006AAD0, symSize: 0x1F8 }
  - { offsetInCU: 0x1F4179, offset: 0x1F4179, size: 0x8, addend: 0x0, symName: __ZNSt3__17launderB8ue170006IKNS_4pairIKNS_12basic_stringIcNS_11char_traitsIcEENS_9allocatorIcEEEEfEEEEPT_SC_, symObjAddr: 0x68EE8, symBinAddr: 0x10006B7AC, symSize: 0x24 }
  - { offsetInCU: 0x1F41B0, offset: 0x1F41B0, size: 0x8, addend: 0x0, symName: __ZNSt3__19__launderB8ue170006IKNS_4pairIKNS_12basic_stringIcNS_11char_traitsIcEENS_9allocatorIcEEEEfEEEEPT_SC_, symObjAddr: 0x68F0C, symBinAddr: 0x10006B7D0, symSize: 0x14 }
  - { offsetInCU: 0x1F422C, offset: 0x1F422C, size: 0x8, addend: 0x0, symName: __ZNSt3__112construct_atB8ue170006INS_4pairIKNS_12basic_stringIcNS_11char_traitsIcEENS_9allocatorIcEEEEfEEJRKNS_21piecewise_construct_tENS_5tupleIJRS8_EEENSD_IJEEEEPS9_EEPT_SJ_DpOT0_, symObjAddr: 0x69534, symBinAddr: 0x10006BDF8, symSize: 0x21C }
  - { offsetInCU: 0x1F42CC, offset: 0x1F42CC, size: 0x8, addend: 0x0, symName: __ZNSt3__13getB8ue170006ILm0EJRKNS_12basic_stringIcNS_11char_traitsIcEENS_9allocatorIcEEEEEEERNS_13tuple_elementIXT_ENS_5tupleIJDpT0_EEEE4typeERSD_, symObjAddr: 0x69A78, symBinAddr: 0x10006C33C, symSize: 0x24 }
  - { offsetInCU: 0x1F435B, offset: 0x1F435B, size: 0x8, addend: 0x0, symName: __ZNSt3__116forward_as_tupleB8ue170006IJbEEENS_5tupleIJDpOT_EEES4_, symObjAddr: 0x6BE5C, symBinAddr: 0x10006E720, symSize: 0x1F8 }
  - { offsetInCU: 0x1F4397, offset: 0x1F4397, size: 0x8, addend: 0x0, symName: __ZNSt3__17launderB8ue170006IKNS_4pairIKbNS_13unordered_mapIbNS3_IbNS_6vectorIfNS_9allocatorIfEEEENS_4hashIbEENS_8equal_toIbEENS5_INS1_IS2_S7_EEEEEES9_SB_NS5_INS1_IS2_SE_EEEEEEEEEEPT_SL_, symObjAddr: 0x6CCD4, symBinAddr: 0x10006F598, symSize: 0x24 }
  - { offsetInCU: 0x1F43CE, offset: 0x1F43CE, size: 0x8, addend: 0x0, symName: __ZNSt3__19__launderB8ue170006IKNS_4pairIKbNS_13unordered_mapIbNS3_IbNS_6vectorIfNS_9allocatorIfEEEENS_4hashIbEENS_8equal_toIbEENS5_INS1_IS2_S7_EEEEEES9_SB_NS5_INS1_IS2_SE_EEEEEEEEEEPT_SL_, symObjAddr: 0x6CCF8, symBinAddr: 0x10006F5BC, symSize: 0x14 }
  - { offsetInCU: 0x1F444A, offset: 0x1F444A, size: 0x8, addend: 0x0, symName: __ZNSt3__112construct_atB8ue170006INS_4pairIKbNS_13unordered_mapIbNS3_IbNS_6vectorIfNS_9allocatorIfEEEENS_4hashIbEENS_8equal_toIbEENS5_INS1_IS2_S7_EEEEEES9_SB_NS5_INS1_IS2_SE_EEEEEEEEJRKNS_21piecewise_construct_tENS_5tupleIJObEEENSM_IJEEEEPSI_EEPT_SS_DpOT0_, symObjAddr: 0x6D31C, symBinAddr: 0x10006FBE0, symSize: 0x21C }
  - { offsetInCU: 0x1F44EA, offset: 0x1F44EA, size: 0x8, addend: 0x0, symName: __ZNSt3__13getB8ue170006ILm0EJObEEERNS_13tuple_elementIXT_ENS_5tupleIJDpT0_EEEE4typeERS6_, symObjAddr: 0x6D8D4, symBinAddr: 0x100070198, symSize: 0x24 }
  - { offsetInCU: 0x1F4579, offset: 0x1F4579, size: 0x8, addend: 0x0, symName: __ZNSt3__17launderB8ue170006IKNS_4pairIKbNS_13unordered_mapIbNS_6vectorIfNS_9allocatorIfEEEENS_4hashIbEENS_8equal_toIbEENS5_INS1_IS2_S7_EEEEEEEEEEPT_SI_, symObjAddr: 0x715D0, symBinAddr: 0x100073E94, symSize: 0x24 }
  - { offsetInCU: 0x1F45B0, offset: 0x1F45B0, size: 0x8, addend: 0x0, symName: __ZNSt3__19__launderB8ue170006IKNS_4pairIKbNS_13unordered_mapIbNS_6vectorIfNS_9allocatorIfEEEENS_4hashIbEENS_8equal_toIbEENS5_INS1_IS2_S7_EEEEEEEEEEPT_SI_, symObjAddr: 0x715F4, symBinAddr: 0x100073EB8, symSize: 0x14 }
  - { offsetInCU: 0x1F462C, offset: 0x1F462C, size: 0x8, addend: 0x0, symName: __ZNSt3__112construct_atB8ue170006INS_4pairIKbNS_13unordered_mapIbNS_6vectorIfNS_9allocatorIfEEEENS_4hashIbEENS_8equal_toIbEENS5_INS1_IS2_S7_EEEEEEEEJRKNS_21piecewise_construct_tENS_5tupleIJObEEENSJ_IJEEEEPSF_EEPT_SP_DpOT0_, symObjAddr: 0x71C18, symBinAddr: 0x1000744DC, symSize: 0x21C }
  - { offsetInCU: 0x1F46FF, offset: 0x1F46FF, size: 0x8, addend: 0x0, symName: __ZNSt3__17launderB8ue170006IKNS_4pairIKbNS_6vectorIfNS_9allocatorIfEEEEEEEEPT_SA_, symObjAddr: 0x75D08, symBinAddr: 0x1000785CC, symSize: 0x24 }
  - { offsetInCU: 0x1F4736, offset: 0x1F4736, size: 0x8, addend: 0x0, symName: __ZNSt3__19__launderB8ue170006IKNS_4pairIKbNS_6vectorIfNS_9allocatorIfEEEEEEEEPT_SA_, symObjAddr: 0x75D2C, symBinAddr: 0x1000785F0, symSize: 0x14 }
  - { offsetInCU: 0x1F47B2, offset: 0x1F47B2, size: 0x8, addend: 0x0, symName: __ZNSt3__112construct_atB8ue170006INS_4pairIKbNS_6vectorIfNS_9allocatorIfEEEEEEJRKNS_21piecewise_construct_tENS_5tupleIJObEEENSB_IJEEEEPS7_EEPT_SH_DpOT0_, symObjAddr: 0x76354, symBinAddr: 0x100078C18, symSize: 0x21C }
  - { offsetInCU: 0x1F4885, offset: 0x1F4885, size: 0x8, addend: 0x0, symName: __ZNSt3__18distanceB8ue170006IPfEENS_15iterator_traitsIT_E15difference_typeES3_S3_, symObjAddr: 0x781CC, symBinAddr: 0x10007AA90, symSize: 0x2C }
  - { offsetInCU: 0x1F48CB, offset: 0x1F48CB, size: 0x8, addend: 0x0, symName: __ZNSt3__14nextB8ue170006IPfEENS_9enable_ifIXsr29__has_input_iterator_categoryIT_EE5valueES3_E4typeES3_NS_15iterator_traitsIS3_E15difference_typeE, symObjAddr: 0x781F8, symBinAddr: 0x10007AABC, symSize: 0x238 }
  - { offsetInCU: 0x1F4916, offset: 0x1F4916, size: 0x8, addend: 0x0, symName: __ZNSt3__14copyB8ue170006IPfS1_EET0_T_S3_S2_, symObjAddr: 0x78430, symBinAddr: 0x10007ACF4, symSize: 0x26C }
  - { offsetInCU: 0x1F4977, offset: 0x1F4977, size: 0x8, addend: 0x0, symName: __ZNSt3__16__copyB8ue170006INS_17_ClassicAlgPolicyEPfS2_S2_EENS_4pairIT0_T2_EES4_T1_S5_, symObjAddr: 0x78A1C, symBinAddr: 0x10007B2E0, symSize: 0x22C }
  - { offsetInCU: 0x1F49EA, offset: 0x1F49EA, size: 0x8, addend: 0x0, symName: __ZNSt3__19__advanceB8ue170006IPfEEvRT_NS_15iterator_traitsIS2_E15difference_typeENS_26random_access_iterator_tagE, symObjAddr: 0x78C80, symBinAddr: 0x10007B544, symSize: 0x78 }
  - { offsetInCU: 0x1F4A33, offset: 0x1F4A33, size: 0x8, addend: 0x0, symName: __ZNSt3__130__uninitialized_allocator_copyB8ue170006INS_9allocatorIfEEPfS3_S3_EET2_RT_T0_T1_S4_, symObjAddr: 0x78CF8, symBinAddr: 0x10007B5BC, symSize: 0x2DC }
  - { offsetInCU: 0x1F4AD9, offset: 0x1F4AD9, size: 0x8, addend: 0x0, symName: __ZNSt3__114__unwrap_rangeB8ue170006IPfS1_EEDaT_T0_, symObjAddr: 0x78FD4, symBinAddr: 0x10007B898, symSize: 0x224 }
  - { offsetInCU: 0x1F4B27, offset: 0x1F4B27, size: 0x8, addend: 0x0, symName: __ZNSt3__135__uninitialized_allocator_copy_implB8ue170006INS_9allocatorIfEEfffLPv0EEEPT2_RT_PT0_S9_S5_, symObjAddr: 0x791F8, symBinAddr: 0x10007BABC, symSize: 0x38 }
  - { offsetInCU: 0x1F4CFE, offset: 0x1F4CFE, size: 0x8, addend: 0x0, symName: __ZNSt3__123__dispatch_copy_or_moveB8ue170006INS_17_ClassicAlgPolicyENS_11__copy_loopIS1_EENS_14__copy_trivialEPfS5_S5_EENS_4pairIT2_T4_EES7_T3_S8_, symObjAddr: 0x796B0, symBinAddr: 0x10007BF74, symSize: 0x22C }
  - { offsetInCU: 0x1F4D7F, offset: 0x1F4D7F, size: 0x8, addend: 0x0, symName: __ZNSt3__121__unwrap_and_dispatchB8ue170006INS_10__overloadINS_11__copy_loopINS_17_ClassicAlgPolicyEEENS_14__copy_trivialEEEPfS7_S7_Li0EEENS_4pairIT0_T2_EES9_T1_SA_, symObjAddr: 0x798DC, symBinAddr: 0x10007C1A0, symSize: 0x5A4 }
  - { offsetInCU: 0x1F4E19, offset: 0x1F4E19, size: 0x8, addend: 0x0, symName: __ZNSt3__19make_pairB8ue170006IPfS1_EENS_4pairINS_18__unwrap_ref_decayIT_E4typeENS3_IT0_E4typeEEEOS4_OS7_, symObjAddr: 0x7A0B0, symBinAddr: 0x10007C974, symSize: 0x20C }
  - { offsetInCU: 0x1F4E6A, offset: 0x1F4E6A, size: 0x8, addend: 0x0, symName: __ZNSt3__114__rewrap_rangeB8ue170006IPfS1_S1_EET0_S2_T1_, symObjAddr: 0x7A2BC, symBinAddr: 0x10007CB80, symSize: 0x2C }
  - { offsetInCU: 0x1F4EBF, offset: 0x1F4EBF, size: 0x8, addend: 0x0, symName: __ZNSt3__119__copy_trivial_implB8ue170006IffEENS_4pairIPT_PT0_EES3_S3_S5_, symObjAddr: 0x7A2E8, symBinAddr: 0x10007CBAC, symSize: 0x3B4 }
  - { offsetInCU: 0x1F4F2E, offset: 0x1F4F2E, size: 0x8, addend: 0x0, symName: __ZNSt3__119__constexpr_memmoveB8ue170006IffLi0EEEPT_S2_PT0_NS_15__element_countE, symObjAddr: 0x7A69C, symBinAddr: 0x10007CF60, symSize: 0x64 }
  - { offsetInCU: 0x1F4F9D, offset: 0x1F4F9D, size: 0x8, addend: 0x0, symName: __ZNSt3__19make_pairB8ue170006IRPfS1_EENS_4pairINS_18__unwrap_ref_decayIT_E4typeENS4_IT0_E4typeEEEOS5_OS8_, symObjAddr: 0x7A700, symBinAddr: 0x10007CFC4, symSize: 0x20C }
  - { offsetInCU: 0x1F4FEF, offset: 0x1F4FEF, size: 0x8, addend: 0x0, symName: __ZNSt3__110__distanceB8ue170006IPfEENS_15iterator_traitsIT_E15difference_typeES3_S3_NS_26random_access_iterator_tagE, symObjAddr: 0x7AAAC, symBinAddr: 0x10007D370, symSize: 0x28 }
  - { offsetInCU: 0x1F5041, offset: 0x1F5041, size: 0x8, addend: 0x0, symName: __ZNSt3__1eqB8ue170006IPfEEbRKNS_11__wrap_iterIT_EES6_, symObjAddr: 0x7AD74, symBinAddr: 0x10007D638, symSize: 0x48 }
  - { offsetInCU: 0x1F5084, offset: 0x1F5084, size: 0x8, addend: 0x0, symName: __ZNSt3__112construct_atB8ue170006IfJRKfEPfEEPT_S5_DpOT0_, symObjAddr: 0x7B578, symBinAddr: 0x10007DE3C, symSize: 0x108 }
  - { offsetInCU: 0x1F50F7, offset: 0x1F50F7, size: 0x8, addend: 0x0, symName: __ZNSt3__112__to_addressB8ue170006IiEEPT_S2_, symObjAddr: 0x7BF28, symBinAddr: 0x10007E7EC, symSize: 0x14 }
  - { offsetInCU: 0x1F512C, offset: 0x1F512C, size: 0x8, addend: 0x0, symName: __ZNSt3__110destroy_atB8ue170006IiLi0EEEvPT_, symObjAddr: 0x7BF3C, symBinAddr: 0x10007E800, symSize: 0x24 }
  - { offsetInCU: 0x1F5164, offset: 0x1F5164, size: 0x8, addend: 0x0, symName: __ZNSt3__112__destroy_atB8ue170006IiLi0EEEvPT_, symObjAddr: 0x7BF60, symBinAddr: 0x10007E824, symSize: 0x10 }
  - { offsetInCU: 0x1F519C, offset: 0x1F519C, size: 0x8, addend: 0x0, symName: __ZNSt3__122__cxx_atomic_fetch_subB8ue170006IlEET_PNS_22__cxx_atomic_base_implIS1_EES1_NS_12memory_orderE, symObjAddr: 0x7C490, symBinAddr: 0x10007ED54, symSize: 0x20C }
  - { offsetInCU: 0x1F51F1, offset: 0x1F51F1, size: 0x8, addend: 0x0, symName: __ZNSt3__117__cxx_atomic_waitB8ue170006INS_17__cxx_atomic_implIlNS_22__cxx_atomic_base_implIlEEEEZNKS_5latch4waitB8ue170006EvEUlvE_EEbPT_OT0_, symObjAddr: 0x7C6B0, symBinAddr: 0x10007EF74, symSize: 0x2F0 }
  - { offsetInCU: 0x1F5255, offset: 0x1F5255, size: 0x8, addend: 0x0, symName: __ZNSt3__133__libcpp_thread_poll_with_backoffB8ue170006IRZNKS_5latch4waitB8ue170006EvEUlvE_RNS_33__libcpp_atomic_wait_backoff_implINS_17__cxx_atomic_implIlNS_22__cxx_atomic_base_implIlEEEES2_EEEEbOT_OT0_NS_6chrono8durationIxNS_5ratioILl1ELl1000000000EEEEE, symObjAddr: 0x7C9A0, symBinAddr: 0x10007F264, symSize: 0x658 }
  - { offsetInCU: 0x1F5359, offset: 0x1F5359, size: 0x8, addend: 0x0, symName: __ZNSt3__121__libcpp_thread_yieldB8ue170006Ev, symObjAddr: 0x7E464, symBinAddr: 0x100080D28, symSize: 0x14 }
  - { offsetInCU: 0x1F5373, offset: 0x1F5373, size: 0x8, addend: 0x0, symName: __ZNSt3__13getB8ue170006ILm0EibEEONS_13tuple_elementIXT_ENS_4pairIT0_T1_EEE4typeEOS5_, symObjAddr: 0x801C4, symBinAddr: 0x100082A88, symSize: 0x24 }
  - { offsetInCU: 0x1F53BD, offset: 0x1F53BD, size: 0x8, addend: 0x0, symName: __ZNSt3__13getB8ue170006ILm1EibEEONS_13tuple_elementIXT_ENS_4pairIT0_T1_EEE4typeEOS5_, symObjAddr: 0x801E8, symBinAddr: 0x100082AAC, symSize: 0x24 }
  - { offsetInCU: 0x1F5407, offset: 0x1F5407, size: 0x8, addend: 0x0, symName: __ZNSt3__1plB8ue170006IcNS_11char_traitsIcEENS_9allocatorIcEEEENS_12basic_stringIT_T0_T1_EEOS9_PKS6_, symObjAddr: 0x80518, symBinAddr: 0x100082DDC, symSize: 0x40 }
  - { offsetInCU: 0x1F545F, offset: 0x1F545F, size: 0x8, addend: 0x0, symName: __ZNSt3__19make_pairB8ue170006IibEENS_4pairINS_18__unwrap_ref_decayIT_E4typeENS2_IT0_E4typeEEEOS3_OS6_, symObjAddr: 0x8418C, symBinAddr: 0x100086A50, symSize: 0x284 }
  - { offsetInCU: 0x1F54B0, offset: 0x1F54B0, size: 0x8, addend: 0x0, symName: __ZNSt3__13maxB8ue170006IiEERKT_S3_S3_, symObjAddr: 0x84FD0, symBinAddr: 0x100087894, symSize: 0x2C }
  - { offsetInCU: 0x1F54F3, offset: 0x1F54F3, size: 0x8, addend: 0x0, symName: __ZNSt3__14findB8ue170006INS_11__wrap_iterIPfEEfEET_S4_S4_RKT0_, symObjAddr: 0x85210, symBinAddr: 0x100087AD4, symSize: 0x4AC }
  - { offsetInCU: 0x1F556E, offset: 0x1F556E, size: 0x8, addend: 0x0, symName: __ZNSt3__113__rewrap_iterB8ue170006INS_11__wrap_iterIPfEES2_NS_18__unwrap_iter_implIS3_Lb1EEEEET_S6_T0_, symObjAddr: 0x856BC, symBinAddr: 0x100087F80, symSize: 0x338 }
  - { offsetInCU: 0x1F55C8, offset: 0x1F55C8, size: 0x8, addend: 0x0, symName: __ZNSt3__111__find_implB8ue170006IPfS1_fNS_10__identityEEET_S3_T0_RKT1_RT2_, symObjAddr: 0x859F4, symBinAddr: 0x1000882B8, symSize: 0x158 }
  - { offsetInCU: 0x1F5647, offset: 0x1F5647, size: 0x8, addend: 0x0, symName: __ZNSt3__113__unwrap_iterB8ue170006INS_11__wrap_iterIPfEENS_18__unwrap_iter_implIS3_Lb1EEELi0EEEDTclsrT0_8__unwrapclsr3stdE7declvalIT_EEEES7_, symObjAddr: 0x85B4C, symBinAddr: 0x100088410, symSize: 0x274 }
  - { offsetInCU: 0x1F56E4, offset: 0x1F56E4, size: 0x8, addend: 0x0, symName: __ZNSt3__112__to_addressB8ue170006INS_11__wrap_iterIPfEEvEEu7__decayIDTclsr19__to_address_helperIT_EE6__callclsr3stdE7declvalIRKS4_EEEEES6_, symObjAddr: 0x862A0, symBinAddr: 0x100088B64, symSize: 0x24 }
  - { offsetInCU: 0x1F5783, offset: 0x1F5783, size: 0x8, addend: 0x0, symName: __ZNSt3__18__invokeB8ue170006IRNS_10__identityEJRfEEEDTclclsr3stdE7declvalIT_EEspclsr3stdE7declvalIT0_EEEEOS4_DpOS5_, symObjAddr: 0x86730, symBinAddr: 0x100088FF4, symSize: 0x2C }
  - { offsetInCU: 0x1F582C, offset: 0x1F582C, size: 0x8, addend: 0x0, symName: __ZNSt3__112construct_atB8ue170006IiJiEPiEEPT_S3_DpOT0_, symObjAddr: 0x87430, symBinAddr: 0x100089CF4, symSize: 0x108 }
  - { offsetInCU: 0x1F589F, offset: 0x1F589F, size: 0x8, addend: 0x0, symName: __ZNSt3__119__allocate_at_leastB8ue170006INS_9allocatorIiEEEENS_19__allocation_resultINS_16allocator_traitsIT_E7pointerEEERS5_m, symObjAddr: 0x88A10, symBinAddr: 0x10008B2D4, symSize: 0x28C }
  - { offsetInCU: 0x1F58E4, offset: 0x1F58E4, size: 0x8, addend: 0x0, symName: __ZNSt3__142__uninitialized_allocator_move_if_noexceptB8ue170006INS_9allocatorIiEENS_16reverse_iteratorIPiEES5_ivEET1_RT_T0_S9_S6_, symObjAddr: 0x88EAC, symBinAddr: 0x10008B770, symSize: 0x4A8 }
  - { offsetInCU: 0x1F596F, offset: 0x1F596F, size: 0x8, addend: 0x0, symName: __ZNSt3__14swapB8ue170006IPiEENS_9enable_ifIXaasr21is_move_constructibleIT_EE5valuesr18is_move_assignableIS3_EE5valueEvE4typeERS3_S6_, symObjAddr: 0x893EC, symBinAddr: 0x10008BCB0, symSize: 0x134 }
  - { offsetInCU: 0x1F59C0, offset: 0x1F59C0, size: 0x8, addend: 0x0, symName: __ZNSt3__14moveB8ue170006INS_16reverse_iteratorIPiEES3_EET0_T_S5_S4_, symObjAddr: 0x895E0, symBinAddr: 0x10008BEA4, symSize: 0x4B0 }
  - { offsetInCU: 0x1F5A27, offset: 0x1F5A27, size: 0x8, addend: 0x0, symName: __ZNSt3__16__moveB8ue170006INS_17_ClassicAlgPolicyENS_16reverse_iteratorIPiEES4_S4_EENS_4pairIT0_T2_EES6_T1_S7_, symObjAddr: 0x89A90, symBinAddr: 0x10008C354, symSize: 0x424 }
  - { offsetInCU: 0x1F5A9F, offset: 0x1F5A9F, size: 0x8, addend: 0x0, symName: __ZNSt3__123__dispatch_copy_or_moveB8ue170006INS_17_ClassicAlgPolicyENS_11__move_loopIS1_EENS_14__move_trivialENS_16reverse_iteratorIPiEES7_S7_EENS_4pairIT2_T4_EES9_T3_SA_, symObjAddr: 0x89EB4, symBinAddr: 0x10008C778, symSize: 0x424 }
  - { offsetInCU: 0x1F5B29, offset: 0x1F5B29, size: 0x8, addend: 0x0, symName: __ZNSt3__121__unwrap_and_dispatchB8ue170006INS_10__overloadINS_11__move_loopINS_17_ClassicAlgPolicyEEENS_14__move_trivialEEENS_16reverse_iteratorIPiEES9_S9_Li0EEENS_4pairIT0_T2_EESB_T1_SC_, symObjAddr: 0x8A2D8, symBinAddr: 0x10008CB9C, symSize: 0x880 }
  - { offsetInCU: 0x1F5BCE, offset: 0x1F5BCE, size: 0x8, addend: 0x0, symName: __ZNSt3__114__unwrap_rangeB8ue170006INS_16reverse_iteratorIPiEES3_EEDaT_T0_, symObjAddr: 0x8AB58, symBinAddr: 0x10008D41C, symSize: 0x35C }
  - { offsetInCU: 0x1F5CF7, offset: 0x1F5CF7, size: 0x8, addend: 0x0, symName: __ZNSt3__113__unwrap_iterB8ue170006INS_16reverse_iteratorIPiEENS_18__unwrap_iter_implIS3_Lb0EEELi0EEEDTclsrT0_8__unwrapclsr3stdE7declvalIT_EEEES7_, symObjAddr: 0x8B2AC, symBinAddr: 0x10008DB70, symSize: 0x2EC }
  - { offsetInCU: 0x1F5D40, offset: 0x1F5D40, size: 0x8, addend: 0x0, symName: __ZNSt3__19make_pairB8ue170006INS_16reverse_iteratorIPiEES3_EENS_4pairINS_18__unwrap_ref_decayIT_E4typeENS5_IT0_E4typeEEEOS6_OS9_, symObjAddr: 0x8B598, symBinAddr: 0x10008DE5C, symSize: 0x38 }
  - { offsetInCU: 0x1F5D8F, offset: 0x1F5D8F, size: 0x8, addend: 0x0, symName: __ZNSt3__114__rewrap_rangeB8ue170006INS_16reverse_iteratorIPiEES3_S3_EET0_S4_T1_, symObjAddr: 0x8B5D0, symBinAddr: 0x10008DE94, symSize: 0x3D4 }
  - { offsetInCU: 0x1F5DEC, offset: 0x1F5DEC, size: 0x8, addend: 0x0, symName: __ZNSt3__113__rewrap_iterB8ue170006INS_16reverse_iteratorIPiEES3_NS_18__unwrap_iter_implIS3_Lb0EEEEET_S6_T0_, symObjAddr: 0x8B9A4, symBinAddr: 0x10008E268, symSize: 0x3E8 }
  - { offsetInCU: 0x1F5E99, offset: 0x1F5E99, size: 0x8, addend: 0x0, symName: __ZNSt3__1neB8ue170006IPiS1_EEbRKNS_16reverse_iteratorIT_EERKNS2_IT0_EE, symObjAddr: 0x8C264, symBinAddr: 0x10008EB28, symSize: 0x48 }
  - { offsetInCU: 0x1F5F53, offset: 0x1F5F53, size: 0x8, addend: 0x0, symName: __ZNSt3__13maxB8ue170006IiNS_6__lessIvvEEEERKT_S5_S5_T0_, symObjAddr: 0x8D190, symBinAddr: 0x10008FA54, symSize: 0x1E8 }
  - { offsetInCU: 0x1F602D, offset: 0x1F602D, size: 0x8, addend: 0x0, symName: __ZNSt3__17launderB8ue170006IKNS_4pairIKNS_12basic_stringIcNS_11char_traitsIcEENS_9allocatorIcEEEENS1_IN5Eigen6MatrixIfLin1ELi1ELi0ELin1ELi1EEEbEEEEEEPT_SG_, symObjAddr: 0x8EF1C, symBinAddr: 0x1000917E0, symSize: 0x24 }
  - { offsetInCU: 0x1F6064, offset: 0x1F6064, size: 0x8, addend: 0x0, symName: __ZNSt3__19__launderB8ue170006IKNS_4pairIKNS_12basic_stringIcNS_11char_traitsIcEENS_9allocatorIcEEEENS1_IN5Eigen6MatrixIfLin1ELi1ELi0ELin1ELi1EEEbEEEEEEPT_SG_, symObjAddr: 0x8EF40, symBinAddr: 0x100091804, symSize: 0x14 }
  - { offsetInCU: 0x1F60E0, offset: 0x1F60E0, size: 0x8, addend: 0x0, symName: __ZNSt3__112construct_atB8ue170006INS_4pairIKNS_12basic_stringIcNS_11char_traitsIcEENS_9allocatorIcEEEENS1_IN5Eigen6MatrixIfLin1ELi1ELi0ELin1ELi1EEEbEEEEJRKNS_21piecewise_construct_tENS_5tupleIJRS8_EEENSH_IJEEEEPSD_EEPT_SN_DpOT0_, symObjAddr: 0x8F564, symBinAddr: 0x100091E28, symSize: 0x21C }
  - { offsetInCU: 0x1F61B3, offset: 0x1F61B3, size: 0x8, addend: 0x0, symName: __ZNSt3__16fill_nB8ue170006IPflfEET_S2_T0_RKT1_, symObjAddr: 0x91E28, symBinAddr: 0x1000946EC, symSize: 0x44 }
  - { offsetInCU: 0x1F621A, offset: 0x1F621A, size: 0x8, addend: 0x0, symName: __ZNSt3__18__fill_nB8ue170006IPflfEET_S2_T0_RKT1_, symObjAddr: 0x91F74, symBinAddr: 0x100094838, symSize: 0x140 }
  - { offsetInCU: 0x1F6281, offset: 0x1F6281, size: 0x8, addend: 0x0, symName: __ZNSt3__1neB8ue170006IPKfEEbRKNS_11__wrap_iterIT_EES7_, symObjAddr: 0x925E8, symBinAddr: 0x100094EAC, symSize: 0x34 }
  - { offsetInCU: 0x1F62C4, offset: 0x1F62C4, size: 0x8, addend: 0x0, symName: __ZNSt3__1eqB8ue170006IcNS_11char_traitsIcEENS_9allocatorIcEEEEbRKNS_12basic_stringIT_T0_T1_EEPKS6_, symObjAddr: 0x9267C, symBinAddr: 0x100094F40, symSize: 0x2EC }
  - { offsetInCU: 0x1F631E, offset: 0x1F631E, size: 0x8, addend: 0x0, symName: __ZNSt3__1eqB8ue170006IPKfEEbRKNS_11__wrap_iterIT_EES7_, symObjAddr: 0x92C70, symBinAddr: 0x100095534, symSize: 0x48 }
  - { offsetInCU: 0x1F6361, offset: 0x1F6361, size: 0x8, addend: 0x0, symName: __ZNSt3__1eqB8ue170006IcNS_11char_traitsIcEEEEbNS_17basic_string_viewIT_T0_EES6_, symObjAddr: 0x92D18, symBinAddr: 0x1000955DC, symSize: 0x348 }
  - { offsetInCU: 0x1F63B8, offset: 0x1F63B8, size: 0x8, addend: 0x0, symName: __ZNSt3__128__char_traits_length_checkedB8ue170006INS_11char_traitsIcEEEEmPKNT_9char_typeE, symObjAddr: 0x93970, symBinAddr: 0x100096234, symSize: 0x24 }
  - { offsetInCU: 0x1F65DE, offset: 0x1F65DE, size: 0x8, addend: 0x0, symName: __ZNSt3__112__to_addressB8ue170006IKN5Eigen6MatrixIfLin1ELi1ELi0ELin1ELi1EEEEEPT_S6_, symObjAddr: 0x97504, symBinAddr: 0x100099DC8, symSize: 0x14 }
  - { offsetInCU: 0x1F6A77, offset: 0x1F6A77, size: 0x8, addend: 0x0, symName: __ZNSt3__14swapB8ue170006IPPKN5Eigen6MatrixIfLin1ELi1ELi0ELin1ELi1EEEEENS_9enable_ifIXaasr21is_move_constructibleIT_EE5valuesr18is_move_assignableIS8_EE5valueEvE4typeERS8_SB_, symObjAddr: 0x9C28C, symBinAddr: 0x10009EB50, symSize: 0x134 }
  - { offsetInCU: 0x1F6AC8, offset: 0x1F6AC8, size: 0x8, addend: 0x0, symName: __ZNSt3__14moveB8ue170006IPPKN5Eigen6MatrixIfLin1ELi1ELi0ELin1ELi1EEES6_EET0_T_S8_S7_, symObjAddr: 0x9C508, symBinAddr: 0x10009EDCC, symSize: 0x26C }
  - { offsetInCU: 0x1F6B25, offset: 0x1F6B25, size: 0x8, addend: 0x0, symName: __ZNSt3__112__to_addressB8ue170006IPKN5Eigen6MatrixIfLin1ELi1ELi0ELin1ELi1EEEEEPT_S7_, symObjAddr: 0x9CBAC, symBinAddr: 0x10009F470, symSize: 0x14 }
  - { offsetInCU: 0x1F6B5A, offset: 0x1F6B5A, size: 0x8, addend: 0x0, symName: __ZNSt3__16__moveB8ue170006INS_17_ClassicAlgPolicyEPPKN5Eigen6MatrixIfLin1ELi1ELi0ELin1ELi1EEES7_S7_EENS_4pairIT0_T2_EES9_T1_SA_, symObjAddr: 0x9CBC0, symBinAddr: 0x10009F484, symSize: 0x22C }
  - { offsetInCU: 0x1F6BC9, offset: 0x1F6BC9, size: 0x8, addend: 0x0, symName: __ZNSt3__123__dispatch_copy_or_moveB8ue170006INS_17_ClassicAlgPolicyENS_11__move_loopIS1_EENS_14__move_trivialEPPKN5Eigen6MatrixIfLin1ELi1ELi0ELin1ELi1EEESA_SA_EENS_4pairIT2_T4_EESC_T3_SD_, symObjAddr: 0x9CDEC, symBinAddr: 0x10009F6B0, symSize: 0x22C }
  - { offsetInCU: 0x1F6C4A, offset: 0x1F6C4A, size: 0x8, addend: 0x0, symName: __ZNSt3__121__unwrap_and_dispatchB8ue170006INS_10__overloadINS_11__move_loopINS_17_ClassicAlgPolicyEEENS_14__move_trivialEEEPPKN5Eigen6MatrixIfLin1ELi1ELi0ELin1ELi1EEESC_SC_Li0EEENS_4pairIT0_T2_EESE_T1_SF_, symObjAddr: 0x9D018, symBinAddr: 0x10009F8DC, symSize: 0x5A4 }
  - { offsetInCU: 0x1F6CE4, offset: 0x1F6CE4, size: 0x8, addend: 0x0, symName: __ZNSt3__114__unwrap_rangeB8ue170006IPPKN5Eigen6MatrixIfLin1ELi1ELi0ELin1ELi1EEES6_EEDaT_T0_, symObjAddr: 0x9D5BC, symBinAddr: 0x10009FE80, symSize: 0x224 }
  - { offsetInCU: 0x1F6EAE, offset: 0x1F6EAE, size: 0x8, addend: 0x0, symName: __ZNSt3__113__unwrap_iterB8ue170006IPPKN5Eigen6MatrixIfLin1ELi1ELi0ELin1ELi1EEENS_18__unwrap_iter_implIS6_Lb1EEELi0EEEDTclsrT0_8__unwrapclsr3stdE7declvalIT_EEEESA_, symObjAddr: 0x9DA10, symBinAddr: 0x1000A02D4, symSize: 0x24 }
  - { offsetInCU: 0x1F6EF3, offset: 0x1F6EF3, size: 0x8, addend: 0x0, symName: __ZNSt3__19make_pairB8ue170006IPPKN5Eigen6MatrixIfLin1ELi1ELi0ELin1ELi1EEES6_EENS_4pairINS_18__unwrap_ref_decayIT_E4typeENS8_IT0_E4typeEEEOS9_OSC_, symObjAddr: 0x9DA34, symBinAddr: 0x1000A02F8, symSize: 0x20C }
  - { offsetInCU: 0x1F6F44, offset: 0x1F6F44, size: 0x8, addend: 0x0, symName: __ZNSt3__114__rewrap_rangeB8ue170006IPPKN5Eigen6MatrixIfLin1ELi1ELi0ELin1ELi1EEES6_S6_EET0_S7_T1_, symObjAddr: 0x9DC40, symBinAddr: 0x1000A0504, symSize: 0x2C }
  - { offsetInCU: 0x1F6F99, offset: 0x1F6F99, size: 0x8, addend: 0x0, symName: __ZNSt3__113__rewrap_iterB8ue170006IPPKN5Eigen6MatrixIfLin1ELi1ELi0ELin1ELi1EEES6_NS_18__unwrap_iter_implIS6_Lb1EEEEET_S9_T0_, symObjAddr: 0x9DC6C, symBinAddr: 0x1000A0530, symSize: 0x48 }
  - { offsetInCU: 0x1F703E, offset: 0x1F703E, size: 0x8, addend: 0x0, symName: __ZNSt3__119__copy_trivial_implB8ue170006IPKN5Eigen6MatrixIfLin1ELi1ELi0ELin1ELi1EEES5_EENS_4pairIPT_PT0_EES8_S8_SA_, symObjAddr: 0x9E134, symBinAddr: 0x1000A09F8, symSize: 0x3B4 }
  - { offsetInCU: 0x1F70AD, offset: 0x1F70AD, size: 0x8, addend: 0x0, symName: __ZNSt3__119__constexpr_memmoveB8ue170006IPKN5Eigen6MatrixIfLin1ELi1ELi0ELin1ELi1EEES5_Li0EEEPT_S7_PT0_NS_15__element_countE, symObjAddr: 0x9E4E8, symBinAddr: 0x1000A0DAC, symSize: 0x64 }
  - { offsetInCU: 0x1F711C, offset: 0x1F711C, size: 0x8, addend: 0x0, symName: __ZNSt3__19make_pairB8ue170006IRPPKN5Eigen6MatrixIfLin1ELi1ELi0ELin1ELi1EEES6_EENS_4pairINS_18__unwrap_ref_decayIT_E4typeENS9_IT0_E4typeEEEOSA_OSD_, symObjAddr: 0x9E54C, symBinAddr: 0x1000A0E10, symSize: 0x20C }
  - { offsetInCU: 0x1F71C1, offset: 0x1F71C1, size: 0x8, addend: 0x0, symName: __ZNSt3__18distanceB8ue170006INS_13move_iteratorIPPKN5Eigen6MatrixIfLin1ELi1ELi0ELin1ELi1EEEEEEENS_15iterator_traitsIT_E15difference_typeESA_SA_, symObjAddr: 0x9EDF0, symBinAddr: 0x1000A16B4, symSize: 0x350 }
  - { offsetInCU: 0x1F7236, offset: 0x1F7236, size: 0x8, addend: 0x0, symName: __ZNSt3__112construct_atB8ue170006IPKN5Eigen6MatrixIfLin1ELi1ELi0ELin1ELi1EEEJS5_EPS5_EEPT_S8_DpOT0_, symObjAddr: 0x9F418, symBinAddr: 0x1000A1CDC, symSize: 0xB8 }
  - { offsetInCU: 0x1F72A9, offset: 0x1F72A9, size: 0x8, addend: 0x0, symName: __ZNSt3__110__distanceB8ue170006INS_13move_iteratorIPPKN5Eigen6MatrixIfLin1ELi1ELi0ELin1ELi1EEEEEEENS_15iterator_traitsIT_E15difference_typeESA_SA_NS_26random_access_iterator_tagE, symObjAddr: 0x9F69C, symBinAddr: 0x1000A1F60, symSize: 0x274 }
  - { offsetInCU: 0x1F7304, offset: 0x1F7304, size: 0x8, addend: 0x0, symName: __ZNSt3__1miB8ue170006IPPKN5Eigen6MatrixIfLin1ELi1ELi0ELin1ELi1EEES6_EEDTmicldtfp_4baseEcldtfp0_4baseEERKNS_13move_iteratorIT_EERKNS8_IT0_EE, symObjAddr: 0x9F910, symBinAddr: 0x1000A21D4, symSize: 0xC4 }
  - { offsetInCU: 0x1F7353, offset: 0x1F7353, size: 0x8, addend: 0x0, symName: __ZNSt3__112construct_atB8ue170006IPKN5Eigen6MatrixIfLin1ELi1ELi0ELin1ELi1EEEJRKS5_EPS5_EEPT_SA_DpOT0_, symObjAddr: 0x9FA58, symBinAddr: 0x1000A231C, symSize: 0xB8 }
  - { offsetInCU: 0x1F73C6, offset: 0x1F73C6, size: 0x8, addend: 0x0, symName: __ZNSt3__113move_backwardB8ue170006IPPKN5Eigen6MatrixIfLin1ELi1ELi0ELin1ELi1EEES6_EET0_T_S8_S7_, symObjAddr: 0x9FBF4, symBinAddr: 0x1000A24B8, symSize: 0x26C }
  - { offsetInCU: 0x1F7427, offset: 0x1F7427, size: 0x8, addend: 0x0, symName: __ZNSt3__115__move_backwardB8ue170006INS_17_ClassicAlgPolicyEPPKN5Eigen6MatrixIfLin1ELi1ELi0ELin1ELi1EEES7_S7_EENS_4pairIT0_T2_EES9_T1_SA_, symObjAddr: 0x9FE60, symBinAddr: 0x1000A2724, symSize: 0x22C }
  - { offsetInCU: 0x1F749A, offset: 0x1F749A, size: 0x8, addend: 0x0, symName: __ZNSt3__123__dispatch_copy_or_moveB8ue170006INS_17_ClassicAlgPolicyENS_20__move_backward_loopIS1_EENS_23__move_backward_trivialEPPKN5Eigen6MatrixIfLin1ELi1ELi0ELin1ELi1EEESA_SA_EENS_4pairIT2_T4_EESC_T3_SD_, symObjAddr: 0xA008C, symBinAddr: 0x1000A2950, symSize: 0x22C }
  - { offsetInCU: 0x1F751B, offset: 0x1F751B, size: 0x8, addend: 0x0, symName: __ZNSt3__121__unwrap_and_dispatchB8ue170006INS_10__overloadINS_20__move_backward_loopINS_17_ClassicAlgPolicyEEENS_23__move_backward_trivialEEEPPKN5Eigen6MatrixIfLin1ELi1ELi0ELin1ELi1EEESC_SC_Li0EEENS_4pairIT0_T2_EESE_T1_SF_, symObjAddr: 0xA02B8, symBinAddr: 0x1000A2B7C, symSize: 0x5A4 }
  - { offsetInCU: 0x1F75FE, offset: 0x1F75FE, size: 0x8, addend: 0x0, symName: __ZNSt3__128__copy_backward_trivial_implB8ue170006IPKN5Eigen6MatrixIfLin1ELi1ELi0ELin1ELi1EEES5_EENS_4pairIPT_PT0_EES8_S8_SA_, symObjAddr: 0xA0A8C, symBinAddr: 0x1000A3350, symSize: 0x3DC }
  - { offsetInCU: 0x1F7670, offset: 0x1F7670, size: 0x8, addend: 0x0, symName: __ZNSt3__19make_pairB8ue170006IRPPKN5Eigen6MatrixIfLin1ELi1ELi0ELin1ELi1EEES7_EENS_4pairINS_18__unwrap_ref_decayIT_E4typeENS9_IT0_E4typeEEEOSA_OSD_, symObjAddr: 0xA0E68, symBinAddr: 0x1000A372C, symSize: 0x20C }
  - { offsetInCU: 0x1F76C1, offset: 0x1F76C1, size: 0x8, addend: 0x0, symName: __ZNSt3__119__allocate_at_leastB8ue170006INS_9allocatorIPKN5Eigen6MatrixIfLin1ELi1ELi0ELin1ELi1EEEEEEENS_19__allocation_resultINS_16allocator_traitsIT_E7pointerEEERSA_m, symObjAddr: 0xA17C0, symBinAddr: 0x1000A4084, symSize: 0x28C }
  - { offsetInCU: 0x1F7706, offset: 0x1F7706, size: 0x8, addend: 0x0, symName: __ZNSt3__110destroy_atB8ue170006IPKN5Eigen6MatrixIfLin1ELi1ELi0ELin1ELi1EEELi0EEEvPT_, symObjAddr: 0xA26E4, symBinAddr: 0x1000A4FA8, symSize: 0x24 }
  - { offsetInCU: 0x1F773E, offset: 0x1F773E, size: 0x8, addend: 0x0, symName: __ZNSt3__112__destroy_atB8ue170006IPKN5Eigen6MatrixIfLin1ELi1ELi0ELin1ELi1EEELi0EEEvPT_, symObjAddr: 0xA2708, symBinAddr: 0x1000A4FCC, symSize: 0x10 }
  - { offsetInCU: 0x1F779D, offset: 0x1F779D, size: 0x8, addend: 0x0, symName: __ZNSt3__112construct_atB8ue170006IKN5Eigen6MatrixIfLin1ELi1ELi0ELin1ELi1EEEJS4_EPS4_EEPT_S7_DpOT0_, symObjAddr: 0xA27B0, symBinAddr: 0x1000A5074, symSize: 0x3C }
  - { offsetInCU: 0x1F7810, offset: 0x1F7810, size: 0x8, addend: 0x0, symName: __ZNSt3__112construct_atB8ue170006IKN5Eigen6MatrixIfLin1ELi1ELi0ELin1ELi1EEEJRS4_EPS4_EEPT_S8_DpOT0_, symObjAddr: 0xA5704, symBinAddr: 0x1000A7FC8, symSize: 0x3C }
  - { offsetInCU: 0x1F7883, offset: 0x1F7883, size: 0x8, addend: 0x0, symName: __ZNSt3__110destroy_atB8ue170006IKN5Eigen6MatrixIfLin1ELi1ELi0ELin1ELi1EEELi0EEEvPT_, symObjAddr: 0xA5F40, symBinAddr: 0x1000A8804, symSize: 0x24 }
  - { offsetInCU: 0x1F78BB, offset: 0x1F78BB, size: 0x8, addend: 0x0, symName: __ZNSt3__112__destroy_atB8ue170006IKN5Eigen6MatrixIfLin1ELi1ELi0ELin1ELi1EEELi0EEEvPT_, symObjAddr: 0xA5F64, symBinAddr: 0x1000A8828, symSize: 0x24 }
  - { offsetInCU: 0x1F7D0E, offset: 0x1F7D0E, size: 0x8, addend: 0x0, symName: __ZNSt3__13maxB8ue170006IfEERKT_S3_S3_, symObjAddr: 0xBFE6C, symBinAddr: 0x1000C2730, symSize: 0x2C }
  - { offsetInCU: 0x1F7D51, offset: 0x1F7D51, size: 0x8, addend: 0x0, symName: __ZNSt3__13maxB8ue170006IfNS_6__lessIvvEEEERKT_S5_S5_T0_, symObjAddr: 0xBFE98, symBinAddr: 0x1000C275C, symSize: 0x1E8 }
  - { offsetInCU: 0x1F7DB1, offset: 0x1F7DB1, size: 0x8, addend: 0x0, symName: __ZNSt3__13minB8ue170006IfEERKT_S3_S3_, symObjAddr: 0xC018C, symBinAddr: 0x1000C2A50, symSize: 0x2C }
  - { offsetInCU: 0x1F7DF4, offset: 0x1F7DF4, size: 0x8, addend: 0x0, symName: __ZNSt3__13minB8ue170006IfNS_6__lessIvvEEEERKT_S5_S5_T0_, symObjAddr: 0xC01B8, symBinAddr: 0x1000C2A7C, symSize: 0x1E8 }
  - { offsetInCU: 0x1F7E54, offset: 0x1F7E54, size: 0x8, addend: 0x0, symName: __ZNSt3__1neB8ue170006ERKNS_16__deque_iteratorIKN5Eigen6MatrixIfLin1ELi1ELi0ELin1ELi1EEEPS4_RS4_PS5_lLl256EEESA_, symObjAddr: 0xCCEA0, symBinAddr: 0x1000CF764, symSize: 0x34 }
  - { offsetInCU: 0x1F7E91, offset: 0x1F7E91, size: 0x8, addend: 0x0, symName: __ZNSt3__1eqB8ue170006ERKNS_16__deque_iteratorIKN5Eigen6MatrixIfLin1ELi1ELi0ELin1ELi1EEEPS4_RS4_PS5_lLl256EEESA_, symObjAddr: 0xCD0CC, symBinAddr: 0x1000CF990, symSize: 0xC0 }
  - { offsetInCU: 0x1F7ECE, offset: 0x1F7ECE, size: 0x8, addend: 0x0, symName: __ZNSt3__112construct_atB8ue170006INS_4pairIKNS_12basic_stringIcNS_11char_traitsIcEENS_9allocatorIcEEEEN5Eigen6MatrixIfLin1ELi1ELi0ELin1ELi1EEEEEJRKNS_21piecewise_construct_tENS_5tupleIJRS8_EEENSG_IJEEEEPSC_EEPT_SM_DpOT0_, symObjAddr: 0xCE83C, symBinAddr: 0x1000D1100, symSize: 0x21C }
  - { offsetInCU: 0x1F7F6E, offset: 0x1F7F6E, size: 0x8, addend: 0x0, symName: __ZNSt3__13minB8ue170006IlEERKT_S3_S3_, symObjAddr: 0xE5738, symBinAddr: 0x1000E7FFC, symSize: 0x2C }
  - { offsetInCU: 0x1F7FB1, offset: 0x1F7FB1, size: 0x8, addend: 0x0, symName: __ZNSt3__13minB8ue170006IlNS_6__lessIvvEEEERKT_S5_S5_T0_, symObjAddr: 0xE5764, symBinAddr: 0x1000E8028, symSize: 0x1E8 }
  - { offsetInCU: 0x1F8011, offset: 0x1F8011, size: 0x8, addend: 0x0, symName: __ZNSt3__14swapB8ue170006IfEENS_9enable_ifIXaasr21is_move_constructibleIT_EE5valuesr18is_move_assignableIS2_EE5valueEvE4typeERS2_S5_, symObjAddr: 0xFA978, symBinAddr: 0x1000FD23C, symSize: 0x1D4 }
  - { offsetInCU: 0x1F8265, offset: 0x1F8265, size: 0x8, addend: 0x0, symName: __ZNSt3__14swapB8ue170006IiEENS_9enable_ifIXaasr21is_move_constructibleIT_EE5valuesr18is_move_assignableIS2_EE5valueEvE4typeERS2_S5_, symObjAddr: 0x12AA84, symBinAddr: 0x10012D348, symSize: 0x1D4 }
  - { offsetInCU: 0x1F82B6, offset: 0x1F82B6, size: 0x8, addend: 0x0, symName: __ZNSt3__13maxB8ue170006IlEERKT_S3_S3_, symObjAddr: 0x136AF4, symBinAddr: 0x1001393B8, symSize: 0x2C }
  - { offsetInCU: 0x1F82F9, offset: 0x1F82F9, size: 0x8, addend: 0x0, symName: __ZNSt3__13maxB8ue170006IlNS_6__lessIvvEEEERKT_S5_S5_T0_, symObjAddr: 0x138374, symBinAddr: 0x10013AC38, symSize: 0x1E8 }
  - { offsetInCU: 0x1F8393, offset: 0x1F8393, size: 0x8, addend: 0x0, symName: __ZNSt3__16fill_nB8ue170006IPblbEET_S2_T0_RKT1_, symObjAddr: 0x1C7CA4, symBinAddr: 0x1001CA568, symSize: 0x44 }
  - { offsetInCU: 0x1F83FA, offset: 0x1F83FA, size: 0x8, addend: 0x0, symName: __ZNSt3__18__fill_nB8ue170006IPblbEET_S2_T0_RKT1_, symObjAddr: 0x1C7FA0, symBinAddr: 0x1001CA864, symSize: 0x140 }
  - { offsetInCU: 0x1F8461, offset: 0x1F8461, size: 0x8, addend: 0x0, symName: __ZNSt3__122__make_exception_guardB8ue170006INS_6vectorIfNS_9allocatorIfEEE16__destroy_vectorEEENS_28__exception_guard_exceptionsIT_EES7_, symObjAddr: 0x204C9C, symBinAddr: 0x100207560, symSize: 0x278 }
  - { offsetInCU: 0x1F849A, offset: 0x1F849A, size: 0x8, addend: 0x0, symName: __ZNSt3__116forward_as_tupleB8ue170006IJRKbEEENS_5tupleIJDpOT_EEES6_, symObjAddr: 0x2062F0, symBinAddr: 0x100208BB4, symSize: 0x1F8 }
  - { offsetInCU: 0x1F84D6, offset: 0x1F84D6, size: 0x8, addend: 0x0, symName: __ZNSt3__112construct_atB8ue170006INS_4pairIKbNS_13unordered_mapIbNS3_IbNS_6vectorIfNS_9allocatorIfEEEENS_4hashIbEENS_8equal_toIbEENS5_INS1_IS2_S7_EEEEEES9_SB_NS5_INS1_IS2_SE_EEEEEEEEJRKNS_21piecewise_construct_tENS_5tupleIJRS2_EEENSM_IJEEEEPSI_EEPT_SS_DpOT0_, symObjAddr: 0x206950, symBinAddr: 0x100209214, symSize: 0x21C }
  - { offsetInCU: 0x1F8576, offset: 0x1F8576, size: 0x8, addend: 0x0, symName: __ZNSt3__13getB8ue170006ILm0EJRKbEEERNS_13tuple_elementIXT_ENS_5tupleIJDpT0_EEEE4typeERS7_, symObjAddr: 0x206F08, symBinAddr: 0x1002097CC, symSize: 0x24 }
  - { offsetInCU: 0x1F85D2, offset: 0x1F85D2, size: 0x8, addend: 0x0, symName: __ZNSt3__112construct_atB8ue170006INS_4pairIKbNS_13unordered_mapIbNS_6vectorIfNS_9allocatorIfEEEENS_4hashIbEENS_8equal_toIbEENS5_INS1_IS2_S7_EEEEEEEEJRKNS_21piecewise_construct_tENS_5tupleIJRS2_EEENSJ_IJEEEEPSF_EEPT_SP_DpOT0_, symObjAddr: 0x208314, symBinAddr: 0x10020ABD8, symSize: 0x21C }
  - { offsetInCU: 0x1F8672, offset: 0x1F8672, size: 0x8, addend: 0x0, symName: __ZNSt3__112construct_atB8ue170006INS_4pairIKbNS_6vectorIfNS_9allocatorIfEEEEEEJRKNS_21piecewise_construct_tENS_5tupleIJRS2_EEENSB_IJEEEEPS7_EEPT_SH_DpOT0_, symObjAddr: 0x209B14, symBinAddr: 0x10020C3D8, symSize: 0x21C }
  - { offsetInCU: 0x1F8712, offset: 0x1F8712, size: 0x8, addend: 0x0, symName: __ZNSt3__112construct_atB8ue170006IfJRfEPfEEPT_S4_DpOT0_, symObjAddr: 0x20AD04, symBinAddr: 0x10020D5C8, symSize: 0x108 }
  - { offsetInCU: 0x1F8785, offset: 0x1F8785, size: 0x8, addend: 0x0, symName: __ZNSt3__113__countl_zeroB8ue170006IjEEiT_, symObjAddr: 0x20B39C, symBinAddr: 0x10020DC60, symSize: 0x54 }
  - { offsetInCU: 0x1F87BD, offset: 0x1F87BD, size: 0x8, addend: 0x0, symName: __ZNSt3__112__libcpp_clzB8ue170006Ej, symObjAddr: 0x20C078, symBinAddr: 0x10020E93C, symSize: 0x18 }
  - { offsetInCU: 0x1F87EB, offset: 0x1F87EB, size: 0x8, addend: 0x0, symName: __ZNSt3__116forward_as_tupleB8ue170006IJRKiEEENS_5tupleIJDpOT_EEES6_, symObjAddr: 0x20CA00, symBinAddr: 0x10020F2C4, symSize: 0x1F8 }
  - { offsetInCU: 0x1F8827, offset: 0x1F8827, size: 0x8, addend: 0x0, symName: __ZNSt3__17launderB8ue170006IKNS_4pairIKiNS_6vectorIdNS_9allocatorIdEEEEEEEEPT_SA_, symObjAddr: 0x20DB24, symBinAddr: 0x1002103E8, symSize: 0x24 }
  - { offsetInCU: 0x1F885E, offset: 0x1F885E, size: 0x8, addend: 0x0, symName: __ZNSt3__19__launderB8ue170006IKNS_4pairIKiNS_6vectorIdNS_9allocatorIdEEEEEEEEPT_SA_, symObjAddr: 0x20DB48, symBinAddr: 0x10021040C, symSize: 0x14 }
  - { offsetInCU: 0x1F88DA, offset: 0x1F88DA, size: 0x8, addend: 0x0, symName: __ZNSt3__112construct_atB8ue170006INS_4pairIKiNS_6vectorIdNS_9allocatorIdEEEEEEJRKNS_21piecewise_construct_tENS_5tupleIJRS2_EEENSB_IJEEEEPS7_EEPT_SH_DpOT0_, symObjAddr: 0x20E1D8, symBinAddr: 0x100210A9C, symSize: 0x21C }
  - { offsetInCU: 0x1F897A, offset: 0x1F897A, size: 0x8, addend: 0x0, symName: __ZNSt3__13getB8ue170006ILm0EJRKiEEERNS_13tuple_elementIXT_ENS_5tupleIJDpT0_EEEE4typeERS7_, symObjAddr: 0x20E790, symBinAddr: 0x100211054, symSize: 0x24 }
  - { offsetInCU: 0x1F89BF, offset: 0x1F89BF, size: 0x8, addend: 0x0, symName: __ZNSt3__127__tree_balance_after_insertB8ue170006IPNS_16__tree_node_baseIPvEEEEvT_S5_, symObjAddr: 0x20EC84, symBinAddr: 0x100211548, symSize: 0x960 }
  - { offsetInCU: 0x1F8A33, offset: 0x1F8A33, size: 0x8, addend: 0x0, symName: __ZNSt3__120__tree_is_left_childB8ue170006IPNS_16__tree_node_baseIPvEEEEbT_, symObjAddr: 0x20F670, symBinAddr: 0x100211F34, symSize: 0xB8 }
  - { offsetInCU: 0x1F8A68, offset: 0x1F8A68, size: 0x8, addend: 0x0, symName: __ZNSt3__118__tree_left_rotateB8ue170006IPNS_16__tree_node_baseIPvEEEEvT_, symObjAddr: 0x20F728, symBinAddr: 0x100211FEC, symSize: 0x374 }
  - { offsetInCU: 0x1F8AAA, offset: 0x1F8AAA, size: 0x8, addend: 0x0, symName: __ZNSt3__119__tree_right_rotateB8ue170006IPNS_16__tree_node_baseIPvEEEEvT_, symObjAddr: 0x20FA9C, symBinAddr: 0x100212360, symSize: 0x354 }
  - { offsetInCU: 0x1F8B36, offset: 0x1F8B36, size: 0x8, addend: 0x0, symName: __ZNSt3__116__pad_and_outputB8ue170006IcNS_11char_traitsIcEEEENS_19ostreambuf_iteratorIT_T0_EES6_PKS4_S8_S8_RNS_8ios_baseES4_, symObjAddr: 0x210C54, symBinAddr: 0x100213518, symSize: 0x760 }
  - { offsetInCU: 0x1F8C22, offset: 0x1F8C22, size: 0x8, addend: 0x0, symName: __ZNSt3__112__to_addressB8ue170006IcEEPT_S2_, symObjAddr: 0x211AF0, symBinAddr: 0x1002143B4, symSize: 0x14 }
  - { offsetInCU: 0x1F8C57, offset: 0x1F8C57, size: 0x8, addend: 0x0, symName: __ZNSt3__19use_facetB8ue170006INS_5ctypeIcEEEERKT_RKNS_6localeE, symObjAddr: 0x211FC0, symBinAddr: 0x100214884, symSize: 0x2C }
  - { offsetInCU: 0x1F913D, offset: 0x1F913D, size: 0x8, addend: 0x0, symName: __ZNSt3__1neB8ue170006ERKNS_15__tree_iteratorINS_12__value_typeIiNS_6vectorIdNS_9allocatorIdEEEEEEPNS_11__tree_nodeIS6_PvEElEESD_, symObjAddr: 0x212EAC, symBinAddr: 0x100215770, symSize: 0x34 }
  - { offsetInCU: 0x1F917A, offset: 0x1F917A, size: 0x8, addend: 0x0, symName: __ZNSt3__1eqB8ue170006ERKNS_15__tree_iteratorINS_12__value_typeIiNS_6vectorIdNS_9allocatorIdEEEEEEPNS_11__tree_nodeIS6_PvEElEESD_, symObjAddr: 0x212EE0, symBinAddr: 0x1002157A4, symSize: 0xB8 }
  - { offsetInCU: 0x1F91B7, offset: 0x1F91B7, size: 0x8, addend: 0x0, symName: __ZNSt3__116__tree_next_iterB8ue170006IPNS_15__tree_end_nodeIPNS_16__tree_node_baseIPvEEEES5_EET_T0_, symObjAddr: 0x213040, symBinAddr: 0x100215904, symSize: 0x134 }
  - { offsetInCU: 0x1F91F5, offset: 0x1F91F5, size: 0x8, addend: 0x0, symName: __ZNSt3__110__tree_minB8ue170006IPNS_16__tree_node_baseIPvEEEET_S5_, symObjAddr: 0x213174, symBinAddr: 0x100215A38, symSize: 0xC4 }
  - { offsetInCU: 0x1FA409, offset: 0x1FA409, size: 0x8, addend: 0x0, symName: __ZSt28__throw_bad_array_new_lengthB8ue170006v, symObjAddr: 0xC6C0, symBinAddr: 0x10000EF84, symSize: 0x38 }
  - { offsetInCU: 0x1FA465, offset: 0x1FA465, size: 0x8, addend: 0x0, symName: __Z12generateDataiiPFfRKN5Eigen6MatrixIfLin1ELi1ELi0ELin1ELi1EEEEff, symObjAddr: 0x32C, symBinAddr: 0x100002BF0, symSize: 0xA74 }
  - { offsetInCU: 0x1FA5D3, offset: 0x1FA5D3, size: 0x8, addend: 0x0, symName: _.str, symObjAddr: 0x219B20, symBinAddr: 0x100228E60, symSize: 0x0 }
  - { offsetInCU: 0x1FA5FF, offset: 0x1FA5FF, size: 0x8, addend: 0x0, symName: __ZN5Board15expression_dictE, symObjAddr: 0x21C660, symBinAddr: 0x1002D0000, symSize: 0x0 }
  - { offsetInCU: 0x203E40, offset: 0x203E40, size: 0x8, addend: 0x0, symName: __ZN5Board12__input_varsE, symObjAddr: 0x21C690, symBinAddr: 0x1002D0030, symSize: 0x0 }
  - { offsetInCU: 0x203E54, offset: 0x203E54, size: 0x8, addend: 0x0, symName: __ZN5Board17__unary_operatorsE, symObjAddr: 0x21C6B0, symBinAddr: 0x1002D0050, symSize: 0x0 }
  - { offsetInCU: 0x203E68, offset: 0x203E68, size: 0x8, addend: 0x0, symName: __ZN5Board18__binary_operatorsE, symObjAddr: 0x21C6D0, symBinAddr: 0x1002D0070, symSize: 0x0 }
  - { offsetInCU: 0x203E7C, offset: 0x203E7C, size: 0x8, addend: 0x0, symName: __ZN5Board11__operatorsE, symObjAddr: 0x21C6F0, symBinAddr: 0x1002D0090, symSize: 0x0 }
  - { offsetInCU: 0x203E90, offset: 0x203E90, size: 0x8, addend: 0x0, symName: __ZN5Board14__other_tokensE, symObjAddr: 0x21C710, symBinAddr: 0x1002D00B0, symSize: 0x0 }
  - { offsetInCU: 0x203EA4, offset: 0x203EA4, size: 0x8, addend: 0x0, symName: __ZN5Board8__tokensE, symObjAddr: 0x21C730, symBinAddr: 0x1002D00D0, symSize: 0x0 }
  - { offsetInCU: 0x203EB8, offset: 0x203EB8, size: 0x8, addend: 0x0, symName: __ZN5Board14__tokens_floatE, symObjAddr: 0x21C750, symBinAddr: 0x1002D00F0, symSize: 0x0 }
  - { offsetInCU: 0x203ECC, offset: 0x203ECC, size: 0x8, addend: 0x0, symName: __ZN5Board4dataE, symObjAddr: 0x21C770, symBinAddr: 0x1002D0110, symSize: 0x0 }
  - { offsetInCU: 0x203EE0, offset: 0x203EE0, size: 0x8, addend: 0x0, symName: __ZN5Board17__operators_floatE, symObjAddr: 0x21C7E0, symBinAddr: 0x1002D0180, symSize: 0x0 }
  - { offsetInCU: 0x203EF4, offset: 0x203EF4, size: 0x8, addend: 0x0, symName: __ZN5Board23__unary_operators_floatE, symObjAddr: 0x21C800, symBinAddr: 0x1002D01A0, symSize: 0x0 }
  - { offsetInCU: 0x203F08, offset: 0x203F08, size: 0x8, addend: 0x0, symName: __ZN5Board24__binary_operators_floatE, symObjAddr: 0x21C820, symBinAddr: 0x1002D01C0, symSize: 0x0 }
  - { offsetInCU: 0x203F1C, offset: 0x203F1C, size: 0x8, addend: 0x0, symName: __ZN5Board18__input_vars_floatE, symObjAddr: 0x21C840, symBinAddr: 0x1002D01E0, symSize: 0x0 }
  - { offsetInCU: 0x203F30, offset: 0x203F30, size: 0x8, addend: 0x0, symName: __ZN5Board20__other_tokens_floatE, symObjAddr: 0x21C860, symBinAddr: 0x1002D0200, symSize: 0x0 }
  - { offsetInCU: 0x203F44, offset: 0x203F44, size: 0x8, addend: 0x0, symName: __ZN5Board13__tokens_dictE, symObjAddr: 0x21C880, symBinAddr: 0x1002D0220, symSize: 0x0 }
  - { offsetInCU: 0x203F58, offset: 0x203F58, size: 0x8, addend: 0x0, symName: __ZN5Board17__tokens_inv_dictE, symObjAddr: 0x21C8B0, symBinAddr: 0x1002D0250, symSize: 0x0 }
  - { offsetInCU: 0x203F6C, offset: 0x203F6C, size: 0x8, addend: 0x0, symName: __ZN5Board29una_bin_leaf_legal_moves_dictE, symObjAddr: 0x21C8E0, symBinAddr: 0x1002D0280, symSize: 0x0 }
  - { offsetInCU: 0x203F80, offset: 0x203F80, size: 0x8, addend: 0x0, symName: __ZN5Board13thread_lockerE, symObjAddr: 0x21C910, symBinAddr: 0x1002D02B0, symSize: 0x0 }
  - { offsetInCU: 0x203F97, offset: 0x203F97, size: 0x8, addend: 0x0, symName: _.str.21, symObjAddr: 0x219B80, symBinAddr: 0x100228EC0, symSize: 0x0 }
  - { offsetInCU: 0x203FB8, offset: 0x203FB8, size: 0x8, addend: 0x0, symName: _.str.22, symObjAddr: 0x219BC0, symBinAddr: 0x100228F00, symSize: 0x0 }
  - { offsetInCU: 0x203FD9, offset: 0x203FD9, size: 0x8, addend: 0x0, symName: _.str.23, symObjAddr: 0x219C00, symBinAddr: 0x100228F40, symSize: 0x0 }
  - { offsetInCU: 0x203FFA, offset: 0x203FFA, size: 0x8, addend: 0x0, symName: _.str.24, symObjAddr: 0x219C20, symBinAddr: 0x100228F60, symSize: 0x0 }
  - { offsetInCU: 0x20401B, offset: 0x20401B, size: 0x8, addend: 0x0, symName: _.str.25, symObjAddr: 0x219C40, symBinAddr: 0x100228F80, symSize: 0x0 }
  - { offsetInCU: 0x20403C, offset: 0x20403C, size: 0x8, addend: 0x0, symName: _.str.26, symObjAddr: 0x219C60, symBinAddr: 0x100228FA0, symSize: 0x0 }
  - { offsetInCU: 0x2040AA, offset: 0x2040AA, size: 0x8, addend: 0x0, symName: _.str.31, symObjAddr: 0x219CC0, symBinAddr: 0x100229000, symSize: 0x0 }
  - { offsetInCU: 0x2040CB, offset: 0x2040CB, size: 0x8, addend: 0x0, symName: _.str.32, symObjAddr: 0x219CE0, symBinAddr: 0x100229020, symSize: 0x0 }
  - { offsetInCU: 0x2040E9, offset: 0x2040E9, size: 0x8, addend: 0x0, symName: __ZN5Board8fit_timeE, symObjAddr: 0x21C958, symBinAddr: 0x1002D02F8, symSize: 0x0 }
  - { offsetInCU: 0x204100, offset: 0x204100, size: 0x8, addend: 0x0, symName: _.str.33, symObjAddr: 0x219D00, symBinAddr: 0x100229040, symSize: 0x0 }
  - { offsetInCU: 0x204121, offset: 0x204121, size: 0x8, addend: 0x0, symName: ___func__._ZN5Eigen15PlainObjectBaseINS_6MatrixIfLin1ELin1ELi0ELin1ELin1EEEE6resizeEll, symObjAddr: 0x219D60, symBinAddr: 0x1002290A0, symSize: 0x0 }
  - { offsetInCU: 0x204134, offset: 0x204134, size: 0x8, addend: 0x0, symName: _.str.34, symObjAddr: 0x219D80, symBinAddr: 0x1002290C0, symSize: 0x0 }
  - { offsetInCU: 0x204155, offset: 0x204155, size: 0x8, addend: 0x0, symName: _.str.35, symObjAddr: 0x219DC0, symBinAddr: 0x100229100, symSize: 0x0 }
  - { offsetInCU: 0x204176, offset: 0x204176, size: 0x8, addend: 0x0, symName: _.str.36, symObjAddr: 0x219FC0, symBinAddr: 0x100229300, symSize: 0x0 }
  - { offsetInCU: 0x204196, offset: 0x204196, size: 0x8, addend: 0x0, symName: ___func__._ZN5Eigen8internal14aligned_mallocEm, symObjAddr: 0x21A080, symBinAddr: 0x1002293C0, symSize: 0x0 }
  - { offsetInCU: 0x2041B6, offset: 0x2041B6, size: 0x8, addend: 0x0, symName: _.str.37, symObjAddr: 0x21A0A0, symBinAddr: 0x1002293E0, symSize: 0x0 }
  - { offsetInCU: 0x2041C8, offset: 0x2041C8, size: 0x8, addend: 0x0, symName: _.str.38, symObjAddr: 0x21A0C0, symBinAddr: 0x100229400, symSize: 0x0 }
  - { offsetInCU: 0x2041E9, offset: 0x2041E9, size: 0x8, addend: 0x0, symName: ___func__._ZN5Eigen15DenseCoeffsBaseINS_6MatrixIfLin1ELin1ELi0ELin1ELin1EEELi1EEclEll, symObjAddr: 0x21A1A0, symBinAddr: 0x1002294E0, symSize: 0x0 }
  - { offsetInCU: 0x20420A, offset: 0x20420A, size: 0x8, addend: 0x0, symName: _.str.39, symObjAddr: 0x21A1C0, symBinAddr: 0x100229500, symSize: 0x0 }
  - { offsetInCU: 0x20421D, offset: 0x20421D, size: 0x8, addend: 0x0, symName: _.str.40, symObjAddr: 0x21A200, symBinAddr: 0x100229540, symSize: 0x0 }
  - { offsetInCU: 0x20423E, offset: 0x20423E, size: 0x8, addend: 0x0, symName: _.str.41, symObjAddr: 0x21A260, symBinAddr: 0x1002295A0, symSize: 0x0 }
  - { offsetInCU: 0x20425F, offset: 0x20425F, size: 0x8, addend: 0x0, symName: _.str.42, symObjAddr: 0x21A320, symBinAddr: 0x100229660, symSize: 0x0 }
  - { offsetInCU: 0x20427F, offset: 0x20427F, size: 0x8, addend: 0x0, symName: ___func__._ZN5Eigen13CwiseBinaryOpINS_8internal20scalar_difference_opIffEEKNS_6MatrixIfLin1ELi1ELi0ELin1ELi1EEES6_EC2ERS6_S8_RKS3_, symObjAddr: 0x21A360, symBinAddr: 0x1002296A0, symSize: 0x0 }
  - { offsetInCU: 0x204291, offset: 0x204291, size: 0x8, addend: 0x0, symName: _.str.43, symObjAddr: 0x21A380, symBinAddr: 0x1002296C0, symSize: 0x0 }
  - { offsetInCU: 0x2042B1, offset: 0x2042B1, size: 0x8, addend: 0x0, symName: _.str.44, symObjAddr: 0x21A3A0, symBinAddr: 0x1002296E0, symSize: 0x0 }
  - { offsetInCU: 0x2042D2, offset: 0x2042D2, size: 0x8, addend: 0x0, symName: _.str.45, symObjAddr: 0x21A400, symBinAddr: 0x100229740, symSize: 0x0 }
  - { offsetInCU: 0x2042F3, offset: 0x2042F3, size: 0x8, addend: 0x0, symName: ___func__._ZNK5Eigen9DenseBaseINS_12CwiseUnaryOpINS_8internal14scalar_abs2_opIfEEKNS_13CwiseBinaryOpINS2_20scalar_difference_opIffEEKNS_6MatrixIfLin1ELi1ELi0ELin1ELi1EEESA_EEEEE5reduxINS2_13scalar_sum_opIffEEEEfRKT_, symObjAddr: 0x21A440, symBinAddr: 0x100229780, symSize: 0x0 }
  - { offsetInCU: 0x204314, offset: 0x204314, size: 0x8, addend: 0x0, symName: _.str.46, symObjAddr: 0x21A460, symBinAddr: 0x1002297A0, symSize: 0x0 }
  - { offsetInCU: 0x204335, offset: 0x204335, size: 0x8, addend: 0x0, symName: _.str.47, symObjAddr: 0x21A480, symBinAddr: 0x1002297C0, symSize: 0x0 }
  - { offsetInCU: 0x204355, offset: 0x204355, size: 0x8, addend: 0x0, symName: ___func__._ZNK5Eigen15DenseCoeffsBaseINS_6MatrixIfLin1ELi1ELi0ELin1ELi1EEELi0EEixEl, symObjAddr: 0x21A500, symBinAddr: 0x100229840, symSize: 0x0 }
  - { offsetInCU: 0x204368, offset: 0x204368, size: 0x8, addend: 0x0, symName: _.str.48, symObjAddr: 0x21A520, symBinAddr: 0x100229860, symSize: 0x0 }
  - { offsetInCU: 0x20437F, offset: 0x20437F, size: 0x8, addend: 0x0, symName: __Z12RandomSearchRKN5Eigen6MatrixIfLin1ELin1ELi0ELin1ELin1EEEiidiPKcij, symObjAddr: 0x2130, symBinAddr: 0x1000049F4, symSize: 0x1684 }
  - { offsetInCU: 0x20480E, offset: 0x20480E, size: 0x8, addend: 0x0, symName: '__ZZ12RandomSearchRKN5Eigen6MatrixIfLin1ELin1ELi0ELin1ELin1EEEiidiPKcijENK3$_1clEv', symObjAddr: 0x30B68, symBinAddr: 0x10003342C, symSize: 0xAA4 }
  - { offsetInCU: 0x2048E7, offset: 0x2048E7, size: 0x8, addend: 0x0, symName: _.str.49, symObjAddr: 0x21A560, symBinAddr: 0x1002298A0, symSize: 0x0 }
  - { offsetInCU: 0x204907, offset: 0x204907, size: 0x8, addend: 0x0, symName: _.str.50, symObjAddr: 0x21A5C0, symBinAddr: 0x100229900, symSize: 0x0 }
  - { offsetInCU: 0x204927, offset: 0x204927, size: 0x8, addend: 0x0, symName: _.str.51, symObjAddr: 0x21A5E0, symBinAddr: 0x100229920, symSize: 0x0 }
  - { offsetInCU: 0x204939, offset: 0x204939, size: 0x8, addend: 0x0, symName: _.str.52, symObjAddr: 0x21A600, symBinAddr: 0x100229940, symSize: 0x0 }
  - { offsetInCU: 0x20494B, offset: 0x20494B, size: 0x8, addend: 0x0, symName: _.str.53, symObjAddr: 0x21A620, symBinAddr: 0x100229960, symSize: 0x0 }
  - { offsetInCU: 0x20495D, offset: 0x20495D, size: 0x8, addend: 0x0, symName: _.str.54, symObjAddr: 0x21A640, symBinAddr: 0x100229980, symSize: 0x0 }
  - { offsetInCU: 0x20496F, offset: 0x20496F, size: 0x8, addend: 0x0, symName: _.str.55, symObjAddr: 0x21A660, symBinAddr: 0x1002299A0, symSize: 0x0 }
  - { offsetInCU: 0x204981, offset: 0x204981, size: 0x8, addend: 0x0, symName: _.str.56, symObjAddr: 0x21A680, symBinAddr: 0x1002299C0, symSize: 0x0 }
  - { offsetInCU: 0x204993, offset: 0x204993, size: 0x8, addend: 0x0, symName: _.str.57, symObjAddr: 0x21A6A0, symBinAddr: 0x1002299E0, symSize: 0x0 }
  - { offsetInCU: 0x2049A6, offset: 0x2049A6, size: 0x8, addend: 0x0, symName: ___func__._ZN5Eigen8internal17resize_if_allowedINS_6MatrixIfLin1ELin1ELi0ELin1ELin1EEES3_ffEEvRT_RKT0_RKNS0_9assign_opIT1_T2_EE, symObjAddr: 0x21A6C0, symBinAddr: 0x100229A00, symSize: 0x0 }
  - { offsetInCU: 0x2049B9, offset: 0x2049B9, size: 0x8, addend: 0x0, symName: _.str.58, symObjAddr: 0x21A700, symBinAddr: 0x100229A40, symSize: 0x0 }
  - { offsetInCU: 0x2049CC, offset: 0x2049CC, size: 0x8, addend: 0x0, symName: _.str.59, symObjAddr: 0x21A740, symBinAddr: 0x100229A80, symSize: 0x0 }
  - { offsetInCU: 0x2049EA, offset: 0x2049EA, size: 0x8, addend: 0x0, symName: ___func__._ZN5Eigen5BlockINS_6MatrixIfLin1ELin1ELi0ELin1ELin1EEELi1ELin1ELb0EEC2ERS2_l, symObjAddr: 0x21A7A0, symBinAddr: 0x100229AE0, symSize: 0x0 }
  - { offsetInCU: 0x2049FC, offset: 0x2049FC, size: 0x8, addend: 0x0, symName: _.str.60, symObjAddr: 0x21A7C0, symBinAddr: 0x100229B00, symSize: 0x0 }
  - { offsetInCU: 0x204A0E, offset: 0x204A0E, size: 0x8, addend: 0x0, symName: _.str.61, symObjAddr: 0x21A7E0, symBinAddr: 0x100229B20, symSize: 0x0 }
  - { offsetInCU: 0x204A2E, offset: 0x204A2E, size: 0x8, addend: 0x0, symName: ___func__._ZN5Eigen7MapBaseINS_5BlockINS_6MatrixIfLin1ELin1ELi0ELin1ELin1EEELi1ELin1ELb0EEELi0EEC2EPfll, symObjAddr: 0x21A8C0, symBinAddr: 0x100229C00, symSize: 0x0 }
  - { offsetInCU: 0x204A40, offset: 0x204A40, size: 0x8, addend: 0x0, symName: _.str.62, symObjAddr: 0x21A8E0, symBinAddr: 0x100229C20, symSize: 0x0 }
  - { offsetInCU: 0x204A52, offset: 0x204A52, size: 0x8, addend: 0x0, symName: _.str.63, symObjAddr: 0x21A900, symBinAddr: 0x100229C40, symSize: 0x0 }
  - { offsetInCU: 0x204A72, offset: 0x204A72, size: 0x8, addend: 0x0, symName: ___func__._ZN5Eigen8internal19variable_if_dynamicIlLi1EEC2El, symObjAddr: 0x21A9E0, symBinAddr: 0x100229D20, symSize: 0x0 }
  - { offsetInCU: 0x204A92, offset: 0x204A92, size: 0x8, addend: 0x0, symName: _.str.64, symObjAddr: 0x21AA20, symBinAddr: 0x100229D60, symSize: 0x0 }
  - { offsetInCU: 0x204AB2, offset: 0x204AB2, size: 0x8, addend: 0x0, symName: _.str.65, symObjAddr: 0x21AA40, symBinAddr: 0x100229D80, symSize: 0x0 }
  - { offsetInCU: 0x204AC5, offset: 0x204AC5, size: 0x8, addend: 0x0, symName: _.str.66, symObjAddr: 0x21AA60, symBinAddr: 0x100229DA0, symSize: 0x0 }
  - { offsetInCU: 0x204AD8, offset: 0x204AD8, size: 0x8, addend: 0x0, symName: ___func__._ZN5Eigen8internal15block_evaluatorINS_6MatrixIfLin1ELin1ELi0ELin1ELin1EEELi1ELin1ELb0ELb1EEC2ERKNS_5BlockIS3_Li1ELin1ELb0EEE, symObjAddr: 0x21AAA0, symBinAddr: 0x100229DE0, symSize: 0x0 }
  - { offsetInCU: 0x204AEB, offset: 0x204AEB, size: 0x8, addend: 0x0, symName: _.str.67, symObjAddr: 0x21AAC0, symBinAddr: 0x100229E00, symSize: 0x0 }
  - { offsetInCU: 0x204B0C, offset: 0x204B0C, size: 0x8, addend: 0x0, symName: _.str.68, symObjAddr: 0x21AB00, symBinAddr: 0x100229E40, symSize: 0x0 }
  - { offsetInCU: 0x204B2A, offset: 0x204B2A, size: 0x8, addend: 0x0, symName: __ZN5Board14__num_featuresE, symObjAddr: 0x21C968, symBinAddr: 0x1002D0308, symSize: 0x0 }
  - { offsetInCU: 0x204B3E, offset: 0x204B3E, size: 0x8, addend: 0x0, symName: __ZN5Board11action_sizeE, symObjAddr: 0x21C96C, symBinAddr: 0x1002D030C, symSize: 0x0 }
  - { offsetInCU: 0x204B52, offset: 0x204B52, size: 0x8, addend: 0x0, symName: __ZN5Board19initialization_flagE, symObjAddr: 0x21C960, symBinAddr: 0x1002D0300, symSize: 0x0 }
  - { offsetInCU: 0x204B6F, offset: 0x204B6F, size: 0x8, addend: 0x0, symName: _.str.69, symObjAddr: 0x21ABE0, symBinAddr: 0x100229F20, symSize: 0x0 }
  - { offsetInCU: 0x204B81, offset: 0x204B81, size: 0x8, addend: 0x0, symName: ___func__._ZN5Eigen14CwiseNullaryOpINS_8internal18scalar_constant_opIfEENS_6MatrixIfLin1ELi1ELi0ELin1ELi1EEEEC2EllRKS3_, symObjAddr: 0x21AC00, symBinAddr: 0x100229F40, symSize: 0x0 }
  - { offsetInCU: 0x204B93, offset: 0x204B93, size: 0x8, addend: 0x0, symName: _.str.70, symObjAddr: 0x21AC20, symBinAddr: 0x100229F60, symSize: 0x0 }
  - { offsetInCU: 0x204BA5, offset: 0x204BA5, size: 0x8, addend: 0x0, symName: _.str.71, symObjAddr: 0x21AC60, symBinAddr: 0x100229FA0, symSize: 0x0 }
  - { offsetInCU: 0x204BC6, offset: 0x204BC6, size: 0x8, addend: 0x0, symName: _.str.72, symObjAddr: 0x21AD20, symBinAddr: 0x10022A060, symSize: 0x0 }
  - { offsetInCU: 0x204BE7, offset: 0x204BE7, size: 0x8, addend: 0x0, symName: _.str.73, symObjAddr: 0x21AD40, symBinAddr: 0x10022A080, symSize: 0x0 }
  - { offsetInCU: 0x204BFA, offset: 0x204BFA, size: 0x8, addend: 0x0, symName: _.str.74, symObjAddr: 0x21AD60, symBinAddr: 0x10022A0A0, symSize: 0x0 }
  - { offsetInCU: 0x204C1B, offset: 0x204C1B, size: 0x8, addend: 0x0, symName: _.str.75, symObjAddr: 0x21AD80, symBinAddr: 0x10022A0C0, symSize: 0x0 }
  - { offsetInCU: 0x204C2E, offset: 0x204C2E, size: 0x8, addend: 0x0, symName: _.str.76, symObjAddr: 0x21ADA0, symBinAddr: 0x10022A0E0, symSize: 0x0 }
  - { offsetInCU: 0x204C41, offset: 0x204C41, size: 0x8, addend: 0x0, symName: _.str.77, symObjAddr: 0x21ADC0, symBinAddr: 0x10022A100, symSize: 0x0 }
  - { offsetInCU: 0x204C54, offset: 0x204C54, size: 0x8, addend: 0x0, symName: _.str.78, symObjAddr: 0x21ADE0, symBinAddr: 0x10022A120, symSize: 0x0 }
  - { offsetInCU: 0x204C67, offset: 0x204C67, size: 0x8, addend: 0x0, symName: _.str.79, symObjAddr: 0x21AE00, symBinAddr: 0x10022A140, symSize: 0x0 }
  - { offsetInCU: 0x204C88, offset: 0x204C88, size: 0x8, addend: 0x0, symName: _.str.80, symObjAddr: 0x21AE20, symBinAddr: 0x10022A160, symSize: 0x0 }
  - { offsetInCU: 0x204C9B, offset: 0x204C9B, size: 0x8, addend: 0x0, symName: _.str.81, symObjAddr: 0x21AE40, symBinAddr: 0x10022A180, symSize: 0x0 }
  - { offsetInCU: 0x204CAE, offset: 0x204CAE, size: 0x8, addend: 0x0, symName: _.str.82, symObjAddr: 0x21AE60, symBinAddr: 0x10022A1A0, symSize: 0x0 }
  - { offsetInCU: 0x204CC1, offset: 0x204CC1, size: 0x8, addend: 0x0, symName: _.str.83, symObjAddr: 0x21AE80, symBinAddr: 0x10022A1C0, symSize: 0x0 }
  - { offsetInCU: 0x204CDA, offset: 0x204CDA, size: 0x8, addend: 0x0, symName: ___func__._ZN5Eigen15PlainObjectBaseINS_6MatrixIfLin1ELi1ELi0ELin1ELi1EEEE10resizeLikeINS_13CwiseBinaryOpINS_8internal17scalar_product_opIffEEKNS_14CwiseNullaryOpINS6_18scalar_constant_opIfEES2_EEKNS9_ISB_KS2_EEEEEEvRKNS_9EigenBaseIT_EE, symObjAddr: 0x21AEA0, symBinAddr: 0x10022A1E0, symSize: 0x0 }
  - { offsetInCU: 0x204CED, offset: 0x204CED, size: 0x8, addend: 0x0, symName: _.str.84, symObjAddr: 0x21AEC0, symBinAddr: 0x10022A200, symSize: 0x0 }
  - { offsetInCU: 0x204D2C, offset: 0x204D2C, size: 0x8, addend: 0x0, symName: _.str.85, symObjAddr: 0x21AF20, symBinAddr: 0x10022A260, symSize: 0x0 }
  - { offsetInCU: 0x204D4C, offset: 0x204D4C, size: 0x8, addend: 0x0, symName: ___func__._ZN5Eigen18LevenbergMarquardtIR5BoardfE12minimizeInitERNS_6MatrixIfLin1ELi1ELi0ELin1ELi1EEE, symObjAddr: 0x21AFA0, symBinAddr: 0x10022A2E0, symSize: 0x0 }
  - { offsetInCU: 0x204D5E, offset: 0x204D5E, size: 0x8, addend: 0x0, symName: _.str.86, symObjAddr: 0x21AFC0, symBinAddr: 0x10022A300, symSize: 0x0 }
  - { offsetInCU: 0x204D7E, offset: 0x204D7E, size: 0x8, addend: 0x0, symName: _.str.87, symObjAddr: 0x21B000, symBinAddr: 0x10022A340, symSize: 0x0 }
  - { offsetInCU: 0x204D9E, offset: 0x204D9E, size: 0x8, addend: 0x0, symName: _.str.88, symObjAddr: 0x21B0A0, symBinAddr: 0x10022A3E0, symSize: 0x0 }
  - { offsetInCU: 0x204DBE, offset: 0x204DBE, size: 0x8, addend: 0x0, symName: _.str.89, symObjAddr: 0x21B140, symBinAddr: 0x10022A480, symSize: 0x0 }
  - { offsetInCU: 0x204DDE, offset: 0x204DDE, size: 0x8, addend: 0x0, symName: ___func__._ZNK5Eigen7MapBaseINS_3RefIKNS_6MatrixIfLin1ELi1ELi0ELi4096ELi1EEELi16ENS_11InnerStrideILi1EEEEELi0EE11checkSanityIS7_EEvNS_8internal9enable_ifIXgtsr8internal6traitsIT_EE9AlignmentLi0EEPvE4typeE, symObjAddr: 0x21B200, symBinAddr: 0x10022A540, symSize: 0x0 }
  - { offsetInCU: 0x204DF0, offset: 0x204DF0, size: 0x8, addend: 0x0, symName: _.str.90, symObjAddr: 0x21B220, symBinAddr: 0x10022A560, symSize: 0x0 }
  - { offsetInCU: 0x204E10, offset: 0x204E10, size: 0x8, addend: 0x0, symName: _.str.91, symObjAddr: 0x21B320, symBinAddr: 0x10022A660, symSize: 0x0 }
  - { offsetInCU: 0x204E30, offset: 0x204E30, size: 0x8, addend: 0x0, symName: ___func__._ZN5Eigen8internal11plain_arrayIfLi4096ELi0ELi16EEC2Ev, symObjAddr: 0x21B3E0, symBinAddr: 0x10022A720, symSize: 0x0 }
  - { offsetInCU: 0x204E42, offset: 0x204E42, size: 0x8, addend: 0x0, symName: _.str.92, symObjAddr: 0x21B400, symBinAddr: 0x10022A740, symSize: 0x0 }
  - { offsetInCU: 0x204E54, offset: 0x204E54, size: 0x8, addend: 0x0, symName: _.str.93, symObjAddr: 0x21B420, symBinAddr: 0x10022A760, symSize: 0x0 }
  - { offsetInCU: 0x204E74, offset: 0x204E74, size: 0x8, addend: 0x0, symName: ___func__._ZN5Eigen7RefBaseINS_3RefIKNS_6MatrixIfLin1ELi1ELi0ELi4096ELi1EEELi16ENS_11InnerStrideILi1EEEEEE9constructIS3_EEbRT_, symObjAddr: 0x21B500, symBinAddr: 0x10022A840, symSize: 0x0 }
  - { offsetInCU: 0x204E86, offset: 0x204E86, size: 0x8, addend: 0x0, symName: _.str.94, symObjAddr: 0x21B520, symBinAddr: 0x10022A860, symSize: 0x0 }
  - { offsetInCU: 0x204E98, offset: 0x204E98, size: 0x8, addend: 0x0, symName: _.str.95, symObjAddr: 0x21B540, symBinAddr: 0x10022A880, symSize: 0x0 }
  - { offsetInCU: 0x204EAA, offset: 0x204EAA, size: 0x8, addend: 0x0, symName: _.str.96, symObjAddr: 0x21B5A0, symBinAddr: 0x10022A8E0, symSize: 0x0 }
  - { offsetInCU: 0x204ECA, offset: 0x204ECA, size: 0x8, addend: 0x0, symName: ___func__._ZN5Eigen18LevenbergMarquardtIR5BoardfE15minimizeOneStepERNS_6MatrixIfLin1ELi1ELi0ELin1ELi1EEE, symObjAddr: 0x21B620, symBinAddr: 0x10022A960, symSize: 0x0 }
  - { offsetInCU: 0x204EDC, offset: 0x204EDC, size: 0x8, addend: 0x0, symName: _.str.97, symObjAddr: 0x21B640, symBinAddr: 0x10022A980, symSize: 0x0 }
  - { offsetInCU: 0x204EEF, offset: 0x204EEF, size: 0x8, addend: 0x0, symName: _.str.98, symObjAddr: 0x21B660, symBinAddr: 0x10022A9A0, symSize: 0x0 }
  - { offsetInCU: 0x204F10, offset: 0x204F10, size: 0x8, addend: 0x0, symName: _.str.99, symObjAddr: 0x21B6C0, symBinAddr: 0x10022AA00, symSize: 0x0 }
  - { offsetInCU: 0x204F23, offset: 0x204F23, size: 0x8, addend: 0x0, symName: _.str.100, symObjAddr: 0x21B6E0, symBinAddr: 0x10022AA20, symSize: 0x0 }
  - { offsetInCU: 0x204F4A, offset: 0x204F4A, size: 0x8, addend: 0x0, symName: ___func__._ZN5Eigen19ColPivHouseholderQRINS_6MatrixIfLin1ELin1ELi0ELin1ELin1EEEE14computeInPlaceEv, symObjAddr: 0x21B780, symBinAddr: 0x10022AAC0, symSize: 0x0 }
  - { offsetInCU: 0x204F5D, offset: 0x204F5D, size: 0x8, addend: 0x0, symName: _.str.101, symObjAddr: 0x21B7A0, symBinAddr: 0x10022AAE0, symSize: 0x0 }
  - { offsetInCU: 0x204F70, offset: 0x204F70, size: 0x8, addend: 0x0, symName: _.str.102, symObjAddr: 0x21B7E0, symBinAddr: 0x10022AB20, symSize: 0x0 }
  - { offsetInCU: 0x204F83, offset: 0x204F83, size: 0x8, addend: 0x0, symName: ___func__._ZNK5Eigen9DenseBaseINS_5BlockINS_6MatrixIfLi1ELin1ELi1ELi1ELin1EEELi1ELin1ELb0EEEE8maxCoeffILi0ElEEfPT0_, symObjAddr: 0x21B840, symBinAddr: 0x10022AB80, symSize: 0x0 }
  - { offsetInCU: 0x204F96, offset: 0x204F96, size: 0x8, addend: 0x0, symName: _.str.103, symObjAddr: 0x21B860, symBinAddr: 0x10022ABA0, symSize: 0x0 }
  - { offsetInCU: 0x204FA9, offset: 0x204FA9, size: 0x8, addend: 0x0, symName: ___func__._ZN5Eigen9DenseBaseINS_5BlockINS_6MatrixIfLin1ELin1ELi0ELin1ELin1EEELin1ELi1ELb1EEEE4swapIS4_EEvRKNS0_IT_EE, symObjAddr: 0x21B880, symBinAddr: 0x10022ABC0, symSize: 0x0 }
  - { offsetInCU: 0x204FBC, offset: 0x204FBC, size: 0x8, addend: 0x0, symName: _.str.104, symObjAddr: 0x21B8A0, symBinAddr: 0x10022ABE0, symSize: 0x0 }
  - { offsetInCU: 0x204FDD, offset: 0x204FDD, size: 0x8, addend: 0x0, symName: _.str.105, symObjAddr: 0x21B900, symBinAddr: 0x10022AC40, symSize: 0x0 }
  - { offsetInCU: 0x204FEF, offset: 0x204FEF, size: 0x8, addend: 0x0, symName: _.str.106, symObjAddr: 0x21B960, symBinAddr: 0x10022ACA0, symSize: 0x0 }
  - { offsetInCU: 0x205001, offset: 0x205001, size: 0x8, addend: 0x0, symName: _.str.107, symObjAddr: 0x21B980, symBinAddr: 0x10022ACC0, symSize: 0x0 }
  - { offsetInCU: 0x205021, offset: 0x205021, size: 0x8, addend: 0x0, symName: _.str.108, symObjAddr: 0x21BA00, symBinAddr: 0x10022AD40, symSize: 0x0 }
  - { offsetInCU: 0x205041, offset: 0x205041, size: 0x8, addend: 0x0, symName: ___func__._ZN5Eigen7ProductINS_9TransposeIKNS_5BlockINS2_INS_6MatrixIfLin1ELin1ELi0ELin1ELin1EEELin1ELi1ELb1EEELin1ELi1ELb0EEEEENS2_INS2_IS4_Lin1ELin1ELb0EEELin1ELin1ELb0EEELi0EEC2ERKS8_RKSA_, symObjAddr: 0x21BA80, symBinAddr: 0x10022ADC0, symSize: 0x0 }
  - { offsetInCU: 0x205053, offset: 0x205053, size: 0x8, addend: 0x0, symName: _.str.109, symObjAddr: 0x21BAA0, symBinAddr: 0x10022ADE0, symSize: 0x0 }
  - { offsetInCU: 0x205065, offset: 0x205065, size: 0x8, addend: 0x0, symName: _.str.110, symObjAddr: 0x21BAC0, symBinAddr: 0x10022AE00, symSize: 0x0 }
  - { offsetInCU: 0x205085, offset: 0x205085, size: 0x8, addend: 0x0, symName: ___func__._ZNK5Eigen10MatrixBaseINS_5BlockIKNS_9TransposeIKNS1_INS1_INS_6MatrixIfLin1ELin1ELi0ELin1ELin1EEELin1ELi1ELb1EEELin1ELi1ELb0EEEEELi1ELin1ELb1EEEE3dotINS1_IKNS1_INS1_IS4_Lin1ELin1ELb0EEELin1ELin1ELb0EEELin1ELi1ELb1EEEEENS_20ScalarBinaryOpTraitsIfNS_8internal6traitsIT_E6ScalarENSI_17scalar_product_opIfSM_EEE10ReturnTypeERKNS0_ISK_EE, symObjAddr: 0x21BB80, symBinAddr: 0x10022AEC0, symSize: 0x0 }
  - { offsetInCU: 0x205097, offset: 0x205097, size: 0x8, addend: 0x0, symName: _.str.111, symObjAddr: 0x21BBA0, symBinAddr: 0x10022AEE0, symSize: 0x0 }
  - { offsetInCU: 0x2050A9, offset: 0x2050A9, size: 0x8, addend: 0x0, symName: _.str.112, symObjAddr: 0x21BBC0, symBinAddr: 0x10022AF00, symSize: 0x0 }
  - { offsetInCU: 0x2050BB, offset: 0x2050BB, size: 0x8, addend: 0x0, symName: ___func__._ZN5Eigen8internal16blas_data_mapperIKflLi1ELi0ELi1EEC2EPS2_ll, symObjAddr: 0x21BC00, symBinAddr: 0x10022AF40, symSize: 0x0 }
  - { offsetInCU: 0x2050CD, offset: 0x2050CD, size: 0x8, addend: 0x0, symName: _.str.113, symObjAddr: 0x21BC40, symBinAddr: 0x10022AF80, symSize: 0x0 }
  - { offsetInCU: 0x2050DF, offset: 0x2050DF, size: 0x8, addend: 0x0, symName: _.str.114, symObjAddr: 0x21BC60, symBinAddr: 0x10022AFA0, symSize: 0x0 }
  - { offsetInCU: 0x2050F1, offset: 0x2050F1, size: 0x8, addend: 0x0, symName: ___func__._ZN5Eigen8internal10AssignmentINS_5BlockINS2_INS_6MatrixIfLin1ELin1ELi0ELin1ELin1EEELin1ELin1ELb0EEELin1ELin1ELb0EEENS_7ProductINS_13CwiseBinaryOpINS0_17scalar_product_opIffEEKNS_14CwiseNullaryOpINS0_18scalar_constant_opIfEEKNS3_IfLin1ELi1ELi0ELin1ELi1EEEEEKNS2_INS2_IS4_Lin1ELi1ELb1EEELin1ELi1ELb0EEEEENS_3MapINS3_IfLi1ELin1ELi1ELi1ELin1EEELi0ENS_6StrideILi0ELi0EEEEELi0EEENS0_13sub_assign_opIffEENS0_11Dense2DenseEvE3runERS6_RKSR_RKST_, symObjAddr: 0x21BC80, symBinAddr: 0x10022AFC0, symSize: 0x0 }
  - { offsetInCU: 0x205103, offset: 0x205103, size: 0x8, addend: 0x0, symName: _.str.115, symObjAddr: 0x21BCA0, symBinAddr: 0x10022AFE0, symSize: 0x0 }
  - { offsetInCU: 0x205115, offset: 0x205115, size: 0x8, addend: 0x0, symName: ___func__._ZN5Eigen15PermutationBaseINS_17PermutationMatrixILin1ELin1EiEEE28applyTranspositionOnTheRightEll, symObjAddr: 0x21BCE0, symBinAddr: 0x10022B020, symSize: 0x0 }
  - { offsetInCU: 0x205127, offset: 0x205127, size: 0x8, addend: 0x0, symName: _.str.116, symObjAddr: 0x21BD20, symBinAddr: 0x10022B060, symSize: 0x0 }
  - { offsetInCU: 0x205139, offset: 0x205139, size: 0x8, addend: 0x0, symName: _.str.117, symObjAddr: 0x21BD60, symBinAddr: 0x10022B0A0, symSize: 0x0 }
  - { offsetInCU: 0x205159, offset: 0x205159, size: 0x8, addend: 0x0, symName: _.str.118, symObjAddr: 0x21BDC0, symBinAddr: 0x10022B100, symSize: 0x0 }
  - { offsetInCU: 0x205179, offset: 0x205179, size: 0x8, addend: 0x0, symName: ___func__._ZNK5Eigen19ColPivHouseholderQRINS_6MatrixIfLin1ELin1ELi0ELin1ELin1EEEE8matrixQREv, symObjAddr: 0x21BE20, symBinAddr: 0x10022B160, symSize: 0x0 }
  - { offsetInCU: 0x20518B, offset: 0x20518B, size: 0x8, addend: 0x0, symName: _.str.119, symObjAddr: 0x21BE40, symBinAddr: 0x10022B180, symSize: 0x0 }
  - { offsetInCU: 0x2051AB, offset: 0x2051AB, size: 0x8, addend: 0x0, symName: ___func__._ZNK5Eigen19ColPivHouseholderQRINS_6MatrixIfLin1ELin1ELi0ELin1ELin1EEEE15colsPermutationEv, symObjAddr: 0x21BEA0, symBinAddr: 0x10022B1E0, symSize: 0x0 }
  - { offsetInCU: 0x2051BD, offset: 0x2051BD, size: 0x8, addend: 0x0, symName: ___func__._ZN5Eigen8internal40make_block_householder_triangular_factorINS_6MatrixIfLin1ELin1ELi1ELin1ELin1EEENS_5BlockINS2_IfLin1ELin1ELi0ELin1ELin1EEELin1ELin1ELb0EEENS_11VectorBlockIKNS2_IfLin1ELi1ELi0ELin1ELi1EEELin1EEEEEvRT_RKT0_RKT1_, symObjAddr: 0x21BEC0, symBinAddr: 0x10022B200, symSize: 0x0 }
  - { offsetInCU: 0x2051DD, offset: 0x2051DD, size: 0x8, addend: 0x0, symName: _.str.120, symObjAddr: 0x21BF20, symBinAddr: 0x10022B260, symSize: 0x0 }
  - { offsetInCU: 0x2051FD, offset: 0x2051FD, size: 0x8, addend: 0x0, symName: _.str.121, symObjAddr: 0x21BF60, symBinAddr: 0x10022B2A0, symSize: 0x0 }
  - { offsetInCU: 0x20521D, offset: 0x20521D, size: 0x8, addend: 0x0, symName: _.str.122, symObjAddr: 0x21BFE0, symBinAddr: 0x10022B320, symSize: 0x0 }
  - { offsetInCU: 0x20523D, offset: 0x20523D, size: 0x8, addend: 0x0, symName: _.str.123, symObjAddr: 0x21C020, symBinAddr: 0x10022B360, symSize: 0x0 }
  - { offsetInCU: 0x20527F, offset: 0x20527F, size: 0x8, addend: 0x0, symName: __ZN5Eigen8internal32triangular_matrix_vector_productIlLi6EfLb0EfLb0ELi1ELi0EE3runEllPKflS4_lPflRS3_, symObjAddr: 0x1439E8, symBinAddr: 0x1001462AC, symSize: 0xF84 }
  - { offsetInCU: 0x20529F, offset: 0x20529F, size: 0x8, addend: 0x0, symName: __ZZN5Eigen8internal32triangular_matrix_vector_productIlLi6EfLb0EfLb0ELi1ELi0EE3runEllPKflS4_lPflRS3_E10PanelWidth, symObjAddr: 0x21CB00, symBinAddr: 0x100228E00, symSize: 0x0 }
  - { offsetInCU: 0x2055E3, offset: 0x2055E3, size: 0x8, addend: 0x0, symName: ___func__._ZN5Eigen8DiagonalINS_6MatrixIfLi24ELi24ELi1ELi24ELi24EEELi0EEC2ERS2_l, symObjAddr: 0x21C080, symBinAddr: 0x10022B3C0, symSize: 0x0 }
  - { offsetInCU: 0x2055F5, offset: 0x2055F5, size: 0x8, addend: 0x0, symName: _.str.124, symObjAddr: 0x21C0A0, symBinAddr: 0x10022B3E0, symSize: 0x0 }
  - { offsetInCU: 0x205607, offset: 0x205607, size: 0x8, addend: 0x0, symName: _.str.125, symObjAddr: 0x21C0C0, symBinAddr: 0x10022B400, symSize: 0x0 }
  - { offsetInCU: 0x205627, offset: 0x205627, size: 0x8, addend: 0x0, symName: ___func__._ZN5Eigen8internal24variable_if_dynamicindexIlLi0EEC2El, symObjAddr: 0x21C120, symBinAddr: 0x10022B460, symSize: 0x0 }
  - { offsetInCU: 0x20563A, offset: 0x20563A, size: 0x8, addend: 0x0, symName: _.str.126, symObjAddr: 0x21C160, symBinAddr: 0x10022B4A0, symSize: 0x0 }
  - { offsetInCU: 0x20564D, offset: 0x20564D, size: 0x8, addend: 0x0, symName: _.str.127, symObjAddr: 0x21C1A0, symBinAddr: 0x10022B4E0, symSize: 0x0 }
  - { offsetInCU: 0x20566D, offset: 0x20566D, size: 0x8, addend: 0x0, symName: ___func__._ZN5Eigen8internal16BlasLinearMapperIKflLi0ELi1EEC2EPS2_l, symObjAddr: 0x21C220, symBinAddr: 0x10022B560, symSize: 0x0 }
  - { offsetInCU: 0x205680, offset: 0x205680, size: 0x8, addend: 0x0, symName: _.str.128, symObjAddr: 0x21C260, symBinAddr: 0x10022B5A0, symSize: 0x0 }
  - { offsetInCU: 0x2056A0, offset: 0x2056A0, size: 0x8, addend: 0x0, symName: ___func__._ZNK5Eigen19HouseholderSequenceINS_6MatrixIfLin1ELin1ELi0ELin1ELin1EEENS1_IfLin1ELi1ELi0ELin1ELi1EEELi1EE15essentialVectorEl, symObjAddr: 0x21C2C0, symBinAddr: 0x10022B600, symSize: 0x0 }
  - { offsetInCU: 0x2056B2, offset: 0x2056B2, size: 0x8, addend: 0x0, symName: _.str.129, symObjAddr: 0x21C2E0, symBinAddr: 0x10022B620, symSize: 0x0 }
  - { offsetInCU: 0x2056C4, offset: 0x2056C4, size: 0x8, addend: 0x0, symName: _.str.130, symObjAddr: 0x21C320, symBinAddr: 0x10022B660, symSize: 0x0 }
  - { offsetInCU: 0x2056D7, offset: 0x2056D7, size: 0x8, addend: 0x0, symName: ___func__._ZNK5Eigen19ColPivHouseholderQRINS_6MatrixIfLin1ELin1ELi0ELin1ELin1EEEE12householderQEv, symObjAddr: 0x21C360, symBinAddr: 0x10022B6A0, symSize: 0x0 }
  - { offsetInCU: 0x2056E9, offset: 0x2056E9, size: 0x8, addend: 0x0, symName: ___func__._ZN5Eigen8internal6lmpar2IfEEvRKNS_19ColPivHouseholderQRINS_6MatrixIT_Lin1ELin1ELi0ELin1ELin1EEEEERKNS3_IS4_Lin1ELi1ELi0ELin1ELi1EEESB_S4_RS4_RS9_, symObjAddr: 0x21C380, symBinAddr: 0x10022B6C0, symSize: 0x0 }
  - { offsetInCU: 0x2056FB, offset: 0x2056FB, size: 0x8, addend: 0x0, symName: _.str.131, symObjAddr: 0x21C3A0, symBinAddr: 0x10022B6E0, symSize: 0x0 }
  - { offsetInCU: 0x20570D, offset: 0x20570D, size: 0x8, addend: 0x0, symName: _.str.132, symObjAddr: 0x21C3C0, symBinAddr: 0x10022B700, symSize: 0x0 }
  - { offsetInCU: 0x20571F, offset: 0x20571F, size: 0x8, addend: 0x0, symName: _.str.133, symObjAddr: 0x21C3E0, symBinAddr: 0x10022B720, symSize: 0x0 }
  - { offsetInCU: 0x205732, offset: 0x205732, size: 0x8, addend: 0x0, symName: ___func__._ZNK5Eigen19ColPivHouseholderQRINS_6MatrixIfLin1ELin1ELi0ELin1ELin1EEEE4rankEv, symObjAddr: 0x21C400, symBinAddr: 0x10022B740, symSize: 0x0 }
  - { offsetInCU: 0x205745, offset: 0x205745, size: 0x8, addend: 0x0, symName: ___func__._ZNK5Eigen19ColPivHouseholderQRINS_6MatrixIfLin1ELin1ELi0ELin1ELin1EEEE9thresholdEv, symObjAddr: 0x21C420, symBinAddr: 0x10022B760, symSize: 0x0 }
  - { offsetInCU: 0x205758, offset: 0x205758, size: 0x8, addend: 0x0, symName: _.str.134, symObjAddr: 0x21C440, symBinAddr: 0x10022B780, symSize: 0x0 }
  - { offsetInCU: 0x20576A, offset: 0x20576A, size: 0x8, addend: 0x0, symName: ___func__._ZNK5Eigen18TriangularViewImplIKNS_5BlockIKNS_6MatrixIfLin1ELin1ELi0ELin1ELin1EEELin1ELin1ELb0EEELj2ENS_5DenseEE12solveInPlaceILi1ENS1_INS2_IfLin1ELi1ELi0ELin1ELi1EEELin1ELi1ELb0EEEEEvRKNS_10MatrixBaseIT0_EE, symObjAddr: 0x21C4A0, symBinAddr: 0x10022B7E0, symSize: 0x0 }
  - { offsetInCU: 0x20577C, offset: 0x20577C, size: 0x8, addend: 0x0, symName: _.str.135, symObjAddr: 0x21C4C0, symBinAddr: 0x10022B800, symSize: 0x0 }
  - { offsetInCU: 0x20578E, offset: 0x20578E, size: 0x8, addend: 0x0, symName: _.str.136, symObjAddr: 0x21C500, symBinAddr: 0x10022B840, symSize: 0x0 }
  - { offsetInCU: 0x2057A6, offset: 0x2057A6, size: 0x8, addend: 0x0, symName: __ZN5Eigen8internal23triangular_solve_vectorIfflLi1ELi2ELb0ELi0EE3runElPKflPf, symObjAddr: 0x1B8284, symBinAddr: 0x1001BAB48, symSize: 0xAE0 }
  - { offsetInCU: 0x2057C5, offset: 0x2057C5, size: 0x8, addend: 0x0, symName: __ZZN5Eigen8internal23triangular_solve_vectorIfflLi1ELi2ELb0ELi0EE3runElPKflPfE10PanelWidth, symObjAddr: 0x21CB08, symBinAddr: 0x100228E08, symSize: 0x0 }
  - { offsetInCU: 0x205A41, offset: 0x205A41, size: 0x8, addend: 0x0, symName: __ZN5Eigen8internal23triangular_solve_vectorIfflLi1ELi1ELb0ELi1EE3runElPKflPf, symObjAddr: 0x1D2254, symBinAddr: 0x1001D4B18, symSize: 0xB20 }
  - { offsetInCU: 0x205A60, offset: 0x205A60, size: 0x8, addend: 0x0, symName: __ZZN5Eigen8internal23triangular_solve_vectorIfflLi1ELi1ELb0ELi1EE3runElPKflPfE10PanelWidth, symObjAddr: 0x21CB28, symBinAddr: 0x100228E28, symSize: 0x0 }
  - { offsetInCU: 0x205CCF, offset: 0x205CCF, size: 0x8, addend: 0x0, symName: _.str.137, symObjAddr: 0x21C5C0, symBinAddr: 0x10022B900, symSize: 0x0 }
  - { offsetInCU: 0x205CE1, offset: 0x205CE1, size: 0x8, addend: 0x0, symName: _.str.138, symObjAddr: 0x21C600, symBinAddr: 0x10022B940, symSize: 0x0 }
  - { offsetInCU: 0x205CEB, offset: 0x205CEB, size: 0x8, addend: 0x0, symName: __ZN5Eigen8internal23triangular_solve_vectorIfflLi1ELi2ELb0ELi1EE3runElPKflPf, symObjAddr: 0x1E1CA0, symBinAddr: 0x1001E4564, symSize: 0xB34 }
  - { offsetInCU: 0x205D0A, offset: 0x205D0A, size: 0x8, addend: 0x0, symName: __ZZN5Eigen8internal23triangular_solve_vectorIfflLi1ELi2ELb0ELi1EE3runElPKflPfE10PanelWidth, symObjAddr: 0x21CB30, symBinAddr: 0x100228E30, symSize: 0x0 }
  - { offsetInCU: 0x205F77, offset: 0x205F77, size: 0x8, addend: 0x0, symName: __ZN5Eigen8internal32triangular_matrix_vector_productIlLi2EfLb0EfLb0ELi0ELi0EE3runEllPKflS4_lPflRS3_, symObjAddr: 0x1EC9CC, symBinAddr: 0x1001EF290, symSize: 0x1104 }
  - { offsetInCU: 0x205F97, offset: 0x205F97, size: 0x8, addend: 0x0, symName: __ZZN5Eigen8internal32triangular_matrix_vector_productIlLi2EfLb0EfLb0ELi0ELi0EE3runEllPKflS4_lPflRS3_E10PanelWidth, symObjAddr: 0x21CB38, symBinAddr: 0x100228E38, symSize: 0x0 }
  - { offsetInCU: 0x206CD3, offset: 0x206CD3, size: 0x8, addend: 0x0, symName: __ZN5Eigen8internal21dense_assignment_loopINS0_31generic_dense_assignment_kernelINS0_9evaluatorINS_6MatrixIfLin1ELin1ELi0ELin1ELin1EEEEES6_NS0_9assign_opIffEELi0EEELi3ELi0EE3runERS9_, symObjAddr: 0x462FC, symBinAddr: 0x100048BC0, symSize: 0xAC }
  - { offsetInCU: 0x207476, offset: 0x207476, size: 0x8, addend: 0x0, symName: __ZN5Eigen8internal21dense_assignment_loopINS0_31generic_dense_assignment_kernelINS0_9evaluatorINS_6MatrixIfLin1ELi1ELi0ELin1ELi1EEEEENS3_INS_13CwiseBinaryOpINS0_17scalar_product_opIffEEKNS_14CwiseNullaryOpINS0_18scalar_constant_opIfEES5_EEKNSA_ISC_KS5_EEEEEENS0_9assign_opIffEELi0EEELi3ELi0EE3runERSM_, symObjAddr: 0xA3BE4, symBinAddr: 0x1000A64A8, symSize: 0xAC }
  - { offsetInCU: 0x2075E4, offset: 0x2075E4, size: 0x8, addend: 0x0, symName: __ZN5Eigen8internal21dense_assignment_loopINS0_31generic_dense_assignment_kernelINS0_9evaluatorINS_6MatrixIfLin1ELi1ELi0ELin1ELi1EEEEENS3_INS_12CwiseUnaryOpINS0_13scalar_cos_opIfEEKNS_12ArrayWrapperIS5_EEEEEENS0_9assign_opIffEELi0EEELi3ELi0EE3runERSH_, symObjAddr: 0xA6FBC, symBinAddr: 0x1000A9880, symSize: 0xAC }
  - { offsetInCU: 0x2076FE, offset: 0x2076FE, size: 0x8, addend: 0x0, symName: __ZN5Eigen8internal21dense_assignment_loopINS0_31generic_dense_assignment_kernelINS0_9evaluatorINS_6MatrixIfLin1ELi1ELi0ELin1ELi1EEEEENS3_INS_12CwiseUnaryOpINS0_13scalar_exp_opIfEEKNS_12ArrayWrapperIS5_EEEEEENS0_9assign_opIffEELi0EEELi3ELi0EE3runERSH_, symObjAddr: 0xAC2E4, symBinAddr: 0x1000AEBA8, symSize: 0xAC }
  - { offsetInCU: 0x207818, offset: 0x207818, size: 0x8, addend: 0x0, symName: __ZN5Eigen8internal21dense_assignment_loopINS0_31generic_dense_assignment_kernelINS0_9evaluatorINS_6MatrixIfLin1ELi1ELi0ELin1ELi1EEEEENS3_INS_12CwiseUnaryOpINS0_14scalar_sqrt_opIfEEKNS_12ArrayWrapperIS5_EEEEEENS0_9assign_opIffEELi0EEELi3ELi0EE3runERSH_, symObjAddr: 0xB017C, symBinAddr: 0x1000B2A40, symSize: 0xAC }
  - { offsetInCU: 0x207932, offset: 0x207932, size: 0x8, addend: 0x0, symName: __ZN5Eigen8internal21dense_assignment_loopINS0_31generic_dense_assignment_kernelINS0_9evaluatorINS_6MatrixIfLin1ELi1ELi0ELin1ELi1EEEEENS3_INS_12CwiseUnaryOpINS0_13scalar_sin_opIfEEKNS_12ArrayWrapperIS5_EEEEEENS0_9assign_opIffEELi0EEELi3ELi0EE3runERSH_, symObjAddr: 0xB1CCC, symBinAddr: 0x1000B4590, symSize: 0xAC }
  - { offsetInCU: 0x207A4C, offset: 0x207A4C, size: 0x8, addend: 0x0, symName: __ZN5Eigen8internal21dense_assignment_loopINS0_31generic_dense_assignment_kernelINS0_9evaluatorINS_6MatrixIfLin1ELi1ELi0ELin1ELi1EEEEENS3_INS_12CwiseUnaryOpINS0_13scalar_log_opIfEEKNS_12ArrayWrapperIS5_EEEEEENS0_9assign_opIffEELi0EEELi3ELi0EE3runERSH_, symObjAddr: 0xB6804, symBinAddr: 0x1000B90C8, symSize: 0xAC }
  - { offsetInCU: 0x207B66, offset: 0x207B66, size: 0x8, addend: 0x0, symName: __ZN5Eigen8internal21dense_assignment_loopINS0_31generic_dense_assignment_kernelINS0_9evaluatorINS_6MatrixIfLin1ELi1ELi0ELin1ELi1EEEEENS3_INS_12CwiseUnaryOpINS0_14scalar_tanh_opIfEEKNS_12ArrayWrapperIS5_EEEEEENS0_9assign_opIffEELi0EEELi3ELi0EE3runERSH_, symObjAddr: 0xBB69C, symBinAddr: 0x1000BDF60, symSize: 0xAC }
  - { offsetInCU: 0x207C80, offset: 0x207C80, size: 0x8, addend: 0x0, symName: __ZN5Eigen8internal21dense_assignment_loopINS0_31generic_dense_assignment_kernelINS0_9evaluatorINS_6MatrixIfLin1ELi1ELi0ELin1ELi1EEEEENS3_INS_12CwiseUnaryOpINS0_18scalar_opposite_opIfEEKNS_12ArrayWrapperIS5_EEEEEENS0_9assign_opIffEELi0EEELi3ELi0EE3runERSH_, symObjAddr: 0xC2E20, symBinAddr: 0x1000C56E4, symSize: 0xAC }
  - { offsetInCU: 0x208069, offset: 0x208069, size: 0x8, addend: 0x0, symName: __ZN5Eigen8internal21dense_assignment_loopINS0_31generic_dense_assignment_kernelINS0_9evaluatorINS_6MatrixIfLin1ELi1ELi0ELin1ELi1EEEEENS3_INS_13CwiseBinaryOpINS0_13scalar_sum_opIffEEKNS_12ArrayWrapperIS5_EESC_EEEENS0_9assign_opIffEELi0EEELi3ELi0EE3runERSH_, symObjAddr: 0xC4984, symBinAddr: 0x1000C7248, symSize: 0xAC }
  - { offsetInCU: 0x208458, offset: 0x208458, size: 0x8, addend: 0x0, symName: __ZN5Eigen8internal21dense_assignment_loopINS0_31generic_dense_assignment_kernelINS0_9evaluatorINS_6MatrixIfLin1ELi1ELi0ELin1ELi1EEEEENS3_INS_13CwiseBinaryOpINS0_20scalar_difference_opIffEEKNS_12ArrayWrapperIS5_EESC_EEEENS0_9assign_opIffEELi0EEELi3ELi0EE3runERSH_, symObjAddr: 0xC6508, symBinAddr: 0x1000C8DCC, symSize: 0xAC }
  - { offsetInCU: 0x208818, offset: 0x208818, size: 0x8, addend: 0x0, symName: __ZN5Eigen8internal21dense_assignment_loopINS0_31generic_dense_assignment_kernelINS0_9evaluatorINS_6MatrixIfLin1ELi1ELi0ELin1ELi1EEEEENS3_INS_13CwiseBinaryOpINS0_17scalar_product_opIffEEKNS_12ArrayWrapperIS5_EESC_EEEENS0_9assign_opIffEELi0EEELi3ELi0EE3runERSH_, symObjAddr: 0xC808C, symBinAddr: 0x1000CA950, symSize: 0xAC }
  - { offsetInCU: 0x208C07, offset: 0x208C07, size: 0x8, addend: 0x0, symName: __ZN5Eigen8internal21dense_assignment_loopINS0_31generic_dense_assignment_kernelINS0_9evaluatorINS_6MatrixIfLin1ELi1ELi0ELin1ELi1EEEEENS3_INS_13CwiseBinaryOpINS0_18scalar_quotient_opIffEEKNS_12ArrayWrapperIS5_EESC_EEEENS0_9assign_opIffEELi0EEELi3ELi0EE3runERSH_, symObjAddr: 0xC9C9C, symBinAddr: 0x1000CC560, symSize: 0xAC }
  - { offsetInCU: 0x208CD9, offset: 0x208CD9, size: 0x8, addend: 0x0, symName: __ZN5Eigen8internal21dense_assignment_loopINS0_31generic_dense_assignment_kernelINS0_9evaluatorINS_6MatrixIfLin1ELi1ELi0ELin1ELi1EEEEES6_NS0_9assign_opIffEELi0EEELi3ELi0EE3runERS9_, symObjAddr: 0xCF584, symBinAddr: 0x1000D1E48, symSize: 0xAC }
  - { offsetInCU: 0x2091E3, offset: 0x2091E3, size: 0x8, addend: 0x0, symName: __ZN5Eigen8internal21dense_assignment_loopINS0_31generic_dense_assignment_kernelINS0_9evaluatorINS_6MatrixIfLin1ELi1ELi0ELin1ELi1EEEEENS3_INS_13CwiseBinaryOpINS0_20scalar_difference_opIffEEKS5_SA_EEEENS0_9assign_opIffEELi0EEELi3ELi0EE3runERSF_, symObjAddr: 0xD6FC4, symBinAddr: 0x1000D9888, symSize: 0xAC }
  - { offsetInCU: 0x20A254, offset: 0x20A254, size: 0x8, addend: 0x0, symName: __ZN5Eigen8internal21dense_assignment_loopINS0_31generic_dense_assignment_kernelINS0_9evaluatorINS_6MatrixIfLin1ELi1ELi0ELi4096ELi1EEEEENS3_INS_5BlockIKNS4_IfLin1ELi1ELi0ELin1ELi1EEELin1ELi1ELb0EEEEENS0_9assign_opIffEELi0EEELi3ELi0EE3runERSE_, symObjAddr: 0xE6C24, symBinAddr: 0x1000E94E8, symSize: 0xAC }
  - { offsetInCU: 0x20BD30, offset: 0x20BD30, size: 0x8, addend: 0x0, symName: __ZN5Eigen8internal21dense_assignment_loopINS0_31generic_dense_assignment_kernelINS0_9evaluatorINS_5BlockINS_6MatrixIfLin1ELin1ELi0ELin1ELin1EEELin1ELin1ELb0EEEEENS3_INS_13CwiseBinaryOpINS0_18scalar_quotient_opIffEEKNS9_INS0_20scalar_difference_opIffEEKNS5_IfLin1ELi1ELi0ELin1ELi1EEESF_EEKNS_14CwiseNullaryOpINS0_18scalar_constant_opIfEESF_EEEEEENS0_9assign_opIffEELi0EEELi4ELi0EE3runERSR_, symObjAddr: 0xEF0B0, symBinAddr: 0x1000F1974, symSize: 0x5AC }
  - { offsetInCU: 0x20C20A, offset: 0x20C20A, size: 0x8, addend: 0x0, symName: __ZN5Eigen8internal21dense_assignment_loopINS0_31generic_dense_assignment_kernelINS0_9evaluatorINS_5BlockINS_6MatrixIfLin1ELin1ELi0ELin1ELin1EEELin1ELi1ELb1EEEEES8_NS0_14swap_assign_opIfEELi0EEELi3ELi0EE3runERSB_, symObjAddr: 0x101FB4, symBinAddr: 0x100104878, symSize: 0xC4 }
  - { offsetInCU: 0x20D8C6, offset: 0x20D8C6, size: 0x8, addend: 0x0, symName: __ZN5Eigen8internal21dense_assignment_loopINS0_31generic_dense_assignment_kernelINS0_9evaluatorINS_5BlockINS4_INS4_INS_6MatrixIfLin1ELin1ELi0ELin1ELin1EEELin1ELi1ELb1EEELin1ELi1ELb0EEELin1ELi1ELb0EEEEENS3_INS_14CwiseNullaryOpINS0_18scalar_constant_opIfEENS5_IfLin1ELi1ELi0ELin1ELi1EEEEEEENS0_9assign_opIffEELi0EEELi3ELi0EE3runERSJ_, symObjAddr: 0x108BF8, symBinAddr: 0x10010B4BC, symSize: 0xC4 }
  - { offsetInCU: 0x20DA4C, offset: 0x20DA4C, size: 0x8, addend: 0x0, symName: __ZN5Eigen8internal21dense_assignment_loopINS0_31generic_dense_assignment_kernelINS0_9evaluatorINS_5BlockINS4_INS4_INS_6MatrixIfLin1ELin1ELi0ELin1ELin1EEELin1ELi1ELb1EEELin1ELi1ELb0EEELin1ELi1ELb0EEEEENS3_INS_13CwiseBinaryOpINS0_18scalar_quotient_opIffEEKNS4_IKS8_Lin1ELi1ELb0EEEKNS_14CwiseNullaryOpINS0_18scalar_constant_opIfEEKNS5_IfLin1ELi1ELi0ELin1ELi1EEEEEEEEENS0_9assign_opIffEELi0EEELi3ELi0EE3runERSS_, symObjAddr: 0x10A634, symBinAddr: 0x10010CEF8, symSize: 0xC4 }
  - { offsetInCU: 0x20DB5A, offset: 0x20DB5A, size: 0x8, addend: 0x0, symName: __ZN5Eigen8internal21dense_assignment_loopINS0_31generic_dense_assignment_kernelINS0_9evaluatorINS_5BlockINS_6MatrixIfLin1ELin1ELi0ELin1ELin1EEELin1ELin1ELb0EEEEENS3_INS_14CwiseNullaryOpINS0_18scalar_constant_opIfEES6_EEEENS0_13mul_assign_opIffEELi0EEELi4ELi0EE3runERSG_, symObjAddr: 0x10D8C8, symBinAddr: 0x10011018C, symSize: 0x5AC }
  - { offsetInCU: 0x20DD7C, offset: 0x20DD7C, size: 0x8, addend: 0x0, symName: __ZN5Eigen8internal21dense_assignment_loopINS0_31generic_dense_assignment_kernelINS0_9evaluatorINS_3MapINS_6MatrixIfLi1ELin1ELi1ELi1ELin1EEELi0ENS_6StrideILi0ELi0EEEEEEENS3_INS_14CwiseNullaryOpINS0_18scalar_constant_opIfEES6_EEEENS0_9assign_opIffEELi0EEELi3ELi0EE3runERSI_, symObjAddr: 0x111480, symBinAddr: 0x100113D44, symSize: 0xC4 }
  - { offsetInCU: 0x20E7EA, offset: 0x20E7EA, size: 0x8, addend: 0x0, symName: __ZN5Eigen8internal29general_matrix_vector_productIlfNS0_22const_blas_data_mapperIflLi1EEELi1ELb0EfNS2_IflLi0EEELb0ELi0EE3runEllRKS3_RKS4_Pflf, symObjAddr: 0x118394, symBinAddr: 0x10011AC58, symSize: 0x5674 }
  - { offsetInCU: 0x20FFC6, offset: 0x20FFC6, size: 0x8, addend: 0x0, symName: __ZN5Eigen8internal21dense_assignment_loopINS0_31generic_dense_assignment_kernelINS0_9evaluatorINS_3MapINS_6MatrixIfLin1ELi1ELi0ELin1ELi1EEELi16ENS_6StrideILi0ELi0EEEEEEENS3_INS_13CwiseBinaryOpINS0_17scalar_product_opIffEEKNS_14CwiseNullaryOpINS0_18scalar_constant_opIfEEKS6_EEKNS_5BlockINSK_INS5_IfLin1ELin1ELi0ELin1ELin1EEELin1ELi1ELb1EEELin1ELi1ELb0EEEEEEENS0_9assign_opIffEELi0EEELi3ELi0EE3runERST_, symObjAddr: 0x1243B8, symBinAddr: 0x100126C7C, symSize: 0xAC }
  - { offsetInCU: 0x210362, offset: 0x210362, size: 0x8, addend: 0x0, symName: __ZN5Eigen8internal21dense_assignment_loopINS0_31generic_dense_assignment_kernelINS0_9evaluatorINS_5BlockINS4_INS4_INS_6MatrixIfLin1ELin1ELi0ELin1ELin1EEELin1ELin1ELb0EEELin1ELin1ELb0EEELin1ELi1ELb1EEEEENS3_INS_13CwiseBinaryOpINS0_17scalar_product_opIffEEKNS_14CwiseNullaryOpINS0_18scalar_constant_opIfEEKNS5_IfLin1ELi1ELi0ELin1ELi1EEEEEKNS_3MapISH_Li16ENS_6StrideILi0ELi0EEEEEEEEENS0_13sub_assign_opIffEELi0EEELi3ELi0EE3runERSU_, symObjAddr: 0x1263FC, symBinAddr: 0x100128CC0, symSize: 0xC4 }
  - { offsetInCU: 0x2104A6, offset: 0x2104A6, size: 0x8, addend: 0x0, symName: __ZN5Eigen8internal21dense_assignment_loopINS0_31generic_dense_assignment_kernelINS0_9evaluatorINS_6MatrixIiLin1ELi1ELi0ELin1ELi1EEEEES6_NS0_9assign_opIiiEELi0EEELi3ELi0EE3runERS9_, symObjAddr: 0x12B610, symBinAddr: 0x10012DED4, symSize: 0xAC }
  - { offsetInCU: 0x210E3C, offset: 0x210E3C, size: 0x8, addend: 0x0, symName: __ZN5Eigen8internal21dense_assignment_loopINS0_31generic_dense_assignment_kernelINS0_9evaluatorINS_6MatrixIfLin1ELi1ELi0ELi4096ELi1EEEEENS3_INS_5BlockIKNS_13CwiseBinaryOpINS0_17scalar_product_opIffEEKNS4_IfLin1ELi1ELi0ELin1ELi1EEESC_EELin1ELi1ELb0EEEEENS0_9assign_opIffEELi0EEELi3ELi0EE3runERSJ_, symObjAddr: 0x134F38, symBinAddr: 0x1001377FC, symSize: 0xAC }
  - { offsetInCU: 0x211AB4, offset: 0x211AB4, size: 0x8, addend: 0x0, symName: __ZN5Eigen8internal21dense_assignment_loopINS0_31generic_dense_assignment_kernelINS0_9evaluatorINS_5BlockINS4_INS_6MatrixIfLin1ELin1ELi1ELin1ELin1EEELi1ELin1ELb1EEELi1ELin1ELb0EEEEENS3_INS_14CwiseNullaryOpINS0_18scalar_constant_opIfEENS5_IfLi1ELin1ELi1ELi1ELin1EEEEEEENS0_9assign_opIffEELi0EEELi3ELi0EE3runERSI_, symObjAddr: 0x14171C, symBinAddr: 0x100143FE0, symSize: 0xC4 }
  - { offsetInCU: 0x212AFE, offset: 0x212AFE, size: 0x8, addend: 0x0, symName: __ZN5Eigen8internal29general_matrix_vector_productIlfNS0_22const_blas_data_mapperIflLi1EEELi1ELb0EfS3_Lb0ELi1EE3runEllRKS3_S6_Pflf, symObjAddr: 0x1463E4, symBinAddr: 0x100148CA8, symSize: 0x5674 }
  - { offsetInCU: 0x214B4A, offset: 0x214B4A, size: 0x8, addend: 0x0, symName: __ZN5Eigen8internal21dense_assignment_loopINS0_31generic_dense_assignment_kernelINS0_9evaluatorINS_5BlockINS_9TransposeINS4_INS4_INS_6MatrixIfLin1ELin1ELi1ELin1ELin1EEELi1ELin1ELb1EEELi1ELin1ELb0EEEEELin1ELi1ELb0EEEEENS3_INS_13CwiseBinaryOpINS0_17scalar_product_opIffEEKNS_14CwiseNullaryOpINS0_18scalar_constant_opIfEEKNS6_IfLin1ELi1ELi0ELin1ELi1EEEEEKNS4_IKNS5_IKNSD_ISF_KNSG_ISI_KNS6_IfLi1ELin1ELi1ELi1ELin1EEEEEKNS5_IKNS4_IKNS4_IKNS4_INS6_IfLin1ELin1ELi0ELin1ELin1EEELin1ELin1ELb0EEELin1ELi1ELb1EEELin1ELi1ELb0EEEEEEEEELin1ELi1ELb0EEEEEEENS0_13sub_assign_opIffEELi0EEELi3ELi0EE3runERS1A_, symObjAddr: 0x151F5C, symBinAddr: 0x100154820, symSize: 0xC4 }
  - { offsetInCU: 0x214E8C, offset: 0x214E8C, size: 0x8, addend: 0x0, symName: __ZN5Eigen8internal21dense_assignment_loopINS0_31generic_dense_assignment_kernelINS0_9evaluatorINS_5BlockINS4_INS_6MatrixIfLin1ELin1ELi1ELin1ELin1EEELi1ELin1ELb1EEELi1ELin1ELb0EEEEENS3_INS_13CwiseBinaryOpINS0_17scalar_product_opIffEEKNS_14CwiseNullaryOpINS0_18scalar_constant_opIfEEKNS5_IfLi1ELin1ELi1ELi1ELin1EEEEEKS8_EEEENS0_13add_assign_opIffEELi0EEELi3ELi0EE3runERSP_, symObjAddr: 0x155D08, symBinAddr: 0x1001585CC, symSize: 0xC4 }
  - { offsetInCU: 0x2161CB, offset: 0x2161CB, size: 0x8, addend: 0x0, symName: __ZN5Eigen8internal13gemm_pack_lhsIflNS0_22const_blas_data_mapperIflLi1EEELi12ELi4E19__simd128_float32_tLi1ELb0ELb0EEclEPfRKS3_llll, symObjAddr: 0x162D30, symBinAddr: 0x1001655F4, symSize: 0x15B4 }
  - { offsetInCU: 0x216731, offset: 0x216731, size: 0x8, addend: 0x0, symName: __ZN5Eigen8internal11gebp_kernelIfflNS0_16blas_data_mapperIflLi0ELi0ELi1EEELi12ELi4ELb0ELb0EEclERKS3_PKfS8_lllfllll, symObjAddr: 0x164348, symBinAddr: 0x100166C0C, symSize: 0x8E3C }
  - { offsetInCU: 0x21A334, offset: 0x21A334, size: 0x8, addend: 0x0, symName: __ZN5Eigen8internal21dense_assignment_loopINS0_31generic_dense_assignment_kernelINS0_9evaluatorINS_5BlockINS_6MatrixIfLin1ELin1ELi0ELin1ELi1EEELin1ELin1ELb0EEEEENS3_INS4_IKNS_13CwiseBinaryOpINS0_17scalar_product_opIffEEKNS_14CwiseNullaryOpINS0_18scalar_constant_opIfEEKS6_EEKNS4_INS5_IfLin1ELi1ELi0ELin1ELi1EEELin1ELin1ELb0EEEEELin1ELin1ELb0EEEEENS0_13sub_assign_opIffEELi0EEELi4ELi0EE3runERSR_, symObjAddr: 0x17AF70, symBinAddr: 0x10017D834, symSize: 0x5AC }
  - { offsetInCU: 0x21A532, offset: 0x21A532, size: 0x8, addend: 0x0, symName: __ZN5Eigen8internal21dense_assignment_loopINS0_31generic_dense_assignment_kernelINS0_9evaluatorINS_6MatrixIfLin1ELin1ELi0ELin1ELi1EEEEES6_NS0_9assign_opIffEELi0EEELi3ELi0EE3runERS9_, symObjAddr: 0x1831DC, symBinAddr: 0x100185AA0, symSize: 0xAC }
  - { offsetInCU: 0x21AC5E, offset: 0x21AC5E, size: 0x8, addend: 0x0, symName: __ZN5Eigen8internal13gemm_pack_lhsIflNS0_22const_blas_data_mapperIflLi0EEELi12ELi4E19__simd128_float32_tLi0ELb0ELb0EEclEPfRKS3_llll, symObjAddr: 0x1893DC, symBinAddr: 0x10018BCA0, symSize: 0x11A0 }
  - { offsetInCU: 0x21BCE1, offset: 0x21BCE1, size: 0x8, addend: 0x0, symName: __ZN5Eigen8internal21dense_assignment_loopINS0_31generic_dense_assignment_kernelINS0_9evaluatorINS_5BlockINS4_INS_6MatrixIfLin1ELi1ELi0ELin1ELi1EEELin1ELin1ELb0EEELin1ELin1ELb0EEEEENS3_INS4_IKNS_13CwiseBinaryOpINS0_17scalar_product_opIffEEKNS_14CwiseNullaryOpINS0_18scalar_constant_opIfEEKNS5_IfLin1ELin1ELi0ELin1ELi1EEEEESH_EELin1ELin1ELb0EEEEENS0_13sub_assign_opIffEELi0EEELi4ELi0EE3runERSQ_, symObjAddr: 0x193E58, symBinAddr: 0x10019671C, symSize: 0x5AC }
  - { offsetInCU: 0x21BEBB, offset: 0x21BEBB, size: 0x8, addend: 0x0, symName: __ZN5Eigen8internal21dense_assignment_loopINS0_31generic_dense_assignment_kernelINS0_9evaluatorINS_5BlockINS_6MatrixIfLin1ELi1ELi0ELin1ELi1EEELin1ELin1ELb0EEEEENS3_INS_14CwiseNullaryOpINS0_18scalar_constant_opIfEENS5_IfLin1ELin1ELi0ELin1ELi1EEEEEEENS0_13mul_assign_opIffEELi0EEELi4ELi0EE3runERSH_, symObjAddr: 0x1981A4, symBinAddr: 0x10019AA68, symSize: 0x5AC }
  - { offsetInCU: 0x21CC2F, offset: 0x21CC2F, size: 0x8, addend: 0x0, symName: __ZN5Eigen8internal21dense_assignment_loopINS0_31generic_dense_assignment_kernelINS0_9evaluatorINS_6MatrixIfLin1ELi1ELi0ELin1ELi1EEEEENS3_INS_13CwiseBinaryOpINS0_17scalar_product_opIffEEKNS_14CwiseNullaryOpINS0_18scalar_constant_opIfEEKS5_EEKNS_5BlockIKNS4_IfLin1ELin1ELi0ELin1ELin1EEELin1ELi1ELb0EEEEEEENS0_9assign_opIffEELi0EEELi3ELi0EE3runERSP_, symObjAddr: 0x1A4DE8, symBinAddr: 0x1001A76AC, symSize: 0xAC }
  - { offsetInCU: 0x21CF9B, offset: 0x21CF9B, size: 0x8, addend: 0x0, symName: __ZN5Eigen8internal21dense_assignment_loopINS0_31generic_dense_assignment_kernelINS0_9evaluatorINS_5BlockINS4_INS_6MatrixIfLin1ELi1ELi0ELin1ELi1EEELin1ELin1ELb0EEELin1ELin1ELb0EEEEENS3_INS_7ProductINS_13CwiseBinaryOpINS0_17scalar_product_opIffEEKNS_14CwiseNullaryOpINS0_18scalar_constant_opIfEEKS6_EEKNS4_IKNS5_IfLin1ELin1ELi0ELin1ELin1EEELin1ELi1ELb0EEEEENS_3MapINS5_IfLi1ELin1ELi1ELi1ELi1EEELi0ENS_6StrideILi0ELi0EEEEELi1EEEEENS0_13sub_assign_opIffEELi0EEELi4ELi0EE3runERSY_, symObjAddr: 0x1A3CC8, symBinAddr: 0x1001A658C, symSize: 0x5AC }
  - { offsetInCU: 0x21D7A5, offset: 0x21D7A5, size: 0x8, addend: 0x0, symName: __ZN5Eigen8internal21dense_assignment_loopINS0_31generic_dense_assignment_kernelINS0_9evaluatorINS_6MatrixIfLin1ELi1ELi0ELin1ELi1EEEEENS3_INS_5BlockIS5_Lin1ELi1ELb0EEEEENS0_9assign_opIffEELi0EEELi3ELi0EE3runERSC_, symObjAddr: 0x1ABF90, symBinAddr: 0x1001AE854, symSize: 0xAC }
  - { offsetInCU: 0x21DAF2, offset: 0x21DAF2, size: 0x8, addend: 0x0, symName: __ZN5Eigen8internal21dense_assignment_loopINS0_31generic_dense_assignment_kernelINS0_9evaluatorINS_6MatrixIfLin1ELi1ELi0ELin1ELi1EEEEENS3_INS_13CwiseBinaryOpINS0_13scalar_max_opIffLi0EEEKS5_SA_EEEENS0_9assign_opIffEELi0EEELi3ELi0EE3runERSF_, symObjAddr: 0x1B0BD8, symBinAddr: 0x1001B349C, symSize: 0xAC }
  - { offsetInCU: 0x21DBC4, offset: 0x21DBC4, size: 0x8, addend: 0x0, symName: __ZN5Eigen8internal21dense_assignment_loopINS0_31generic_dense_assignment_kernelINS0_9evaluatorINS_5BlockINS_6MatrixIfLin1ELi1ELi0ELin1ELi1EEELin1ELi1ELb0EEEEENS3_INS_14CwiseNullaryOpINS0_18scalar_constant_opIfEES6_EEEENS0_9assign_opIffEELi0EEELi3ELi0EE3runERSG_, symObjAddr: 0x1B66EC, symBinAddr: 0x1001B8FB0, symSize: 0xC4 }
  - { offsetInCU: 0x21DC96, offset: 0x21DC96, size: 0x8, addend: 0x0, symName: __ZN5Eigen8internal21dense_assignment_loopINS0_31generic_dense_assignment_kernelINS0_9evaluatorINS_3MapINS_6MatrixIfLin1ELi1ELi0ELin1ELi1EEELi16ENS_6StrideILi0ELi0EEEEEEENS3_INS_5BlockIS6_Lin1ELi1ELb0EEEEENS0_9assign_opIffEELi0EEELi3ELi0EE3runERSG_, symObjAddr: 0x1B9928, symBinAddr: 0x1001BC1EC, symSize: 0xAC }
  - { offsetInCU: 0x21E6F8, offset: 0x21E6F8, size: 0x8, addend: 0x0, symName: __ZN5Eigen8internal21dense_assignment_loopINS0_31generic_dense_assignment_kernelINS0_9evaluatorINS_3MapINS_6MatrixIfLin1ELi1ELi0ELin1ELi1EEELi0ENS_6StrideILi0ELi0EEEEEEENS3_INS_13CwiseBinaryOpINS0_17scalar_product_opIffEEKNS_14CwiseNullaryOpINS0_18scalar_constant_opIfEEKS6_EEKNS_5BlockIKNSK_IKNS4_IKNS5_IfLin1ELin1ELi0ELin1ELin1EEELi0ENS_11OuterStrideILin1EEEEELin1ELi1ELb1EEELin1ELi1ELb0EEEEEEENS0_13sub_assign_opIffEELi0EEELi3ELi0EE3runERSZ_, symObjAddr: 0x1C1EE4, symBinAddr: 0x1001C47A8, symSize: 0xC4 }
  - { offsetInCU: 0x21E794, offset: 0x21E794, size: 0x8, addend: 0x0, symName: __ZN5Eigen8internal29general_matrix_vector_productIlfNS0_22const_blas_data_mapperIflLi0EEELi0ELb0EfS3_Lb0ELi0EE3runEllRKS3_S6_Pflf, symObjAddr: 0x1BAA50, symBinAddr: 0x1001BD314, symSize: 0x5684 }
  - { offsetInCU: 0x21F7FF, offset: 0x21F7FF, size: 0x8, addend: 0x0, symName: __ZN5Eigen8internal21dense_assignment_loopINS0_31generic_dense_assignment_kernelINS0_9evaluatorINS_5BlockINS_6MatrixIfLin1ELi1ELi0ELin1ELi1EEELin1ELi1ELb0EEEEENS3_INS_3MapIS6_Li16ENS_6StrideILi0ELi0EEEEEEENS0_9assign_opIffEELi0EEELi3ELi0EE3runERSG_, symObjAddr: 0x1C44EC, symBinAddr: 0x1001C6DB0, symSize: 0xC4 }
  - { offsetInCU: 0x2203E0, offset: 0x2203E0, size: 0x8, addend: 0x0, symName: __ZN5Eigen8internal21dense_assignment_loopINS0_31generic_dense_assignment_kernelINS0_9evaluatorINS_6MatrixIfLin1ELi1ELi0ELin1ELi1EEEEENS3_INS_13CwiseBinaryOpINS0_18scalar_quotient_opIffEEKNS_7ProductINS_7InverseINS_17PermutationMatrixILin1ELin1EiEEEENS7_INS0_17scalar_product_opIffEEKS5_SH_EELi2EEEKNS_14CwiseNullaryOpINS0_18scalar_constant_opIfEESH_EEEEEENS0_9assign_opIffEELi0EEELi3ELi0EE3runERSU_, symObjAddr: 0x1CDD74, symBinAddr: 0x1001D0638, symSize: 0xAC }
  - { offsetInCU: 0x2204B2, offset: 0x2204B2, size: 0x8, addend: 0x0, symName: __ZN5Eigen8internal21dense_assignment_loopINS0_31generic_dense_assignment_kernelINS0_9evaluatorINS_3MapINS_6MatrixIfLin1ELi1ELi0ELin1ELi1EEELi16ENS_6StrideILi0ELi0EEEEEEENS3_IS6_EENS0_9assign_opIffEELi0EEELi3ELi0EE3runERSE_, symObjAddr: 0x1D367C, symBinAddr: 0x1001D5F40, symSize: 0xAC }
  - { offsetInCU: 0x220584, offset: 0x220584, size: 0x8, addend: 0x0, symName: __ZN5Eigen8internal21dense_assignment_loopINS0_31generic_dense_assignment_kernelINS0_9evaluatorINS_6MatrixIfLin1ELi1ELi0ELin1ELi1EEEEENS3_INS_3MapIS5_Li16ENS_6StrideILi0ELi0EEEEEEENS0_9assign_opIffEELi0EEELi3ELi0EE3runERSE_, symObjAddr: 0x1D7634, symBinAddr: 0x1001D9EF8, symSize: 0xAC }
  - { offsetInCU: 0x220AF4, offset: 0x220AF4, size: 0x8, addend: 0x0, symName: __ZN5Eigen8internal21dense_assignment_loopINS0_31generic_dense_assignment_kernelINS0_9evaluatorINS_6MatrixIfLin1ELi1ELi0ELin1ELi1EEEEENS3_INS_13CwiseBinaryOpINS0_17scalar_product_opIffEEKNS_14CwiseNullaryOpINS0_18scalar_constant_opIfEEKS5_EESD_EEEENS0_9assign_opIffEELi0EEELi3ELi0EE3runERSK_, symObjAddr: 0x1DB814, symBinAddr: 0x1001DE0D8, symSize: 0xAC }
  - { offsetInCU: 0x221370, offset: 0x221370, size: 0x8, addend: 0x0, symName: __ZN5Eigen8internal21dense_assignment_loopINS0_31generic_dense_assignment_kernelINS0_9evaluatorINS_6MatrixIfLin1ELi1ELi0ELin1ELi1EEEEENS3_INS_12CwiseUnaryOpINS0_18scalar_opposite_opIfEEKS5_EEEENS0_9assign_opIffEELi0EEELi3ELi0EE3runERSF_, symObjAddr: 0x1E7808, symBinAddr: 0x1001EA0CC, symSize: 0xAC }
  - { offsetInCU: 0x221694, offset: 0x221694, size: 0x8, addend: 0x0, symName: __ZN5Eigen8internal21dense_assignment_loopINS0_31generic_dense_assignment_kernelINS0_9evaluatorINS_6MatrixIfLin1ELi1ELi0ELin1ELi1EEEEENS3_INS_13CwiseBinaryOpINS0_13scalar_sum_opIffEEKS5_SA_EEEENS0_9assign_opIffEELi0EEELi3ELi0EE3runERSF_, symObjAddr: 0x1E91CC, symBinAddr: 0x1001EBA90, symSize: 0xAC }
  - { offsetInCU: 0x2219EE, offset: 0x2219EE, size: 0x8, addend: 0x0, symName: __ZN5Eigen8internal21dense_assignment_loopINS0_31generic_dense_assignment_kernelINS0_9evaluatorINS_3MapINS_6MatrixIfLin1ELi1ELi0ELin1ELi1EEELi4ENS_6StrideILi0ELi0EEEEEEENS3_INS_14CwiseNullaryOpINS0_18scalar_constant_opIfEES6_EEEENS0_9assign_opIffEELi0EEELi3ELi0EE3runERSI_, symObjAddr: 0x1F0190, symBinAddr: 0x1001F2A54, symSize: 0xC4 }
  - { offsetInCU: 0x221AC0, offset: 0x221AC0, size: 0x8, addend: 0x0, symName: __ZN5Eigen8internal21dense_assignment_loopINS0_31generic_dense_assignment_kernelINS0_9evaluatorINS_3MapINS_6MatrixIfLin1ELi1ELi0ELin1ELi1EEELi4ENS_6StrideILi0ELi0EEEEEEENS3_IS6_EENS0_9assign_opIffEELi0EEELi3ELi0EE3runERSE_, symObjAddr: 0x1F17F0, symBinAddr: 0x1001F40B4, symSize: 0xC4 }
  - { offsetInCU: 0x222078, offset: 0x222078, size: 0x8, addend: 0x0, symName: __ZN5Eigen8internal21dense_assignment_loopINS0_31generic_dense_assignment_kernelINS0_9evaluatorINS_5BlockINS_3MapINS_6MatrixIfLin1ELi1ELi0ELin1ELi1EEELi0ENS_6StrideILi0ELi0EEEEELin1ELi1ELb0EEEEENS3_INS_13CwiseBinaryOpINS0_17scalar_product_opIffEEKNS_14CwiseNullaryOpINS0_18scalar_constant_opIfEEKS7_EEKNS4_IKNS4_IKNS5_IKNS6_IfLin1ELin1ELi0ELin1ELin1EEELi0ENS_11OuterStrideILin1EEEEELin1ELi1ELb1EEELin1ELi1ELb0EEEEEEENS0_13add_assign_opIffEELi0EEELi3ELi0EE3runERS10_, symObjAddr: 0x1FE230, symBinAddr: 0x100200AF4, symSize: 0xC4 }
  - { offsetInCU: 0x222114, offset: 0x222114, size: 0x8, addend: 0x0, symName: __ZN5Eigen8internal29general_matrix_vector_productIlfNS0_22const_blas_data_mapperIflLi0EEELi0ELb0EfNS2_IflLi1EEELb0ELi1EE3runEllRKS3_RKS4_Pflf, symObjAddr: 0x1F24A8, symBinAddr: 0x1001F4D6C, symSize: 0x5684 }
  - { offsetInCU: 0x223149, offset: 0x223149, size: 0x8, addend: 0x0, symName: __ZN5Eigen8internal29general_matrix_vector_productIlfNS0_22const_blas_data_mapperIflLi0EEELi0ELb0EfNS2_IflLi1EEELb0ELi0EE3runEllRKS3_RKS4_Pflf, symObjAddr: 0x1F7C34, symBinAddr: 0x1001FA4F8, symSize: 0x5684 }
  - { offsetInCU: 0x22440C, offset: 0x22440C, size: 0x8, addend: 0x0, symName: __ZN5Eigen8internal21dense_assignment_loopINS0_31generic_dense_assignment_kernelINS0_9evaluatorINS_6MatrixIfLin1ELi1ELi0ELin1ELi1EEEEENS3_INS_13CwiseBinaryOpINS0_17scalar_product_opIffEEKNS_14CwiseNullaryOpINS0_18scalar_constant_opIfEEKS5_EEKNS_3MapIS5_Li4ENS_6StrideILi0ELi0EEEEEEEEENS0_13add_assign_opIffEELi0EEELi3ELi0EE3runERSP_, symObjAddr: 0x1FF990, symBinAddr: 0x100202254, symSize: 0xAC }
  - { offsetInCU: 0x2244DE, offset: 0x2244DE, size: 0x8, addend: 0x0, symName: __ZN5Eigen8internal21dense_assignment_loopINS0_31generic_dense_assignment_kernelINS0_9evaluatorINS_6MatrixIfLin1ELi1ELi0ELin1ELi1EEEEENS3_INS_3MapIS5_Li4ENS_6StrideILi0ELi0EEEEEEENS0_9assign_opIffEELi0EEELi3ELi0EE3runERSE_, symObjAddr: 0x201574, symBinAddr: 0x100203E38, symSize: 0xAC }
  - { offsetInCU: 0x2245B0, offset: 0x2245B0, size: 0x8, addend: 0x0, symName: __ZN5Eigen8internal21dense_assignment_loopINS0_31generic_dense_assignment_kernelINS0_9evaluatorINS_6MatrixIfLin1ELi1ELi0ELin1ELi1EEEEENS3_INS_13CwiseBinaryOpINS0_17scalar_product_opIffEEKS5_SA_EEEENS0_9assign_opIffEELi0EEELi3ELi0EE3runERSF_, symObjAddr: 0x2024AC, symBinAddr: 0x100204D70, symSize: 0xAC }
  - { offsetInCU: 0x224C7C, offset: 0x224C7C, size: 0x8, addend: 0x0, symName: __ZNSt3__16vectorIdNS_9allocatorIdEEE26__swap_out_circular_bufferERNS_14__split_bufferIdRS2_EE, symObjAddr: 0xF740, symBinAddr: 0x100012004, symSize: 0x56C }
  - { offsetInCU: 0x2254C9, offset: 0x2254C9, size: 0x8, addend: 0x0, symName: __ZNKSt3__16chrono15__duration_castINS0_8durationIxNS_5ratioILl1ELl1EEEEENS2_IxNS3_ILl1ELl1000000000EEEEENS3_ILl1000000000ELl1EEELb0ELb1EEclB8ue170006ERKS5_, symObjAddr: 0x29F54, symBinAddr: 0x10002C818, symSize: 0x29C }
  - { offsetInCU: 0x22550A, offset: 0x22550A, size: 0x8, addend: 0x0, symName: __ZNSt3__16vectorINS_4pairIifEENS_9allocatorIS2_EEE26__swap_out_circular_bufferERNS_14__split_bufferIS2_RS4_EE, symObjAddr: 0x2B78C, symBinAddr: 0x10002E050, symSize: 0x56C }
  - { offsetInCU: 0x225626, offset: 0x225626, size: 0x8, addend: 0x0, symName: __Z3powB8ue170006IiiENSt3__19enable_ifIXaasr3std13is_arithmeticIT_EE5valuesr3std13is_arithmeticIT0_EE5valueENS0_9__promoteIS2_S3_vEEE4type4typeES2_S3_, symObjAddr: 0x34648, symBinAddr: 0x100036F0C, symSize: 0x44 }
  - { offsetInCU: 0x2256A6, offset: 0x2256A6, size: 0x8, addend: 0x0, symName: __ZNSt3__16vectorIfNS_9allocatorIfEEE26__swap_out_circular_bufferERNS_14__split_bufferIfRS2_EE, symObjAddr: 0x39F68, symBinAddr: 0x10003C82C, symSize: 0x56C }
  - { offsetInCU: 0x22570F, offset: 0x22570F, size: 0x8, addend: 0x0, symName: __ZN5BoardC2EbiiRKN5Eigen6MatrixIfLin1ELin1ELi0ELin1ELin1EEE, symObjAddr: 0x33A24, symBinAddr: 0x1000362E8, symSize: 0x948 }
  - { offsetInCU: 0x22588D, offset: 0x22588D, size: 0x8, addend: 0x0, symName: __ZNSt3__16vectorIN5Eigen6MatrixIfLin1ELi1ELi0ELin1ELi1EEENS_9allocatorIS3_EEE26__swap_out_circular_bufferERNS_14__split_bufferIS3_RS5_EE, symObjAddr: 0x4EE38, symBinAddr: 0x1000516FC, symSize: 0x56C }
  - { offsetInCU: 0x225974, offset: 0x225974, size: 0x8, addend: 0x0, symName: __ZNSt3__16vectorINS_12basic_stringIcNS_11char_traitsIcEENS_9allocatorIcEEEENS4_IS6_EEE26__swap_out_circular_bufferERNS_14__split_bufferIS6_RS7_EE, symObjAddr: 0x56250, symBinAddr: 0x100058B14, symSize: 0x56C }
  - { offsetInCU: 0x225BA5, offset: 0x225BA5, size: 0x8, addend: 0x0, symName: __ZNKSt3__16chrono15__duration_castINS0_8durationIxNS_5ratioILl1ELl1000000EEEEENS2_IxNS3_ILl1ELl1000000000EEEEENS3_ILl1000ELl1EEELb0ELb1EEclB8ue170006ERKS5_, symObjAddr: 0x7E998, symBinAddr: 0x10008125C, symSize: 0x298 }
  - { offsetInCU: 0x225BE6, offset: 0x225BE6, size: 0x8, addend: 0x0, symName: __ZNSt3__16vectorIiNS_9allocatorIiEEE26__swap_out_circular_bufferERNS_14__split_bufferIiRS2_EE, symObjAddr: 0x87B78, symBinAddr: 0x10008A43C, symSize: 0x56C }
  - { offsetInCU: 0x2268D7, offset: 0x2268D7, size: 0x8, addend: 0x0, symName: __Z3powB8ue170006IdiENSt3__19enable_ifIXaasr3std13is_arithmeticIT_EE5valuesr3std13is_arithmeticIT0_EE5valueENS0_9__promoteIS2_S3_vEEE4type4typeES2_S3_, symObjAddr: 0xF47B0, symBinAddr: 0x1000F7074, symSize: 0x38 }
  - { offsetInCU: 0x226CB0, offset: 0x226CB0, size: 0x8, addend: 0x0, symName: __ZN5Eigen8internal19gemv_dense_selectorILi2ELi1ELb1EE3runINS_9TransposeIKNS_5BlockINS5_INS_6MatrixIfLin1ELin1ELi0ELin1ELin1EEELin1ELin1ELb0EEELin1ELin1ELb0EEEEENS4_IKNS4_IKNS5_INS5_IS7_Lin1ELi1ELb1EEELin1ELi1ELb0EEEEEEENS4_INS_3MapINS6_IfLi1ELin1ELi1ELi1ELin1EEELi0ENS_6StrideILi0ELi0EEEEEEEEEvRKT_RKT0_RT1_RKNSU_6ScalarE, symObjAddr: 0x117468, symBinAddr: 0x100119D2C, symSize: 0xA44 }
  - { offsetInCU: 0x227FBE, offset: 0x227FBE, size: 0x8, addend: 0x0, symName: __ZN5Eigen8internal13trmv_selectorILi6ELi1EE3runINS_9TransposeIKNS_5BlockIKNS5_INS_6MatrixIfLin1ELin1ELi0ELin1ELin1EEELin1ELin1ELb0EEELin1ELin1ELb0EEEEENS4_IKNS_13CwiseBinaryOpINS0_17scalar_product_opIffEEKNS_14CwiseNullaryOpINS0_18scalar_constant_opIfEEKNS6_IfLi1ELin1ELi1ELi1ELin1EEEEEKNS4_IKNS5_IKNS5_IS9_Lin1ELi1ELb1EEELin1ELi1ELb0EEEEEEEEENS4_INS5_INS5_INS6_IfLin1ELin1ELi1ELin1ELin1EEELi1ELin1ELb1EEELi1ELin1ELb0EEEEEEEvRKT_RKT0_RT1_RKNS16_6ScalarE, symObjAddr: 0x14294C, symBinAddr: 0x100145210, symSize: 0xC08 }
  - { offsetInCU: 0x2289E6, offset: 0x2289E6, size: 0x8, addend: 0x0, symName: __ZN5Eigen8internal23triangular_product_implILi6ELb1EKNS_9TransposeIKNS_5BlockINS_6MatrixIfLin1ELin1ELi0ELin1ELin1EEELin1ELin1ELb0EEEEELb0ENS3_INS4_IfLin1ELi1ELi0ELin1ELi1EEELin1ELin1ELb0EEELb0EE3runINS4_IfLin1ELin1ELi0ELin1ELi1EEEEEvRT_RS9_RKSB_RKNSF_6ScalarE, symObjAddr: 0x1593BC, symBinAddr: 0x10015BC80, symSize: 0xA9C }
  - { offsetInCU: 0x2291EB, offset: 0x2291EB, size: 0x8, addend: 0x0, symName: __ZN5Eigen8internal23triangular_product_implILi5ELb1EKNS_5BlockINS_6MatrixIfLin1ELin1ELi0ELin1ELin1EEELin1ELin1ELb0EEELb0ENS3_IfLin1ELin1ELi0ELin1ELi1EEELb0EE3runINS2_INS3_IfLin1ELi1ELi0ELin1ELi1EEELin1ELin1ELb0EEEEEvRT_RS6_RKS7_RKNSC_6ScalarE, symObjAddr: 0x18E4B8, symBinAddr: 0x100190D7C, symSize: 0xA24 }
  - { offsetInCU: 0x22B665, offset: 0x22B665, size: 0x8, addend: 0x0, symName: __ZN5Eigen8internal13trmv_selectorILi2ELi0EE3runINS_6MatrixIfLin1ELin1ELi0ELin1ELin1EEENS_7ProductINS_7InverseINS_17PermutationMatrixILin1ELin1EiEEEENS4_IfLin1ELi1ELi0ELin1ELi1EEELi2EEESB_EEvRKT_RKT0_RT1_RKNSJ_6ScalarE, symObjAddr: 0x1EB888, symBinAddr: 0x1001EE14C, symSize: 0xDC4 }
  - { offsetInCU: 0x22BABE, offset: 0x22BABE, size: 0x8, addend: 0x0, symName: __ZNSt3__124uniform_int_distributionIiEclINS_23mersenne_twister_engineIjLm32ELm624ELm397ELm31ELj2567483615ELm11ELj4294967295ELm7ELj2636928640ELm15ELj4022730752ELm18ELj1812433253EEEEEiRT_RKNS1_10param_typeE, symObjAddr: 0x20AE0C, symBinAddr: 0x10020D6D0, symSize: 0x41C }
  - { offsetInCU: 0x22DFE7, offset: 0x22DFE7, size: 0x8, addend: 0x0, symName: __ZN5Eigen8symbolic10SymbolExprINS_8internal17symbolic_last_tagEEC1Ev, symObjAddr: 0x0, symBinAddr: 0x1000028C4, symSize: 0x2C }
  - { offsetInCU: 0x22E011, offset: 0x22E011, size: 0x8, addend: 0x0, symName: __ZNK5Eigen8symbolic8BaseExprINS0_10SymbolExprINS_8internal17symbolic_last_tagEEEEplILi1EEENS0_7AddExprIS5_NS0_9ValueExprINS3_8FixedIntIXT_EEEEEEESB_, symObjAddr: 0x2C, symBinAddr: 0x1000028F0, symSize: 0x2C4 }
  - { offsetInCU: 0x22E04D, offset: 0x22E04D, size: 0x8, addend: 0x0, symName: __ZNK5Eigen8internal8FixedIntILi1EEclEv, symObjAddr: 0x2F0, symBinAddr: 0x100002BB4, symSize: 0x10 }
  - { offsetInCU: 0x22E073, offset: 0x22E073, size: 0x8, addend: 0x0, symName: __ZN5Eigen8internal5all_tC1Ev, symObjAddr: 0x300, symBinAddr: 0x100002BC4, symSize: 0x2C }
  - { offsetInCU: 0x22E09D, offset: 0x22E09D, size: 0x8, addend: 0x0, symName: __ZNSt3__113random_deviceC1B8ue170006Ev, symObjAddr: 0xDA0, symBinAddr: 0x100003664, symSize: 0x2E0 }
  - { offsetInCU: 0x22E0C8, offset: 0x22E0C8, size: 0x8, addend: 0x0, symName: __ZNSt3__123mersenne_twister_engineIjLm32ELm624ELm397ELm31ELj2567483615ELm11ELj4294967295ELm7ELj2636928640ELm15ELj4022730752ELm18ELj1812433253EEC1B8ue170006Ej, symObjAddr: 0x1080, symBinAddr: 0x100003944, symSize: 0x34 }
  - { offsetInCU: 0x22E12A, offset: 0x22E12A, size: 0x8, addend: 0x0, symName: __ZNSt3__125uniform_real_distributionIfEC1B8ue170006Eff, symObjAddr: 0x10B4, symBinAddr: 0x100003978, symSize: 0x3C }
  - { offsetInCU: 0x22E170, offset: 0x22E170, size: 0x8, addend: 0x0, symName: __ZN5Eigen6MatrixIfLin1ELin1ELi0ELin1ELin1EEC1IiiEERKT_RKT0_, symObjAddr: 0x10F0, symBinAddr: 0x1000039B4, symSize: 0x3C }
  - { offsetInCU: 0x22E1CA, offset: 0x22E1CA, size: 0x8, addend: 0x0, symName: __ZNSt3__125uniform_real_distributionIfEclB8ue170006INS_23mersenne_twister_engineIjLm32ELm624ELm397ELm31ELj2567483615ELm11ELj4294967295ELm7ELj2636928640ELm15ELj4022730752ELm18ELj1812433253EEEEEfRT_, symObjAddr: 0x112C, symBinAddr: 0x1000039F0, symSize: 0x30 }
  - { offsetInCU: 0x22E207, offset: 0x22E207, size: 0x8, addend: 0x0, symName: __ZN5Eigen15DenseCoeffsBaseINS_6MatrixIfLin1ELin1ELi0ELin1ELin1EEELi1EEclEll, symObjAddr: 0x115C, symBinAddr: 0x100003A20, symSize: 0xF8 }
  - { offsetInCU: 0x22E24B, offset: 0x22E24B, size: 0x8, addend: 0x0, symName: __ZN5Eigen6MatrixIfLin1ELi1ELi0ELin1ELi1EEC1IiEERKT_, symObjAddr: 0x1254, symBinAddr: 0x100003B18, symSize: 0x34 }
  - { offsetInCU: 0x22E28D, offset: 0x22E28D, size: 0x8, addend: 0x0, symName: __ZN5Eigen15DenseCoeffsBaseINS_6MatrixIfLin1ELi1ELi0ELin1ELi1EEELi1EEclEl, symObjAddr: 0x1288, symBinAddr: 0x100003B4C, symSize: 0xA8 }
  - { offsetInCU: 0x22E2C2, offset: 0x22E2C2, size: 0x8, addend: 0x0, symName: __ZN5Eigen6MatrixIfLin1ELi1ELi0ELin1ELi1EED1Ev, symObjAddr: 0x1330, symBinAddr: 0x100003BF4, symSize: 0x2C }
  - { offsetInCU: 0x22E2EE, offset: 0x22E2EE, size: 0x8, addend: 0x0, symName: __ZN5Eigen6MatrixIfLin1ELin1ELi0ELin1ELin1EED1Ev, symObjAddr: 0x135C, symBinAddr: 0x100003C20, symSize: 0x2C }
  - { offsetInCU: 0x22E319, offset: 0x22E319, size: 0x8, addend: 0x0, symName: __Z7trueModii, symObjAddr: 0x1388, symBinAddr: 0x100003C4C, symSize: 0x40 }
  - { offsetInCU: 0x22E353, offset: 0x22E353, size: 0x8, addend: 0x0, symName: __Z3MSERKN5Eigen6MatrixIfLin1ELi1ELi0ELin1ELi1EEES3_, symObjAddr: 0x13C8, symBinAddr: 0x100003C8C, symSize: 0x338 }
  - { offsetInCU: 0x22E390, offset: 0x22E390, size: 0x8, addend: 0x0, symName: __ZNK5Eigen9EigenBaseINS_6MatrixIfLin1ELi1ELi0ELin1ELi1EEEE4sizeEv, symObjAddr: 0x1700, symBinAddr: 0x100003FC4, symSize: 0x44 }
  - { offsetInCU: 0x22E3B6, offset: 0x22E3B6, size: 0x8, addend: 0x0, symName: __ZNSt16invalid_argumentC1B8ue170006EPKc, symObjAddr: 0x1744, symBinAddr: 0x100004008, symSize: 0x34 }
  - { offsetInCU: 0x22E3EE, offset: 0x22E3EE, size: 0x8, addend: 0x0, symName: __ZNK5Eigen10MatrixBaseINS_6MatrixIfLin1ELi1ELi0ELin1ELi1EEEEmiIS2_EEKNS_13CwiseBinaryOpINS_8internal20scalar_difference_opIfNS6_6traitsIT_E6ScalarEEEKS2_KS9_EERKNS0_IS9_EE, symObjAddr: 0x1778, symBinAddr: 0x10000403C, symSize: 0x214 }
  - { offsetInCU: 0x22E42D, offset: 0x22E42D, size: 0x8, addend: 0x0, symName: __ZNK5Eigen10MatrixBaseINS_13CwiseBinaryOpINS_8internal20scalar_difference_opIffEEKNS_6MatrixIfLin1ELi1ELi0ELin1ELi1EEES7_EEE11squaredNormEv, symObjAddr: 0x198C, symBinAddr: 0x100004250, symSize: 0x2A8 }
  - { offsetInCU: 0x22E455, offset: 0x22E455, size: 0x8, addend: 0x0, symName: __Z9loss_funcRKN5Eigen6MatrixIfLin1ELi1ELi0ELin1ELi1EEES3_, symObjAddr: 0x1C34, symBinAddr: 0x1000044F8, symSize: 0x3C }
  - { offsetInCU: 0x22E490, offset: 0x22E490, size: 0x8, addend: 0x0, symName: __ZNSt3__113unordered_mapINS_12basic_stringIcNS_11char_traitsIcEENS_9allocatorIcEEEENS_4pairIN5Eigen6MatrixIfLin1ELi1ELi0ELin1ELi1EEEbEENS_4hashIS6_EENS_8equal_toIS6_EENS4_INS7_IKS6_SB_EEEEEC1B8ue170006Ev, symObjAddr: 0x1C70, symBinAddr: 0x100004534, symSize: 0x2C }
  - { offsetInCU: 0x22E4BA, offset: 0x22E4BA, size: 0x8, addend: 0x0, symName: __ZNSt3__113unordered_mapINS_12basic_stringIcNS_11char_traitsIcEENS_9allocatorIcEEEENS_4pairIN5Eigen6MatrixIfLin1ELi1ELi0ELin1ELi1EEEbEENS_4hashIS6_EENS_8equal_toIS6_EENS4_INS7_IKS6_SB_EEEEED1B8ue170006Ev, symObjAddr: 0x1C9C, symBinAddr: 0x100004560, symSize: 0x2C }
  - { offsetInCU: 0x22E4E4, offset: 0x22E4E4, size: 0x8, addend: 0x0, symName: __ZNSt3__16vectorINS_12basic_stringIcNS_11char_traitsIcEENS_9allocatorIcEEEENS4_IS6_EEED1B8ue170006Ev, symObjAddr: 0x1CC8, symBinAddr: 0x10000458C, symSize: 0x2C }
  - { offsetInCU: 0x22E50E, offset: 0x22E50E, size: 0x8, addend: 0x0, symName: __ZNSt3__16vectorIfNS_9allocatorIfEEED1B8ue170006Ev, symObjAddr: 0x1CF4, symBinAddr: 0x1000045B8, symSize: 0x2C }
  - { offsetInCU: 0x22E538, offset: 0x22E538, size: 0x8, addend: 0x0, symName: __ZN4DataC1Ev, symObjAddr: 0x1D20, symBinAddr: 0x1000045E4, symSize: 0x2C }
  - { offsetInCU: 0x22E562, offset: 0x22E562, size: 0x8, addend: 0x0, symName: __ZN4DataD1Ev, symObjAddr: 0x1D4C, symBinAddr: 0x100004610, symSize: 0x2C }
  - { offsetInCU: 0x22E58E, offset: 0x22E58E, size: 0x8, addend: 0x0, symName: __ZNSt3__113unordered_mapIfNS_12basic_stringIcNS_11char_traitsIcEENS_9allocatorIcEEEENS_4hashIfEENS_8equal_toIfEENS4_INS_4pairIKfS6_EEEEEC1B8ue170006Ev, symObjAddr: 0x1D78, symBinAddr: 0x10000463C, symSize: 0x2C }
  - { offsetInCU: 0x22E5B8, offset: 0x22E5B8, size: 0x8, addend: 0x0, symName: __ZNSt3__113unordered_mapIfNS_12basic_stringIcNS_11char_traitsIcEENS_9allocatorIcEEEENS_4hashIfEENS_8equal_toIfEENS4_INS_4pairIKfS6_EEEEED1B8ue170006Ev, symObjAddr: 0x1DA4, symBinAddr: 0x100004668, symSize: 0x2C }
  - { offsetInCU: 0x22E5E2, offset: 0x22E5E2, size: 0x8, addend: 0x0, symName: __ZNSt3__113unordered_mapINS_12basic_stringIcNS_11char_traitsIcEENS_9allocatorIcEEEEfNS_4hashIS6_EENS_8equal_toIS6_EENS4_INS_4pairIKS6_fEEEEEC1B8ue170006Ev, symObjAddr: 0x1DD0, symBinAddr: 0x100004694, symSize: 0x2C }
  - { offsetInCU: 0x22E60C, offset: 0x22E60C, size: 0x8, addend: 0x0, symName: __ZNSt3__113unordered_mapINS_12basic_stringIcNS_11char_traitsIcEENS_9allocatorIcEEEEfNS_4hashIS6_EENS_8equal_toIS6_EENS4_INS_4pairIKS6_fEEEEED1B8ue170006Ev, symObjAddr: 0x1DFC, symBinAddr: 0x1000046C0, symSize: 0x2C }
  - { offsetInCU: 0x22E636, offset: 0x22E636, size: 0x8, addend: 0x0, symName: __ZNSt3__113unordered_mapIbNS0_IbNS0_IbNS_6vectorIfNS_9allocatorIfEEEENS_4hashIbEENS_8equal_toIbEENS2_INS_4pairIKbS4_EEEEEES6_S8_NS2_INS9_ISA_SD_EEEEEES6_S8_NS2_INS9_ISA_SG_EEEEEC1B8ue170006Ev, symObjAddr: 0x1E28, symBinAddr: 0x1000046EC, symSize: 0x2C }
  - { offsetInCU: 0x22E660, offset: 0x22E660, size: 0x8, addend: 0x0, symName: __ZNSt3__113unordered_mapIbNS0_IbNS0_IbNS_6vectorIfNS_9allocatorIfEEEENS_4hashIbEENS_8equal_toIbEENS2_INS_4pairIKbS4_EEEEEES6_S8_NS2_INS9_ISA_SD_EEEEEES6_S8_NS2_INS9_ISA_SG_EEEEED1B8ue170006Ev, symObjAddr: 0x1E54, symBinAddr: 0x100004718, symSize: 0x2C }
  - { offsetInCU: 0x22E689, offset: 0x22E689, size: 0x8, addend: 0x0, symName: __Z11exampleFuncRKN5Eigen6MatrixIfLin1ELi1ELi0ELin1ELi1EEE, symObjAddr: 0x1E80, symBinAddr: 0x100004744, symSize: 0x208 }
  - { offsetInCU: 0x22E6B8, offset: 0x22E6B8, size: 0x8, addend: 0x0, symName: __ZNK5Eigen15DenseCoeffsBaseINS_6MatrixIfLin1ELi1ELi0ELin1ELi1EEELi0EEixEl, symObjAddr: 0x2088, symBinAddr: 0x10000494C, symSize: 0xA8 }
  - { offsetInCU: 0x22E6EC, offset: 0x22E6EC, size: 0x8, addend: 0x0, symName: __ZNSt3__13mapIiNS_6vectorIdNS_9allocatorIdEEEENS_4lessIiEENS2_INS_4pairIKiS4_EEEEEC1B8ue170006Ev, symObjAddr: 0x37B4, symBinAddr: 0x100006078, symSize: 0x2C }
  - { offsetInCU: 0x22E716, offset: 0x22E716, size: 0x8, addend: 0x0, symName: __ZNSt3__16vectorINS_6threadENS_9allocatorIS1_EEEC1Em, symObjAddr: 0x37E0, symBinAddr: 0x1000060A4, symSize: 0x34 }
  - { offsetInCU: 0x22E751, offset: 0x22E751, size: 0x8, addend: 0x0, symName: __ZNSt3__15latchC1B8ue170006El, symObjAddr: 0x3814, symBinAddr: 0x1000060D8, symSize: 0x34 }
  - { offsetInCU: 0x22E789, offset: 0x22E789, size: 0x8, addend: 0x0, symName: __ZNSt3__16vectorINS_4pairIifEENS_9allocatorIS2_EEEC1B8ue170006Ev, symObjAddr: 0x3848, symBinAddr: 0x10000610C, symSize: 0x2C }
  - { offsetInCU: 0x22E7B9, offset: 0x22E7B9, size: 0x8, addend: 0x0, symName: '__ZNSt3__16threadC1IZ12RandomSearchRKN5Eigen6MatrixIfLin1ELin1ELi0ELin1ELin1EEEiidiPKcijE3$_0JEvEEOT_DpOT0_', symObjAddr: 0x3874, symBinAddr: 0x100006138, symSize: 0x34 }
  - { offsetInCU: 0x22E802, offset: 0x22E802, size: 0x8, addend: 0x0, symName: '__ZNSt3__16threadC1IRZ12RandomSearchRKN5Eigen6MatrixIfLin1ELin1ELi0ELin1ELin1EEEiidiPKcijE3$_1JEvEEOT_DpOT0_', symObjAddr: 0x38A8, symBinAddr: 0x10000616C, symSize: 0x34 }
  - { offsetInCU: 0x22E84B, offset: 0x22E84B, size: 0x8, addend: 0x0, symName: __ZNSt3__16vectorINS_6threadENS_9allocatorIS1_EEEixB8ue170006Em, symObjAddr: 0x38DC, symBinAddr: 0x1000061A0, symSize: 0x6C }
  - { offsetInCU: 0x22E882, offset: 0x22E882, size: 0x8, addend: 0x0, symName: __ZNSt3__16threadaSB8ue170006EOS0_, symObjAddr: 0x3948, symBinAddr: 0x10000620C, symSize: 0x124 }
  - { offsetInCU: 0x22E8B6, offset: 0x22E8B6, size: 0x8, addend: 0x0, symName: __ZNSt3__16vectorINS_4pairIifEENS_9allocatorIS2_EEE5beginB8ue170006Ev, symObjAddr: 0x3A6C, symBinAddr: 0x100006330, symSize: 0x268 }
  - { offsetInCU: 0x22E8DF, offset: 0x22E8DF, size: 0x8, addend: 0x0, symName: __ZNSt3__16vectorINS_4pairIifEENS_9allocatorIS2_EEE3endB8ue170006Ev, symObjAddr: 0x3CD4, symBinAddr: 0x100006598, symSize: 0x26C }
  - { offsetInCU: 0x22E908, offset: 0x22E908, size: 0x8, addend: 0x0, symName: __ZNKSt3__111__wrap_iterIPNS_4pairIifEEEdeB8ue170006Ev, symObjAddr: 0x3F74, symBinAddr: 0x100006838, symSize: 0x60 }
  - { offsetInCU: 0x22E92E, offset: 0x22E92E, size: 0x8, addend: 0x0, symName: __ZNSt3__13mapIiNS_6vectorIdNS_9allocatorIdEEEENS_4lessIiEENS2_INS_4pairIKiS4_EEEEEixERS8_, symObjAddr: 0x3FD4, symBinAddr: 0x100006898, symSize: 0x314 }
  - { offsetInCU: 0x22E967, offset: 0x22E967, size: 0x8, addend: 0x0, symName: __ZNSt3__16vectorIdNS_9allocatorIdEEE9push_backB8ue170006EOd, symObjAddr: 0x42E8, symBinAddr: 0x100006BAC, symSize: 0xE0 }
  - { offsetInCU: 0x22E99E, offset: 0x22E99E, size: 0x8, addend: 0x0, symName: __ZNSt3__111__wrap_iterIPNS_4pairIifEEEppB8ue170006Ev, symObjAddr: 0x43C8, symBinAddr: 0x100006C8C, symSize: 0x68 }
  - { offsetInCU: 0x22E9C4, offset: 0x22E9C4, size: 0x8, addend: 0x0, symName: __ZNKSt3__113unordered_mapINS_12basic_stringIcNS_11char_traitsIcEENS_9allocatorIcEEEENS_4pairIN5Eigen6MatrixIfLin1ELi1ELi0ELin1ELi1EEEbEENS_4hashIS6_EENS_8equal_toIS6_EENS4_INS7_IKS6_SB_EEEEE4sizeB8ue170006Ev, symObjAddr: 0x4698, symBinAddr: 0x100006F5C, symSize: 0x24 }
  - { offsetInCU: 0x22E9EA, offset: 0x22E9EA, size: 0x8, addend: 0x0, symName: __ZNSt3__16vectorINS_4pairIifEENS_9allocatorIS2_EEED1B8ue170006Ev, symObjAddr: 0x46BC, symBinAddr: 0x100006F80, symSize: 0x2C }
  - { offsetInCU: 0x22EACA, offset: 0x22EACA, size: 0x8, addend: 0x0, symName: __ZNSt3__114basic_ofstreamIcNS_11char_traitsIcEEEC1EPKcj, symObjAddr: 0x46E8, symBinAddr: 0x100006FAC, symSize: 0x2AC }
  - { offsetInCU: 0x22EB14, offset: 0x22EB14, size: 0x8, addend: 0x0, symName: __ZNSt3__13mapIiNS_6vectorIdNS_9allocatorIdEEEENS_4lessIiEENS2_INS_4pairIKiS4_EEEEE5beginB8ue170006Ev, symObjAddr: 0x4994, symBinAddr: 0x100007258, symSize: 0x2B4 }
  - { offsetInCU: 0x22EB3B, offset: 0x22EB3B, size: 0x8, addend: 0x0, symName: __ZNSt3__13mapIiNS_6vectorIdNS_9allocatorIdEEEENS_4lessIiEENS2_INS_4pairIKiS4_EEEEE3endB8ue170006Ev, symObjAddr: 0x4C48, symBinAddr: 0x10000750C, symSize: 0x2B4 }
  - { offsetInCU: 0x22EB62, offset: 0x22EB62, size: 0x8, addend: 0x0, symName: __ZNKSt3__114__map_iteratorINS_15__tree_iteratorINS_12__value_typeIiNS_6vectorIdNS_9allocatorIdEEEEEEPNS_11__tree_nodeIS7_PvEElEEEdeB8ue170006Ev, symObjAddr: 0x4F2C, symBinAddr: 0x1000077F0, symSize: 0x28 }
  - { offsetInCU: 0x22EB88, offset: 0x22EB88, size: 0x8, addend: 0x0, symName: __ZNSt3__16vectorIdNS_9allocatorIdEEE5beginB8ue170006Ev, symObjAddr: 0x4F54, symBinAddr: 0x100007818, symSize: 0x268 }
  - { offsetInCU: 0x22EBB1, offset: 0x22EBB1, size: 0x8, addend: 0x0, symName: __ZNSt3__16vectorIdNS_9allocatorIdEEE3endB8ue170006Ev, symObjAddr: 0x51BC, symBinAddr: 0x100007A80, symSize: 0x26C }
  - { offsetInCU: 0x22EBDA, offset: 0x22EBDA, size: 0x8, addend: 0x0, symName: __ZNKSt3__111__wrap_iterIPdEdeB8ue170006Ev, symObjAddr: 0x545C, symBinAddr: 0x100007D20, symSize: 0x60 }
  - { offsetInCU: 0x22EC00, offset: 0x22EC00, size: 0x8, addend: 0x0, symName: __ZNSt3__16vectorIdNS_9allocatorIdEEE4backB8ue170006Ev, symObjAddr: 0x54BC, symBinAddr: 0x100007D80, symSize: 0x68 }
  - { offsetInCU: 0x22EC26, offset: 0x22EC26, size: 0x8, addend: 0x0, symName: __ZNSt3__111__wrap_iterIPdEppB8ue170006Ev, symObjAddr: 0x5524, symBinAddr: 0x100007DE8, symSize: 0x68 }
  - { offsetInCU: 0x22EC4C, offset: 0x22EC4C, size: 0x8, addend: 0x0, symName: __ZNSt3__114__map_iteratorINS_15__tree_iteratorINS_12__value_typeIiNS_6vectorIdNS_9allocatorIdEEEEEEPNS_11__tree_nodeIS7_PvEElEEEppB8ue170006Ev, symObjAddr: 0x558C, symBinAddr: 0x100007E50, symSize: 0x2C }
  - { offsetInCU: 0x22EC72, offset: 0x22EC72, size: 0x8, addend: 0x0, symName: __ZNSt3__114basic_ofstreamIcNS_11char_traitsIcEEE5closeEv, symObjAddr: 0x55B8, symBinAddr: 0x100007E7C, symSize: 0xD4 }
  - { offsetInCU: 0x22ECA0, offset: 0x22ECA0, size: 0x8, addend: 0x0, symName: __ZNSt3__114basic_ofstreamIcNS_11char_traitsIcEEED1Ev, symObjAddr: 0x568C, symBinAddr: 0x100007F50, symSize: 0x40 }
  - { offsetInCU: 0x22ECCD, offset: 0x22ECCD, size: 0x8, addend: 0x0, symName: __ZNSt3__16vectorINS_6threadENS_9allocatorIS1_EEED1B8ue170006Ev, symObjAddr: 0x56CC, symBinAddr: 0x100007F90, symSize: 0x2C }
  - { offsetInCU: 0x22ECF7, offset: 0x22ECF7, size: 0x8, addend: 0x0, symName: __ZNSt3__13mapIiNS_6vectorIdNS_9allocatorIdEEEENS_4lessIiEENS2_INS_4pairIKiS4_EEEEED1B8ue170006Ev, symObjAddr: 0x56F8, symBinAddr: 0x100007FBC, symSize: 0x2C }
  - { offsetInCU: 0x22ED21, offset: 0x22ED21, size: 0x8, addend: 0x0, symName: _main, symObjAddr: 0x5724, symBinAddr: 0x100007FE8, symSize: 0x30C }
  - { offsetInCU: 0x22ED3C, offset: 0x22ED3C, size: 0x8, addend: 0x0, symName: __ZN5Eigen8internal8FixedIntILi1EEC1Ev, symObjAddr: 0x5A30, symBinAddr: 0x1000082F4, symSize: 0x2C }
  - { offsetInCU: 0x22ED66, offset: 0x22ED66, size: 0x8, addend: 0x0, symName: __ZN5Eigen8internal8FixedIntILi0EEC1Ev, symObjAddr: 0x5A5C, symBinAddr: 0x100008320, symSize: 0x2C }
  - { offsetInCU: 0x22ED90, offset: 0x22ED90, size: 0x8, addend: 0x0, symName: __ZN5Eigen8internal8FixedIntILi2EEC1Ev, symObjAddr: 0x5A88, symBinAddr: 0x10000834C, symSize: 0x2C }
  - { offsetInCU: 0x22EDBA, offset: 0x22EDBA, size: 0x8, addend: 0x0, symName: __ZN5Eigen8internal8FixedIntILi3EEC1Ev, symObjAddr: 0x5AB4, symBinAddr: 0x100008378, symSize: 0x2C }
  - { offsetInCU: 0x22EDE4, offset: 0x22EDE4, size: 0x8, addend: 0x0, symName: __ZN5Eigen8internal5all_tC2Ev, symObjAddr: 0x5AE0, symBinAddr: 0x1000083A4, symSize: 0x14 }
  - { offsetInCU: 0x22EE14, offset: 0x22EE14, size: 0x8, addend: 0x0, symName: __ZNSt3__112basic_stringIcNS_11char_traitsIcEENS_9allocatorIcEEEC1B8ue170006ILi0EEEPKc, symObjAddr: 0x5AF4, symBinAddr: 0x1000083B8, symSize: 0x34 }
  - { offsetInCU: 0x22EE54, offset: 0x22EE54, size: 0x8, addend: 0x0, symName: __ZNSt3__112basic_stringIcNS_11char_traitsIcEENS_9allocatorIcEEEC2B8ue170006ILi0EEEPKc, symObjAddr: 0x5B28, symBinAddr: 0x1000083EC, symSize: 0x210 }
  - { offsetInCU: 0x22EE9C, offset: 0x22EE9C, size: 0x8, addend: 0x0, symName: __ZNSt3__117__compressed_pairINS_12basic_stringIcNS_11char_traitsIcEENS_9allocatorIcEEE5__repES5_EC1B8ue170006INS_18__default_init_tagESA_EEOT_OT0_, symObjAddr: 0x5D38, symBinAddr: 0x1000085FC, symSize: 0x3C }
  - { offsetInCU: 0x22EEF4, offset: 0x22EEF4, size: 0x8, addend: 0x0, symName: __ZNSt3__111char_traitsIcE6lengthB8ue170006EPKc, symObjAddr: 0x5D74, symBinAddr: 0x100008638, symSize: 0x40 }
  - { offsetInCU: 0x22EF17, offset: 0x22EF17, size: 0x8, addend: 0x0, symName: __ZNSt3__117__compressed_pairINS_12basic_stringIcNS_11char_traitsIcEENS_9allocatorIcEEE5__repES5_EC2B8ue170006INS_18__default_init_tagESA_EEOT_OT0_, symObjAddr: 0x5DB4, symBinAddr: 0x100008678, symSize: 0x3C }
  - { offsetInCU: 0x22EF6F, offset: 0x22EF6F, size: 0x8, addend: 0x0, symName: __ZNSt3__122__compressed_pair_elemINS_12basic_stringIcNS_11char_traitsIcEENS_9allocatorIcEEE5__repELi0ELb0EEC2B8ue170006ENS_18__default_init_tagE, symObjAddr: 0x5DF0, symBinAddr: 0x1000086B4, symSize: 0x14 }
  - { offsetInCU: 0x22EFA3, offset: 0x22EFA3, size: 0x8, addend: 0x0, symName: __ZNSt3__122__compressed_pair_elemINS_9allocatorIcEELi1ELb1EEC2B8ue170006ENS_18__default_init_tagE, symObjAddr: 0x5E04, symBinAddr: 0x1000086C8, symSize: 0x2C }
  - { offsetInCU: 0x22EFD7, offset: 0x22EFD7, size: 0x8, addend: 0x0, symName: __ZNSt3__19allocatorIcEC2B8ue170006Ev, symObjAddr: 0x5E30, symBinAddr: 0x1000086F4, symSize: 0x2C }
  - { offsetInCU: 0x22F001, offset: 0x22F001, size: 0x8, addend: 0x0, symName: __ZNSt3__116__non_trivial_ifILb1ENS_9allocatorIcEEEC2B8ue170006Ev, symObjAddr: 0x5E5C, symBinAddr: 0x100008720, symSize: 0x14 }
  - { offsetInCU: 0x22F02B, offset: 0x22F02B, size: 0x8, addend: 0x0, symName: __ZN5Eigen6MatrixIfLin1ELi1ELi0ELin1ELi1EED2Ev, symObjAddr: 0x5EA0, symBinAddr: 0x100008764, symSize: 0x2C }
  - { offsetInCU: 0x22F057, offset: 0x22F057, size: 0x8, addend: 0x0, symName: __ZN5Eigen15PlainObjectBaseINS_6MatrixIfLin1ELi1ELi0ELin1ELi1EEEED2Ev, symObjAddr: 0x5ECC, symBinAddr: 0x100008790, symSize: 0x2C }
  - { offsetInCU: 0x22F083, offset: 0x22F083, size: 0x8, addend: 0x0, symName: __ZN5Eigen12DenseStorageIfLin1ELin1ELi1ELi0EED1Ev, symObjAddr: 0x5EF8, symBinAddr: 0x1000087BC, symSize: 0x2C }
  - { offsetInCU: 0x22F0AD, offset: 0x22F0AD, size: 0x8, addend: 0x0, symName: __ZN5Eigen12DenseStorageIfLin1ELin1ELi1ELi0EED2Ev, symObjAddr: 0x5F24, symBinAddr: 0x1000087E8, symSize: 0xC8 }
  - { offsetInCU: 0x22F0D7, offset: 0x22F0D7, size: 0x8, addend: 0x0, symName: __ZN5Eigen6MatrixIfLin1ELin1ELi0ELin1ELin1EED2Ev, symObjAddr: 0x605C, symBinAddr: 0x100008920, symSize: 0x2C }
  - { offsetInCU: 0x22F103, offset: 0x22F103, size: 0x8, addend: 0x0, symName: __ZN5Eigen15PlainObjectBaseINS_6MatrixIfLin1ELin1ELi0ELin1ELin1EEEED2Ev, symObjAddr: 0x6088, symBinAddr: 0x10000894C, symSize: 0x2C }
  - { offsetInCU: 0x22F12F, offset: 0x22F12F, size: 0x8, addend: 0x0, symName: __ZN5Eigen12DenseStorageIfLin1ELin1ELin1ELi0EED1Ev, symObjAddr: 0x60B4, symBinAddr: 0x100008978, symSize: 0x2C }
  - { offsetInCU: 0x22F159, offset: 0x22F159, size: 0x8, addend: 0x0, symName: __ZN5Eigen12DenseStorageIfLin1ELin1ELin1ELi0EED2Ev, symObjAddr: 0x60E0, symBinAddr: 0x1000089A4, symSize: 0x104 }
  - { offsetInCU: 0x22F183, offset: 0x22F183, size: 0x8, addend: 0x0, symName: __ZNK5Eigen9EigenBaseINS_6MatrixIfLin1ELi1ELi0ELin1ELi1EEEE4rowsEv, symObjAddr: 0x61E4, symBinAddr: 0x100008AA8, symSize: 0x44 }
  - { offsetInCU: 0x22F1A9, offset: 0x22F1A9, size: 0x8, addend: 0x0, symName: __ZNK5Eigen9EigenBaseINS_6MatrixIfLin1ELi1ELi0ELin1ELi1EEEE4colsEv, symObjAddr: 0x6228, symBinAddr: 0x100008AEC, symSize: 0x28 }
  - { offsetInCU: 0x22F1CF, offset: 0x22F1CF, size: 0x8, addend: 0x0, symName: __ZNK5Eigen9EigenBaseINS_6MatrixIfLin1ELi1ELi0ELin1ELi1EEEE7derivedEv, symObjAddr: 0x6250, symBinAddr: 0x100008B14, symSize: 0x14 }
  - { offsetInCU: 0x22F1F5, offset: 0x22F1F5, size: 0x8, addend: 0x0, symName: __ZNK5Eigen15PlainObjectBaseINS_6MatrixIfLin1ELi1ELi0ELin1ELi1EEEE4rowsEv, symObjAddr: 0x6264, symBinAddr: 0x100008B28, symSize: 0x24 }
  - { offsetInCU: 0x22F21B, offset: 0x22F21B, size: 0x8, addend: 0x0, symName: __ZNK5Eigen12DenseStorageIfLin1ELin1ELi1ELi0EE4rowsEv, symObjAddr: 0x6288, symBinAddr: 0x100008B4C, symSize: 0x64 }
  - { offsetInCU: 0x22F241, offset: 0x22F241, size: 0x8, addend: 0x0, symName: __ZNK5Eigen15PlainObjectBaseINS_6MatrixIfLin1ELi1ELi0ELin1ELi1EEEE4colsEv, symObjAddr: 0x62EC, symBinAddr: 0x100008BB0, symSize: 0x3C }
  - { offsetInCU: 0x22F267, offset: 0x22F267, size: 0x8, addend: 0x0, symName: __ZN5Eigen12DenseStorageIfLin1ELin1ELi1ELi0EE4colsEv, symObjAddr: 0x6328, symBinAddr: 0x100008BEC, symSize: 0x8 }
  - { offsetInCU: 0x22F27B, offset: 0x22F27B, size: 0x8, addend: 0x0, symName: __ZNSt16invalid_argumentC2B8ue170006EPKc, symObjAddr: 0x6330, symBinAddr: 0x100008BF4, symSize: 0x8C }
  - { offsetInCU: 0x22F2B3, offset: 0x22F2B3, size: 0x8, addend: 0x0, symName: __ZNSt3__16vectorINS_12basic_stringIcNS_11char_traitsIcEENS_9allocatorIcEEEENS4_IS6_EEED2B8ue170006Ev, symObjAddr: 0x63BC, symBinAddr: 0x100008C80, symSize: 0x1F8 }
  - { offsetInCU: 0x22F2DE, offset: 0x22F2DE, size: 0x8, addend: 0x0, symName: __ZNSt3__16vectorINS_12basic_stringIcNS_11char_traitsIcEENS_9allocatorIcEEEENS4_IS6_EEE16__destroy_vectorC1B8ue170006ERS8_, symObjAddr: 0x65B4, symBinAddr: 0x100008E78, symSize: 0x34 }
  - { offsetInCU: 0x22F317, offset: 0x22F317, size: 0x8, addend: 0x0, symName: __ZNSt3__16vectorINS_12basic_stringIcNS_11char_traitsIcEENS_9allocatorIcEEEENS4_IS6_EEE16__destroy_vectorclB8ue170006Ev, symObjAddr: 0x65E8, symBinAddr: 0x100008EAC, symSize: 0x228 }
  - { offsetInCU: 0x22F33D, offset: 0x22F33D, size: 0x8, addend: 0x0, symName: __ZNSt3__16vectorINS_12basic_stringIcNS_11char_traitsIcEENS_9allocatorIcEEEENS4_IS6_EEE16__destroy_vectorC2B8ue170006ERS8_, symObjAddr: 0x6810, symBinAddr: 0x1000090D4, symSize: 0x70 }
  - { offsetInCU: 0x22F376, offset: 0x22F376, size: 0x8, addend: 0x0, symName: __ZNSt3__16vectorINS_12basic_stringIcNS_11char_traitsIcEENS_9allocatorIcEEEENS4_IS6_EEE7__clearB8ue170006Ev, symObjAddr: 0x6880, symBinAddr: 0x100009144, symSize: 0x64 }
  - { offsetInCU: 0x22F39C, offset: 0x22F39C, size: 0x8, addend: 0x0, symName: __ZNKSt3__16vectorINS_12basic_stringIcNS_11char_traitsIcEENS_9allocatorIcEEEENS4_IS6_EEE17__annotate_deleteB8ue170006Ev, symObjAddr: 0x68E4, symBinAddr: 0x1000091A8, symSize: 0xE8 }
  - { offsetInCU: 0x22F3C2, offset: 0x22F3C2, size: 0x8, addend: 0x0, symName: __ZNSt3__116allocator_traitsINS_9allocatorINS_12basic_stringIcNS_11char_traitsIcEENS1_IcEEEEEEE10deallocateB8ue170006ERS7_PS6_m, symObjAddr: 0x69CC, symBinAddr: 0x100009290, symSize: 0x34 }
  - { offsetInCU: 0x22F404, offset: 0x22F404, size: 0x8, addend: 0x0, symName: __ZNSt3__16vectorINS_12basic_stringIcNS_11char_traitsIcEENS_9allocatorIcEEEENS4_IS6_EEE7__allocB8ue170006Ev, symObjAddr: 0x6A00, symBinAddr: 0x1000092C4, symSize: 0x28 }
  - { offsetInCU: 0x22F42A, offset: 0x22F42A, size: 0x8, addend: 0x0, symName: __ZNKSt3__16vectorINS_12basic_stringIcNS_11char_traitsIcEENS_9allocatorIcEEEENS4_IS6_EEE8capacityB8ue170006Ev, symObjAddr: 0x6A28, symBinAddr: 0x1000092EC, symSize: 0xBC }
  - { offsetInCU: 0x22F450, offset: 0x22F450, size: 0x8, addend: 0x0, symName: __ZNSt3__16vectorINS_12basic_stringIcNS_11char_traitsIcEENS_9allocatorIcEEEENS4_IS6_EEE22__base_destruct_at_endB8ue170006EPS6_, symObjAddr: 0x6AE4, symBinAddr: 0x1000093A8, symSize: 0x114 }
  - { offsetInCU: 0x22F494, offset: 0x22F494, size: 0x8, addend: 0x0, symName: __ZNSt3__116allocator_traitsINS_9allocatorINS_12basic_stringIcNS_11char_traitsIcEENS1_IcEEEEEEE7destroyB8ue170006IS6_vvEEvRS7_PT_, symObjAddr: 0x6BF8, symBinAddr: 0x1000094BC, symSize: 0x28 }
  - { offsetInCU: 0x22F4D0, offset: 0x22F4D0, size: 0x8, addend: 0x0, symName: __ZNKSt3__16vectorINS_12basic_stringIcNS_11char_traitsIcEENS_9allocatorIcEEEENS4_IS6_EEE31__annotate_contiguous_containerEPKvSA_SA_SA_, symObjAddr: 0x6C7C, symBinAddr: 0x100009540, symSize: 0x58 }
  - { offsetInCU: 0x22F532, offset: 0x22F532, size: 0x8, addend: 0x0, symName: __ZNKSt3__16vectorINS_12basic_stringIcNS_11char_traitsIcEENS_9allocatorIcEEEENS4_IS6_EEE4dataB8ue170006Ev, symObjAddr: 0x6CD4, symBinAddr: 0x100009598, symSize: 0x64 }
  - { offsetInCU: 0x22F558, offset: 0x22F558, size: 0x8, addend: 0x0, symName: __ZNKSt3__16vectorINS_12basic_stringIcNS_11char_traitsIcEENS_9allocatorIcEEEENS4_IS6_EEE4sizeB8ue170006Ev, symObjAddr: 0x6D38, symBinAddr: 0x1000095FC, symSize: 0xB0 }
  - { offsetInCU: 0x22F57E, offset: 0x22F57E, size: 0x8, addend: 0x0, symName: __ZNSt3__19allocatorINS_12basic_stringIcNS_11char_traitsIcEENS0_IcEEEEE10deallocateB8ue170006EPS5_m, symObjAddr: 0x6DE8, symBinAddr: 0x1000096AC, symSize: 0x50 }
  - { offsetInCU: 0x22F5C0, offset: 0x22F5C0, size: 0x8, addend: 0x0, symName: __ZNSt3__117__compressed_pairIPNS_12basic_stringIcNS_11char_traitsIcEENS_9allocatorIcEEEENS4_IS6_EEE6secondB8ue170006Ev, symObjAddr: 0x6F60, symBinAddr: 0x100009824, symSize: 0x24 }
  - { offsetInCU: 0x22F5E6, offset: 0x22F5E6, size: 0x8, addend: 0x0, symName: __ZNSt3__122__compressed_pair_elemINS_9allocatorINS_12basic_stringIcNS_11char_traitsIcEENS1_IcEEEEEELi1ELb1EE5__getB8ue170006Ev, symObjAddr: 0x6F84, symBinAddr: 0x100009848, symSize: 0x14 }
  - { offsetInCU: 0x22F60C, offset: 0x22F60C, size: 0x8, addend: 0x0, symName: __ZNKSt3__16vectorINS_12basic_stringIcNS_11char_traitsIcEENS_9allocatorIcEEEENS4_IS6_EEE9__end_capB8ue170006Ev, symObjAddr: 0x6F98, symBinAddr: 0x10000985C, symSize: 0x28 }
  - { offsetInCU: 0x22F632, offset: 0x22F632, size: 0x8, addend: 0x0, symName: __ZNKSt3__117__compressed_pairIPNS_12basic_stringIcNS_11char_traitsIcEENS_9allocatorIcEEEENS4_IS6_EEE5firstB8ue170006Ev, symObjAddr: 0x6FC0, symBinAddr: 0x100009884, symSize: 0x24 }
  - { offsetInCU: 0x22F658, offset: 0x22F658, size: 0x8, addend: 0x0, symName: __ZNKSt3__122__compressed_pair_elemIPNS_12basic_stringIcNS_11char_traitsIcEENS_9allocatorIcEEEELi0ELb0EE5__getB8ue170006Ev, symObjAddr: 0x6FE4, symBinAddr: 0x1000098A8, symSize: 0x14 }
  - { offsetInCU: 0x22F67E, offset: 0x22F67E, size: 0x8, addend: 0x0, symName: __ZNSt3__16vectorIfNS_9allocatorIfEEED2B8ue170006Ev, symObjAddr: 0x6FF8, symBinAddr: 0x1000098BC, symSize: 0x1F8 }
  - { offsetInCU: 0x22F6A9, offset: 0x22F6A9, size: 0x8, addend: 0x0, symName: __ZNSt3__16vectorIfNS_9allocatorIfEEE16__destroy_vectorC1B8ue170006ERS3_, symObjAddr: 0x71F0, symBinAddr: 0x100009AB4, symSize: 0x34 }
  - { offsetInCU: 0x22F6E2, offset: 0x22F6E2, size: 0x8, addend: 0x0, symName: __ZNSt3__16vectorIfNS_9allocatorIfEEE16__destroy_vectorclB8ue170006Ev, symObjAddr: 0x7224, symBinAddr: 0x100009AE8, symSize: 0x228 }
  - { offsetInCU: 0x22F708, offset: 0x22F708, size: 0x8, addend: 0x0, symName: __ZNSt3__16vectorIfNS_9allocatorIfEEE16__destroy_vectorC2B8ue170006ERS3_, symObjAddr: 0x744C, symBinAddr: 0x100009D10, symSize: 0x70 }
  - { offsetInCU: 0x22F741, offset: 0x22F741, size: 0x8, addend: 0x0, symName: __ZNSt3__16vectorIfNS_9allocatorIfEEE7__clearB8ue170006Ev, symObjAddr: 0x74BC, symBinAddr: 0x100009D80, symSize: 0x64 }
  - { offsetInCU: 0x22F767, offset: 0x22F767, size: 0x8, addend: 0x0, symName: __ZNKSt3__16vectorIfNS_9allocatorIfEEE17__annotate_deleteB8ue170006Ev, symObjAddr: 0x7520, symBinAddr: 0x100009DE4, symSize: 0xCC }
  - { offsetInCU: 0x22F78D, offset: 0x22F78D, size: 0x8, addend: 0x0, symName: __ZNSt3__116allocator_traitsINS_9allocatorIfEEE10deallocateB8ue170006ERS2_Pfm, symObjAddr: 0x75EC, symBinAddr: 0x100009EB0, symSize: 0x34 }
  - { offsetInCU: 0x22F7CF, offset: 0x22F7CF, size: 0x8, addend: 0x0, symName: __ZNSt3__16vectorIfNS_9allocatorIfEEE7__allocB8ue170006Ev, symObjAddr: 0x7620, symBinAddr: 0x100009EE4, symSize: 0x28 }
  - { offsetInCU: 0x22F7F5, offset: 0x22F7F5, size: 0x8, addend: 0x0, symName: __ZNKSt3__16vectorIfNS_9allocatorIfEEE8capacityB8ue170006Ev, symObjAddr: 0x7648, symBinAddr: 0x100009F0C, symSize: 0xBC }
  - { offsetInCU: 0x22F81B, offset: 0x22F81B, size: 0x8, addend: 0x0, symName: __ZNSt3__16vectorIfNS_9allocatorIfEEE22__base_destruct_at_endB8ue170006EPf, symObjAddr: 0x7704, symBinAddr: 0x100009FC8, symSize: 0x114 }
  - { offsetInCU: 0x22F85F, offset: 0x22F85F, size: 0x8, addend: 0x0, symName: __ZNSt3__116allocator_traitsINS_9allocatorIfEEE7destroyB8ue170006IfvvEEvRS2_PT_, symObjAddr: 0x7818, symBinAddr: 0x10000A0DC, symSize: 0x28 }
  - { offsetInCU: 0x22F89B, offset: 0x22F89B, size: 0x8, addend: 0x0, symName: __ZNKSt3__16vectorIfNS_9allocatorIfEEE31__annotate_contiguous_containerEPKvS5_S5_S5_, symObjAddr: 0x7888, symBinAddr: 0x10000A14C, symSize: 0x58 }
  - { offsetInCU: 0x22F8FD, offset: 0x22F8FD, size: 0x8, addend: 0x0, symName: __ZNKSt3__16vectorIfNS_9allocatorIfEEE4dataB8ue170006Ev, symObjAddr: 0x78E0, symBinAddr: 0x10000A1A4, symSize: 0x64 }
  - { offsetInCU: 0x22F923, offset: 0x22F923, size: 0x8, addend: 0x0, symName: __ZNKSt3__16vectorIfNS_9allocatorIfEEE4sizeB8ue170006Ev, symObjAddr: 0x7944, symBinAddr: 0x10000A208, symSize: 0xB0 }
  - { offsetInCU: 0x22F949, offset: 0x22F949, size: 0x8, addend: 0x0, symName: __ZNSt3__19allocatorIfE10deallocateB8ue170006EPfm, symObjAddr: 0x79F4, symBinAddr: 0x10000A2B8, symSize: 0x4C }
  - { offsetInCU: 0x22F98B, offset: 0x22F98B, size: 0x8, addend: 0x0, symName: __ZNSt3__117__compressed_pairIPfNS_9allocatorIfEEE6secondB8ue170006Ev, symObjAddr: 0x7A40, symBinAddr: 0x10000A304, symSize: 0x24 }
  - { offsetInCU: 0x22F9B1, offset: 0x22F9B1, size: 0x8, addend: 0x0, symName: __ZNSt3__122__compressed_pair_elemINS_9allocatorIfEELi1ELb1EE5__getB8ue170006Ev, symObjAddr: 0x7A64, symBinAddr: 0x10000A328, symSize: 0x14 }
  - { offsetInCU: 0x22F9D7, offset: 0x22F9D7, size: 0x8, addend: 0x0, symName: __ZNKSt3__16vectorIfNS_9allocatorIfEEE9__end_capB8ue170006Ev, symObjAddr: 0x7A78, symBinAddr: 0x10000A33C, symSize: 0x28 }
  - { offsetInCU: 0x22F9FD, offset: 0x22F9FD, size: 0x8, addend: 0x0, symName: __ZNKSt3__117__compressed_pairIPfNS_9allocatorIfEEE5firstB8ue170006Ev, symObjAddr: 0x7AA0, symBinAddr: 0x10000A364, symSize: 0x24 }
  - { offsetInCU: 0x22FA23, offset: 0x22FA23, size: 0x8, addend: 0x0, symName: __ZNKSt3__122__compressed_pair_elemIPfLi0ELb0EE5__getB8ue170006Ev, symObjAddr: 0x7AC4, symBinAddr: 0x10000A388, symSize: 0x14 }
  - { offsetInCU: 0x22FA49, offset: 0x22FA49, size: 0x8, addend: 0x0, symName: __ZN4DataC2Ev, symObjAddr: 0x7AD8, symBinAddr: 0x10000A39C, symSize: 0x44 }
  - { offsetInCU: 0x22FA73, offset: 0x22FA73, size: 0x8, addend: 0x0, symName: __ZN5Eigen6MatrixIfLin1ELin1ELi0ELin1ELin1EEC1Ev, symObjAddr: 0x7B1C, symBinAddr: 0x10000A3E0, symSize: 0x2C }
  - { offsetInCU: 0x22FA9D, offset: 0x22FA9D, size: 0x8, addend: 0x0, symName: __ZNSt3__113unordered_mapINS_12basic_stringIcNS_11char_traitsIcEENS_9allocatorIcEEEEN5Eigen6MatrixIfLin1ELi1ELi0ELin1ELi1EEENS_4hashIS6_EENS_8equal_toIS6_EENS4_INS_4pairIKS6_S9_EEEEEC1B8ue170006Ev, symObjAddr: 0x7B48, symBinAddr: 0x10000A40C, symSize: 0x2C }
  - { offsetInCU: 0x22FAC7, offset: 0x22FAC7, size: 0x8, addend: 0x0, symName: __ZNSt3__16vectorIN5Eigen6MatrixIfLin1ELi1ELi0ELin1ELi1EEENS_9allocatorIS3_EEEC1B8ue170006Ev, symObjAddr: 0x7B74, symBinAddr: 0x10000A438, symSize: 0x2C }
  - { offsetInCU: 0x22FAF1, offset: 0x22FAF1, size: 0x8, addend: 0x0, symName: __ZN5Eigen6MatrixIfLin1ELin1ELi0ELin1ELin1EEC2Ev, symObjAddr: 0x7BA0, symBinAddr: 0x10000A464, symSize: 0x58 }
  - { offsetInCU: 0x22FB1B, offset: 0x22FB1B, size: 0x8, addend: 0x0, symName: __ZN5Eigen15PlainObjectBaseINS_6MatrixIfLin1ELin1ELi0ELin1ELin1EEEEC2Ev, symObjAddr: 0x7BF8, symBinAddr: 0x10000A4BC, symSize: 0x34 }
  - { offsetInCU: 0x22FB45, offset: 0x22FB45, size: 0x8, addend: 0x0, symName: __ZN5Eigen15PlainObjectBaseINS_6MatrixIfLin1ELin1ELi0ELin1ELin1EEEE22_check_template_paramsEv, symObjAddr: 0x7C2C, symBinAddr: 0x10000A4F0, symSize: 0x4 }
  - { offsetInCU: 0x22FB59, offset: 0x22FB59, size: 0x8, addend: 0x0, symName: __ZN5Eigen10MatrixBaseINS_6MatrixIfLin1ELin1ELi0ELin1ELin1EEEEC2Ev, symObjAddr: 0x7C30, symBinAddr: 0x10000A4F4, symSize: 0x2C }
  - { offsetInCU: 0x22FB83, offset: 0x22FB83, size: 0x8, addend: 0x0, symName: __ZN5Eigen12DenseStorageIfLin1ELin1ELin1ELi0EEC1Ev, symObjAddr: 0x7C5C, symBinAddr: 0x10000A520, symSize: 0x2C }
  - { offsetInCU: 0x22FBAD, offset: 0x22FBAD, size: 0x8, addend: 0x0, symName: __ZN5Eigen9DenseBaseINS_6MatrixIfLin1ELin1ELi0ELin1ELin1EEEEC2Ev, symObjAddr: 0x7C88, symBinAddr: 0x10000A54C, symSize: 0x14 }
  - { offsetInCU: 0x22FBD7, offset: 0x22FBD7, size: 0x8, addend: 0x0, symName: __ZN5Eigen12DenseStorageIfLin1ELin1ELin1ELi0EEC2Ev, symObjAddr: 0x7C9C, symBinAddr: 0x10000A560, symSize: 0xD4 }
  - { offsetInCU: 0x22FC01, offset: 0x22FC01, size: 0x8, addend: 0x0, symName: __ZNSt3__113unordered_mapINS_12basic_stringIcNS_11char_traitsIcEENS_9allocatorIcEEEEN5Eigen6MatrixIfLin1ELi1ELi0ELin1ELi1EEENS_4hashIS6_EENS_8equal_toIS6_EENS4_INS_4pairIKS6_S9_EEEEEC2B8ue170006Ev, symObjAddr: 0x7D70, symBinAddr: 0x10000A634, symSize: 0x2C }
  - { offsetInCU: 0x22FC2B, offset: 0x22FC2B, size: 0x8, addend: 0x0, symName: __ZNSt3__112__hash_tableINS_17__hash_value_typeINS_12basic_stringIcNS_11char_traitsIcEENS_9allocatorIcEEEEN5Eigen6MatrixIfLin1ELi1ELi0ELin1ELi1EEEEENS_22__unordered_map_hasherIS7_SB_NS_4hashIS7_EENS_8equal_toIS7_EELb1EEENS_21__unordered_map_equalIS7_SB_SG_SE_Lb1EEENS5_ISB_EEEC1Ev, symObjAddr: 0x7D9C, symBinAddr: 0x10000A660, symSize: 0x2C }
  - { offsetInCU: 0x22FC57, offset: 0x22FC57, size: 0x8, addend: 0x0, symName: __ZNSt3__112__hash_tableINS_17__hash_value_typeINS_12basic_stringIcNS_11char_traitsIcEENS_9allocatorIcEEEEN5Eigen6MatrixIfLin1ELi1ELi0ELin1ELi1EEEEENS_22__unordered_map_hasherIS7_SB_NS_4hashIS7_EENS_8equal_toIS7_EELb1EEENS_21__unordered_map_equalIS7_SB_SG_SE_Lb1EEENS5_ISB_EEEC2Ev, symObjAddr: 0x7DC8, symBinAddr: 0x10000A68C, symSize: 0x38C }
  - { offsetInCU: 0x22FC84, offset: 0x22FC84, size: 0x8, addend: 0x0, symName: __ZNSt3__110unique_ptrIA_PNS_16__hash_node_baseIPNS_11__hash_nodeINS_17__hash_value_typeINS_12basic_stringIcNS_11char_traitsIcEENS_9allocatorIcEEEEN5Eigen6MatrixIfLin1ELi1ELi0ELin1ELi1EEEEEPvEEEENS_25__bucket_list_deallocatorINS7_ISI_EEEEEC1B8ue170006ILb1EvEEv, symObjAddr: 0x8154, symBinAddr: 0x10000AA18, symSize: 0x2C }
  - { offsetInCU: 0x22FCBA, offset: 0x22FCBA, size: 0x8, addend: 0x0, symName: __ZNSt3__117__compressed_pairINS_16__hash_node_baseIPNS_11__hash_nodeINS_17__hash_value_typeINS_12basic_stringIcNS_11char_traitsIcEENS_9allocatorIcEEEEN5Eigen6MatrixIfLin1ELi1ELi0ELin1ELi1EEEEEPvEEEENS7_ISF_EEEC1B8ue170006ILb1EvEEv, symObjAddr: 0x8180, symBinAddr: 0x10000AA44, symSize: 0x2C }
  - { offsetInCU: 0x22FCF6, offset: 0x22FCF6, size: 0x8, addend: 0x0, symName: __ZNSt3__117__compressed_pairImNS_22__unordered_map_hasherINS_12basic_stringIcNS_11char_traitsIcEENS_9allocatorIcEEEENS_17__hash_value_typeIS7_N5Eigen6MatrixIfLin1ELi1ELi0ELin1ELi1EEEEENS_4hashIS7_EENS_8equal_toIS7_EELb1EEEEC1B8ue170006IiNS_18__default_init_tagEEEOT_OT0_, symObjAddr: 0x81AC, symBinAddr: 0x10000AA70, symSize: 0x3C }
  - { offsetInCU: 0x22FD54, offset: 0x22FD54, size: 0x8, addend: 0x0, symName: __ZNSt3__117__compressed_pairIfNS_21__unordered_map_equalINS_12basic_stringIcNS_11char_traitsIcEENS_9allocatorIcEEEENS_17__hash_value_typeIS7_N5Eigen6MatrixIfLin1ELi1ELi0ELin1ELi1EEEEENS_8equal_toIS7_EENS_4hashIS7_EELb1EEEEC1B8ue170006IfNS_18__default_init_tagEEEOT_OT0_, symObjAddr: 0x81E8, symBinAddr: 0x10000AAAC, symSize: 0x3C }
  - { offsetInCU: 0x22FDAC, offset: 0x22FDAC, size: 0x8, addend: 0x0, symName: __ZNSt3__110unique_ptrIA_PNS_16__hash_node_baseIPNS_11__hash_nodeINS_17__hash_value_typeINS_12basic_stringIcNS_11char_traitsIcEENS_9allocatorIcEEEEN5Eigen6MatrixIfLin1ELi1ELi0ELin1ELi1EEEEEPvEEEENS_25__bucket_list_deallocatorINS7_ISI_EEEEEC2B8ue170006ILb1EvEEv, symObjAddr: 0x8224, symBinAddr: 0x10000AAE8, symSize: 0x200 }
  - { offsetInCU: 0x22FDE9, offset: 0x22FDE9, size: 0x8, addend: 0x0, symName: __ZNSt3__117__compressed_pairIPPNS_16__hash_node_baseIPNS_11__hash_nodeINS_17__hash_value_typeINS_12basic_stringIcNS_11char_traitsIcEENS_9allocatorIcEEEEN5Eigen6MatrixIfLin1ELi1ELi0ELin1ELi1EEEEEPvEEEENS_25__bucket_list_deallocatorINS7_ISI_EEEEEC1B8ue170006INS_16__value_init_tagESP_EEOT_OT0_, symObjAddr: 0x8424, symBinAddr: 0x10000ACE8, symSize: 0x3C }
  - { offsetInCU: 0x22FE41, offset: 0x22FE41, size: 0x8, addend: 0x0, symName: __ZNSt3__117__compressed_pairIPPNS_16__hash_node_baseIPNS_11__hash_nodeINS_17__hash_value_typeINS_12basic_stringIcNS_11char_traitsIcEENS_9allocatorIcEEEEN5Eigen6MatrixIfLin1ELi1ELi0ELin1ELi1EEEEEPvEEEENS_25__bucket_list_deallocatorINS7_ISI_EEEEEC2B8ue170006INS_16__value_init_tagESP_EEOT_OT0_, symObjAddr: 0x8460, symBinAddr: 0x10000AD24, symSize: 0x40 }
  - { offsetInCU: 0x22FE99, offset: 0x22FE99, size: 0x8, addend: 0x0, symName: __ZNSt3__122__compressed_pair_elemIPPNS_16__hash_node_baseIPNS_11__hash_nodeINS_17__hash_value_typeINS_12basic_stringIcNS_11char_traitsIcEENS_9allocatorIcEEEEN5Eigen6MatrixIfLin1ELi1ELi0ELin1ELi1EEEEEPvEEEELi0ELb0EEC2B8ue170006ENS_16__value_init_tagE, symObjAddr: 0x84A0, symBinAddr: 0x10000AD64, symSize: 0x60 }
  - { offsetInCU: 0x22FECD, offset: 0x22FECD, size: 0x8, addend: 0x0, symName: __ZNSt3__122__compressed_pair_elemINS_25__bucket_list_deallocatorINS_9allocatorIPNS_16__hash_node_baseIPNS_11__hash_nodeINS_17__hash_value_typeINS_12basic_stringIcNS_11char_traitsIcEENS2_IcEEEEN5Eigen6MatrixIfLin1ELi1ELi0ELin1ELi1EEEEEPvEEEEEEEELi1ELb0EEC2B8ue170006ENS_16__value_init_tagE, symObjAddr: 0x8500, symBinAddr: 0x10000ADC4, symSize: 0x2C }
  - { offsetInCU: 0x22FF01, offset: 0x22FF01, size: 0x8, addend: 0x0, symName: __ZNSt3__125__bucket_list_deallocatorINS_9allocatorIPNS_16__hash_node_baseIPNS_11__hash_nodeINS_17__hash_value_typeINS_12basic_stringIcNS_11char_traitsIcEENS1_IcEEEEN5Eigen6MatrixIfLin1ELi1ELi0ELin1ELi1EEEEEPvEEEEEEEC1B8ue170006Ev, symObjAddr: 0x852C, symBinAddr: 0x10000ADF0, symSize: 0x2C }
  - { offsetInCU: 0x22FF2B, offset: 0x22FF2B, size: 0x8, addend: 0x0, symName: __ZNSt3__125__bucket_list_deallocatorINS_9allocatorIPNS_16__hash_node_baseIPNS_11__hash_nodeINS_17__hash_value_typeINS_12basic_stringIcNS_11char_traitsIcEENS1_IcEEEEN5Eigen6MatrixIfLin1ELi1ELi0ELin1ELi1EEEEEPvEEEEEEEC2B8ue170006Ev, symObjAddr: 0x8558, symBinAddr: 0x10000AE1C, symSize: 0x270 }
  - { offsetInCU: 0x22FF56, offset: 0x22FF56, size: 0x8, addend: 0x0, symName: __ZNSt3__117__compressed_pairImNS_9allocatorIPNS_16__hash_node_baseIPNS_11__hash_nodeINS_17__hash_value_typeINS_12basic_stringIcNS_11char_traitsIcEENS1_IcEEEEN5Eigen6MatrixIfLin1ELi1ELi0ELin1ELi1EEEEEPvEEEEEEEC1B8ue170006IiNS_18__default_init_tagEEEOT_OT0_, symObjAddr: 0x87C8, symBinAddr: 0x10000B08C, symSize: 0x3C }
  - { offsetInCU: 0x22FFAE, offset: 0x22FFAE, size: 0x8, addend: 0x0, symName: __ZNSt3__117__compressed_pairImNS_9allocatorIPNS_16__hash_node_baseIPNS_11__hash_nodeINS_17__hash_value_typeINS_12basic_stringIcNS_11char_traitsIcEENS1_IcEEEEN5Eigen6MatrixIfLin1ELi1ELi0ELin1ELi1EEEEEPvEEEEEEEC2B8ue170006IiNS_18__default_init_tagEEEOT_OT0_, symObjAddr: 0x8804, symBinAddr: 0x10000B0C8, symSize: 0x40 }
  - { offsetInCU: 0x230006, offset: 0x230006, size: 0x8, addend: 0x0, symName: __ZNSt3__122__compressed_pair_elemImLi0ELb0EEC2B8ue170006IivEEOT_, symObjAddr: 0x8844, symBinAddr: 0x10000B108, symSize: 0xD8 }
  - { offsetInCU: 0x230049, offset: 0x230049, size: 0x8, addend: 0x0, symName: __ZNSt3__122__compressed_pair_elemINS_9allocatorIPNS_16__hash_node_baseIPNS_11__hash_nodeINS_17__hash_value_typeINS_12basic_stringIcNS_11char_traitsIcEENS1_IcEEEEN5Eigen6MatrixIfLin1ELi1ELi0ELin1ELi1EEEEEPvEEEEEELi1ELb1EEC2B8ue170006ENS_18__default_init_tagE, symObjAddr: 0x891C, symBinAddr: 0x10000B1E0, symSize: 0x2C }
  - { offsetInCU: 0x23007D, offset: 0x23007D, size: 0x8, addend: 0x0, symName: __ZNSt3__19allocatorIPNS_16__hash_node_baseIPNS_11__hash_nodeINS_17__hash_value_typeINS_12basic_stringIcNS_11char_traitsIcEENS0_IcEEEEN5Eigen6MatrixIfLin1ELi1ELi0ELin1ELi1EEEEEPvEEEEEC2B8ue170006Ev, symObjAddr: 0x8948, symBinAddr: 0x10000B20C, symSize: 0x2C }
  - { offsetInCU: 0x2300A7, offset: 0x2300A7, size: 0x8, addend: 0x0, symName: __ZNSt3__116__non_trivial_ifILb1ENS_9allocatorIPNS_16__hash_node_baseIPNS_11__hash_nodeINS_17__hash_value_typeINS_12basic_stringIcNS_11char_traitsIcEENS1_IcEEEEN5Eigen6MatrixIfLin1ELi1ELi0ELin1ELi1EEEEEPvEEEEEEEC2B8ue170006Ev, symObjAddr: 0x8974, symBinAddr: 0x10000B238, symSize: 0x14 }
  - { offsetInCU: 0x2300D1, offset: 0x2300D1, size: 0x8, addend: 0x0, symName: __ZNSt3__117__compressed_pairINS_16__hash_node_baseIPNS_11__hash_nodeINS_17__hash_value_typeINS_12basic_stringIcNS_11char_traitsIcEENS_9allocatorIcEEEEN5Eigen6MatrixIfLin1ELi1ELi0ELin1ELi1EEEEEPvEEEENS7_ISF_EEEC2B8ue170006ILb1EvEEv, symObjAddr: 0x8988, symBinAddr: 0x10000B24C, symSize: 0x34 }
  - { offsetInCU: 0x230107, offset: 0x230107, size: 0x8, addend: 0x0, symName: __ZNSt3__122__compressed_pair_elemINS_16__hash_node_baseIPNS_11__hash_nodeINS_17__hash_value_typeINS_12basic_stringIcNS_11char_traitsIcEENS_9allocatorIcEEEEN5Eigen6MatrixIfLin1ELi1ELi0ELin1ELi1EEEEEPvEEEELi0ELb0EEC2B8ue170006ENS_16__value_init_tagE, symObjAddr: 0x89BC, symBinAddr: 0x10000B280, symSize: 0x2C }
  - { offsetInCU: 0x23013B, offset: 0x23013B, size: 0x8, addend: 0x0, symName: __ZNSt3__122__compressed_pair_elemINS_9allocatorINS_11__hash_nodeINS_17__hash_value_typeINS_12basic_stringIcNS_11char_traitsIcEENS1_IcEEEEN5Eigen6MatrixIfLin1ELi1ELi0ELin1ELi1EEEEEPvEEEELi1ELb1EEC2B8ue170006ENS_16__value_init_tagE, symObjAddr: 0x89E8, symBinAddr: 0x10000B2AC, symSize: 0x2C }
  - { offsetInCU: 0x23016F, offset: 0x23016F, size: 0x8, addend: 0x0, symName: __ZNSt3__116__hash_node_baseIPNS_11__hash_nodeINS_17__hash_value_typeINS_12basic_stringIcNS_11char_traitsIcEENS_9allocatorIcEEEEN5Eigen6MatrixIfLin1ELi1ELi0ELin1ELi1EEEEEPvEEEC1B8ue170006Ev, symObjAddr: 0x8A14, symBinAddr: 0x10000B2D8, symSize: 0x2C }
  - { offsetInCU: 0x230199, offset: 0x230199, size: 0x8, addend: 0x0, symName: __ZNSt3__116__hash_node_baseIPNS_11__hash_nodeINS_17__hash_value_typeINS_12basic_stringIcNS_11char_traitsIcEENS_9allocatorIcEEEEN5Eigen6MatrixIfLin1ELi1ELi0ELin1ELi1EEEEEPvEEEC2B8ue170006Ev, symObjAddr: 0x8A40, symBinAddr: 0x10000B304, symSize: 0x60 }
  - { offsetInCU: 0x2301C3, offset: 0x2301C3, size: 0x8, addend: 0x0, symName: __ZNSt3__19allocatorINS_11__hash_nodeINS_17__hash_value_typeINS_12basic_stringIcNS_11char_traitsIcEENS0_IcEEEEN5Eigen6MatrixIfLin1ELi1ELi0ELin1ELi1EEEEEPvEEEC2B8ue170006Ev, symObjAddr: 0x8AA0, symBinAddr: 0x10000B364, symSize: 0x2C }
  - { offsetInCU: 0x2301ED, offset: 0x2301ED, size: 0x8, addend: 0x0, symName: __ZNSt3__116__non_trivial_ifILb1ENS_9allocatorINS_11__hash_nodeINS_17__hash_value_typeINS_12basic_stringIcNS_11char_traitsIcEENS1_IcEEEEN5Eigen6MatrixIfLin1ELi1ELi0ELin1ELi1EEEEEPvEEEEEC2B8ue170006Ev, symObjAddr: 0x8ACC, symBinAddr: 0x10000B390, symSize: 0x14 }
  - { offsetInCU: 0x230217, offset: 0x230217, size: 0x8, addend: 0x0, symName: __ZNSt3__117__compressed_pairImNS_22__unordered_map_hasherINS_12basic_stringIcNS_11char_traitsIcEENS_9allocatorIcEEEENS_17__hash_value_typeIS7_N5Eigen6MatrixIfLin1ELi1ELi0ELin1ELi1EEEEENS_4hashIS7_EENS_8equal_toIS7_EELb1EEEEC2B8ue170006IiNS_18__default_init_tagEEEOT_OT0_, symObjAddr: 0x8AE0, symBinAddr: 0x10000B3A4, symSize: 0x40 }
  - { offsetInCU: 0x23026F, offset: 0x23026F, size: 0x8, addend: 0x0, symName: __ZNSt3__122__compressed_pair_elemINS_22__unordered_map_hasherINS_12basic_stringIcNS_11char_traitsIcEENS_9allocatorIcEEEENS_17__hash_value_typeIS7_N5Eigen6MatrixIfLin1ELi1ELi0ELin1ELi1EEEEENS_4hashIS7_EENS_8equal_toIS7_EELb1EEELi1ELb1EEC2B8ue170006ENS_18__default_init_tagE, symObjAddr: 0x8B20, symBinAddr: 0x10000B3E4, symSize: 0x2C }
  - { offsetInCU: 0x2302A3, offset: 0x2302A3, size: 0x8, addend: 0x0, symName: __ZNSt3__122__unordered_map_hasherINS_12basic_stringIcNS_11char_traitsIcEENS_9allocatorIcEEEENS_17__hash_value_typeIS6_N5Eigen6MatrixIfLin1ELi1ELi0ELin1ELi1EEEEENS_4hashIS6_EENS_8equal_toIS6_EELb1EEC2B8ue170006Ev, symObjAddr: 0x8B4C, symBinAddr: 0x10000B410, symSize: 0x14 }
  - { offsetInCU: 0x2302CD, offset: 0x2302CD, size: 0x8, addend: 0x0, symName: __ZNSt3__117__compressed_pairIfNS_21__unordered_map_equalINS_12basic_stringIcNS_11char_traitsIcEENS_9allocatorIcEEEENS_17__hash_value_typeIS7_N5Eigen6MatrixIfLin1ELi1ELi0ELin1ELi1EEEEENS_8equal_toIS7_EENS_4hashIS7_EELb1EEEEC2B8ue170006IfNS_18__default_init_tagEEEOT_OT0_, symObjAddr: 0x8B60, symBinAddr: 0x10000B424, symSize: 0x40 }
  - { offsetInCU: 0x230325, offset: 0x230325, size: 0x8, addend: 0x0, symName: __ZNSt3__122__compressed_pair_elemIfLi0ELb0EEC2B8ue170006IfvEEOT_, symObjAddr: 0x8BA0, symBinAddr: 0x10000B464, symSize: 0x100 }
  - { offsetInCU: 0x230368, offset: 0x230368, size: 0x8, addend: 0x0, symName: __ZNSt3__122__compressed_pair_elemINS_21__unordered_map_equalINS_12basic_stringIcNS_11char_traitsIcEENS_9allocatorIcEEEENS_17__hash_value_typeIS7_N5Eigen6MatrixIfLin1ELi1ELi0ELin1ELi1EEEEENS_8equal_toIS7_EENS_4hashIS7_EELb1EEELi1ELb1EEC2B8ue170006ENS_18__default_init_tagE, symObjAddr: 0x8CA0, symBinAddr: 0x10000B564, symSize: 0x2C }
  - { offsetInCU: 0x23039C, offset: 0x23039C, size: 0x8, addend: 0x0, symName: __ZNSt3__121__unordered_map_equalINS_12basic_stringIcNS_11char_traitsIcEENS_9allocatorIcEEEENS_17__hash_value_typeIS6_N5Eigen6MatrixIfLin1ELi1ELi0ELin1ELi1EEEEENS_8equal_toIS6_EENS_4hashIS6_EELb1EEC2B8ue170006Ev, symObjAddr: 0x8CCC, symBinAddr: 0x10000B590, symSize: 0x14 }
  - { offsetInCU: 0x2303C6, offset: 0x2303C6, size: 0x8, addend: 0x0, symName: __ZNSt3__16vectorIN5Eigen6MatrixIfLin1ELi1ELi0ELin1ELi1EEENS_9allocatorIS3_EEEC2B8ue170006Ev, symObjAddr: 0x8CE0, symBinAddr: 0x10000B5A4, symSize: 0x2E8 }
  - { offsetInCU: 0x2303F7, offset: 0x2303F7, size: 0x8, addend: 0x0, symName: __ZNSt3__117__compressed_pairIPN5Eigen6MatrixIfLin1ELi1ELi0ELin1ELi1EEENS_9allocatorIS3_EEEC1B8ue170006IDnNS_18__default_init_tagEEEOT_OT0_, symObjAddr: 0x8FC8, symBinAddr: 0x10000B88C, symSize: 0x3C }
  - { offsetInCU: 0x23044F, offset: 0x23044F, size: 0x8, addend: 0x0, symName: __ZNSt3__117__compressed_pairIPN5Eigen6MatrixIfLin1ELi1ELi0ELin1ELi1EEENS_9allocatorIS3_EEEC2B8ue170006IDnNS_18__default_init_tagEEEOT_OT0_, symObjAddr: 0x9004, symBinAddr: 0x10000B8C8, symSize: 0x40 }
  - { offsetInCU: 0x2304A7, offset: 0x2304A7, size: 0x8, addend: 0x0, symName: __ZNSt3__122__compressed_pair_elemIPN5Eigen6MatrixIfLin1ELi1ELi0ELin1ELi1EEELi0ELb0EEC2B8ue170006IDnvEEOT_, symObjAddr: 0x9044, symBinAddr: 0x10000B908, symSize: 0x64 }
  - { offsetInCU: 0x2304EA, offset: 0x2304EA, size: 0x8, addend: 0x0, symName: __ZNSt3__122__compressed_pair_elemINS_9allocatorIN5Eigen6MatrixIfLin1ELi1ELi0ELin1ELi1EEEEELi1ELb1EEC2B8ue170006ENS_18__default_init_tagE, symObjAddr: 0x90A8, symBinAddr: 0x10000B96C, symSize: 0x2C }
  - { offsetInCU: 0x23051E, offset: 0x23051E, size: 0x8, addend: 0x0, symName: __ZNSt3__19allocatorIN5Eigen6MatrixIfLin1ELi1ELi0ELin1ELi1EEEEC2B8ue170006Ev, symObjAddr: 0x90D4, symBinAddr: 0x10000B998, symSize: 0x2C }
  - { offsetInCU: 0x230548, offset: 0x230548, size: 0x8, addend: 0x0, symName: __ZNSt3__116__non_trivial_ifILb1ENS_9allocatorIN5Eigen6MatrixIfLin1ELi1ELi0ELin1ELi1EEEEEEC2B8ue170006Ev, symObjAddr: 0x9100, symBinAddr: 0x10000B9C4, symSize: 0x14 }
  - { offsetInCU: 0x230572, offset: 0x230572, size: 0x8, addend: 0x0, symName: __ZN4DataD2Ev, symObjAddr: 0x9114, symBinAddr: 0x10000B9D8, symSize: 0x44 }
  - { offsetInCU: 0x23059E, offset: 0x23059E, size: 0x8, addend: 0x0, symName: __ZNSt3__16vectorIN5Eigen6MatrixIfLin1ELi1ELi0ELin1ELi1EEENS_9allocatorIS3_EEED1B8ue170006Ev, symObjAddr: 0x9158, symBinAddr: 0x10000BA1C, symSize: 0x2C }
  - { offsetInCU: 0x2305C8, offset: 0x2305C8, size: 0x8, addend: 0x0, symName: __ZNSt3__113unordered_mapINS_12basic_stringIcNS_11char_traitsIcEENS_9allocatorIcEEEEN5Eigen6MatrixIfLin1ELi1ELi0ELin1ELi1EEENS_4hashIS6_EENS_8equal_toIS6_EENS4_INS_4pairIKS6_S9_EEEEED1B8ue170006Ev, symObjAddr: 0x9184, symBinAddr: 0x10000BA48, symSize: 0x2C }
  - { offsetInCU: 0x2305F2, offset: 0x2305F2, size: 0x8, addend: 0x0, symName: __ZNSt3__16vectorIN5Eigen6MatrixIfLin1ELi1ELi0ELin1ELi1EEENS_9allocatorIS3_EEED2B8ue170006Ev, symObjAddr: 0x91B0, symBinAddr: 0x10000BA74, symSize: 0x1F8 }
  - { offsetInCU: 0x23061D, offset: 0x23061D, size: 0x8, addend: 0x0, symName: __ZNSt3__16vectorIN5Eigen6MatrixIfLin1ELi1ELi0ELin1ELi1EEENS_9allocatorIS3_EEE16__destroy_vectorC1B8ue170006ERS6_, symObjAddr: 0x93A8, symBinAddr: 0x10000BC6C, symSize: 0x34 }
  - { offsetInCU: 0x230656, offset: 0x230656, size: 0x8, addend: 0x0, symName: __ZNSt3__16vectorIN5Eigen6MatrixIfLin1ELi1ELi0ELin1ELi1EEENS_9allocatorIS3_EEE16__destroy_vectorclB8ue170006Ev, symObjAddr: 0x93DC, symBinAddr: 0x10000BCA0, symSize: 0x228 }
  - { offsetInCU: 0x23067C, offset: 0x23067C, size: 0x8, addend: 0x0, symName: __ZNSt3__16vectorIN5Eigen6MatrixIfLin1ELi1ELi0ELin1ELi1EEENS_9allocatorIS3_EEE16__destroy_vectorC2B8ue170006ERS6_, symObjAddr: 0x9604, symBinAddr: 0x10000BEC8, symSize: 0x70 }
  - { offsetInCU: 0x2306B5, offset: 0x2306B5, size: 0x8, addend: 0x0, symName: __ZNSt3__16vectorIN5Eigen6MatrixIfLin1ELi1ELi0ELin1ELi1EEENS_9allocatorIS3_EEE7__clearB8ue170006Ev, symObjAddr: 0x9674, symBinAddr: 0x10000BF38, symSize: 0x64 }
  - { offsetInCU: 0x2306DB, offset: 0x2306DB, size: 0x8, addend: 0x0, symName: __ZNKSt3__16vectorIN5Eigen6MatrixIfLin1ELi1ELi0ELin1ELi1EEENS_9allocatorIS3_EEE17__annotate_deleteB8ue170006Ev, symObjAddr: 0x96D8, symBinAddr: 0x10000BF9C, symSize: 0xCC }
  - { offsetInCU: 0x230701, offset: 0x230701, size: 0x8, addend: 0x0, symName: __ZNSt3__116allocator_traitsINS_9allocatorIN5Eigen6MatrixIfLin1ELi1ELi0ELin1ELi1EEEEEE10deallocateB8ue170006ERS5_PS4_m, symObjAddr: 0x97A4, symBinAddr: 0x10000C068, symSize: 0x34 }
  - { offsetInCU: 0x230743, offset: 0x230743, size: 0x8, addend: 0x0, symName: __ZNSt3__16vectorIN5Eigen6MatrixIfLin1ELi1ELi0ELin1ELi1EEENS_9allocatorIS3_EEE7__allocB8ue170006Ev, symObjAddr: 0x97D8, symBinAddr: 0x10000C09C, symSize: 0x28 }
  - { offsetInCU: 0x230769, offset: 0x230769, size: 0x8, addend: 0x0, symName: __ZNKSt3__16vectorIN5Eigen6MatrixIfLin1ELi1ELi0ELin1ELi1EEENS_9allocatorIS3_EEE8capacityB8ue170006Ev, symObjAddr: 0x9800, symBinAddr: 0x10000C0C4, symSize: 0xBC }
  - { offsetInCU: 0x23078F, offset: 0x23078F, size: 0x8, addend: 0x0, symName: __ZNSt3__16vectorIN5Eigen6MatrixIfLin1ELi1ELi0ELin1ELi1EEENS_9allocatorIS3_EEE22__base_destruct_at_endB8ue170006EPS3_, symObjAddr: 0x98BC, symBinAddr: 0x10000C180, symSize: 0x114 }
  - { offsetInCU: 0x2307D3, offset: 0x2307D3, size: 0x8, addend: 0x0, symName: __ZNSt3__116allocator_traitsINS_9allocatorIN5Eigen6MatrixIfLin1ELi1ELi0ELin1ELi1EEEEEE7destroyB8ue170006IS4_vvEEvRS5_PT_, symObjAddr: 0x99D0, symBinAddr: 0x10000C294, symSize: 0x28 }
  - { offsetInCU: 0x23080F, offset: 0x23080F, size: 0x8, addend: 0x0, symName: __ZNKSt3__16vectorIN5Eigen6MatrixIfLin1ELi1ELi0ELin1ELi1EEENS_9allocatorIS3_EEE31__annotate_contiguous_containerEPKvS8_S8_S8_, symObjAddr: 0x9A54, symBinAddr: 0x10000C318, symSize: 0x58 }
  - { offsetInCU: 0x230871, offset: 0x230871, size: 0x8, addend: 0x0, symName: __ZNKSt3__16vectorIN5Eigen6MatrixIfLin1ELi1ELi0ELin1ELi1EEENS_9allocatorIS3_EEE4dataB8ue170006Ev, symObjAddr: 0x9AAC, symBinAddr: 0x10000C370, symSize: 0x64 }
  - { offsetInCU: 0x230897, offset: 0x230897, size: 0x8, addend: 0x0, symName: __ZNKSt3__16vectorIN5Eigen6MatrixIfLin1ELi1ELi0ELin1ELi1EEENS_9allocatorIS3_EEE4sizeB8ue170006Ev, symObjAddr: 0x9B10, symBinAddr: 0x10000C3D4, symSize: 0xB0 }
  - { offsetInCU: 0x2308BD, offset: 0x2308BD, size: 0x8, addend: 0x0, symName: __ZNSt3__19allocatorIN5Eigen6MatrixIfLin1ELi1ELi0ELin1ELi1EEEE10deallocateB8ue170006EPS3_m, symObjAddr: 0x9BC0, symBinAddr: 0x10000C484, symSize: 0x4C }
  - { offsetInCU: 0x2308FF, offset: 0x2308FF, size: 0x8, addend: 0x0, symName: __ZNSt3__117__compressed_pairIPN5Eigen6MatrixIfLin1ELi1ELi0ELin1ELi1EEENS_9allocatorIS3_EEE6secondB8ue170006Ev, symObjAddr: 0x9C0C, symBinAddr: 0x10000C4D0, symSize: 0x24 }
  - { offsetInCU: 0x230925, offset: 0x230925, size: 0x8, addend: 0x0, symName: __ZNSt3__122__compressed_pair_elemINS_9allocatorIN5Eigen6MatrixIfLin1ELi1ELi0ELin1ELi1EEEEELi1ELb1EE5__getB8ue170006Ev, symObjAddr: 0x9C30, symBinAddr: 0x10000C4F4, symSize: 0x14 }
  - { offsetInCU: 0x23094B, offset: 0x23094B, size: 0x8, addend: 0x0, symName: __ZNKSt3__16vectorIN5Eigen6MatrixIfLin1ELi1ELi0ELin1ELi1EEENS_9allocatorIS3_EEE9__end_capB8ue170006Ev, symObjAddr: 0x9C44, symBinAddr: 0x10000C508, symSize: 0x28 }
  - { offsetInCU: 0x230971, offset: 0x230971, size: 0x8, addend: 0x0, symName: __ZNKSt3__117__compressed_pairIPN5Eigen6MatrixIfLin1ELi1ELi0ELin1ELi1EEENS_9allocatorIS3_EEE5firstB8ue170006Ev, symObjAddr: 0x9C6C, symBinAddr: 0x10000C530, symSize: 0x24 }
  - { offsetInCU: 0x230997, offset: 0x230997, size: 0x8, addend: 0x0, symName: __ZNKSt3__122__compressed_pair_elemIPN5Eigen6MatrixIfLin1ELi1ELi0ELin1ELi1EEELi0ELb0EE5__getB8ue170006Ev, symObjAddr: 0x9C90, symBinAddr: 0x10000C554, symSize: 0x14 }
  - { offsetInCU: 0x2309BD, offset: 0x2309BD, size: 0x8, addend: 0x0, symName: __ZNSt3__113unordered_mapINS_12basic_stringIcNS_11char_traitsIcEENS_9allocatorIcEEEEN5Eigen6MatrixIfLin1ELi1ELi0ELin1ELi1EEENS_4hashIS6_EENS_8equal_toIS6_EENS4_INS_4pairIKS6_S9_EEEEED2B8ue170006Ev, symObjAddr: 0x9CA4, symBinAddr: 0x10000C568, symSize: 0x2C }
  - { offsetInCU: 0x2309E7, offset: 0x2309E7, size: 0x8, addend: 0x0, symName: __ZNSt3__112__hash_tableINS_17__hash_value_typeINS_12basic_stringIcNS_11char_traitsIcEENS_9allocatorIcEEEEN5Eigen6MatrixIfLin1ELi1ELi0ELin1ELi1EEEEENS_22__unordered_map_hasherIS7_SB_NS_4hashIS7_EENS_8equal_toIS7_EELb1EEENS_21__unordered_map_equalIS7_SB_SG_SE_Lb1EEENS5_ISB_EEED1Ev, symObjAddr: 0x9CD0, symBinAddr: 0x10000C594, symSize: 0x2C }
  - { offsetInCU: 0x230A13, offset: 0x230A13, size: 0x8, addend: 0x0, symName: __ZNSt3__112__hash_tableINS_17__hash_value_typeINS_12basic_stringIcNS_11char_traitsIcEENS_9allocatorIcEEEEN5Eigen6MatrixIfLin1ELi1ELi0ELin1ELi1EEEEENS_22__unordered_map_hasherIS7_SB_NS_4hashIS7_EENS_8equal_toIS7_EELb1EEENS_21__unordered_map_equalIS7_SB_SG_SE_Lb1EEENS5_ISB_EEED2Ev, symObjAddr: 0x9CFC, symBinAddr: 0x10000C5C0, symSize: 0x88 }
  - { offsetInCU: 0x230A3F, offset: 0x230A3F, size: 0x8, addend: 0x0, symName: __ZNSt3__112__hash_tableINS_17__hash_value_typeINS_12basic_stringIcNS_11char_traitsIcEENS_9allocatorIcEEEEN5Eigen6MatrixIfLin1ELi1ELi0ELin1ELi1EEEEENS_22__unordered_map_hasherIS7_SB_NS_4hashIS7_EENS_8equal_toIS7_EELb1EEENS_21__unordered_map_equalIS7_SB_SG_SE_Lb1EEENS5_ISB_EEE17__deallocate_nodeEPNS_16__hash_node_baseIPNS_11__hash_nodeISB_PvEEEE, symObjAddr: 0x9D84, symBinAddr: 0x10000C648, symSize: 0xF8 }
  - { offsetInCU: 0x230AA9, offset: 0x230AA9, size: 0x8, addend: 0x0, symName: __ZNSt3__117__compressed_pairINS_16__hash_node_baseIPNS_11__hash_nodeINS_17__hash_value_typeINS_12basic_stringIcNS_11char_traitsIcEENS_9allocatorIcEEEEN5Eigen6MatrixIfLin1ELi1ELi0ELin1ELi1EEEEEPvEEEENS7_ISF_EEE5firstB8ue170006Ev, symObjAddr: 0x9E7C, symBinAddr: 0x10000C740, symSize: 0x24 }
  - { offsetInCU: 0x230ACF, offset: 0x230ACF, size: 0x8, addend: 0x0, symName: __ZNSt3__110unique_ptrIA_PNS_16__hash_node_baseIPNS_11__hash_nodeINS_17__hash_value_typeINS_12basic_stringIcNS_11char_traitsIcEENS_9allocatorIcEEEEN5Eigen6MatrixIfLin1ELi1ELi0ELin1ELi1EEEEEPvEEEENS_25__bucket_list_deallocatorINS7_ISI_EEEEED1B8ue170006Ev, symObjAddr: 0x9EA0, symBinAddr: 0x10000C764, symSize: 0x2C }
  - { offsetInCU: 0x230AF9, offset: 0x230AF9, size: 0x8, addend: 0x0, symName: __ZNSt3__112__hash_tableINS_17__hash_value_typeINS_12basic_stringIcNS_11char_traitsIcEENS_9allocatorIcEEEEN5Eigen6MatrixIfLin1ELi1ELi0ELin1ELi1EEEEENS_22__unordered_map_hasherIS7_SB_NS_4hashIS7_EENS_8equal_toIS7_EELb1EEENS_21__unordered_map_equalIS7_SB_SG_SE_Lb1EEENS5_ISB_EEE12__node_allocB8ue170006Ev, symObjAddr: 0x9ECC, symBinAddr: 0x10000C790, symSize: 0x28 }
  - { offsetInCU: 0x230B1F, offset: 0x230B1F, size: 0x8, addend: 0x0, symName: __ZNSt3__116__hash_node_baseIPNS_11__hash_nodeINS_17__hash_value_typeINS_12basic_stringIcNS_11char_traitsIcEENS_9allocatorIcEEEEN5Eigen6MatrixIfLin1ELi1ELi0ELin1ELi1EEEEEPvEEE8__upcastB8ue170006Ev, symObjAddr: 0x9EF4, symBinAddr: 0x10000C7B8, symSize: 0x24 }
  - { offsetInCU: 0x230B45, offset: 0x230B45, size: 0x8, addend: 0x0, symName: __ZNSt3__116allocator_traitsINS_9allocatorINS_11__hash_nodeINS_17__hash_value_typeINS_12basic_stringIcNS_11char_traitsIcEENS1_IcEEEEN5Eigen6MatrixIfLin1ELi1ELi0ELin1ELi1EEEEEPvEEEEE7destroyB8ue170006INS_4pairIKS8_SB_EEvvEEvRSF_PT_, symObjAddr: 0x9F18, symBinAddr: 0x10000C7DC, symSize: 0x28 }
  - { offsetInCU: 0x230B81, offset: 0x230B81, size: 0x8, addend: 0x0, symName: __ZNSt3__122__hash_key_value_typesINS_17__hash_value_typeINS_12basic_stringIcNS_11char_traitsIcEENS_9allocatorIcEEEEN5Eigen6MatrixIfLin1ELi1ELi0ELin1ELi1EEEEEE9__get_ptrB8ue170006ERSB_, symObjAddr: 0x9F40, symBinAddr: 0x10000C804, symSize: 0x24 }
  - { offsetInCU: 0x230BA4, offset: 0x230BA4, size: 0x8, addend: 0x0, symName: __ZNSt3__116allocator_traitsINS_9allocatorINS_11__hash_nodeINS_17__hash_value_typeINS_12basic_stringIcNS_11char_traitsIcEENS1_IcEEEEN5Eigen6MatrixIfLin1ELi1ELi0ELin1ELi1EEEEEPvEEEEE10deallocateB8ue170006ERSF_PSE_m, symObjAddr: 0x9F64, symBinAddr: 0x10000C828, symSize: 0x34 }
  - { offsetInCU: 0x230BE6, offset: 0x230BE6, size: 0x8, addend: 0x0, symName: __ZNSt3__117__compressed_pairINS_16__hash_node_baseIPNS_11__hash_nodeINS_17__hash_value_typeINS_12basic_stringIcNS_11char_traitsIcEENS_9allocatorIcEEEEN5Eigen6MatrixIfLin1ELi1ELi0ELin1ELi1EEEEEPvEEEENS7_ISF_EEE6secondB8ue170006Ev, symObjAddr: 0x9F98, symBinAddr: 0x10000C85C, symSize: 0x24 }
  - { offsetInCU: 0x230C0C, offset: 0x230C0C, size: 0x8, addend: 0x0, symName: __ZNSt3__122__compressed_pair_elemINS_9allocatorINS_11__hash_nodeINS_17__hash_value_typeINS_12basic_stringIcNS_11char_traitsIcEENS1_IcEEEEN5Eigen6MatrixIfLin1ELi1ELi0ELin1ELi1EEEEEPvEEEELi1ELb1EE5__getB8ue170006Ev, symObjAddr: 0x9FBC, symBinAddr: 0x10000C880, symSize: 0x14 }
  - { offsetInCU: 0x230C32, offset: 0x230C32, size: 0x8, addend: 0x0, symName: __ZNSt3__114pointer_traitsIPNS_16__hash_node_baseIPNS_11__hash_nodeINS_17__hash_value_typeINS_12basic_stringIcNS_11char_traitsIcEENS_9allocatorIcEEEEN5Eigen6MatrixIfLin1ELi1ELi0ELin1ELi1EEEEEPvEEEEE10pointer_toB8ue170006ERSH_, symObjAddr: 0x9FD0, symBinAddr: 0x10000C894, symSize: 0x14 }
  - { offsetInCU: 0x230C55, offset: 0x230C55, size: 0x8, addend: 0x0, symName: __ZNSt3__14pairIKNS_12basic_stringIcNS_11char_traitsIcEENS_9allocatorIcEEEEN5Eigen6MatrixIfLin1ELi1ELi0ELin1ELi1EEEED1Ev, symObjAddr: 0xA02C, symBinAddr: 0x10000C8F0, symSize: 0x2C }
  - { offsetInCU: 0x230C81, offset: 0x230C81, size: 0x8, addend: 0x0, symName: __ZNSt3__14pairIKNS_12basic_stringIcNS_11char_traitsIcEENS_9allocatorIcEEEEN5Eigen6MatrixIfLin1ELi1ELi0ELin1ELi1EEEED2Ev, symObjAddr: 0xA058, symBinAddr: 0x10000C91C, symSize: 0x38 }
  - { offsetInCU: 0x230CAD, offset: 0x230CAD, size: 0x8, addend: 0x0, symName: __ZNSt3__117__hash_value_typeINS_12basic_stringIcNS_11char_traitsIcEENS_9allocatorIcEEEEN5Eigen6MatrixIfLin1ELi1ELi0ELin1ELi1EEEE11__get_valueB8ue170006Ev, symObjAddr: 0xA090, symBinAddr: 0x10000C954, symSize: 0x24 }
  - { offsetInCU: 0x230CD3, offset: 0x230CD3, size: 0x8, addend: 0x0, symName: __ZNSt3__19allocatorINS_11__hash_nodeINS_17__hash_value_typeINS_12basic_stringIcNS_11char_traitsIcEENS0_IcEEEEN5Eigen6MatrixIfLin1ELi1ELi0ELin1ELi1EEEEEPvEEE10deallocateB8ue170006EPSD_m, symObjAddr: 0xA0EC, symBinAddr: 0x10000C9B0, symSize: 0x50 }
  - { offsetInCU: 0x230D15, offset: 0x230D15, size: 0x8, addend: 0x0, symName: __ZNSt3__122__compressed_pair_elemINS_16__hash_node_baseIPNS_11__hash_nodeINS_17__hash_value_typeINS_12basic_stringIcNS_11char_traitsIcEENS_9allocatorIcEEEEN5Eigen6MatrixIfLin1ELi1ELi0ELin1ELi1EEEEEPvEEEELi0ELb0EE5__getB8ue170006Ev, symObjAddr: 0xA13C, symBinAddr: 0x10000CA00, symSize: 0x14 }
  - { offsetInCU: 0x230D3B, offset: 0x230D3B, size: 0x8, addend: 0x0, symName: __ZNSt3__110unique_ptrIA_PNS_16__hash_node_baseIPNS_11__hash_nodeINS_17__hash_value_typeINS_12basic_stringIcNS_11char_traitsIcEENS_9allocatorIcEEEEN5Eigen6MatrixIfLin1ELi1ELi0ELin1ELi1EEEEEPvEEEENS_25__bucket_list_deallocatorINS7_ISI_EEEEED2B8ue170006Ev, symObjAddr: 0xA150, symBinAddr: 0x10000CA14, symSize: 0x30 }
  - { offsetInCU: 0x230D65, offset: 0x230D65, size: 0x8, addend: 0x0, symName: __ZNSt3__110unique_ptrIA_PNS_16__hash_node_baseIPNS_11__hash_nodeINS_17__hash_value_typeINS_12basic_stringIcNS_11char_traitsIcEENS_9allocatorIcEEEEN5Eigen6MatrixIfLin1ELi1ELi0ELin1ELi1EEEEEPvEEEENS_25__bucket_list_deallocatorINS7_ISI_EEEEE5resetB8ue170006EDn, symObjAddr: 0xA180, symBinAddr: 0x10000CA44, symSize: 0xE0 }
  - { offsetInCU: 0x230DA5, offset: 0x230DA5, size: 0x8, addend: 0x0, symName: __ZNSt3__117__compressed_pairIPPNS_16__hash_node_baseIPNS_11__hash_nodeINS_17__hash_value_typeINS_12basic_stringIcNS_11char_traitsIcEENS_9allocatorIcEEEEN5Eigen6MatrixIfLin1ELi1ELi0ELin1ELi1EEEEEPvEEEENS_25__bucket_list_deallocatorINS7_ISI_EEEEE5firstB8ue170006Ev, symObjAddr: 0xA260, symBinAddr: 0x10000CB24, symSize: 0x24 }
  - { offsetInCU: 0x230DCB, offset: 0x230DCB, size: 0x8, addend: 0x0, symName: __ZNSt3__117__compressed_pairIPPNS_16__hash_node_baseIPNS_11__hash_nodeINS_17__hash_value_typeINS_12basic_stringIcNS_11char_traitsIcEENS_9allocatorIcEEEEN5Eigen6MatrixIfLin1ELi1ELi0ELin1ELi1EEEEEPvEEEENS_25__bucket_list_deallocatorINS7_ISI_EEEEE6secondB8ue170006Ev, symObjAddr: 0xA284, symBinAddr: 0x10000CB48, symSize: 0x28 }
  - { offsetInCU: 0x230DF1, offset: 0x230DF1, size: 0x8, addend: 0x0, symName: __ZNSt3__125__bucket_list_deallocatorINS_9allocatorIPNS_16__hash_node_baseIPNS_11__hash_nodeINS_17__hash_value_typeINS_12basic_stringIcNS_11char_traitsIcEENS1_IcEEEEN5Eigen6MatrixIfLin1ELi1ELi0ELin1ELi1EEEEEPvEEEEEEEclB8ue170006EPSI_, symObjAddr: 0xA2AC, symBinAddr: 0x10000CB70, symSize: 0x98 }
  - { offsetInCU: 0x230E26, offset: 0x230E26, size: 0x8, addend: 0x0, symName: __ZNSt3__122__compressed_pair_elemIPPNS_16__hash_node_baseIPNS_11__hash_nodeINS_17__hash_value_typeINS_12basic_stringIcNS_11char_traitsIcEENS_9allocatorIcEEEEN5Eigen6MatrixIfLin1ELi1ELi0ELin1ELi1EEEEEPvEEEELi0ELb0EE5__getB8ue170006Ev, symObjAddr: 0xA344, symBinAddr: 0x10000CC08, symSize: 0x14 }
  - { offsetInCU: 0x230E4C, offset: 0x230E4C, size: 0x8, addend: 0x0, symName: __ZNSt3__122__compressed_pair_elemINS_25__bucket_list_deallocatorINS_9allocatorIPNS_16__hash_node_baseIPNS_11__hash_nodeINS_17__hash_value_typeINS_12basic_stringIcNS_11char_traitsIcEENS2_IcEEEEN5Eigen6MatrixIfLin1ELi1ELi0ELin1ELi1EEEEEPvEEEEEEEELi1ELb0EE5__getB8ue170006Ev, symObjAddr: 0xA358, symBinAddr: 0x10000CC1C, symSize: 0x14 }
  - { offsetInCU: 0x230E72, offset: 0x230E72, size: 0x8, addend: 0x0, symName: __ZNSt3__116allocator_traitsINS_9allocatorIPNS_16__hash_node_baseIPNS_11__hash_nodeINS_17__hash_value_typeINS_12basic_stringIcNS_11char_traitsIcEENS1_IcEEEEN5Eigen6MatrixIfLin1ELi1ELi0ELin1ELi1EEEEEPvEEEEEEE10deallocateB8ue170006ERSJ_PSI_m, symObjAddr: 0xA36C, symBinAddr: 0x10000CC30, symSize: 0x34 }
  - { offsetInCU: 0x230EB4, offset: 0x230EB4, size: 0x8, addend: 0x0, symName: __ZNSt3__125__bucket_list_deallocatorINS_9allocatorIPNS_16__hash_node_baseIPNS_11__hash_nodeINS_17__hash_value_typeINS_12basic_stringIcNS_11char_traitsIcEENS1_IcEEEEN5Eigen6MatrixIfLin1ELi1ELi0ELin1ELi1EEEEEPvEEEEEEE7__allocB8ue170006Ev, symObjAddr: 0xA3A0, symBinAddr: 0x10000CC64, symSize: 0x24 }
  - { offsetInCU: 0x230EDA, offset: 0x230EDA, size: 0x8, addend: 0x0, symName: __ZNSt3__125__bucket_list_deallocatorINS_9allocatorIPNS_16__hash_node_baseIPNS_11__hash_nodeINS_17__hash_value_typeINS_12basic_stringIcNS_11char_traitsIcEENS1_IcEEEEN5Eigen6MatrixIfLin1ELi1ELi0ELin1ELi1EEEEEPvEEEEEEE4sizeB8ue170006Ev, symObjAddr: 0xA3C4, symBinAddr: 0x10000CC88, symSize: 0x24 }
  - { offsetInCU: 0x230F00, offset: 0x230F00, size: 0x8, addend: 0x0, symName: __ZNSt3__19allocatorIPNS_16__hash_node_baseIPNS_11__hash_nodeINS_17__hash_value_typeINS_12basic_stringIcNS_11char_traitsIcEENS0_IcEEEEN5Eigen6MatrixIfLin1ELi1ELi0ELin1ELi1EEEEEPvEEEEE10deallocateB8ue170006EPSH_m, symObjAddr: 0xA3E8, symBinAddr: 0x10000CCAC, symSize: 0x4C }
  - { offsetInCU: 0x230F42, offset: 0x230F42, size: 0x8, addend: 0x0, symName: __ZNSt3__117__compressed_pairImNS_9allocatorIPNS_16__hash_node_baseIPNS_11__hash_nodeINS_17__hash_value_typeINS_12basic_stringIcNS_11char_traitsIcEENS1_IcEEEEN5Eigen6MatrixIfLin1ELi1ELi0ELin1ELi1EEEEEPvEEEEEEE6secondB8ue170006Ev, symObjAddr: 0xA434, symBinAddr: 0x10000CCF8, symSize: 0x24 }
  - { offsetInCU: 0x230F68, offset: 0x230F68, size: 0x8, addend: 0x0, symName: __ZNSt3__122__compressed_pair_elemINS_9allocatorIPNS_16__hash_node_baseIPNS_11__hash_nodeINS_17__hash_value_typeINS_12basic_stringIcNS_11char_traitsIcEENS1_IcEEEEN5Eigen6MatrixIfLin1ELi1ELi0ELin1ELi1EEEEEPvEEEEEELi1ELb1EE5__getB8ue170006Ev, symObjAddr: 0xA458, symBinAddr: 0x10000CD1C, symSize: 0x14 }
  - { offsetInCU: 0x230F8E, offset: 0x230F8E, size: 0x8, addend: 0x0, symName: __ZNSt3__117__compressed_pairImNS_9allocatorIPNS_16__hash_node_baseIPNS_11__hash_nodeINS_17__hash_value_typeINS_12basic_stringIcNS_11char_traitsIcEENS1_IcEEEEN5Eigen6MatrixIfLin1ELi1ELi0ELin1ELi1EEEEEPvEEEEEEE5firstB8ue170006Ev, symObjAddr: 0xA46C, symBinAddr: 0x10000CD30, symSize: 0x24 }
  - { offsetInCU: 0x230FB4, offset: 0x230FB4, size: 0x8, addend: 0x0, symName: __ZNSt3__122__compressed_pair_elemImLi0ELb0EE5__getB8ue170006Ev, symObjAddr: 0xA490, symBinAddr: 0x10000CD54, symSize: 0x14 }
  - { offsetInCU: 0x230FDA, offset: 0x230FDA, size: 0x8, addend: 0x0, symName: __ZNSt3__16vectorINS_6threadENS_9allocatorIS1_EEEC2Em, symObjAddr: 0xA4A4, symBinAddr: 0x10000CD68, symSize: 0x490 }
  - { offsetInCU: 0x231030, offset: 0x231030, size: 0x8, addend: 0x0, symName: __ZNSt3__117__compressed_pairIPNS_6threadENS_9allocatorIS1_EEEC1B8ue170006IDnNS_18__default_init_tagEEEOT_OT0_, symObjAddr: 0xA934, symBinAddr: 0x10000D1F8, symSize: 0x3C }
  - { offsetInCU: 0x231088, offset: 0x231088, size: 0x8, addend: 0x0, symName: __ZNSt3__16vectorINS_6threadENS_9allocatorIS1_EEE16__destroy_vectorC1B8ue170006ERS4_, symObjAddr: 0xABE8, symBinAddr: 0x10000D4AC, symSize: 0x34 }
  - { offsetInCU: 0x2310C1, offset: 0x2310C1, size: 0x8, addend: 0x0, symName: __ZNSt3__16vectorINS_6threadENS_9allocatorIS1_EEE11__vallocateB8ue170006Em, symObjAddr: 0xAC1C, symBinAddr: 0x10000D4E0, symSize: 0x420 }
  - { offsetInCU: 0x23110B, offset: 0x23110B, size: 0x8, addend: 0x0, symName: __ZNSt3__16vectorINS_6threadENS_9allocatorIS1_EEE18__construct_at_endEm, symObjAddr: 0xB03C, symBinAddr: 0x10000D900, symSize: 0x3E4 }
  - { offsetInCU: 0x231185, offset: 0x231185, size: 0x8, addend: 0x0, symName: __ZNSt3__128__exception_guard_exceptionsINS_6vectorINS_6threadENS_9allocatorIS2_EEE16__destroy_vectorEE10__completeB8ue170006Ev, symObjAddr: 0xB420, symBinAddr: 0x10000DCE4, symSize: 0x8C }
  - { offsetInCU: 0x2311AB, offset: 0x2311AB, size: 0x8, addend: 0x0, symName: __ZNSt3__128__exception_guard_exceptionsINS_6vectorINS_6threadENS_9allocatorIS2_EEE16__destroy_vectorEED1B8ue170006Ev, symObjAddr: 0xB4AC, symBinAddr: 0x10000DD70, symSize: 0x2C }
  - { offsetInCU: 0x2311D5, offset: 0x2311D5, size: 0x8, addend: 0x0, symName: __ZNSt3__117__compressed_pairIPNS_6threadENS_9allocatorIS1_EEEC2B8ue170006IDnNS_18__default_init_tagEEEOT_OT0_, symObjAddr: 0xB4D8, symBinAddr: 0x10000DD9C, symSize: 0x40 }
  - { offsetInCU: 0x23122D, offset: 0x23122D, size: 0x8, addend: 0x0, symName: __ZNSt3__122__compressed_pair_elemIPNS_6threadELi0ELb0EEC2B8ue170006IDnvEEOT_, symObjAddr: 0xB518, symBinAddr: 0x10000DDDC, symSize: 0x64 }
  - { offsetInCU: 0x231270, offset: 0x231270, size: 0x8, addend: 0x0, symName: __ZNSt3__122__compressed_pair_elemINS_9allocatorINS_6threadEEELi1ELb1EEC2B8ue170006ENS_18__default_init_tagE, symObjAddr: 0xB57C, symBinAddr: 0x10000DE40, symSize: 0x2C }
  - { offsetInCU: 0x2312A4, offset: 0x2312A4, size: 0x8, addend: 0x0, symName: __ZNSt3__19allocatorINS_6threadEEC2B8ue170006Ev, symObjAddr: 0xB5A8, symBinAddr: 0x10000DE6C, symSize: 0x2C }
  - { offsetInCU: 0x2312CE, offset: 0x2312CE, size: 0x8, addend: 0x0, symName: __ZNSt3__116__non_trivial_ifILb1ENS_9allocatorINS_6threadEEEEC2B8ue170006Ev, symObjAddr: 0xB5D4, symBinAddr: 0x10000DE98, symSize: 0x14 }
  - { offsetInCU: 0x2312F8, offset: 0x2312F8, size: 0x8, addend: 0x0, symName: __ZNSt3__128__exception_guard_exceptionsINS_6vectorINS_6threadENS_9allocatorIS2_EEE16__destroy_vectorEEC1B8ue170006ES6_, symObjAddr: 0xB5E8, symBinAddr: 0x10000DEAC, symSize: 0x238 }
  - { offsetInCU: 0x231335, offset: 0x231335, size: 0x8, addend: 0x0, symName: __ZNSt3__128__exception_guard_exceptionsINS_6vectorINS_6threadENS_9allocatorIS2_EEE16__destroy_vectorEEC2B8ue170006ES6_, symObjAddr: 0xB820, symBinAddr: 0x10000E0E4, symSize: 0x264 }
  - { offsetInCU: 0x231372, offset: 0x231372, size: 0x8, addend: 0x0, symName: __ZNSt3__16vectorINS_6threadENS_9allocatorIS1_EEE16__destroy_vectorC2B8ue170006ERS4_, symObjAddr: 0xBA84, symBinAddr: 0x10000E348, symSize: 0x70 }
  - { offsetInCU: 0x2313AB, offset: 0x2313AB, size: 0x8, addend: 0x0, symName: __ZNKSt3__16vectorINS_6threadENS_9allocatorIS1_EEE8max_sizeEv, symObjAddr: 0xBAF4, symBinAddr: 0x10000E3B8, symSize: 0x2FC }
  - { offsetInCU: 0x2313D4, offset: 0x2313D4, size: 0x8, addend: 0x0, symName: __ZNKSt3__16vectorINS_6threadENS_9allocatorIS1_EEE20__throw_length_errorB8ue170006Ev, symObjAddr: 0xBDF0, symBinAddr: 0x10000E6B4, symSize: 0x20 }
  - { offsetInCU: 0x2313FA, offset: 0x2313FA, size: 0x8, addend: 0x0, symName: __ZNSt3__16vectorINS_6threadENS_9allocatorIS1_EEE7__allocB8ue170006Ev, symObjAddr: 0xC09C, symBinAddr: 0x10000E960, symSize: 0x28 }
  - { offsetInCU: 0x231420, offset: 0x231420, size: 0x8, addend: 0x0, symName: __ZNSt3__16vectorINS_6threadENS_9allocatorIS1_EEE9__end_capB8ue170006Ev, symObjAddr: 0xC0C4, symBinAddr: 0x10000E988, symSize: 0x28 }
  - { offsetInCU: 0x231446, offset: 0x231446, size: 0x8, addend: 0x0, symName: __ZNKSt3__16vectorINS_6threadENS_9allocatorIS1_EEE14__annotate_newB8ue170006Em, symObjAddr: 0xC0EC, symBinAddr: 0x10000E9B0, symSize: 0xC0 }
  - { offsetInCU: 0x231487, offset: 0x231487, size: 0x8, addend: 0x0, symName: __ZNSt3__116allocator_traitsINS_9allocatorINS_6threadEEEE8max_sizeB8ue170006IS3_vvEEmRKS3_, symObjAddr: 0xC1D8, symBinAddr: 0x10000EA9C, symSize: 0x28 }
  - { offsetInCU: 0x2314B4, offset: 0x2314B4, size: 0x8, addend: 0x0, symName: __ZNKSt3__16vectorINS_6threadENS_9allocatorIS1_EEE7__allocB8ue170006Ev, symObjAddr: 0xC200, symBinAddr: 0x10000EAC4, symSize: 0x28 }
  - { offsetInCU: 0x2314DA, offset: 0x2314DA, size: 0x8, addend: 0x0, symName: __ZNSt3__114numeric_limitsIlE3maxB8ue170006Ev, symObjAddr: 0xC228, symBinAddr: 0x10000EAEC, symSize: 0x14 }
  - { offsetInCU: 0x2314FA, offset: 0x2314FA, size: 0x8, addend: 0x0, symName: __ZNKSt3__16__lessIvvEclB8ue170006ImmEEbRKT_RKT0_, symObjAddr: 0xC424, symBinAddr: 0x10000ECE8, symSize: 0xBC }
  - { offsetInCU: 0x23154E, offset: 0x23154E, size: 0x8, addend: 0x0, symName: __ZNSt3__114numeric_limitsImE3maxB8ue170006Ev, symObjAddr: 0xC4E0, symBinAddr: 0x10000EDA4, symSize: 0x14 }
  - { offsetInCU: 0x231562, offset: 0x231562, size: 0x8, addend: 0x0, symName: __ZNSt3__123__libcpp_numeric_limitsImLb1EE3maxB8ue170006Ev, symObjAddr: 0xC4F4, symBinAddr: 0x10000EDB8, symSize: 0x8 }
  - { offsetInCU: 0x231576, offset: 0x231576, size: 0x8, addend: 0x0, symName: __ZNKSt3__117__compressed_pairIPNS_6threadENS_9allocatorIS1_EEE6secondB8ue170006Ev, symObjAddr: 0xC4FC, symBinAddr: 0x10000EDC0, symSize: 0x24 }
  - { offsetInCU: 0x23159C, offset: 0x23159C, size: 0x8, addend: 0x0, symName: __ZNKSt3__122__compressed_pair_elemINS_9allocatorINS_6threadEEELi1ELb1EE5__getB8ue170006Ev, symObjAddr: 0xC520, symBinAddr: 0x10000EDE4, symSize: 0x14 }
  - { offsetInCU: 0x2315C2, offset: 0x2315C2, size: 0x8, addend: 0x0, symName: __ZNSt3__123__libcpp_numeric_limitsIlLb1EE3maxB8ue170006Ev, symObjAddr: 0xC534, symBinAddr: 0x10000EDF8, symSize: 0x8 }
  - { offsetInCU: 0x2315D6, offset: 0x2315D6, size: 0x8, addend: 0x0, symName: __ZNSt12length_errorC1B8ue170006EPKc, symObjAddr: 0xC5A4, symBinAddr: 0x10000EE68, symSize: 0x34 }
  - { offsetInCU: 0x23160E, offset: 0x23160E, size: 0x8, addend: 0x0, symName: __ZNSt12length_errorC2B8ue170006EPKc, symObjAddr: 0xC5D8, symBinAddr: 0x10000EE9C, symSize: 0x8C }
  - { offsetInCU: 0x231646, offset: 0x231646, size: 0x8, addend: 0x0, symName: __ZNSt3__19allocatorINS_6threadEE8allocateB8ue170006Em, symObjAddr: 0xC664, symBinAddr: 0x10000EF28, symSize: 0x5C }
  - { offsetInCU: 0x23167A, offset: 0x23167A, size: 0x8, addend: 0x0, symName: __ZNSt3__117__compressed_pairIPNS_6threadENS_9allocatorIS1_EEE6secondB8ue170006Ev, symObjAddr: 0xC7A8, symBinAddr: 0x10000F06C, symSize: 0x24 }
  - { offsetInCU: 0x2316A0, offset: 0x2316A0, size: 0x8, addend: 0x0, symName: __ZNSt3__122__compressed_pair_elemINS_9allocatorINS_6threadEEELi1ELb1EE5__getB8ue170006Ev, symObjAddr: 0xC7CC, symBinAddr: 0x10000F090, symSize: 0x14 }
  - { offsetInCU: 0x2316C6, offset: 0x2316C6, size: 0x8, addend: 0x0, symName: __ZNSt3__117__compressed_pairIPNS_6threadENS_9allocatorIS1_EEE5firstB8ue170006Ev, symObjAddr: 0xC7E0, symBinAddr: 0x10000F0A4, symSize: 0x24 }
  - { offsetInCU: 0x2316EC, offset: 0x2316EC, size: 0x8, addend: 0x0, symName: __ZNSt3__122__compressed_pair_elemIPNS_6threadELi0ELb0EE5__getB8ue170006Ev, symObjAddr: 0xC804, symBinAddr: 0x10000F0C8, symSize: 0x14 }
  - { offsetInCU: 0x231712, offset: 0x231712, size: 0x8, addend: 0x0, symName: __ZNKSt3__16vectorINS_6threadENS_9allocatorIS1_EEE31__annotate_contiguous_containerEPKvS6_S6_S6_, symObjAddr: 0xC818, symBinAddr: 0x10000F0DC, symSize: 0x58 }
  - { offsetInCU: 0x231774, offset: 0x231774, size: 0x8, addend: 0x0, symName: __ZNKSt3__16vectorINS_6threadENS_9allocatorIS1_EEE4dataB8ue170006Ev, symObjAddr: 0xC870, symBinAddr: 0x10000F134, symSize: 0x64 }
  - { offsetInCU: 0x23179A, offset: 0x23179A, size: 0x8, addend: 0x0, symName: __ZNKSt3__16vectorINS_6threadENS_9allocatorIS1_EEE8capacityB8ue170006Ev, symObjAddr: 0xC8D4, symBinAddr: 0x10000F198, symSize: 0xBC }
  - { offsetInCU: 0x2317C0, offset: 0x2317C0, size: 0x8, addend: 0x0, symName: __ZNKSt3__16vectorINS_6threadENS_9allocatorIS1_EEE9__end_capB8ue170006Ev, symObjAddr: 0xC9A4, symBinAddr: 0x10000F268, symSize: 0x28 }
  - { offsetInCU: 0x2317E6, offset: 0x2317E6, size: 0x8, addend: 0x0, symName: __ZNKSt3__117__compressed_pairIPNS_6threadENS_9allocatorIS1_EEE5firstB8ue170006Ev, symObjAddr: 0xC9CC, symBinAddr: 0x10000F290, symSize: 0x24 }
  - { offsetInCU: 0x23180C, offset: 0x23180C, size: 0x8, addend: 0x0, symName: __ZNKSt3__122__compressed_pair_elemIPNS_6threadELi0ELb0EE5__getB8ue170006Ev, symObjAddr: 0xC9F0, symBinAddr: 0x10000F2B4, symSize: 0x14 }
  - { offsetInCU: 0x231850, offset: 0x231850, size: 0x8, addend: 0x0, symName: __ZNSt3__16vectorINS_6threadENS_9allocatorIS1_EEE21_ConstructTransactionC1B8ue170006ERS4_m, symObjAddr: 0xCA04, symBinAddr: 0x10000F2C8, symSize: 0x3C }
  - { offsetInCU: 0x231898, offset: 0x231898, size: 0x8, addend: 0x0, symName: __ZNSt3__116allocator_traitsINS_9allocatorINS_6threadEEEE9constructB8ue170006IS2_JEvvEEvRS3_PT_DpOT0_, symObjAddr: 0xCA40, symBinAddr: 0x10000F304, symSize: 0x28 }
  - { offsetInCU: 0x2318DA, offset: 0x2318DA, size: 0x8, addend: 0x0, symName: __ZNSt3__16vectorINS_6threadENS_9allocatorIS1_EEE21_ConstructTransactionD1B8ue170006Ev, symObjAddr: 0xCA68, symBinAddr: 0x10000F32C, symSize: 0x2C }
  - { offsetInCU: 0x231904, offset: 0x231904, size: 0x8, addend: 0x0, symName: __ZNSt3__16vectorINS_6threadENS_9allocatorIS1_EEE21_ConstructTransactionC2B8ue170006ERS4_m, symObjAddr: 0xCA94, symBinAddr: 0x10000F358, symSize: 0x1D0 }
  - { offsetInCU: 0x23194C, offset: 0x23194C, size: 0x8, addend: 0x0, symName: __ZNKSt3__16vectorINS_6threadENS_9allocatorIS1_EEE19__annotate_increaseB8ue170006Em, symObjAddr: 0xCC64, symBinAddr: 0x10000F528, symSize: 0xD8 }
  - { offsetInCU: 0x231981, offset: 0x231981, size: 0x8, addend: 0x0, symName: __ZNKSt3__16vectorINS_6threadENS_9allocatorIS1_EEE4sizeB8ue170006Ev, symObjAddr: 0xCD3C, symBinAddr: 0x10000F600, symSize: 0xB0 }
  - { offsetInCU: 0x2319A7, offset: 0x2319A7, size: 0x8, addend: 0x0, symName: __ZNSt3__16threadC1B8ue170006Ev, symObjAddr: 0xCE20, symBinAddr: 0x10000F6E4, symSize: 0x2C }
  - { offsetInCU: 0x2319D1, offset: 0x2319D1, size: 0x8, addend: 0x0, symName: __ZNSt3__16threadC2B8ue170006Ev, symObjAddr: 0xCE4C, symBinAddr: 0x10000F710, symSize: 0x60 }
  - { offsetInCU: 0x2319FB, offset: 0x2319FB, size: 0x8, addend: 0x0, symName: __ZNSt3__16vectorINS_6threadENS_9allocatorIS1_EEE21_ConstructTransactionD2B8ue170006Ev, symObjAddr: 0xCEAC, symBinAddr: 0x10000F770, symSize: 0x278 }
  - { offsetInCU: 0x231A25, offset: 0x231A25, size: 0x8, addend: 0x0, symName: __ZNKSt3__16vectorINS_6threadENS_9allocatorIS1_EEE17__annotate_shrinkB8ue170006Em, symObjAddr: 0xD124, symBinAddr: 0x10000F9E8, symSize: 0xC8 }
  - { offsetInCU: 0x231A5A, offset: 0x231A5A, size: 0x8, addend: 0x0, symName: __ZNSt3__128__exception_guard_exceptionsINS_6vectorINS_6threadENS_9allocatorIS2_EEE16__destroy_vectorEED2B8ue170006Ev, symObjAddr: 0xD1EC, symBinAddr: 0x10000FAB0, symSize: 0xBC }
  - { offsetInCU: 0x231A84, offset: 0x231A84, size: 0x8, addend: 0x0, symName: __ZNSt3__16vectorINS_6threadENS_9allocatorIS1_EEE16__destroy_vectorclB8ue170006Ev, symObjAddr: 0xD2A8, symBinAddr: 0x10000FB6C, symSize: 0x228 }
  - { offsetInCU: 0x231AAA, offset: 0x231AAA, size: 0x8, addend: 0x0, symName: __ZNSt3__16vectorINS_6threadENS_9allocatorIS1_EEE7__clearB8ue170006Ev, symObjAddr: 0xD4D0, symBinAddr: 0x10000FD94, symSize: 0x64 }
  - { offsetInCU: 0x231AD0, offset: 0x231AD0, size: 0x8, addend: 0x0, symName: __ZNKSt3__16vectorINS_6threadENS_9allocatorIS1_EEE17__annotate_deleteB8ue170006Ev, symObjAddr: 0xD534, symBinAddr: 0x10000FDF8, symSize: 0xCC }
  - { offsetInCU: 0x231AF6, offset: 0x231AF6, size: 0x8, addend: 0x0, symName: __ZNSt3__116allocator_traitsINS_9allocatorINS_6threadEEEE10deallocateB8ue170006ERS3_PS2_m, symObjAddr: 0xD600, symBinAddr: 0x10000FEC4, symSize: 0x34 }
  - { offsetInCU: 0x231B38, offset: 0x231B38, size: 0x8, addend: 0x0, symName: __ZNSt3__16vectorINS_6threadENS_9allocatorIS1_EEE22__base_destruct_at_endB8ue170006EPS1_, symObjAddr: 0xD634, symBinAddr: 0x10000FEF8, symSize: 0x114 }
  - { offsetInCU: 0x231B7C, offset: 0x231B7C, size: 0x8, addend: 0x0, symName: __ZNSt3__116allocator_traitsINS_9allocatorINS_6threadEEEE7destroyB8ue170006IS2_vvEEvRS3_PT_, symObjAddr: 0xD748, symBinAddr: 0x10001000C, symSize: 0x28 }
  - { offsetInCU: 0x231BB8, offset: 0x231BB8, size: 0x8, addend: 0x0, symName: __ZNSt3__19allocatorINS_6threadEE10deallocateB8ue170006EPS1_m, symObjAddr: 0xD7B8, symBinAddr: 0x10001007C, symSize: 0x4C }
  - { offsetInCU: 0x231BFA, offset: 0x231BFA, size: 0x8, addend: 0x0, symName: __ZNSt3__15latchC2B8ue170006El, symObjAddr: 0xD804, symBinAddr: 0x1000100C8, symSize: 0x34 }
  - { offsetInCU: 0x231C32, offset: 0x231C32, size: 0x8, addend: 0x0, symName: __ZNSt3__113__atomic_baseIlLb1EEC1B8ue170006El, symObjAddr: 0xD838, symBinAddr: 0x1000100FC, symSize: 0x34 }
  - { offsetInCU: 0x231C6A, offset: 0x231C6A, size: 0x8, addend: 0x0, symName: __ZNSt3__113__atomic_baseIlLb1EEC2B8ue170006El, symObjAddr: 0xD86C, symBinAddr: 0x100010130, symSize: 0x34 }
  - { offsetInCU: 0x231CA2, offset: 0x231CA2, size: 0x8, addend: 0x0, symName: __ZNSt3__113__atomic_baseIlLb0EEC2B8ue170006El, symObjAddr: 0xD8A0, symBinAddr: 0x100010164, symSize: 0x34 }
  - { offsetInCU: 0x231CDA, offset: 0x231CDA, size: 0x8, addend: 0x0, symName: __ZNSt3__117__cxx_atomic_implIlNS_22__cxx_atomic_base_implIlEEEC1B8ue170006El, symObjAddr: 0xD8D4, symBinAddr: 0x100010198, symSize: 0x34 }
  - { offsetInCU: 0x231D13, offset: 0x231D13, size: 0x8, addend: 0x0, symName: __ZNSt3__117__cxx_atomic_implIlNS_22__cxx_atomic_base_implIlEEEC2B8ue170006El, symObjAddr: 0xD908, symBinAddr: 0x1000101CC, symSize: 0x34 }
  - { offsetInCU: 0x231D4C, offset: 0x231D4C, size: 0x8, addend: 0x0, symName: __ZNSt3__122__cxx_atomic_base_implIlEC2El, symObjAddr: 0xD93C, symBinAddr: 0x100010200, symSize: 0x70 }
  - { offsetInCU: 0x231D85, offset: 0x231D85, size: 0x8, addend: 0x0, symName: __ZNSt3__16vectorINS_4pairIifEENS_9allocatorIS2_EEEC2B8ue170006Ev, symObjAddr: 0xD9AC, symBinAddr: 0x100010270, symSize: 0x2E8 }
  - { offsetInCU: 0x231DB0, offset: 0x231DB0, size: 0x8, addend: 0x0, symName: __ZNSt3__117__compressed_pairIPNS_4pairIifEENS_9allocatorIS2_EEEC1B8ue170006IDnNS_18__default_init_tagEEEOT_OT0_, symObjAddr: 0xDC94, symBinAddr: 0x100010558, symSize: 0x3C }
  - { offsetInCU: 0x231E08, offset: 0x231E08, size: 0x8, addend: 0x0, symName: __ZNSt3__117__compressed_pairIPNS_4pairIifEENS_9allocatorIS2_EEEC2B8ue170006IDnNS_18__default_init_tagEEEOT_OT0_, symObjAddr: 0xDCD0, symBinAddr: 0x100010594, symSize: 0x40 }
  - { offsetInCU: 0x231E60, offset: 0x231E60, size: 0x8, addend: 0x0, symName: __ZNSt3__122__compressed_pair_elemIPNS_4pairIifEELi0ELb0EEC2B8ue170006IDnvEEOT_, symObjAddr: 0xDD10, symBinAddr: 0x1000105D4, symSize: 0x64 }
  - { offsetInCU: 0x231EA3, offset: 0x231EA3, size: 0x8, addend: 0x0, symName: __ZNSt3__122__compressed_pair_elemINS_9allocatorINS_4pairIifEEEELi1ELb1EEC2B8ue170006ENS_18__default_init_tagE, symObjAddr: 0xDD74, symBinAddr: 0x100010638, symSize: 0x2C }
  - { offsetInCU: 0x231ED7, offset: 0x231ED7, size: 0x8, addend: 0x0, symName: __ZNSt3__19allocatorINS_4pairIifEEEC2B8ue170006Ev, symObjAddr: 0xDDA0, symBinAddr: 0x100010664, symSize: 0x2C }
  - { offsetInCU: 0x231F01, offset: 0x231F01, size: 0x8, addend: 0x0, symName: __ZNSt3__116__non_trivial_ifILb1ENS_9allocatorINS_4pairIifEEEEEC2B8ue170006Ev, symObjAddr: 0xDDCC, symBinAddr: 0x100010690, symSize: 0x14 }
  - { offsetInCU: 0x231F2B, offset: 0x231F2B, size: 0x8, addend: 0x0, symName: __ZNSt3__16vectorINS_4pairIifEENS_9allocatorIS2_EEE11__make_iterB8ue170006EPS2_, symObjAddr: 0xDE70, symBinAddr: 0x100010734, symSize: 0x1FC }
  - { offsetInCU: 0x231F62, offset: 0x231F62, size: 0x8, addend: 0x0, symName: __ZNSt3__111__wrap_iterIPNS_4pairIifEEEC1B8ue170006ES3_, symObjAddr: 0xE06C, symBinAddr: 0x100010930, symSize: 0x34 }
  - { offsetInCU: 0x231F9A, offset: 0x231F9A, size: 0x8, addend: 0x0, symName: __ZNSt3__111__wrap_iterIPNS_4pairIifEEEC2B8ue170006ES3_, symObjAddr: 0xE0A0, symBinAddr: 0x100010964, symSize: 0x70 }
  - { offsetInCU: 0x231FD2, offset: 0x231FD2, size: 0x8, addend: 0x0, symName: __ZNKSt3__111__wrap_iterIPNS_4pairIifEEE4baseB8ue170006Ev, symObjAddr: 0xE158, symBinAddr: 0x100010A1C, symSize: 0x60 }
  - { offsetInCU: 0x231FF8, offset: 0x231FF8, size: 0x8, addend: 0x0, symName: __ZNSt3__16vectorIdNS_9allocatorIdEEE9__end_capB8ue170006Ev, symObjAddr: 0xE1B8, symBinAddr: 0x100010A7C, symSize: 0x28 }
  - { offsetInCU: 0x232024, offset: 0x232024, size: 0x8, addend: 0x0, symName: __ZNSt3__16vectorIdNS_9allocatorIdEEE22__construct_one_at_endB8ue170006IJdEEEvDpOT_, symObjAddr: 0xE1E0, symBinAddr: 0x100010AA4, symSize: 0x36C }
  - { offsetInCU: 0x23207B, offset: 0x23207B, size: 0x8, addend: 0x0, symName: __ZNSt3__16vectorIdNS_9allocatorIdEEE21__push_back_slow_pathIdEEvOT_, symObjAddr: 0xE54C, symBinAddr: 0x100010E10, symSize: 0x3C0 }
  - { offsetInCU: 0x2320E0, offset: 0x2320E0, size: 0x8, addend: 0x0, symName: __ZNSt3__117__compressed_pairIPdNS_9allocatorIdEEE5firstB8ue170006Ev, symObjAddr: 0xE90C, symBinAddr: 0x1000111D0, symSize: 0x24 }
  - { offsetInCU: 0x232106, offset: 0x232106, size: 0x8, addend: 0x0, symName: __ZNSt3__122__compressed_pair_elemIPdLi0ELb0EE5__getB8ue170006Ev, symObjAddr: 0xE930, symBinAddr: 0x1000111F4, symSize: 0x14 }
  - { offsetInCU: 0x23214A, offset: 0x23214A, size: 0x8, addend: 0x0, symName: __ZNSt3__16vectorIdNS_9allocatorIdEEE21_ConstructTransactionC1B8ue170006ERS3_m, symObjAddr: 0xE944, symBinAddr: 0x100011208, symSize: 0x3C }
  - { offsetInCU: 0x232192, offset: 0x232192, size: 0x8, addend: 0x0, symName: __ZNSt3__116allocator_traitsINS_9allocatorIdEEE9constructB8ue170006IdJdEvvEEvRS2_PT_DpOT0_, symObjAddr: 0xE980, symBinAddr: 0x100011244, symSize: 0x30 }
  - { offsetInCU: 0x2321EA, offset: 0x2321EA, size: 0x8, addend: 0x0, symName: __ZNSt3__16vectorIdNS_9allocatorIdEEE7__allocB8ue170006Ev, symObjAddr: 0xE9B0, symBinAddr: 0x100011274, symSize: 0x28 }
  - { offsetInCU: 0x232210, offset: 0x232210, size: 0x8, addend: 0x0, symName: __ZNSt3__16vectorIdNS_9allocatorIdEEE21_ConstructTransactionD1B8ue170006Ev, symObjAddr: 0xE9EC, symBinAddr: 0x1000112B0, symSize: 0x2C }
  - { offsetInCU: 0x23223A, offset: 0x23223A, size: 0x8, addend: 0x0, symName: __ZNSt3__16vectorIdNS_9allocatorIdEEE21_ConstructTransactionC2B8ue170006ERS3_m, symObjAddr: 0xEA18, symBinAddr: 0x1000112DC, symSize: 0x1D0 }
  - { offsetInCU: 0x232282, offset: 0x232282, size: 0x8, addend: 0x0, symName: __ZNKSt3__16vectorIdNS_9allocatorIdEEE19__annotate_increaseB8ue170006Em, symObjAddr: 0xEBE8, symBinAddr: 0x1000114AC, symSize: 0xD8 }
  - { offsetInCU: 0x2322B7, offset: 0x2322B7, size: 0x8, addend: 0x0, symName: __ZNKSt3__16vectorIdNS_9allocatorIdEEE31__annotate_contiguous_containerEPKvS5_S5_S5_, symObjAddr: 0xECC0, symBinAddr: 0x100011584, symSize: 0x58 }
  - { offsetInCU: 0x232319, offset: 0x232319, size: 0x8, addend: 0x0, symName: __ZNKSt3__16vectorIdNS_9allocatorIdEEE4dataB8ue170006Ev, symObjAddr: 0xED18, symBinAddr: 0x1000115DC, symSize: 0x64 }
  - { offsetInCU: 0x23233F, offset: 0x23233F, size: 0x8, addend: 0x0, symName: __ZNKSt3__16vectorIdNS_9allocatorIdEEE8capacityB8ue170006Ev, symObjAddr: 0xED7C, symBinAddr: 0x100011640, symSize: 0xBC }
  - { offsetInCU: 0x232365, offset: 0x232365, size: 0x8, addend: 0x0, symName: __ZNKSt3__16vectorIdNS_9allocatorIdEEE4sizeB8ue170006Ev, symObjAddr: 0xEE38, symBinAddr: 0x1000116FC, symSize: 0xB0 }
  - { offsetInCU: 0x23238B, offset: 0x23238B, size: 0x8, addend: 0x0, symName: __ZNKSt3__16vectorIdNS_9allocatorIdEEE9__end_capB8ue170006Ev, symObjAddr: 0xEEE8, symBinAddr: 0x1000117AC, symSize: 0x28 }
  - { offsetInCU: 0x2323B1, offset: 0x2323B1, size: 0x8, addend: 0x0, symName: __ZNKSt3__117__compressed_pairIPdNS_9allocatorIdEEE5firstB8ue170006Ev, symObjAddr: 0xEF10, symBinAddr: 0x1000117D4, symSize: 0x24 }
  - { offsetInCU: 0x2323D7, offset: 0x2323D7, size: 0x8, addend: 0x0, symName: __ZNKSt3__122__compressed_pair_elemIPdLi0ELb0EE5__getB8ue170006Ev, symObjAddr: 0xEF34, symBinAddr: 0x1000117F8, symSize: 0x14 }
  - { offsetInCU: 0x2323FD, offset: 0x2323FD, size: 0x8, addend: 0x0, symName: __ZNSt3__117__compressed_pairIPdNS_9allocatorIdEEE6secondB8ue170006Ev, symObjAddr: 0xF000, symBinAddr: 0x1000118C4, symSize: 0x24 }
  - { offsetInCU: 0x232423, offset: 0x232423, size: 0x8, addend: 0x0, symName: __ZNSt3__122__compressed_pair_elemINS_9allocatorIdEELi1ELb1EE5__getB8ue170006Ev, symObjAddr: 0xF024, symBinAddr: 0x1000118E8, symSize: 0x14 }
  - { offsetInCU: 0x232449, offset: 0x232449, size: 0x8, addend: 0x0, symName: __ZNSt3__16vectorIdNS_9allocatorIdEEE21_ConstructTransactionD2B8ue170006Ev, symObjAddr: 0xF038, symBinAddr: 0x1000118FC, symSize: 0x278 }
  - { offsetInCU: 0x232473, offset: 0x232473, size: 0x8, addend: 0x0, symName: __ZNKSt3__16vectorIdNS_9allocatorIdEEE17__annotate_shrinkB8ue170006Em, symObjAddr: 0xF2B0, symBinAddr: 0x100011B74, symSize: 0xC8 }
  - { offsetInCU: 0x2324A8, offset: 0x2324A8, size: 0x8, addend: 0x0, symName: __ZNKSt3__16vectorIdNS_9allocatorIdEEE11__recommendB8ue170006Em, symObjAddr: 0xF378, symBinAddr: 0x100011C3C, symSize: 0x384 }
  - { offsetInCU: 0x232504, offset: 0x232504, size: 0x8, addend: 0x0, symName: __ZNSt3__114__split_bufferIdRNS_9allocatorIdEEEC1EmmS3_, symObjAddr: 0xF6FC, symBinAddr: 0x100011FC0, symSize: 0x44 }
  - { offsetInCU: 0x23255A, offset: 0x23255A, size: 0x8, addend: 0x0, symName: __ZNSt3__114__split_bufferIdRNS_9allocatorIdEEED1Ev, symObjAddr: 0xFCAC, symBinAddr: 0x100012570, symSize: 0x2C }
  - { offsetInCU: 0x232586, offset: 0x232586, size: 0x8, addend: 0x0, symName: __ZNKSt3__16vectorIdNS_9allocatorIdEEE8max_sizeEv, symObjAddr: 0xFCD8, symBinAddr: 0x10001259C, symSize: 0x2FC }
  - { offsetInCU: 0x2325AF, offset: 0x2325AF, size: 0x8, addend: 0x0, symName: __ZNKSt3__16vectorIdNS_9allocatorIdEEE20__throw_length_errorB8ue170006Ev, symObjAddr: 0xFFD4, symBinAddr: 0x100012898, symSize: 0x20 }
  - { offsetInCU: 0x2325E1, offset: 0x2325E1, size: 0x8, addend: 0x0, symName: __ZNSt3__116allocator_traitsINS_9allocatorIdEEE8max_sizeB8ue170006IS2_vvEEmRKS2_, symObjAddr: 0x10020, symBinAddr: 0x1000128E4, symSize: 0x28 }
  - { offsetInCU: 0x23260E, offset: 0x23260E, size: 0x8, addend: 0x0, symName: __ZNKSt3__16vectorIdNS_9allocatorIdEEE7__allocB8ue170006Ev, symObjAddr: 0x10048, symBinAddr: 0x10001290C, symSize: 0x28 }
  - { offsetInCU: 0x232634, offset: 0x232634, size: 0x8, addend: 0x0, symName: __ZNKSt3__117__compressed_pairIPdNS_9allocatorIdEEE6secondB8ue170006Ev, symObjAddr: 0x10070, symBinAddr: 0x100012934, symSize: 0x24 }
  - { offsetInCU: 0x23265A, offset: 0x23265A, size: 0x8, addend: 0x0, symName: __ZNKSt3__122__compressed_pair_elemINS_9allocatorIdEELi1ELb1EE5__getB8ue170006Ev, symObjAddr: 0x10094, symBinAddr: 0x100012958, symSize: 0x14 }
  - { offsetInCU: 0x232680, offset: 0x232680, size: 0x8, addend: 0x0, symName: __ZNSt3__114__split_bufferIdRNS_9allocatorIdEEEC2EmmS3_, symObjAddr: 0x10290, symBinAddr: 0x100012B54, symSize: 0x520 }
  - { offsetInCU: 0x2326FB, offset: 0x2326FB, size: 0x8, addend: 0x0, symName: __ZNSt3__117__compressed_pairIPdRNS_9allocatorIdEEEC1B8ue170006IDnS4_EEOT_OT0_, symObjAddr: 0x107B0, symBinAddr: 0x100013074, symSize: 0x3C }
  - { offsetInCU: 0x232753, offset: 0x232753, size: 0x8, addend: 0x0, symName: __ZNSt3__114__split_bufferIdRNS_9allocatorIdEEE7__allocB8ue170006Ev, symObjAddr: 0x10A78, symBinAddr: 0x10001333C, symSize: 0x28 }
  - { offsetInCU: 0x232779, offset: 0x232779, size: 0x8, addend: 0x0, symName: __ZNSt3__114__split_bufferIdRNS_9allocatorIdEEE9__end_capB8ue170006Ev, symObjAddr: 0x10AA0, symBinAddr: 0x100013364, symSize: 0x28 }
  - { offsetInCU: 0x23279F, offset: 0x23279F, size: 0x8, addend: 0x0, symName: __ZNSt3__117__compressed_pairIPdRNS_9allocatorIdEEEC2B8ue170006IDnS4_EEOT_OT0_, symObjAddr: 0x10AC8, symBinAddr: 0x10001338C, symSize: 0x48 }
  - { offsetInCU: 0x2327F7, offset: 0x2327F7, size: 0x8, addend: 0x0, symName: __ZNSt3__122__compressed_pair_elemIPdLi0ELb0EEC2B8ue170006IDnvEEOT_, symObjAddr: 0x10B10, symBinAddr: 0x1000133D4, symSize: 0x64 }
  - { offsetInCU: 0x23283A, offset: 0x23283A, size: 0x8, addend: 0x0, symName: __ZNSt3__122__compressed_pair_elemIRNS_9allocatorIdEELi1ELb0EEC2B8ue170006IS3_vEEOT_, symObjAddr: 0x10B74, symBinAddr: 0x100013438, symSize: 0x70 }
  - { offsetInCU: 0x23287D, offset: 0x23287D, size: 0x8, addend: 0x0, symName: __ZNSt3__19allocatorIdE8allocateB8ue170006Em, symObjAddr: 0x10BE4, symBinAddr: 0x1000134A8, symSize: 0x5C }
  - { offsetInCU: 0x2328B1, offset: 0x2328B1, size: 0x8, addend: 0x0, symName: __ZNSt3__117__compressed_pairIPdRNS_9allocatorIdEEE6secondB8ue170006Ev, symObjAddr: 0x10C40, symBinAddr: 0x100013504, symSize: 0x28 }
  - { offsetInCU: 0x2328D7, offset: 0x2328D7, size: 0x8, addend: 0x0, symName: __ZNSt3__122__compressed_pair_elemIRNS_9allocatorIdEELi1ELb0EE5__getB8ue170006Ev, symObjAddr: 0x10C68, symBinAddr: 0x10001352C, symSize: 0x60 }
  - { offsetInCU: 0x2328FD, offset: 0x2328FD, size: 0x8, addend: 0x0, symName: __ZNSt3__117__compressed_pairIPdRNS_9allocatorIdEEE5firstB8ue170006Ev, symObjAddr: 0x10CC8, symBinAddr: 0x10001358C, symSize: 0x24 }
  - { offsetInCU: 0x232923, offset: 0x232923, size: 0x8, addend: 0x0, symName: __ZNKSt3__16vectorIdNS_9allocatorIdEEE17__annotate_deleteB8ue170006Ev, symObjAddr: 0x10CEC, symBinAddr: 0x1000135B0, symSize: 0xCC }
  - { offsetInCU: 0x232949, offset: 0x232949, size: 0x8, addend: 0x0, symName: __ZNSt3__116reverse_iteratorIPdEC1B8ue170006ES1_, symObjAddr: 0x11260, symBinAddr: 0x100013B24, symSize: 0x34 }
  - { offsetInCU: 0x232981, offset: 0x232981, size: 0x8, addend: 0x0, symName: __ZNKSt3__116reverse_iteratorIPdE4baseB8ue170006Ev, symObjAddr: 0x11294, symBinAddr: 0x100013B58, symSize: 0x64 }
  - { offsetInCU: 0x2329A7, offset: 0x2329A7, size: 0x8, addend: 0x0, symName: __ZNKSt3__16vectorIdNS_9allocatorIdEEE14__annotate_newB8ue170006Em, symObjAddr: 0x1142C, symBinAddr: 0x100013CF0, symSize: 0xC0 }
  - { offsetInCU: 0x232A06, offset: 0x232A06, size: 0x8, addend: 0x0, symName: __ZNKSt3__111__move_loopINS_17_ClassicAlgPolicyEEclB8ue170006INS_16reverse_iteratorIPdEES6_S6_EENS_4pairIT_T1_EES8_T0_S9_, symObjAddr: 0x12DC0, symBinAddr: 0x100015684, symSize: 0x3A8 }
  - { offsetInCU: 0x232A7E, offset: 0x232A7E, size: 0x8, addend: 0x0, symName: __ZNSt3__119__unwrap_range_implINS_16reverse_iteratorIPdEES3_E8__unwrapB8ue170006ES3_S3_, symObjAddr: 0x13C48, symBinAddr: 0x10001650C, symSize: 0x448 }
  - { offsetInCU: 0x232ABD, offset: 0x232ABD, size: 0x8, addend: 0x0, symName: __ZNSt3__14pairINS_16reverse_iteratorIPdEES3_EC1B8ue170006IS3_S3_LPv0EEEOT_OT0_, symObjAddr: 0x14090, symBinAddr: 0x100016954, symSize: 0x3C }
  - { offsetInCU: 0x232B1C, offset: 0x232B1C, size: 0x8, addend: 0x0, symName: __ZNSt3__14pairINS_16reverse_iteratorIPdEES3_EC2B8ue170006IS3_S3_LPv0EEEOT_OT0_, symObjAddr: 0x140CC, symBinAddr: 0x100016990, symSize: 0x54 }
  - { offsetInCU: 0x232B7B, offset: 0x232B7B, size: 0x8, addend: 0x0, symName: __ZNSt3__18_IterOpsINS_17_ClassicAlgPolicyEE11__iter_moveB8ue170006IRNS_16reverse_iteratorIPdEEEENS_9enable_ifIXsr12is_referenceIDTdeclsr3stdE7declvalIRT_EEEEE5valueEDTclsr3stdE4movedeclsr3stdE7declvalISA_EEEEE4typeEOS9_, symObjAddr: 0x14168, symBinAddr: 0x100016A2C, symSize: 0x28 }
  - { offsetInCU: 0x232BA7, offset: 0x232BA7, size: 0x8, addend: 0x0, symName: __ZNKSt3__116reverse_iteratorIPdEdeB8ue170006Ev, symObjAddr: 0x14190, symBinAddr: 0x100016A54, symSize: 0x74 }
  - { offsetInCU: 0x232BDB, offset: 0x232BDB, size: 0x8, addend: 0x0, symName: __ZNSt3__116reverse_iteratorIPdEppB8ue170006Ev, symObjAddr: 0x14204, symBinAddr: 0x100016AC8, symSize: 0x6C }
  - { offsetInCU: 0x232C01, offset: 0x232C01, size: 0x8, addend: 0x0, symName: __ZNSt3__18_IterOpsINS_17_ClassicAlgPolicyEE25__validate_iter_referenceB8ue170006IRNS_16reverse_iteratorIPdEEEEvv, symObjAddr: 0x14270, symBinAddr: 0x100016B34, symSize: 0x4 }
  - { offsetInCU: 0x232C1F, offset: 0x232C1F, size: 0x8, addend: 0x0, symName: __ZNSt3__118__unwrap_iter_implINS_16reverse_iteratorIPdEELb0EE8__unwrapB8ue170006ES3_, symObjAddr: 0x14274, symBinAddr: 0x100016B38, symSize: 0x274 }
  - { offsetInCU: 0x232C46, offset: 0x232C46, size: 0x8, addend: 0x0, symName: __ZNSt3__119__unwrap_range_implINS_16reverse_iteratorIPdEES3_E8__rewrapB8ue170006ES3_S3_, symObjAddr: 0x144E8, symBinAddr: 0x100016DAC, symSize: 0x3D4 }
  - { offsetInCU: 0x232C7F, offset: 0x232C7F, size: 0x8, addend: 0x0, symName: __ZNSt3__118__unwrap_iter_implINS_16reverse_iteratorIPdEELb0EE8__rewrapB8ue170006ES3_S3_, symObjAddr: 0x148BC, symBinAddr: 0x100017180, symSize: 0x2E0 }
  - { offsetInCU: 0x232CB4, offset: 0x232CB4, size: 0x8, addend: 0x0, symName: __ZNSt3__116reverse_iteratorIPdEC2B8ue170006ES1_, symObjAddr: 0x14B9C, symBinAddr: 0x100017460, symSize: 0xB8 }
  - { offsetInCU: 0x232CEC, offset: 0x232CEC, size: 0x8, addend: 0x0, symName: __ZNSt3__114__split_bufferIdRNS_9allocatorIdEEED2Ev, symObjAddr: 0x14C54, symBinAddr: 0x100017518, symSize: 0x104 }
  - { offsetInCU: 0x232D18, offset: 0x232D18, size: 0x8, addend: 0x0, symName: __ZNSt3__114__split_bufferIdRNS_9allocatorIdEEE5clearB8ue170006Ev, symObjAddr: 0x14D58, symBinAddr: 0x10001761C, symSize: 0x68 }
  - { offsetInCU: 0x232D3E, offset: 0x232D3E, size: 0x8, addend: 0x0, symName: __ZNSt3__116allocator_traitsINS_9allocatorIdEEE10deallocateB8ue170006ERS2_Pdm, symObjAddr: 0x14DC0, symBinAddr: 0x100017684, symSize: 0x34 }
  - { offsetInCU: 0x232D80, offset: 0x232D80, size: 0x8, addend: 0x0, symName: __ZNKSt3__114__split_bufferIdRNS_9allocatorIdEEE8capacityB8ue170006Ev, symObjAddr: 0x14DF4, symBinAddr: 0x1000176B8, symSize: 0xBC }
  - { offsetInCU: 0x232DA6, offset: 0x232DA6, size: 0x8, addend: 0x0, symName: __ZNSt3__114__split_bufferIdRNS_9allocatorIdEEE17__destruct_at_endB8ue170006EPd, symObjAddr: 0x14EB0, symBinAddr: 0x100017774, symSize: 0x2C }
  - { offsetInCU: 0x232DDA, offset: 0x232DDA, size: 0x8, addend: 0x0, symName: __ZNSt3__114__split_bufferIdRNS_9allocatorIdEEE17__destruct_at_endB8ue170006EPdNS_17integral_constantIbLb0EEE, symObjAddr: 0x14EDC, symBinAddr: 0x1000177A0, symSize: 0x10C }
  - { offsetInCU: 0x232E1A, offset: 0x232E1A, size: 0x8, addend: 0x0, symName: __ZNSt3__116allocator_traitsINS_9allocatorIdEEE7destroyB8ue170006IdvvEEvRS2_PT_, symObjAddr: 0x14FE8, symBinAddr: 0x1000178AC, symSize: 0x28 }
  - { offsetInCU: 0x232E56, offset: 0x232E56, size: 0x8, addend: 0x0, symName: __ZNSt3__19allocatorIdE10deallocateB8ue170006EPdm, symObjAddr: 0x15044, symBinAddr: 0x100017908, symSize: 0x4C }
  - { offsetInCU: 0x232E98, offset: 0x232E98, size: 0x8, addend: 0x0, symName: __ZNKSt3__114__split_bufferIdRNS_9allocatorIdEEE9__end_capB8ue170006Ev, symObjAddr: 0x15090, symBinAddr: 0x100017954, symSize: 0x28 }
  - { offsetInCU: 0x232EBE, offset: 0x232EBE, size: 0x8, addend: 0x0, symName: __ZNKSt3__117__compressed_pairIPdRNS_9allocatorIdEEE5firstB8ue170006Ev, symObjAddr: 0x150B8, symBinAddr: 0x10001797C, symSize: 0x24 }
  - { offsetInCU: 0x232EE4, offset: 0x232EE4, size: 0x8, addend: 0x0, symName: __ZNSt3__16vectorINS_4pairIifEENS_9allocatorIS2_EEED2B8ue170006Ev, symObjAddr: 0x150DC, symBinAddr: 0x1000179A0, symSize: 0x1F8 }
  - { offsetInCU: 0x232F0F, offset: 0x232F0F, size: 0x8, addend: 0x0, symName: __ZNSt3__16vectorINS_4pairIifEENS_9allocatorIS2_EEE16__destroy_vectorC1B8ue170006ERS5_, symObjAddr: 0x152D4, symBinAddr: 0x100017B98, symSize: 0x34 }
  - { offsetInCU: 0x232F48, offset: 0x232F48, size: 0x8, addend: 0x0, symName: __ZNSt3__16vectorINS_4pairIifEENS_9allocatorIS2_EEE16__destroy_vectorclB8ue170006Ev, symObjAddr: 0x15308, symBinAddr: 0x100017BCC, symSize: 0x228 }
  - { offsetInCU: 0x232F6E, offset: 0x232F6E, size: 0x8, addend: 0x0, symName: __ZNSt3__16vectorINS_4pairIifEENS_9allocatorIS2_EEE16__destroy_vectorC2B8ue170006ERS5_, symObjAddr: 0x15530, symBinAddr: 0x100017DF4, symSize: 0x70 }
  - { offsetInCU: 0x232FA7, offset: 0x232FA7, size: 0x8, addend: 0x0, symName: __ZNSt3__16vectorINS_4pairIifEENS_9allocatorIS2_EEE7__clearB8ue170006Ev, symObjAddr: 0x155A0, symBinAddr: 0x100017E64, symSize: 0x64 }
  - { offsetInCU: 0x232FCD, offset: 0x232FCD, size: 0x8, addend: 0x0, symName: __ZNKSt3__16vectorINS_4pairIifEENS_9allocatorIS2_EEE17__annotate_deleteB8ue170006Ev, symObjAddr: 0x15604, symBinAddr: 0x100017EC8, symSize: 0xCC }
  - { offsetInCU: 0x232FF3, offset: 0x232FF3, size: 0x8, addend: 0x0, symName: __ZNSt3__116allocator_traitsINS_9allocatorINS_4pairIifEEEEE10deallocateB8ue170006ERS4_PS3_m, symObjAddr: 0x156D0, symBinAddr: 0x100017F94, symSize: 0x34 }
  - { offsetInCU: 0x233035, offset: 0x233035, size: 0x8, addend: 0x0, symName: __ZNSt3__16vectorINS_4pairIifEENS_9allocatorIS2_EEE7__allocB8ue170006Ev, symObjAddr: 0x15704, symBinAddr: 0x100017FC8, symSize: 0x28 }
  - { offsetInCU: 0x23305B, offset: 0x23305B, size: 0x8, addend: 0x0, symName: __ZNKSt3__16vectorINS_4pairIifEENS_9allocatorIS2_EEE8capacityB8ue170006Ev, symObjAddr: 0x1572C, symBinAddr: 0x100017FF0, symSize: 0xBC }
  - { offsetInCU: 0x233081, offset: 0x233081, size: 0x8, addend: 0x0, symName: __ZNSt3__16vectorINS_4pairIifEENS_9allocatorIS2_EEE22__base_destruct_at_endB8ue170006EPS2_, symObjAddr: 0x157E8, symBinAddr: 0x1000180AC, symSize: 0x114 }
  - { offsetInCU: 0x2330C5, offset: 0x2330C5, size: 0x8, addend: 0x0, symName: __ZNSt3__116allocator_traitsINS_9allocatorINS_4pairIifEEEEE7destroyB8ue170006IS3_vvEEvRS4_PT_, symObjAddr: 0x158FC, symBinAddr: 0x1000181C0, symSize: 0x28 }
  - { offsetInCU: 0x233101, offset: 0x233101, size: 0x8, addend: 0x0, symName: __ZNKSt3__16vectorINS_4pairIifEENS_9allocatorIS2_EEE31__annotate_contiguous_containerEPKvS7_S7_S7_, symObjAddr: 0x1596C, symBinAddr: 0x100018230, symSize: 0x58 }
  - { offsetInCU: 0x233163, offset: 0x233163, size: 0x8, addend: 0x0, symName: __ZNKSt3__16vectorINS_4pairIifEENS_9allocatorIS2_EEE4dataB8ue170006Ev, symObjAddr: 0x159C4, symBinAddr: 0x100018288, symSize: 0x64 }
  - { offsetInCU: 0x233189, offset: 0x233189, size: 0x8, addend: 0x0, symName: __ZNKSt3__16vectorINS_4pairIifEENS_9allocatorIS2_EEE4sizeB8ue170006Ev, symObjAddr: 0x15A28, symBinAddr: 0x1000182EC, symSize: 0xB0 }
  - { offsetInCU: 0x2331AF, offset: 0x2331AF, size: 0x8, addend: 0x0, symName: __ZNSt3__19allocatorINS_4pairIifEEE10deallocateB8ue170006EPS2_m, symObjAddr: 0x15AD8, symBinAddr: 0x10001839C, symSize: 0x4C }
  - { offsetInCU: 0x2331F1, offset: 0x2331F1, size: 0x8, addend: 0x0, symName: __ZNSt3__117__compressed_pairIPNS_4pairIifEENS_9allocatorIS2_EEE6secondB8ue170006Ev, symObjAddr: 0x15B24, symBinAddr: 0x1000183E8, symSize: 0x24 }
  - { offsetInCU: 0x233217, offset: 0x233217, size: 0x8, addend: 0x0, symName: __ZNSt3__122__compressed_pair_elemINS_9allocatorINS_4pairIifEEEELi1ELb1EE5__getB8ue170006Ev, symObjAddr: 0x15B48, symBinAddr: 0x10001840C, symSize: 0x14 }
  - { offsetInCU: 0x23323D, offset: 0x23323D, size: 0x8, addend: 0x0, symName: __ZNKSt3__16vectorINS_4pairIifEENS_9allocatorIS2_EEE9__end_capB8ue170006Ev, symObjAddr: 0x15B5C, symBinAddr: 0x100018420, symSize: 0x28 }
  - { offsetInCU: 0x233263, offset: 0x233263, size: 0x8, addend: 0x0, symName: __ZNKSt3__117__compressed_pairIPNS_4pairIifEENS_9allocatorIS2_EEE5firstB8ue170006Ev, symObjAddr: 0x15B84, symBinAddr: 0x100018448, symSize: 0x24 }
  - { offsetInCU: 0x233289, offset: 0x233289, size: 0x8, addend: 0x0, symName: __ZNKSt3__122__compressed_pair_elemIPNS_4pairIifEELi0ELb0EE5__getB8ue170006Ev, symObjAddr: 0x15BA8, symBinAddr: 0x10001846C, symSize: 0x14 }
  - { offsetInCU: 0x2332AF, offset: 0x2332AF, size: 0x8, addend: 0x0, symName: __ZNSt3__16vectorIdNS_9allocatorIdEEE11__make_iterB8ue170006EPd, symObjAddr: 0x15BBC, symBinAddr: 0x100018480, symSize: 0x1FC }
  - { offsetInCU: 0x2332E6, offset: 0x2332E6, size: 0x8, addend: 0x0, symName: __ZNSt3__111__wrap_iterIPdEC1B8ue170006ES1_, symObjAddr: 0x15DB8, symBinAddr: 0x10001867C, symSize: 0x34 }
  - { offsetInCU: 0x23331E, offset: 0x23331E, size: 0x8, addend: 0x0, symName: __ZNSt3__111__wrap_iterIPdEC2B8ue170006ES1_, symObjAddr: 0x15DEC, symBinAddr: 0x1000186B0, symSize: 0x70 }
  - { offsetInCU: 0x233356, offset: 0x233356, size: 0x8, addend: 0x0, symName: __ZNKSt3__111__wrap_iterIPdE4baseB8ue170006Ev, symObjAddr: 0x15EA4, symBinAddr: 0x100018768, symSize: 0x60 }
  - { offsetInCU: 0x23337C, offset: 0x23337C, size: 0x8, addend: 0x0, symName: __ZNSt3__114basic_ofstreamIcNS_11char_traitsIcEEED2Ev, symObjAddr: 0x15F04, symBinAddr: 0x1000187C8, symSize: 0x198 }
  - { offsetInCU: 0x2333B6, offset: 0x2333B6, size: 0x8, addend: 0x0, symName: __ZTv0_n24_NSt3__114basic_ofstreamIcNS_11char_traitsIcEEED1Ev, symObjAddr: 0x1609C, symBinAddr: 0x100018960, symSize: 0xB0 }
  - { offsetInCU: 0x2333CD, offset: 0x2333CD, size: 0x8, addend: 0x0, symName: __ZNSt3__16vectorINS_6threadENS_9allocatorIS1_EEED2B8ue170006Ev, symObjAddr: 0x1614C, symBinAddr: 0x100018A10, symSize: 0x1F4 }
  - { offsetInCU: 0x2333F8, offset: 0x2333F8, size: 0x8, addend: 0x0, symName: __ZN5Eigen8symbolic10SymbolExprINS_8internal17symbolic_last_tagEEC2Ev, symObjAddr: 0x16340, symBinAddr: 0x100018C04, symSize: 0x14 }
  - { offsetInCU: 0x233422, offset: 0x233422, size: 0x8, addend: 0x0, symName: __ZN5Eigen8internal8FixedIntILi1EEC2Ev, symObjAddr: 0x16354, symBinAddr: 0x100018C18, symSize: 0x14 }
  - { offsetInCU: 0x23344C, offset: 0x23344C, size: 0x8, addend: 0x0, symName: __ZNK5Eigen8symbolic8BaseExprINS0_10SymbolExprINS_8internal17symbolic_last_tagEEEE7derivedEv, symObjAddr: 0x16368, symBinAddr: 0x100018C2C, symSize: 0x14 }
  - { offsetInCU: 0x233472, offset: 0x233472, size: 0x8, addend: 0x0, symName: __ZN5Eigen8symbolic9ValueExprINS_8internal8FixedIntILi1EEEEC1Ev, symObjAddr: 0x1637C, symBinAddr: 0x100018C40, symSize: 0x2C }
  - { offsetInCU: 0x23349C, offset: 0x23349C, size: 0x8, addend: 0x0, symName: __ZN5Eigen8symbolic7AddExprINS0_10SymbolExprINS_8internal17symbolic_last_tagEEENS0_9ValueExprINS3_8FixedIntILi1EEEEEEC1ERKS5_RKS9_, symObjAddr: 0x163A8, symBinAddr: 0x100018C6C, symSize: 0x3C }
  - { offsetInCU: 0x2334E2, offset: 0x2334E2, size: 0x8, addend: 0x0, symName: __ZN5Eigen8symbolic9ValueExprINS_8internal8FixedIntILi1EEEEC2Ev, symObjAddr: 0x163E4, symBinAddr: 0x100018CA8, symSize: 0x14 }
