---
triple:          'arm64-apple-darwin'
binary-path:     NeuralNetworks_Vec
relocations:
  - { offsetInCU: 0x2578, offset: 0x2578, size: 0x8, addend: 0x0, symName: __ZN5Eigen8internal26call_dense_assignment_loopINS_9TransposeINS_6MatrixIfLin1ELi1ELi0ELin1ELi1EEEEENS_5BlockINS3_IfLi10ELi7ELi0ELi10ELi7EEELi1ELi7ELb0EEENS0_9assign_opIffEEEEvRT_RKT0_RKT1_, symObjAddr: 0xBD44, symBinAddr: 0x10000D9F0, symSize: 0xD0 }
  - { offsetInCU: 0x2A52, offset: 0x2A52, size: 0x8, addend: 0x0, symName: __ZN5Eigen8internal28conditional_aligned_new_autoIfLb1EEEPT_m, symObjAddr: 0xB990, symBinAddr: 0x10000D63C, symSize: 0x68 }
  - { offsetInCU: 0x2B50, offset: 0x2B50, size: 0x8, addend: 0x0, symName: __ZN5Eigen8internal12print_matrixINS_6MatrixIfLin1ELi1ELi0ELin1ELi1EEEEERNSt3__113basic_ostreamIcNS4_11char_traitsIcEEEES9_RKT_RKNS_8IOFormatE, symObjAddr: 0xC120, symBinAddr: 0x10000DDCC, symSize: 0x5B8 }
  - { offsetInCU: 0x109EB, offset: 0x109EB, size: 0x8, addend: 0x0, symName: __ZN5EigenlsINS_6MatrixIfLin1ELi1ELi0ELin1ELi1EEEEERNSt3__113basic_ostreamIcNS3_11char_traitsIcEEEES8_RKNS_9DenseBaseIT_EE, symObjAddr: 0xB384, symBinAddr: 0x10000D030, symSize: 0x294 }
  - { offsetInCU: 0x1CBC3, offset: 0x1CBC3, size: 0x8, addend: 0x0, symName: __ZNSt3__124__put_character_sequenceB8ue170006IcNS_11char_traitsIcEEEERNS_13basic_ostreamIT_T0_EES7_PKS4_m, symObjAddr: 0xBE14, symBinAddr: 0x10000DAC0, symSize: 0x164 }
  - { offsetInCU: 0x1EE62, offset: 0x1EE62, size: 0x8, addend: 0x0, symName: __ZNSt3__1rsB8ue170006IcNS_11char_traitsIcEEEERNS_13basic_istreamIT_T0_EES7_RS4_, symObjAddr: 0x508, symBinAddr: 0x1000021B4, symSize: 0x100 }
  - { offsetInCU: 0x202C7, offset: 0x202C7, size: 0x8, addend: 0x0, symName: __ZNSt3__120__throw_length_errorB8ue170006EPKc, symObjAddr: 0xB74C, symBinAddr: 0x10000D3F8, symSize: 0x50 }
  - { offsetInCU: 0x20A91, offset: 0x20A91, size: 0x8, addend: 0x0, symName: __ZNSt3__116__pad_and_outputB8ue170006IcNS_11char_traitsIcEEEENS_19ostreambuf_iteratorIT_T0_EES6_PKS4_S8_S8_RNS_8ios_baseES4_, symObjAddr: 0xBF78, symBinAddr: 0x10000DC24, symSize: 0x194 }
  - { offsetInCU: 0x21C0C, offset: 0x21C0C, size: 0x8, addend: 0x0, symName: __ZSt28__throw_bad_array_new_lengthB8ue170006v, symObjAddr: 0xB7C0, symBinAddr: 0x10000D46C, symSize: 0x28 }
  - { offsetInCU: 0x21C6A, offset: 0x21C6A, size: 0x8, addend: 0x0, symName: _interrupted, symObjAddr: 0x106060, symBinAddr: 0x100018004, symSize: 0x0 }
  - { offsetInCU: 0x25CFB, offset: 0x25CFB, size: 0x8, addend: 0x0, symName: __Z13signalHandleri, symObjAddr: 0x0, symBinAddr: 0x100001CAC, symSize: 0x18 }
  - { offsetInCU: 0x26518, offset: 0x26518, size: 0x8, addend: 0x0, symName: __Z6getNumRKN5Eigen6MatrixIfLin1ELi1ELi0ELin1ELi1EEE, symObjAddr: 0x18, symBinAddr: 0x100001CC4, symSize: 0x2F4 }
  - { offsetInCU: 0x26FBF, offset: 0x26FBF, size: 0x8, addend: 0x0, symName: __Z7GetDataiR20MultiLayerPerceptron, symObjAddr: 0x30C, symBinAddr: 0x100001FB8, symSize: 0x1FC }
  - { offsetInCU: 0x28AA5, offset: 0x28AA5, size: 0x8, addend: 0x0, symName: _main, symObjAddr: 0x608, symBinAddr: 0x1000022B4, symSize: 0xAD20 }
  - { offsetInCU: 0x40443, offset: 0x40443, size: 0x8, addend: 0x0, symName: __ZNSt3__16vectorIN5Eigen6MatrixIfLin1ELin1ELi0ELin1ELin1EEENS_9allocatorIS3_EEE24__emplace_back_slow_pathIJRS3_EEEvDpOT_, symObjAddr: 0xB7E8, symBinAddr: 0x10000D494, symSize: 0x1A8 }
  - { offsetInCU: 0x40C86, offset: 0x40C86, size: 0x8, addend: 0x0, symName: __ZNSt3__16vectorIN5Eigen6MatrixIfLin1ELi1ELi0ELin1ELi1EEENS_9allocatorIS3_EEE21__push_back_slow_pathIRKS3_EEvOT_, symObjAddr: 0xBAC0, symBinAddr: 0x10000D76C, symSize: 0x16C }
  - { offsetInCU: 0x414C0, offset: 0x414C0, size: 0x8, addend: 0x0, symName: __ZN20MultiLayerPerceptronD2Ev, symObjAddr: 0xBC2C, symBinAddr: 0x10000D8D8, symSize: 0x118 }
  - { offsetInCU: 0x41F9C, offset: 0x41F9C, size: 0x8, addend: 0x0, symName: __ZN5Eigen16CommaInitializerINS_6MatrixIfLin1ELi1ELi0ELin1ELi1EEEED1Ev, symObjAddr: 0xB328, symBinAddr: 0x10000CFD4, symSize: 0x5C }
  - { offsetInCU: 0x42022, offset: 0x42022, size: 0x8, addend: 0x0, symName: __ZNSt3__110unique_ptrI20MultiLayerPerceptronNS_14default_deleteIS1_EEED1B8ue170006Ev, symObjAddr: 0xB618, symBinAddr: 0x10000D2C4, symSize: 0x34 }
  - { offsetInCU: 0x420DA, offset: 0x420DA, size: 0x8, addend: 0x0, symName: __ZNSt3__16vectorIN5Eigen6MatrixIfLin1ELi1ELi0ELin1ELi1EEENS_9allocatorIS3_EEED1B8ue170006Ev, symObjAddr: 0xB64C, symBinAddr: 0x10000D2F8, symSize: 0x5C }
  - { offsetInCU: 0x42373, offset: 0x42373, size: 0x8, addend: 0x0, symName: __ZNSt3__16vectorIN5Eigen6MatrixIfLin1ELin1ELi0ELin1ELin1EEENS_9allocatorIS3_EEED1B8ue170006Ev, symObjAddr: 0xB6A8, symBinAddr: 0x10000D354, symSize: 0x5C }
  - { offsetInCU: 0x42611, offset: 0x42611, size: 0x8, addend: 0x0, symName: __ZNSt3__110unique_ptrI10PerceptronNS_14default_deleteIS1_EEED1B8ue170006Ev, symObjAddr: 0xB704, symBinAddr: 0x10000D3B0, symSize: 0x3C }
  - { offsetInCU: 0x42ADB, offset: 0x42ADB, size: 0x8, addend: 0x0, symName: __ZN5Eigen8IOFormatC2EiiRKNSt3__112basic_stringIcNS1_11char_traitsIcEENS1_9allocatorIcEEEES9_S9_S9_S9_S9_c, symObjAddr: 0xC88C, symBinAddr: 0x10000E538, symSize: 0x4D4 }
  - { offsetInCU: 0x449BD, offset: 0x449BD, size: 0x8, addend: 0x0, symName: __ZN5Eigen8IOFormatD2Ev, symObjAddr: 0xCD60, symBinAddr: 0x10000EA0C, symSize: 0xC4 }
  - { offsetInCU: 0x45145, offset: 0x45145, size: 0x8, addend: 0x0, symName: __ZNSt12length_errorC1B8ue170006EPKc, symObjAddr: 0xB79C, symBinAddr: 0x10000D448, symSize: 0x24 }
  - { offsetInCU: 0x45565, offset: 0x45565, size: 0x8, addend: 0x0, symName: __ZNKSt3__16vectorIN5Eigen6MatrixIfLin1ELin1ELi0ELin1ELin1EEENS_9allocatorIS3_EEE20__throw_length_errorB8ue170006Ev, symObjAddr: 0xBA48, symBinAddr: 0x10000D6F4, symSize: 0x14 }
  - { offsetInCU: 0x4558E, offset: 0x4558E, size: 0x8, addend: 0x0, symName: __ZNKSt3__16vectorIN5Eigen6MatrixIfLin1ELi1ELi0ELin1ELi1EEENS_9allocatorIS3_EEE20__throw_length_errorB8ue170006Ev, symObjAddr: 0xBA5C, symBinAddr: 0x10000D708, symSize: 0x14 }
  - { offsetInCU: 0x45599, offset: 0x45599, size: 0x8, addend: 0x0, symName: __ZNSt3__114__split_bufferIN5Eigen6MatrixIfLin1ELin1ELi0ELin1ELin1EEERNS_9allocatorIS3_EEED1Ev, symObjAddr: 0xB9F8, symBinAddr: 0x10000D6A4, symSize: 0x50 }
  - { offsetInCU: 0x457FB, offset: 0x457FB, size: 0x8, addend: 0x0, symName: __ZN5Eigen8internal28conditional_aligned_new_autoIfLb1EEEPT_m.cold.1, symObjAddr: 0xCE24, symBinAddr: 0x100010F18, symSize: 0x28 }
  - { offsetInCU: 0x45846, offset: 0x45846, size: 0x8, addend: 0x0, symName: __ZNKSt3__16vectorIN5Eigen6MatrixIfLin1ELi1ELi0ELin1ELi1EEENS_9allocatorIS3_EEE20__throw_length_errorB8ue170006Ev, symObjAddr: 0xBA5C, symBinAddr: 0x10000D708, symSize: 0x14 }
  - { offsetInCU: 0x4586F, offset: 0x4586F, size: 0x8, addend: 0x0, symName: __ZNSt3__114__split_bufferIN5Eigen6MatrixIfLin1ELi1ELi0ELin1ELi1EEERNS_9allocatorIS3_EEED1Ev, symObjAddr: 0xBA70, symBinAddr: 0x10000D71C, symSize: 0x50 }
  - { offsetInCU: 0x458F8, offset: 0x458F8, size: 0x8, addend: 0x0, symName: __ZNSt3__114__split_bufferIN5Eigen6MatrixIfLin1ELi1ELi0ELin1ELi1EEERNS_9allocatorIS3_EEED1Ev, symObjAddr: 0xBA70, symBinAddr: 0x10000D71C, symSize: 0x50 }
  - { offsetInCU: 0x4623F, offset: 0x4623F, size: 0x8, addend: 0x0, symName: __ZN5Eigen8internal26call_dense_assignment_loopINS_9TransposeINS_6MatrixIfLin1ELi1ELi0ELin1ELi1EEEEENS_5BlockINS3_IfLi10ELi7ELi0ELi10ELi7EEELi1ELi7ELb0EEENS0_9assign_opIffEEEEvRT_RKT0_RKT1_.cold.1, symObjAddr: 0xCE4C, symBinAddr: 0x100010F40, symSize: 0x28 }
  - { offsetInCU: 0x4626D, offset: 0x4626D, size: 0x8, addend: 0x0, symName: __ZN5Eigen8internal26call_dense_assignment_loopINS_9TransposeINS_6MatrixIfLin1ELi1ELi0ELin1ELi1EEEEENS_5BlockINS3_IfLi10ELi7ELi0ELi10ELi7EEELi1ELi7ELb0EEENS0_9assign_opIffEEEEvRT_RKT0_RKT1_.cold.2, symObjAddr: 0xCE74, symBinAddr: 0x100010F68, symSize: 0x28 }
  - { offsetInCU: 0x46657, offset: 0x46657, size: 0x8, addend: 0x0, symName: __ZNKSt3__112basic_stringIcNS_11char_traitsIcEENS_9allocatorIcEEE20__throw_length_errorB8ue170006Ev, symObjAddr: 0xC10C, symBinAddr: 0x10000DDB8, symSize: 0x14 }
  - { offsetInCU: 0x46680, offset: 0x46680, size: 0x8, addend: 0x0, symName: __ZN5Eigen8internal12print_matrixINS_6MatrixIfLin1ELi1ELi0ELin1ELi1EEEEERNSt3__113basic_ostreamIcNS4_11char_traitsIcEEEES9_RKT_RKNS_8IOFormatE, symObjAddr: 0xC120, symBinAddr: 0x10000DDCC, symSize: 0x5B8 }
  - { offsetInCU: 0x469DD, offset: 0x469DD, size: 0x8, addend: 0x0, symName: __ZNSt3__118basic_stringstreamIcNS_11char_traitsIcEENS_9allocatorIcEEEC1B8ue170006Ev, symObjAddr: 0xC6D8, symBinAddr: 0x10000E384, symSize: 0x12C }
  - { offsetInCU: 0x46AE8, offset: 0x46AE8, size: 0x8, addend: 0x0, symName: __ZNSt3__118basic_stringstreamIcNS_11char_traitsIcEENS_9allocatorIcEEED1Ev, symObjAddr: 0xC804, symBinAddr: 0x10000E4B0, symSize: 0x88 }
  - { offsetInCU: 0x21879, offset: 0x686EC, size: 0x8, addend: 0x0, symName: __ZN20MultiLayerPerceptron13reset_weightsEv, symObjAddr: 0xAFC, symBinAddr: 0x10000F570, symSize: 0x3A4 }
  - { offsetInCU: 0x2189F, offset: 0x68712, size: 0x8, addend: 0x0, symName: __ZZN20MultiLayerPerceptron13reset_weightsEvE2rd, symObjAddr: 0x10FBC8, symBinAddr: 0x100018008, symSize: 0x0 }
  - { offsetInCU: 0x218B5, offset: 0x68728, size: 0x8, addend: 0x0, symName: __ZZN20MultiLayerPerceptron13reset_weightsEvE3gen, symObjAddr: 0x10FBD8, symBinAddr: 0x100018018, symSize: 0x0 }
  - { offsetInCU: 0x218CD, offset: 0x68740, size: 0x8, addend: 0x0, symName: __ZZN20MultiLayerPerceptron13reset_weightsEvE5distr.1, symObjAddr: 0x1105A8, symBinAddr: 0x1000189E8, symSize: 0x0 }
  - { offsetInCU: 0x21F40, offset: 0x68DB3, size: 0x8, addend: 0x0, symName: __ZN20MultiLayerPerceptron11interruptedE, symObjAddr: 0x35DC, symBinAddr: 0x100018000, symSize: 0x0 }
  - { offsetInCU: 0x24E3B, offset: 0x6BCAE, size: 0x8, addend: 0x0, symName: __ZN10PerceptronC2Eif, symObjAddr: 0x0, symBinAddr: 0x10000EAD0, symSize: 0xBC }
  - { offsetInCU: 0x25271, offset: 0x6C0E4, size: 0x8, addend: 0x0, symName: __ZN10PerceptronC1Eif, symObjAddr: 0xBC, symBinAddr: 0x10000EB8C, symSize: 0xBC }
  - { offsetInCU: 0x25D51, offset: 0x6CBC4, size: 0x8, addend: 0x0, symName: __ZN10Perceptron3runERKN5Eigen6MatrixIfLin1ELi1ELi0ELin1ELi1EEE, symObjAddr: 0x178, symBinAddr: 0x10000EC48, symSize: 0x154 }
  - { offsetInCU: 0x268EA, offset: 0x6D75D, size: 0x8, addend: 0x0, symName: __ZN10Perceptron7sigmoidEf, symObjAddr: 0x2CC, symBinAddr: 0x10000ED9C, symSize: 0x24 }
  - { offsetInCU: 0x268F5, offset: 0x6D768, size: 0x8, addend: 0x0, symName: __ZN10Perceptron3runERKN5Eigen6MatrixIfLin1ELi1ELi0ELin1ELi1EEE.cold.2, symObjAddr: 0x2944, symBinAddr: 0x100010FB8, symSize: 0x28 }
  - { offsetInCU: 0x26922, offset: 0x6D795, size: 0x8, addend: 0x0, symName: __ZN10Perceptron3runERKN5Eigen6MatrixIfLin1ELi1ELi0ELin1ELi1EEE.cold.1, symObjAddr: 0x291C, symBinAddr: 0x100010F90, symSize: 0x28 }
  - { offsetInCU: 0x2698F, offset: 0x6D802, size: 0x8, addend: 0x0, symName: __ZN10Perceptron7sigmoidEf, symObjAddr: 0x2CC, symBinAddr: 0x10000ED9C, symSize: 0x24 }
  - { offsetInCU: 0x270B2, offset: 0x6DF25, size: 0x8, addend: 0x0, symName: __ZN10Perceptron11set_weightsERKN5Eigen6MatrixIfLin1ELi1ELi0ELin1ELi1EEE, symObjAddr: 0x2F0, symBinAddr: 0x10000EDC0, symSize: 0x1DC }
  - { offsetInCU: 0x278FE, offset: 0x6E771, size: 0x8, addend: 0x0, symName: __ZN20MultiLayerPerceptronC2ENSt3__16vectorIiNS0_9allocatorIiEEEEff, symObjAddr: 0x4CC, symBinAddr: 0x10000EF9C, symSize: 0x3CC }
  - { offsetInCU: 0x27909, offset: 0x6E77C, size: 0x8, addend: 0x0, symName: __ZN10Perceptron11set_weightsERKN5Eigen6MatrixIfLin1ELi1ELi0ELin1ELi1EEE.cold.2, symObjAddr: 0x2994, symBinAddr: 0x100011008, symSize: 0x28 }
  - { offsetInCU: 0x27976, offset: 0x6E7E9, size: 0x8, addend: 0x0, symName: __ZN10Perceptron11set_weightsERKN5Eigen6MatrixIfLin1ELi1ELi0ELin1ELi1EEE.cold.3, symObjAddr: 0x29BC, symBinAddr: 0x100011030, symSize: 0x28 }
  - { offsetInCU: 0x279E3, offset: 0x6E856, size: 0x8, addend: 0x0, symName: __ZN10Perceptron11set_weightsERKN5Eigen6MatrixIfLin1ELi1ELi0ELin1ELi1EEE.cold.4, symObjAddr: 0x29E4, symBinAddr: 0x100011058, symSize: 0x28 }
  - { offsetInCU: 0x27A10, offset: 0x6E883, size: 0x8, addend: 0x0, symName: __ZN10Perceptron11set_weightsERKN5Eigen6MatrixIfLin1ELi1ELi0ELin1ELi1EEE.cold.1, symObjAddr: 0x296C, symBinAddr: 0x100010FE0, symSize: 0x28 }
  - { offsetInCU: 0x28214, offset: 0x6F087, size: 0x8, addend: 0x0, symName: __ZN20MultiLayerPerceptronC2ENSt3__16vectorIiNS0_9allocatorIiEEEEff, symObjAddr: 0x4CC, symBinAddr: 0x10000EF9C, symSize: 0x3CC }
  - { offsetInCU: 0x291DB, offset: 0x7004E, size: 0x8, addend: 0x0, symName: __ZNSt3__16vectorIiNS_9allocatorIiEEE18__assign_with_sizeB8ue170006IPiS5_EEvT_T0_l, symObjAddr: 0x1AC8, symBinAddr: 0x100010530, symSize: 0x144 }
  - { offsetInCU: 0x29BDC, offset: 0x70A4F, size: 0x8, addend: 0x0, symName: __ZNKSt3__16vectorIiNS_9allocatorIiEEE20__throw_length_errorB8ue170006Ev, symObjAddr: 0x1C0C, symBinAddr: 0x100010674, symSize: 0x14 }
  - { offsetInCU: 0x29BFF, offset: 0x70A72, size: 0x8, addend: 0x0, symName: __ZNSt3__16vectorIN5Eigen6MatrixIfLin1ELi1ELi0ELin1ELi1EEENS_9allocatorIS3_EEE24__emplace_back_slow_pathIJKNS1_14CwiseNullaryOpINS1_8internal18scalar_constant_opIfEES3_EEEEEvDpOT_, symObjAddr: 0x1CBC, symBinAddr: 0x100010688, symSize: 0x204 }
  - { offsetInCU: 0x2A650, offset: 0x714C3, size: 0x8, addend: 0x0, symName: __ZNSt3__16vectorINS0_I10PerceptronNS_9allocatorIS1_EEEENS2_IS4_EEE24__emplace_back_slow_pathIJEEEvDpOT_, symObjAddr: 0x1F8C, symBinAddr: 0x10001088C, symSize: 0x18C }
  - { offsetInCU: 0x2ADB5, offset: 0x71C28, size: 0x8, addend: 0x0, symName: __ZNKSt3__16vectorINS0_I10PerceptronNS_9allocatorIS1_EEEENS2_IS4_EEE20__throw_length_errorB8ue170006Ev, symObjAddr: 0x2118, symBinAddr: 0x100010A18, symSize: 0x14 }
  - { offsetInCU: 0x2ADC6, offset: 0x71C39, size: 0x8, addend: 0x0, symName: __ZNSt3__16vectorI10PerceptronNS_9allocatorIS1_EEE24__emplace_back_slow_pathIJRiRfEEEvDpOT_, symObjAddr: 0x2200, symBinAddr: 0x100010B00, symSize: 0x22C }
  - { offsetInCU: 0x2B9F1, offset: 0x72864, size: 0x8, addend: 0x0, symName: __ZNSt3__16vectorI10PerceptronNS_9allocatorIS1_EEE22__construct_one_at_endB8ue170006IJRiRfEEEvDpOT_, symObjAddr: 0x212C, symBinAddr: 0x100010A2C, symSize: 0xD4 }
  - { offsetInCU: 0x2C0CC, offset: 0x72F3F, size: 0x8, addend: 0x0, symName: __ZNSt3__16vectorINS0_I10PerceptronNS_9allocatorIS1_EEEENS2_IS4_EEED1B8ue170006Ev, symObjAddr: 0x8F4, symBinAddr: 0x10000F368, symSize: 0xA0 }
  - { offsetInCU: 0x2C86B, offset: 0x736DE, size: 0x8, addend: 0x0, symName: __ZN20MultiLayerPerceptronC1ENSt3__16vectorIiNS0_9allocatorIiEEEEff, symObjAddr: 0x994, symBinAddr: 0x10000F408, symSize: 0x4 }
  - { offsetInCU: 0x2C8C6, offset: 0x73739, size: 0x8, addend: 0x0, symName: __ZN20MultiLayerPerceptronC1ENSt3__16vectorIiNS0_9allocatorIiEEEEff, symObjAddr: 0x994, symBinAddr: 0x10000F408, symSize: 0x4 }
  - { offsetInCU: 0x2CBA4, offset: 0x73A17, size: 0x8, addend: 0x0, symName: __ZN20MultiLayerPerceptron11set_weightsEONSt3__16vectorIN5Eigen6MatrixIfLin1ELin1ELi0ELin1ELin1EEENS0_9allocatorIS4_EEEE, symObjAddr: 0x998, symBinAddr: 0x10000F40C, symSize: 0x164 }
  - { offsetInCU: 0x2D162, offset: 0x73FD5, size: 0x8, addend: 0x0, symName: __ZN5Eigen15PlainObjectBaseINS_6MatrixIfLin1ELi1ELi0ELin1ELi1EEEEC2INS_5BlockINS1_IfLin1ELin1ELi0ELin1ELin1EEELi1ELin1ELb0EEEEERKNS_9DenseBaseIT_EE, symObjAddr: 0x24A4, symBinAddr: 0x100010D90, symSize: 0x180 }
  - { offsetInCU: 0x2D6D2, offset: 0x74545, size: 0x8, addend: 0x0, symName: __ZN20MultiLayerPerceptron11set_weightsEONSt3__16vectorIN5Eigen6MatrixIfLin1ELin1ELi0ELin1ELin1EEENS0_9allocatorIS4_EEEE.cold.2, symObjAddr: 0x2A34, symBinAddr: 0x1000110A8, symSize: 0x28 }
  - { offsetInCU: 0x2D72A, offset: 0x7459D, size: 0x8, addend: 0x0, symName: __ZN20MultiLayerPerceptron11set_weightsEONSt3__16vectorIN5Eigen6MatrixIfLin1ELin1ELi0ELin1ELin1EEENS0_9allocatorIS4_EEEE.cold.1, symObjAddr: 0x2A0C, symBinAddr: 0x100011080, symSize: 0x28 }
  - { offsetInCU: 0x2DAEC, offset: 0x7495F, size: 0x8, addend: 0x0, symName: __ZN20MultiLayerPerceptron13reset_weightsEv.cold.1, symObjAddr: 0x2A5C, symBinAddr: 0x1000110D0, symSize: 0x28 }
  - { offsetInCU: 0x2DB58, offset: 0x749CB, size: 0x8, addend: 0x0, symName: __ZNSt3__113random_deviceC1B8ue170006Ev, symObjAddr: 0xEA0, symBinAddr: 0x10000F914, symSize: 0x84 }
  - { offsetInCU: 0x2E2BA, offset: 0x7512D, size: 0x8, addend: 0x0, symName: __ZN20MultiLayerPerceptron13print_weightsEv, symObjAddr: 0xF24, symBinAddr: 0x10000F998, symSize: 0x1C8 }
  - { offsetInCU: 0x2E92F, offset: 0x757A2, size: 0x8, addend: 0x0, symName: __ZN20MultiLayerPerceptron3runERKN5Eigen6MatrixIfLin1ELi1ELi0ELin1ELi1EEE, symObjAddr: 0x10EC, symBinAddr: 0x10000FB60, symSize: 0x22C }
  - { offsetInCU: 0x2F1A3, offset: 0x76016, size: 0x8, addend: 0x0, symName: __ZN20MultiLayerPerceptron3mseERKN5Eigen6MatrixIfLin1ELi1ELi0ELin1ELi1EEES4_, symObjAddr: 0x1318, symBinAddr: 0x10000FD8C, symSize: 0x1AC }
  - { offsetInCU: 0x2F1AE, offset: 0x76021, size: 0x8, addend: 0x0, symName: __ZN20MultiLayerPerceptron3runERKN5Eigen6MatrixIfLin1ELi1ELi0ELin1ELi1EEE.cold.1, symObjAddr: 0x2A84, symBinAddr: 0x1000110F8, symSize: 0x24 }
  - { offsetInCU: 0x2F1DB, offset: 0x7604E, size: 0x8, addend: 0x0, symName: __ZN20MultiLayerPerceptron3runERKN5Eigen6MatrixIfLin1ELi1ELi0ELin1ELi1EEE.cold.2, symObjAddr: 0x2AA8, symBinAddr: 0x10001111C, symSize: 0x28 }
  - { offsetInCU: 0x2F852, offset: 0x766C5, size: 0x8, addend: 0x0, symName: __ZN20MultiLayerPerceptron3mseERKN5Eigen6MatrixIfLin1ELi1ELi0ELin1ELi1EEES4_, symObjAddr: 0x1318, symBinAddr: 0x10000FD8C, symSize: 0x1AC }
  - { offsetInCU: 0x3051B, offset: 0x7738E, size: 0x8, addend: 0x0, symName: __ZN20MultiLayerPerceptron3mseERKN5Eigen6MatrixIfLin1ELi1ELi0ELin1ELi1EEES4_.cold.1, symObjAddr: 0x2AD0, symBinAddr: 0x100011144, symSize: 0x28 }
  - { offsetInCU: 0x30573, offset: 0x773E6, size: 0x8, addend: 0x0, symName: __ZNSt16invalid_argumentC1B8ue170006EPKc, symObjAddr: 0x14C4, symBinAddr: 0x10000FF38, symSize: 0x24 }
  - { offsetInCU: 0x3063C, offset: 0x774AF, size: 0x8, addend: 0x0, symName: __ZN20MultiLayerPerceptron2bpERKN5Eigen6MatrixIfLin1ELi1ELi0ELin1ELi1EEES4_, symObjAddr: 0x14E8, symBinAddr: 0x10000FF5C, symSize: 0x360 }
  - { offsetInCU: 0x31584, offset: 0x783F7, size: 0x8, addend: 0x0, symName: __ZN20MultiLayerPerceptron2bpERKN5Eigen6MatrixIfLin1ELi1ELi0ELin1ELi1EEES4_.cold.10, symObjAddr: 0x2C40, symBinAddr: 0x1000112B4, symSize: 0x24 }
  - { offsetInCU: 0x315B1, offset: 0x78424, size: 0x8, addend: 0x0, symName: __ZN20MultiLayerPerceptron2bpERKN5Eigen6MatrixIfLin1ELi1ELi0ELin1ELi1EEES4_.cold.9, symObjAddr: 0x2C1C, symBinAddr: 0x100011290, symSize: 0x24 }
  - { offsetInCU: 0x315DE, offset: 0x78451, size: 0x8, addend: 0x0, symName: __ZN20MultiLayerPerceptron2bpERKN5Eigen6MatrixIfLin1ELi1ELi0ELin1ELi1EEES4_.cold.3, symObjAddr: 0x2B44, symBinAddr: 0x1000111B8, symSize: 0x24 }
  - { offsetInCU: 0x3160B, offset: 0x7847E, size: 0x8, addend: 0x0, symName: __ZN20MultiLayerPerceptron2bpERKN5Eigen6MatrixIfLin1ELi1ELi0ELin1ELi1EEES4_.cold.5, symObjAddr: 0x2B8C, symBinAddr: 0x100011200, symSize: 0x24 }
  - { offsetInCU: 0x31638, offset: 0x784AB, size: 0x8, addend: 0x0, symName: __ZN20MultiLayerPerceptron2bpERKN5Eigen6MatrixIfLin1ELi1ELi0ELin1ELi1EEES4_.cold.8, symObjAddr: 0x2BF8, symBinAddr: 0x10001126C, symSize: 0x24 }
  - { offsetInCU: 0x31665, offset: 0x784D8, size: 0x8, addend: 0x0, symName: __ZN20MultiLayerPerceptron2bpERKN5Eigen6MatrixIfLin1ELi1ELi0ELin1ELi1EEES4_.cold.7, symObjAddr: 0x2BD4, symBinAddr: 0x100011248, symSize: 0x24 }
  - { offsetInCU: 0x31692, offset: 0x78505, size: 0x8, addend: 0x0, symName: __ZN20MultiLayerPerceptron2bpERKN5Eigen6MatrixIfLin1ELi1ELi0ELin1ELi1EEES4_.cold.1, symObjAddr: 0x2AF8, symBinAddr: 0x10001116C, symSize: 0x24 }
  - { offsetInCU: 0x316BF, offset: 0x78532, size: 0x8, addend: 0x0, symName: __ZN20MultiLayerPerceptron2bpERKN5Eigen6MatrixIfLin1ELi1ELi0ELin1ELi1EEES4_.cold.2, symObjAddr: 0x2B1C, symBinAddr: 0x100011190, symSize: 0x28 }
  - { offsetInCU: 0x316EC, offset: 0x7855F, size: 0x8, addend: 0x0, symName: __ZN20MultiLayerPerceptron2bpERKN5Eigen6MatrixIfLin1ELi1ELi0ELin1ELi1EEES4_.cold.11, symObjAddr: 0x2C64, symBinAddr: 0x1000112D8, symSize: 0x24 }
  - { offsetInCU: 0x31719, offset: 0x7858C, size: 0x8, addend: 0x0, symName: __ZN20MultiLayerPerceptron2bpERKN5Eigen6MatrixIfLin1ELi1ELi0ELin1ELi1EEES4_.cold.4, symObjAddr: 0x2B68, symBinAddr: 0x1000111DC, symSize: 0x24 }
  - { offsetInCU: 0x31746, offset: 0x785B9, size: 0x8, addend: 0x0, symName: __ZN20MultiLayerPerceptron2bpERKN5Eigen6MatrixIfLin1ELi1ELi0ELin1ELi1EEES4_.cold.6, symObjAddr: 0x2BB0, symBinAddr: 0x100011224, symSize: 0x24 }
  - { offsetInCU: 0x317D8, offset: 0x7864B, size: 0x8, addend: 0x0, symName: __ZN20MultiLayerPerceptron5trainERKNSt3__16vectorIN5Eigen6MatrixIfLin1ELi1ELi0ELin1ELi1EEENS0_9allocatorIS4_EEEES9_m, symObjAddr: 0x1848, symBinAddr: 0x1000102BC, symSize: 0x274 }
  - { offsetInCU: 0x31D4B, offset: 0x78BBE, size: 0x8, addend: 0x0, symName: __ZNKSt3__16vectorIiNS_9allocatorIiEEE20__throw_length_errorB8ue170006Ev, symObjAddr: 0x1C0C, symBinAddr: 0x100010674, symSize: 0x14 }
  - { offsetInCU: 0x32176, offset: 0x78FE9, size: 0x8, addend: 0x0, symName: __ZNSt3__16vectorINS0_I10PerceptronNS_9allocatorIS1_EEEENS2_IS4_EEE24__emplace_back_slow_pathIJEEEvDpOT_, symObjAddr: 0x1F8C, symBinAddr: 0x10001088C, symSize: 0x18C }
  - { offsetInCU: 0x322F4, offset: 0x79167, size: 0x8, addend: 0x0, symName: __ZN5Eigen8internal28conditional_aligned_new_autoIfLb1EEEPT_m.cold.1, symObjAddr: 0x2C88, symBinAddr: 0x1000112FC, symSize: 0x28 }
  - { offsetInCU: 0x32595, offset: 0x79408, size: 0x8, addend: 0x0, symName: __ZNKSt3__16vectorINS0_I10PerceptronNS_9allocatorIS1_EEEENS2_IS4_EEE20__throw_length_errorB8ue170006Ev, symObjAddr: 0x2118, symBinAddr: 0x100010A18, symSize: 0x14 }
  - { offsetInCU: 0x325BE, offset: 0x79431, size: 0x8, addend: 0x0, symName: __ZNSt3__16vectorI10PerceptronNS_9allocatorIS1_EEE22__construct_one_at_endB8ue170006IJRiRfEEEvDpOT_, symObjAddr: 0x212C, symBinAddr: 0x100010A2C, symSize: 0xD4 }
  - { offsetInCU: 0x32A48, offset: 0x798BB, size: 0x8, addend: 0x0, symName: __ZNKSt3__16vectorI10PerceptronNS_9allocatorIS1_EEE20__throw_length_errorB8ue170006Ev, symObjAddr: 0x247C, symBinAddr: 0x100010D7C, symSize: 0x14 }
  - { offsetInCU: 0x32A7C, offset: 0x798EF, size: 0x8, addend: 0x0, symName: __ZNSt3__114__split_bufferI10PerceptronRNS_9allocatorIS1_EEED1Ev, symObjAddr: 0x242C, symBinAddr: 0x100010D2C, symSize: 0x50 }
  - { offsetInCU: 0x32D1C, offset: 0x79B8F, size: 0x8, addend: 0x0, symName: __ZN5Eigen15PlainObjectBaseINS_6MatrixIfLin1ELi1ELi0ELin1ELi1EEEEC2INS_5BlockINS1_IfLin1ELin1ELi0ELin1ELin1EEELi1ELin1ELb0EEEEERKNS_9DenseBaseIT_EE, symObjAddr: 0x24A4, symBinAddr: 0x100010D90, symSize: 0x180 }
  - { offsetInCU: 0x333CD, offset: 0x7A240, size: 0x8, addend: 0x0, symName: _OUTLINED_FUNCTION_0, symObjAddr: 0x2CB0, symBinAddr: 0x100010F10, symSize: 0x8 }
...
