---
triple:          'arm64-apple-darwin'
binary-path:     PrefixPostfixSR
relocations:
  - { offsetInCU: 0xF397, offset: 0xF397, size: 0x8, addend: 0x0, symName: __ZN5Eigen8internal13blueNorm_implINS_5BlockIKNS_6MatrixIfLin1ELin1ELi0ELin1ELin1EEELin1ELi1ELb1EEEEENS_9NumTraitsINS0_6traitsIT_E6ScalarEE4RealERKNS_9EigenBaseIS9_EE, symObjAddr: 0xF4CE8, symBinAddr: 0x1000F9554, symSize: 0x43C }
  - { offsetInCU: 0xF402, offset: 0xF402, size: 0x8, addend: 0x0, symName: __ZZN5Eigen8internal13blueNorm_implINS_5BlockIKNS_6MatrixIfLin1ELin1ELi0ELin1ELin1EEELin1ELi1ELb1EEEEENS_9NumTraitsINS0_6traitsIT_E6ScalarEE4RealERKNS_9EigenBaseIS9_EEE2b1, symObjAddr: 0x13F820, symBinAddr: 0x10015C300, symSize: 0x0 }
  - { offsetInCU: 0xF417, offset: 0xF417, size: 0x8, addend: 0x0, symName: __ZZN5Eigen8internal13blueNorm_implINS_5BlockIKNS_6MatrixIfLin1ELin1ELi0ELin1ELin1EEELin1ELi1ELb1EEEEENS_9NumTraitsINS0_6traitsIT_E6ScalarEE4RealERKNS_9EigenBaseIS9_EEE2b2, symObjAddr: 0x13F830, symBinAddr: 0x10015C310, symSize: 0x0 }
  - { offsetInCU: 0xF42C, offset: 0xF42C, size: 0x8, addend: 0x0, symName: __ZZN5Eigen8internal13blueNorm_implINS_5BlockIKNS_6MatrixIfLin1ELin1ELi0ELin1ELin1EEELin1ELi1ELb1EEEEENS_9NumTraitsINS0_6traitsIT_E6ScalarEE4RealERKNS_9EigenBaseIS9_EEE3s1m, symObjAddr: 0x13F840, symBinAddr: 0x10015C320, symSize: 0x0 }
  - { offsetInCU: 0xF441, offset: 0xF441, size: 0x8, addend: 0x0, symName: __ZZN5Eigen8internal13blueNorm_implINS_5BlockIKNS_6MatrixIfLin1ELin1ELi0ELin1ELin1EEELin1ELi1ELb1EEEEENS_9NumTraitsINS0_6traitsIT_E6ScalarEE4RealERKNS_9EigenBaseIS9_EEE3s2m, symObjAddr: 0x13F850, symBinAddr: 0x10015C330, symSize: 0x0 }
  - { offsetInCU: 0xF456, offset: 0xF456, size: 0x8, addend: 0x0, symName: __ZZN5Eigen8internal13blueNorm_implINS_5BlockIKNS_6MatrixIfLin1ELin1ELi0ELin1ELin1EEELin1ELi1ELb1EEEEENS_9NumTraitsINS0_6traitsIT_E6ScalarEE4RealERKNS_9EigenBaseIS9_EEE3eps, symObjAddr: 0x13F860, symBinAddr: 0x10015C340, symSize: 0x0 }
  - { offsetInCU: 0xF46B, offset: 0xF46B, size: 0x8, addend: 0x0, symName: __ZZN5Eigen8internal13blueNorm_implINS_5BlockIKNS_6MatrixIfLin1ELin1ELi0ELin1ELin1EEELin1ELi1ELb1EEEEENS_9NumTraitsINS0_6traitsIT_E6ScalarEE4RealERKNS_9EigenBaseIS9_EEE6relerr, symObjAddr: 0x13F870, symBinAddr: 0x10015C350, symSize: 0x0 }
  - { offsetInCU: 0xF885, offset: 0xF885, size: 0x8, addend: 0x0, symName: __ZN5Eigen8internal13blueNorm_implINS_6MatrixIfLin1ELi1ELi0ELin1ELi1EEEEENS_9NumTraitsINS0_6traitsIT_E6ScalarEE4RealERKNS_9EigenBaseIS6_EE, symObjAddr: 0x10A334, symBinAddr: 0x10010EBA0, symSize: 0x43C }
  - { offsetInCU: 0xF8F0, offset: 0xF8F0, size: 0x8, addend: 0x0, symName: __ZZN5Eigen8internal13blueNorm_implINS_6MatrixIfLin1ELi1ELi0ELin1ELi1EEEEENS_9NumTraitsINS0_6traitsIT_E6ScalarEE4RealERKNS_9EigenBaseIS6_EEE2b1, symObjAddr: 0x13F880, symBinAddr: 0x10015C360, symSize: 0x0 }
  - { offsetInCU: 0xF905, offset: 0xF905, size: 0x8, addend: 0x0, symName: __ZZN5Eigen8internal13blueNorm_implINS_6MatrixIfLin1ELi1ELi0ELin1ELi1EEEEENS_9NumTraitsINS0_6traitsIT_E6ScalarEE4RealERKNS_9EigenBaseIS6_EEE2b2, symObjAddr: 0x13F890, symBinAddr: 0x10015C370, symSize: 0x0 }
  - { offsetInCU: 0xF91A, offset: 0xF91A, size: 0x8, addend: 0x0, symName: __ZZN5Eigen8internal13blueNorm_implINS_6MatrixIfLin1ELi1ELi0ELin1ELi1EEEEENS_9NumTraitsINS0_6traitsIT_E6ScalarEE4RealERKNS_9EigenBaseIS6_EEE3s1m, symObjAddr: 0x13F8A0, symBinAddr: 0x10015C380, symSize: 0x0 }
  - { offsetInCU: 0xF92F, offset: 0xF92F, size: 0x8, addend: 0x0, symName: __ZZN5Eigen8internal13blueNorm_implINS_6MatrixIfLin1ELi1ELi0ELin1ELi1EEEEENS_9NumTraitsINS0_6traitsIT_E6ScalarEE4RealERKNS_9EigenBaseIS6_EEE3s2m, symObjAddr: 0x13F8B0, symBinAddr: 0x10015C390, symSize: 0x0 }
  - { offsetInCU: 0xF944, offset: 0xF944, size: 0x8, addend: 0x0, symName: __ZZN5Eigen8internal13blueNorm_implINS_6MatrixIfLin1ELi1ELi0ELin1ELi1EEEEENS_9NumTraitsINS0_6traitsIT_E6ScalarEE4RealERKNS_9EigenBaseIS6_EEE3eps, symObjAddr: 0x13F8C0, symBinAddr: 0x10015C3A0, symSize: 0x0 }
  - { offsetInCU: 0xF959, offset: 0xF959, size: 0x8, addend: 0x0, symName: __ZZN5Eigen8internal13blueNorm_implINS_6MatrixIfLin1ELi1ELi0ELin1ELi1EEEEENS_9NumTraitsINS0_6traitsIT_E6ScalarEE4RealERKNS_9EigenBaseIS6_EEE6relerr, symObjAddr: 0x13F8D0, symBinAddr: 0x10015C3B0, symSize: 0x0 }
  - { offsetInCU: 0x25254, offset: 0x25254, size: 0x8, addend: 0x0, symName: __ZN5Eigen8internal37evaluateProductBlockingSizesHeuristicIffLi1ElEEvRT2_S3_S3_S2_, symObjAddr: 0xD3218, symBinAddr: 0x1000D7A84, symSize: 0x4F0 }
  - { offsetInCU: 0x46062, offset: 0x46062, size: 0x8, addend: 0x0, symName: __ZN5Eigen8internal27stable_norm_impl_inner_stepINS_6MatrixIfLin1ELi1ELi0ELin1ELi1EEEfEEvRKT_RT0_S8_S8_, symObjAddr: 0xEC3B0, symBinAddr: 0x1000F0C1C, symSize: 0x7C0 }
  - { offsetInCU: 0x4B8E3, offset: 0x4B8E3, size: 0x8, addend: 0x0, symName: __ZN5Eigen8internal28conditional_aligned_new_autoIfLb1EEEPT_m, symObjAddr: 0x3E0F0, symBinAddr: 0x10004295C, symSize: 0x94 }
  - { offsetInCU: 0x4D836, offset: 0x4D836, size: 0x8, addend: 0x0, symName: __ZN5Eigen8internal17resize_if_allowedINS_6MatrixIfLin1ELin1ELi0ELin1ELin1EEES3_ffEEvRT_RKT0_RKNS0_9assign_opIT1_T2_EE, symObjAddr: 0x3DE98, symBinAddr: 0x100042704, symSize: 0x258 }
  - { offsetInCU: 0x4E0C9, offset: 0x4E0C9, size: 0x8, addend: 0x0, symName: __ZN5Eigen8internal26call_dense_assignment_loopINS_6MatrixIfLin1ELi1ELi0ELin1ELi1EEENS_12CwiseUnaryOpINS0_13scalar_cos_opIfEEKNS_12ArrayWrapperIS3_EEEENS0_9assign_opIffEEEEvRT_RKT0_RKT1_, symObjAddr: 0x114A24, symBinAddr: 0x100119290, symSize: 0x8C4 }
  - { offsetInCU: 0x4E935, offset: 0x4E935, size: 0x8, addend: 0x0, symName: __ZN5Eigen8internal26call_dense_assignment_loopINS_6MatrixIfLin1ELi1ELi0ELin1ELi1EEENS_12CwiseUnaryOpINS0_13scalar_sin_opIfEEKNS_12ArrayWrapperIS3_EEEENS0_9assign_opIffEEEEvRT_RKT0_RKT1_, symObjAddr: 0x115A70, symBinAddr: 0x10011A2DC, symSize: 0x8C0 }
  - { offsetInCU: 0x51BC0, offset: 0x51BC0, size: 0x8, addend: 0x0, symName: __ZN5Eigen8internal28conditional_aligned_new_autoINS_14AutoDiffScalarINS_6MatrixIfLin1ELi1ELi0ELin1ELi1EEEEELb1EEEPT_m, symObjAddr: 0x74CA4, symBinAddr: 0x100079510, symSize: 0xD4 }
  - { offsetInCU: 0x51D3E, offset: 0x51D3E, size: 0x8, addend: 0x0, symName: __ZN5Eigen8internal26call_dense_assignment_loopINS_6MatrixINS_14AutoDiffScalarINS2_IfLin1ELi1ELi0ELin1ELi1EEEEELin1ELi1ELi0ELin1ELi1EEEEEvRT_RKNS_14CwiseNullaryOpINS0_18scalar_constant_opINS7_6ScalarEEES7_EERKNS0_9assign_opISB_SB_EE, symObjAddr: 0x74D78, symBinAddr: 0x1000795E4, symSize: 0x8DC }
  - { offsetInCU: 0x52D27, offset: 0x52D27, size: 0x8, addend: 0x0, symName: __ZN5Eigen8internal26call_dense_assignment_loopINS_6MatrixINS_14AutoDiffScalarINS2_IfLin1ELi1ELi0ELin1ELi1EEEEELin1ELi1ELi0ELin1ELi1EEENS_12CwiseUnaryOpINS0_13scalar_cos_opIS5_EEKNS_12ArrayWrapperIS6_EEEENS0_9assign_opIS5_S5_EEEEvRT_RKT0_RKT1_, symObjAddr: 0x75D80, symBinAddr: 0x10007A5EC, symSize: 0x3E0 }
  - { offsetInCU: 0x53AB8, offset: 0x53AB8, size: 0x8, addend: 0x0, symName: __ZN5Eigen8internal26call_dense_assignment_loopINS_6MatrixINS_14AutoDiffScalarINS2_IfLin1ELi1ELi0ELin1ELi1EEEEELin1ELi1ELi0ELin1ELi1EEENS_13CwiseBinaryOpINS0_13scalar_sum_opIS5_S5_EEKNS_12ArrayWrapperIS6_EESC_EENS0_9assign_opIS5_S5_EEEEvRT_RKT0_RKT1_, symObjAddr: 0x76F60, symBinAddr: 0x10007B7CC, symSize: 0x448 }
  - { offsetInCU: 0x54B2D, offset: 0x54B2D, size: 0x8, addend: 0x0, symName: __ZN5Eigen8internal26call_dense_assignment_loopINS_6MatrixINS_14AutoDiffScalarINS2_IfLin1ELi1ELi0ELin1ELi1EEEEELin1ELi1ELi0ELin1ELi1EEENS_13CwiseBinaryOpINS0_20scalar_difference_opIS5_S5_EEKNS_12ArrayWrapperIS6_EESC_EENS0_9assign_opIS5_S5_EEEEvRT_RKT0_RKT1_, symObjAddr: 0x78D84, symBinAddr: 0x10007D5F0, symSize: 0x448 }
  - { offsetInCU: 0x5594B, offset: 0x5594B, size: 0x8, addend: 0x0, symName: __ZN5Eigen8internal26call_dense_assignment_loopINS_6MatrixINS_14AutoDiffScalarINS2_IfLin1ELi1ELi0ELin1ELi1EEEEELin1ELi1ELi0ELin1ELi1EEENS_13CwiseBinaryOpINS0_17scalar_product_opIS5_S5_EEKNS_12ArrayWrapperIS6_EESC_EENS0_9assign_opIS5_S5_EEEEvRT_RKT0_RKT1_, symObjAddr: 0x7AA04, symBinAddr: 0x10007F270, symSize: 0x448 }
  - { offsetInCU: 0x57C88, offset: 0x57C88, size: 0x8, addend: 0x0, symName: __ZN5Eigen8internal17resize_if_allowedINS_6MatrixIfLin1ELin1ELi0ELin1ELin1EEENS_14CwiseNullaryOpINS0_18scalar_constant_opIfEES3_EEffEEvRT_RKT0_RKNS0_9assign_opIT1_T2_EE, symObjAddr: 0xB0130, symBinAddr: 0x1000B499C, symSize: 0x258 }
  - { offsetInCU: 0x5BD4E, offset: 0x5BD4E, size: 0x8, addend: 0x0, symName: __ZN5Eigen8internal28conditional_aligned_new_autoIlLb1EEEPT_m, symObjAddr: 0xBB38C, symBinAddr: 0x1000BFBF8, symSize: 0x94 }
  - { offsetInCU: 0x5D5C4, offset: 0x5D5C4, size: 0x8, addend: 0x0, symName: __ZN5Eigen8internal26call_dense_assignment_loopINS_5BlockINS2_INS_6MatrixIfLin1ELin1ELi0ELin1ELin1EEELin1ELi1ELb1EEELin1ELi1ELb0EEENS_13CwiseBinaryOpINS0_20scalar_difference_opIffEEKNS2_IKNS2_IKS4_Lin1ELi1ELb1EEELin1ELi1ELb0EEEKNS7_INS0_18scalar_quotient_opIffEEKNS_7ProductINS_9TransposeIKNS2_ISA_Lin1ELin1ELb0EEEEESB_Li0EEEKNS_14CwiseNullaryOpINS0_18scalar_constant_opIfEEKNS3_IfLin1ELi1ELi0ELin1ELi1EEEEEEEEENS0_9assign_opIffEEEEvRT_RKT0_RKT1_, symObjAddr: 0xCBFC8, symBinAddr: 0x1000D0834, symSize: 0x13A4 }
  - { offsetInCU: 0x5E379, offset: 0x5E379, size: 0x8, addend: 0x0, symName: __ZN5Eigen8internal26call_dense_assignment_loopINS_5BlockINS2_INS_6MatrixIfLin1ELin1ELi0ELin1ELin1EEELin1ELi1ELb1EEELin1ELi1ELb0EEENS_13CwiseBinaryOpINS0_17scalar_product_opIffEEKNS_14CwiseNullaryOpINS0_18scalar_constant_opIfEEKNS3_IfLin1ELi1ELi0ELin1ELi1EEEEEKNS7_INS0_20scalar_difference_opIffEEKNS2_IKNS2_IKS4_Lin1ELi1ELb1EEELin1ELi1ELb0EEEKNS_7ProductINS_9TransposeIKNS2_ISJ_Lin1ELin1ELb1EEEEESK_Li0EEEEEEENS0_9assign_opIffEEEEvRT_RKT0_RKT1_, symObjAddr: 0xDF4EC, symBinAddr: 0x1000E3D58, symSize: 0x138C }
  - { offsetInCU: 0x5F14E, offset: 0x5F14E, size: 0x8, addend: 0x0, symName: __ZN5Eigen8internal26call_dense_assignment_loopINS_6MatrixIfLin1ELi1ELi0ELin1ELi1EEENS_13CwiseBinaryOpINS0_13scalar_sum_opIffEEKNS4_INS0_18scalar_quotient_opIffEEKS3_KNS_14CwiseNullaryOpINS0_18scalar_constant_opIfEES9_EEEEKNS4_IS8_KNS_7ProductINS2_IfLin1ELin1ELi0ELin1ELin1EEES3_Li0EEESE_EEEENS0_9assign_opIffEEEEvRT_RKT0_RKT1_, symObjAddr: 0xE1E54, symBinAddr: 0x1000E66C0, symSize: 0xDB4 }
  - { offsetInCU: 0x67CD3, offset: 0x67CD3, size: 0x8, addend: 0x0, symName: __ZN5Eigen8internal26call_dense_assignment_loopINS_9TransposeINS_6MatrixIfLin1ELi1ELi0ELin1ELi1EEEEENS_16PartialReduxExprINS3_IfLin1ELin1ELi0ELin1ELin1EEENS0_15member_blueNormIffEELi0EEENS0_9assign_opIffEEEEvRT_RKT0_RKT1_, symObjAddr: 0xF47A4, symBinAddr: 0x1000F9010, symSize: 0x544 }
  - { offsetInCU: 0x68363, offset: 0x68363, size: 0x8, addend: 0x0, symName: __ZN5Eigen8internal28conditional_aligned_new_autoIiLb1EEEPT_m, symObjAddr: 0xF8B24, symBinAddr: 0x1000FD390, symSize: 0x94 }
  - { offsetInCU: 0x6840B, offset: 0x6840B, size: 0x8, addend: 0x0, symName: __ZN5Eigen8internal16stable_norm_implINS_13CwiseBinaryOpINS0_17scalar_product_opIffEEKNS_6MatrixIfLin1ELi1ELi0ELin1ELi1EEES7_EEEENT_10RealScalarERKS9_PNS0_9enable_ifIXsrS9_21IsVectorAtCompileTimeEvE4typeE, symObjAddr: 0xFE238, symBinAddr: 0x100102AA4, symSize: 0x5FC }
  - { offsetInCU: 0x68B6F, offset: 0x68B6F, size: 0x8, addend: 0x0, symName: __ZN5Eigen8internal6lmpar2IfEEvRKNS_19ColPivHouseholderQRINS_6MatrixIT_Lin1ELin1ELi0ELin1ELin1EEEEERKNS3_IS4_Lin1ELi1ELi0ELin1ELi1EEESB_S4_RS4_RS9_, symObjAddr: 0xEE220, symBinAddr: 0x1000F2A8C, symSize: 0x4CD4 }
  - { offsetInCU: 0x6DDF4, offset: 0x6DDF4, size: 0x8, addend: 0x0, symName: __ZN5Eigen8internal15call_assignmentINS_6MatrixIfLin1ELi1ELi0ELin1ELi1EEENS_7ProductINS_14TriangularViewINS2_IfLin1ELin1ELi0ELin1ELin1EEELj2EEENS4_INS_7InverseINS_17PermutationMatrixILin1ELin1EiEEEES3_Li2EEELi0EEENS0_9assign_opIffEEEEvRT_RKT0_RKT1_NS0_9enable_ifIXsr25evaluator_assume_aliasingISI_EE5valueEPvE4typeE, symObjAddr: 0x10CF34, symBinAddr: 0x1001117A0, symSize: 0x86C }
  - { offsetInCU: 0x6E7FC, offset: 0x6E7FC, size: 0x8, addend: 0x0, symName: __ZN5Eigen8internal18stable_norm_kernelINS_3RefIKNS_6MatrixIfLin1ELi1ELi0ELi4096ELi1EEELi16ENS_11InnerStrideILi1EEEEEfEEvRKT_RT0_SD_SD_, symObjAddr: 0xECB70, symBinAddr: 0x1000F13DC, symSize: 0x9C4 }
  - { offsetInCU: 0x71067, offset: 0x71067, size: 0x8, addend: 0x0, symName: __ZN5Eigen8internal26call_dense_assignment_loopINS_6MatrixIfLin1ELi1ELi0ELin1ELi1EEENS_13CwiseBinaryOpINS0_18scalar_quotient_opIffEEKNS_7ProductINS_7InverseINS_17PermutationMatrixILin1ELin1EiEEEENS4_INS0_17scalar_product_opIffEEKS3_SE_EELi2EEEKNS_14CwiseNullaryOpINS0_18scalar_constant_opIfEESE_EEEENS0_9assign_opIffEEEEvRT_RKT0_RKT1_, symObjAddr: 0x10A770, symBinAddr: 0x10010EFDC, symSize: 0x960 }
  - { offsetInCU: 0x719B2, offset: 0x719B2, size: 0x8, addend: 0x0, symName: __ZN5Eigen8internal6qrsolvIfEEvRNS_6MatrixIT_Lin1ELin1ELi0ELin1ELin1EEERKNS2_IiLin1ELi1ELi0ELin1ELi1EEERKNS2_IS3_Lin1ELi1ELi0ELin1ELi1EEESB_RS9_SC_, symObjAddr: 0x103D6C, symBinAddr: 0x1001085D8, symSize: 0x2774 }
  - { offsetInCU: 0x76AB8, offset: 0x76AB8, size: 0x8, addend: 0x0, symName: __ZN5Eigen8internal26outer_product_selector_runINS_5BlockINS2_INS_6MatrixIfLin1ELin1ELi0ELin1ELin1EEELin1ELin1ELb0EEELin1ELin1ELb0EEENS_13CwiseBinaryOpINS0_17scalar_product_opIffEEKNS_14CwiseNullaryOpINS0_18scalar_constant_opIfEEKNS3_IfLin1ELi1ELi0ELin1ELi1EEEEEKNS2_INS2_IS4_Lin1ELi1ELb1EEELin1ELi1ELb0EEEEENS_3MapINS3_IfLi1ELin1ELi1ELi1ELin1EEELi0ENS_6StrideILi0ELi0EEEEENS0_20generic_product_implISK_SP_NS_10DenseShapeESR_Li5EE3subEEEvRT_RKT0_RKT1_RKT2_RKNS0_10false_typeE, symObjAddr: 0xFC700, symBinAddr: 0x100100F6C, symSize: 0x840 }
  - { offsetInCU: 0x79BE8, offset: 0x79BE8, size: 0x8, addend: 0x0, symName: __ZN5Eigen8internal26call_dense_assignment_loopINS_5BlockINS2_INS_6MatrixIfLin1ELi1ELi0ELin1ELi1EEELin1ELin1ELb0EEELin1ELin1ELb0EEENS_7ProductINS_13CwiseBinaryOpINS0_17scalar_product_opIffEEKNS_14CwiseNullaryOpINS0_18scalar_constant_opIfEEKS4_EEKNS2_IKNS3_IfLin1ELin1ELi0ELin1ELin1EEELin1ELi1ELb0EEEEENS_3MapINS3_IfLi1ELin1ELi1ELi1ELi1EEELi0ENS_6StrideILi0ELi0EEEEELi1EEENS0_13sub_assign_opIffEEEEvRT_RKT0_RKT1_, symObjAddr: 0x102698, symBinAddr: 0x100106F04, symSize: 0xBB0 }
  - { offsetInCU: 0x271794, offset: 0x271794, size: 0x8, addend: 0x0, symName: __ZNSt3__119piecewise_constructE, symObjAddr: 0x13B044, symBinAddr: 0x10013FEA4, symSize: 0x0 }
  - { offsetInCU: 0x287EF4, offset: 0x287EF4, size: 0x8, addend: 0x0, symName: __ZNSt3__111__introsortINS_17_ClassicAlgPolicyERN7LBFGSpp7ArgSortIfEEPiLb0EEEvT1_S7_T0_NS_15iterator_traitsIS7_E15difference_typeEb, symObjAddr: 0xA1680, symBinAddr: 0x1000A5EEC, symSize: 0x2AF8 }
  - { offsetInCU: 0x289554, offset: 0x289554, size: 0x8, addend: 0x0, symName: __ZNSt3__127__insertion_sort_incompleteB8ue170006INS_17_ClassicAlgPolicyERN7LBFGSpp7ArgSortIfEEPiEEbT1_S7_T0_, symObjAddr: 0xA4178, symBinAddr: 0x1000A89E4, symSize: 0xE18 }
  - { offsetInCU: 0x290036, offset: 0x290036, size: 0x8, addend: 0x0, symName: '__ZNSt3__111__introsortINS_17_ClassicAlgPolicyERZ2GPRKN5Eigen6MatrixIfLin1ELin1ELi0ELin1ELin1EEEiNS_12basic_stringIcNS_11char_traitsIcEENS_9allocatorIcEEEEfSC_iRKSC_bdiPKciE3$_4PNS_4pairINS_6vectorIfNSA_IfEEEEfEELb0EEEvT1_SP_T0_NS_15iterator_traitsISP_E15difference_typeEb', symObjAddr: 0x122E68, symBinAddr: 0x1001276D4, symSize: 0x24AC }
  - { offsetInCU: 0x29187A, offset: 0x29187A, size: 0x8, addend: 0x0, symName: '__ZNSt3__127__insertion_sort_incompleteB8ue170006INS_17_ClassicAlgPolicyERZ2GPRKN5Eigen6MatrixIfLin1ELin1ELi0ELin1ELin1EEEiNS_12basic_stringIcNS_11char_traitsIcEENS_9allocatorIcEEEEfSC_iRKSC_bdiPKciE3$_4PNS_4pairINS_6vectorIfNSA_IfEEEEfEEEEbT1_SP_T0_', symObjAddr: 0x1261AC, symBinAddr: 0x10012AA18, symSize: 0x648 }
  - { offsetInCU: 0x29383A, offset: 0x29383A, size: 0x8, addend: 0x0, symName: __ZNSt3__124__put_character_sequenceB8ue170006IcNS_11char_traitsIcEEEERNS_13basic_ostreamIT_T0_EES7_PKS4_m, symObjAddr: 0x128668, symBinAddr: 0x10012CED4, symSize: 0x4CC }
  - { offsetInCU: 0x2A9E74, offset: 0x2A9E74, size: 0x8, addend: 0x0, symName: __ZNSt3__127__tree_balance_after_insertB8ue170006IPNS_16__tree_node_baseIPvEEEEvT_S5_, symObjAddr: 0x12E69C, symBinAddr: 0x100132F08, symSize: 0x870 }
  - { offsetInCU: 0x2ADA2B, offset: 0x2ADA2B, size: 0x8, addend: 0x0, symName: __ZNSt3__120__throw_length_errorB8ue170006EPKc, symObjAddr: 0x37264, symBinAddr: 0x10003BAD0, symSize: 0x54 }
  - { offsetInCU: 0x2AE55A, offset: 0x2AE55A, size: 0x8, addend: 0x0, symName: __ZNSt3__135__uninitialized_allocator_copy_implB8ue170006INS_9allocatorINS_12basic_stringIcNS_11char_traitsIcEENS1_IcEEEEEEPKS6_S9_PS6_EET2_RT_T0_T1_SB_, symObjAddr: 0x41F54, symBinAddr: 0x1000467C0, symSize: 0x4CC }
  - { offsetInCU: 0x2AEDB6, offset: 0x2AEDB6, size: 0x8, addend: 0x0, symName: __ZNSt3__135__uninitialized_allocator_copy_implB8ue170006INS_9allocatorINS_12basic_stringIcNS_11char_traitsIcEENS1_IcEEEEEEPS6_S8_S8_EET2_RT_T0_T1_S9_, symObjAddr: 0x4378C, symBinAddr: 0x100047FF8, symSize: 0x4CC }
  - { offsetInCU: 0x2AFCB0, offset: 0x2AFCB0, size: 0x8, addend: 0x0, symName: __ZNSt3__1eqB8ue170006IcNS_11char_traitsIcEENS_9allocatorIcEEEEbRKNS_12basic_stringIT_T0_T1_EEPKS6_, symObjAddr: 0x47E98, symBinAddr: 0x10004C704, symSize: 0xD4 }
  - { offsetInCU: 0x2B0496, offset: 0x2B0496, size: 0x8, addend: 0x0, symName: __ZNSt3__15asyncB8ue170006IRZN5Board8AsyncPSOEvEUliE_JRiEEENS_6futureINS_11__invoke_ofIu7__decayIT_EJDpu7__decayIT0_EEE4typeEEENS_6launchEOS7_DpOS9_, symObjAddr: 0x5A264, symBinAddr: 0x10005EAD0, symSize: 0x51C }
  - { offsetInCU: 0x2B0F6F, offset: 0x2B0F6F, size: 0x8, addend: 0x0, symName: __ZNSt3__124__make_async_assoc_stateB8ue170006IvNS_12__async_funcIZN5Board8AsyncPSOEvEUliE_JiEEEEENS_6futureIT_EEOT0_, symObjAddr: 0x5B094, symBinAddr: 0x10005F900, symSize: 0x3D4 }
  - { offsetInCU: 0x2B1CEA, offset: 0x2B1CEA, size: 0x8, addend: 0x0, symName: __ZNSt3__114__thread_proxyB8ue170006INS_5tupleIJNS_10unique_ptrINS_15__thread_structENS_14default_deleteIS3_EEEEMNS_19__async_assoc_stateIvNS_12__async_funcIZN5Board8AsyncPSOEvEUliE_JiEEEEEFvvEPSC_EEEEEPvSH_, symObjAddr: 0x5CF84, symBinAddr: 0x1000617F0, symSize: 0x318 }
  - { offsetInCU: 0x2B38BB, offset: 0x2B38BB, size: 0x8, addend: 0x0, symName: __ZNSt3__17__sort4B8ue170006INS_17_ClassicAlgPolicyERN7LBFGSpp7ArgSortIfEEPiEEvT1_S7_S7_S7_T0_, symObjAddr: 0xA4F90, symBinAddr: 0x1000A97FC, symSize: 0x730 }
  - { offsetInCU: 0x2B3CCF, offset: 0x2B3CCF, size: 0x8, addend: 0x0, symName: __ZNSt3__119__partial_sort_implB8ue170006INS_17_ClassicAlgPolicyERN7LBFGSpp7ArgSortIfEEPiS6_EET1_S7_S7_T2_OT0_, symObjAddr: 0xA56C0, symBinAddr: 0x1000A9F2C, symSize: 0xDA0 }
  - { offsetInCU: 0x2B6F20, offset: 0x2B6F20, size: 0x8, addend: 0x0, symName: '__ZNSt3__17__sort3B8ue170006INS_17_ClassicAlgPolicyERZ2GPRKN5Eigen6MatrixIfLin1ELin1ELi0ELin1ELin1EEEiNS_12basic_stringIcNS_11char_traitsIcEENS_9allocatorIcEEEEfSC_iRKSC_bdiPKciE3$_4PNS_4pairINS_6vectorIfNSA_IfEEEEfEEEEjT1_SP_SP_T0_', symObjAddr: 0x1259FC, symBinAddr: 0x10012A268, symSize: 0x7B0 }
  - { offsetInCU: 0x2B76D6, offset: 0x2B76D6, size: 0x8, addend: 0x0, symName: '__ZNSt3__124__sort5_maybe_branchlessB8ue170006INS_17_ClassicAlgPolicyERZ2GPRKN5Eigen6MatrixIfLin1ELin1ELi0ELin1ELin1EEEiNS_12basic_stringIcNS_11char_traitsIcEENS_9allocatorIcEEEEfSC_iRKSC_bdiPKciE3$_4PNS_4pairINS_6vectorIfNSA_IfEEEEfEEEENS_9enable_ifIXntsr21__use_branchless_sortIT0_T1_EE5valueEvE4typeESR_SR_SR_SR_SR_SQ_', symObjAddr: 0x125314, symBinAddr: 0x100129B80, symSize: 0x6E8 }
  - { offsetInCU: 0x2B7DFB, offset: 0x2B7DFB, size: 0x8, addend: 0x0, symName: '__ZNSt3__17__sort4B8ue170006INS_17_ClassicAlgPolicyERZ2GPRKN5Eigen6MatrixIfLin1ELin1ELi0ELin1ELin1EEEiNS_12basic_stringIcNS_11char_traitsIcEENS_9allocatorIcEEEEfSC_iRKSC_bdiPKciE3$_4PNS_4pairINS_6vectorIfNSA_IfEEEEfEEEEvT1_SP_SP_SP_T0_', symObjAddr: 0x1267F4, symBinAddr: 0x10012B060, symSize: 0x544 }
  - { offsetInCU: 0x2B89B0, offset: 0x2B89B0, size: 0x8, addend: 0x0, symName: __ZNSt3__116__pad_and_outputB8ue170006IcNS_11char_traitsIcEEEENS_19ostreambuf_iteratorIT_T0_EES6_PKS4_S8_S8_RNS_8ios_baseES4_, symObjAddr: 0x128B34, symBinAddr: 0x10012D3A0, symSize: 0x524 }
  - { offsetInCU: 0x2B9440, offset: 0x2B9440, size: 0x8, addend: 0x0, symName: '__ZNSt3__114__thread_proxyB8ue170006INS_5tupleIJNS_10unique_ptrINS_15__thread_structENS_14default_deleteIS3_EEEEZ18SimulatedAnnealingRKN5Eigen6MatrixIfLin1ELin1ELi0ELin1ELin1EEEiNS_12basic_stringIcNS_11char_traitsIcEENS_9allocatorIcEEEEfSH_iRKSH_bdiPKciE3$_3EEEEEPvSO_', symObjAddr: 0x12D7B4, symBinAddr: 0x100132020, symSize: 0x6F4 }
  - { offsetInCU: 0x2B9DB1, offset: 0x2B9DB1, size: 0x8, addend: 0x0, symName: '__ZNSt3__114__thread_proxyB8ue170006INS_5tupleIJNS_10unique_ptrINS_15__thread_structENS_14default_deleteIS3_EEEEZ2GPRKN5Eigen6MatrixIfLin1ELin1ELi0ELin1ELin1EEEiNS_12basic_stringIcNS_11char_traitsIcEENS_9allocatorIcEEEEfSH_iRKSH_bdiPKciE3$_8EEEEEPvSO_', symObjAddr: 0x12EF0C, symBinAddr: 0x100133778, symSize: 0x6F4 }
  - { offsetInCU: 0x2BA47D, offset: 0x2BA47D, size: 0x8, addend: 0x0, symName: '__ZNSt3__114__thread_proxyB8ue170006INS_5tupleIJNS_10unique_ptrINS_15__thread_structENS_14default_deleteIS3_EEEEZ3PSORKN5Eigen6MatrixIfLin1ELin1ELi0ELin1ELin1EEEiNS_12basic_stringIcNS_11char_traitsIcEENS_9allocatorIcEEEEfSH_iRKSH_bdiPKciE3$_9EEEEEPvSO_', symObjAddr: 0x12F6AC, symBinAddr: 0x100133F18, symSize: 0x6F4 }
  - { offsetInCU: 0x2BAD69, offset: 0x2BAD69, size: 0x8, addend: 0x0, symName: '__ZNSt3__114__thread_proxyB8ue170006INS_5tupleIJNS_10unique_ptrINS_15__thread_structENS_14default_deleteIS3_EEEEZ4MCTSRKN5Eigen6MatrixIfLin1ELin1ELi0ELin1ELin1EEEiNS_12basic_stringIcNS_11char_traitsIcEENS_9allocatorIcEEEEfSH_iRKSH_bdiPKciE4$_11EEEEEPvSO_', symObjAddr: 0x1330B4, symBinAddr: 0x100137920, symSize: 0x6F4 }
  - { offsetInCU: 0x2BB51D, offset: 0x2BB51D, size: 0x8, addend: 0x0, symName: '__ZNSt3__114__thread_proxyB8ue170006INS_5tupleIJNS_10unique_ptrINS_15__thread_structENS_14default_deleteIS3_EEEEZ12RandomSearchRKN5Eigen6MatrixIfLin1ELin1ELi0ELin1ELin1EEEiNS_12basic_stringIcNS_11char_traitsIcEENS_9allocatorIcEEEEfSH_iRKSH_bdiPKciE4$_12EEEEEPvSO_', symObjAddr: 0x135578, symBinAddr: 0x100139DE4, symSize: 0x6F4 }
  - { offsetInCU: 0x2BCB62, offset: 0x2BCB62, size: 0x8, addend: 0x0, symName: __ZSt28__throw_bad_array_new_lengthB8ue170006v, symObjAddr: 0x37304, symBinAddr: 0x10003BB70, symSize: 0x38 }
  - { offsetInCU: 0x2BCBD8, offset: 0x2BCBD8, size: 0x8, addend: 0x0, symName: _.str, symObjAddr: 0x13B1E0, symBinAddr: 0x100140040, symSize: 0x0 }
  - { offsetInCU: 0x2BCC0C, offset: 0x2BCC0C, size: 0x8, addend: 0x0, symName: __ZN5Board15best_expressionE, symObjAddr: 0x13F520, symBinAddr: 0x10015C000, symSize: 0x0 }
  - { offsetInCU: 0x2CC529, offset: 0x2CC529, size: 0x8, addend: 0x0, symName: __ZN5Board15expression_dictE, symObjAddr: 0x13F540, symBinAddr: 0x10015C020, symSize: 0x0 }
  - { offsetInCU: 0x2CC53D, offset: 0x2CC53D, size: 0x8, addend: 0x0, symName: __ZN5Board12__input_varsE, symObjAddr: 0x13F570, symBinAddr: 0x10015C050, symSize: 0x0 }
  - { offsetInCU: 0x2CC551, offset: 0x2CC551, size: 0x8, addend: 0x0, symName: __ZN5Board17__unary_operatorsE, symObjAddr: 0x13F590, symBinAddr: 0x10015C070, symSize: 0x0 }
  - { offsetInCU: 0x2CC565, offset: 0x2CC565, size: 0x8, addend: 0x0, symName: __ZN5Board18__binary_operatorsE, symObjAddr: 0x13F5B0, symBinAddr: 0x10015C090, symSize: 0x0 }
  - { offsetInCU: 0x2CC579, offset: 0x2CC579, size: 0x8, addend: 0x0, symName: __ZN5Board11__operatorsE, symObjAddr: 0x13F5D0, symBinAddr: 0x10015C0B0, symSize: 0x0 }
  - { offsetInCU: 0x2CC58D, offset: 0x2CC58D, size: 0x8, addend: 0x0, symName: __ZN5Board14__other_tokensE, symObjAddr: 0x13F5F0, symBinAddr: 0x10015C0D0, symSize: 0x0 }
  - { offsetInCU: 0x2CC5A1, offset: 0x2CC5A1, size: 0x8, addend: 0x0, symName: __ZN5Board8__tokensE, symObjAddr: 0x13F610, symBinAddr: 0x10015C0F0, symSize: 0x0 }
  - { offsetInCU: 0x2CC5B5, offset: 0x2CC5B5, size: 0x8, addend: 0x0, symName: __ZN5Board14__tokens_floatE, symObjAddr: 0x13F630, symBinAddr: 0x10015C110, symSize: 0x0 }
  - { offsetInCU: 0x2CC5C9, offset: 0x2CC5C9, size: 0x8, addend: 0x0, symName: __ZN5Board4dataE, symObjAddr: 0x13F650, symBinAddr: 0x10015C130, symSize: 0x0 }
  - { offsetInCU: 0x2CC5DD, offset: 0x2CC5DD, size: 0x8, addend: 0x0, symName: __ZN5Board17__operators_floatE, symObjAddr: 0x13F6C0, symBinAddr: 0x10015C1A0, symSize: 0x0 }
  - { offsetInCU: 0x2CC5F1, offset: 0x2CC5F1, size: 0x8, addend: 0x0, symName: __ZN5Board23__unary_operators_floatE, symObjAddr: 0x13F6E0, symBinAddr: 0x10015C1C0, symSize: 0x0 }
  - { offsetInCU: 0x2CC605, offset: 0x2CC605, size: 0x8, addend: 0x0, symName: __ZN5Board24__binary_operators_floatE, symObjAddr: 0x13F700, symBinAddr: 0x10015C1E0, symSize: 0x0 }
  - { offsetInCU: 0x2CC619, offset: 0x2CC619, size: 0x8, addend: 0x0, symName: __ZN5Board18__input_vars_floatE, symObjAddr: 0x13F720, symBinAddr: 0x10015C200, symSize: 0x0 }
  - { offsetInCU: 0x2CC62D, offset: 0x2CC62D, size: 0x8, addend: 0x0, symName: __ZN5Board20__other_tokens_floatE, symObjAddr: 0x13F740, symBinAddr: 0x10015C220, symSize: 0x0 }
  - { offsetInCU: 0x2CC641, offset: 0x2CC641, size: 0x8, addend: 0x0, symName: __ZN5Board13__tokens_dictE, symObjAddr: 0x13F760, symBinAddr: 0x10015C240, symSize: 0x0 }
  - { offsetInCU: 0x2CC655, offset: 0x2CC655, size: 0x8, addend: 0x0, symName: __ZN5Board17__tokens_inv_dictE, symObjAddr: 0x13F790, symBinAddr: 0x10015C270, symSize: 0x0 }
  - { offsetInCU: 0x2CC669, offset: 0x2CC669, size: 0x8, addend: 0x0, symName: __ZN5Board29una_bin_leaf_legal_moves_dictE, symObjAddr: 0x13F7C0, symBinAddr: 0x10015C2A0, symSize: 0x0 }
  - { offsetInCU: 0x2CC680, offset: 0x2CC680, size: 0x8, addend: 0x0, symName: _.str.22, symObjAddr: 0x13B240, symBinAddr: 0x1001400A0, symSize: 0x0 }
  - { offsetInCU: 0x2CC6A1, offset: 0x2CC6A1, size: 0x8, addend: 0x0, symName: _.str.23, symObjAddr: 0x13B280, symBinAddr: 0x1001400E0, symSize: 0x0 }
  - { offsetInCU: 0x2CC6C2, offset: 0x2CC6C2, size: 0x8, addend: 0x0, symName: _.str.24, symObjAddr: 0x13B2C0, symBinAddr: 0x100140120, symSize: 0x0 }
  - { offsetInCU: 0x2CC6E3, offset: 0x2CC6E3, size: 0x8, addend: 0x0, symName: _.str.25, symObjAddr: 0x13B2E0, symBinAddr: 0x100140140, symSize: 0x0 }
  - { offsetInCU: 0x2CC704, offset: 0x2CC704, size: 0x8, addend: 0x0, symName: _.str.26, symObjAddr: 0x13B300, symBinAddr: 0x100140160, symSize: 0x0 }
  - { offsetInCU: 0x2CC725, offset: 0x2CC725, size: 0x8, addend: 0x0, symName: _.str.27, symObjAddr: 0x13B320, symBinAddr: 0x100140180, symSize: 0x0 }
  - { offsetInCU: 0x2CC746, offset: 0x2CC746, size: 0x8, addend: 0x0, symName: _.str.28, symObjAddr: 0x13B340, symBinAddr: 0x1001401A0, symSize: 0x0 }
  - { offsetInCU: 0x2CC767, offset: 0x2CC767, size: 0x8, addend: 0x0, symName: _.str.29, symObjAddr: 0x13B380, symBinAddr: 0x1001401E0, symSize: 0x0 }
  - { offsetInCU: 0x2CC788, offset: 0x2CC788, size: 0x8, addend: 0x0, symName: _.str.30, symObjAddr: 0x13B3A0, symBinAddr: 0x100140200, symSize: 0x0 }
  - { offsetInCU: 0x2CC7A9, offset: 0x2CC7A9, size: 0x8, addend: 0x0, symName: _.str.31, symObjAddr: 0x13B3E0, symBinAddr: 0x100140240, symSize: 0x0 }
  - { offsetInCU: 0x2CC7CA, offset: 0x2CC7CA, size: 0x8, addend: 0x0, symName: _.str.32, symObjAddr: 0x13B400, symBinAddr: 0x100140260, symSize: 0x0 }
  - { offsetInCU: 0x2CC7EB, offset: 0x2CC7EB, size: 0x8, addend: 0x0, symName: _.str.33, symObjAddr: 0x13B440, symBinAddr: 0x1001402A0, symSize: 0x0 }
  - { offsetInCU: 0x2CC7FE, offset: 0x2CC7FE, size: 0x8, addend: 0x0, symName: _.str.34, symObjAddr: 0x13B480, symBinAddr: 0x1001402E0, symSize: 0x0 }
  - { offsetInCU: 0x2CC811, offset: 0x2CC811, size: 0x8, addend: 0x0, symName: _.str.35, symObjAddr: 0x13B4C0, symBinAddr: 0x100140320, symSize: 0x0 }
  - { offsetInCU: 0x2CC824, offset: 0x2CC824, size: 0x8, addend: 0x0, symName: _.str.36, symObjAddr: 0x13B500, symBinAddr: 0x100140360, symSize: 0x0 }
  - { offsetInCU: 0x2CC837, offset: 0x2CC837, size: 0x8, addend: 0x0, symName: _.str.37, symObjAddr: 0x13B540, symBinAddr: 0x1001403A0, symSize: 0x0 }
  - { offsetInCU: 0x2CC84A, offset: 0x2CC84A, size: 0x8, addend: 0x0, symName: _.str.38, symObjAddr: 0x13B580, symBinAddr: 0x1001403E0, symSize: 0x0 }
  - { offsetInCU: 0x2CC85D, offset: 0x2CC85D, size: 0x8, addend: 0x0, symName: _.str.39, symObjAddr: 0x13B5C0, symBinAddr: 0x100140420, symSize: 0x0 }
  - { offsetInCU: 0x2CC870, offset: 0x2CC870, size: 0x8, addend: 0x0, symName: _.str.40, symObjAddr: 0x13B600, symBinAddr: 0x100140460, symSize: 0x0 }
  - { offsetInCU: 0x2CC883, offset: 0x2CC883, size: 0x8, addend: 0x0, symName: _.str.41, symObjAddr: 0x13B640, symBinAddr: 0x1001404A0, symSize: 0x0 }
  - { offsetInCU: 0x2CC8A4, offset: 0x2CC8A4, size: 0x8, addend: 0x0, symName: _.str.42, symObjAddr: 0x13B680, symBinAddr: 0x1001404E0, symSize: 0x0 }
  - { offsetInCU: 0x2CC8B7, offset: 0x2CC8B7, size: 0x8, addend: 0x0, symName: _.str.43, symObjAddr: 0x13B6C0, symBinAddr: 0x100140520, symSize: 0x0 }
  - { offsetInCU: 0x2CC8CA, offset: 0x2CC8CA, size: 0x8, addend: 0x0, symName: _.str.44, symObjAddr: 0x13B700, symBinAddr: 0x100140560, symSize: 0x0 }
  - { offsetInCU: 0x2CC8DD, offset: 0x2CC8DD, size: 0x8, addend: 0x0, symName: _.str.45, symObjAddr: 0x13B740, symBinAddr: 0x1001405A0, symSize: 0x0 }
  - { offsetInCU: 0x2CC8F0, offset: 0x2CC8F0, size: 0x8, addend: 0x0, symName: _.str.46, symObjAddr: 0x13B780, symBinAddr: 0x1001405E0, symSize: 0x0 }
  - { offsetInCU: 0x2CC903, offset: 0x2CC903, size: 0x8, addend: 0x0, symName: _.str.47, symObjAddr: 0x13B7C0, symBinAddr: 0x100140620, symSize: 0x0 }
  - { offsetInCU: 0x2CC916, offset: 0x2CC916, size: 0x8, addend: 0x0, symName: _.str.48, symObjAddr: 0x13B800, symBinAddr: 0x100140660, symSize: 0x0 }
  - { offsetInCU: 0x2CC929, offset: 0x2CC929, size: 0x8, addend: 0x0, symName: _.str.49, symObjAddr: 0x13B840, symBinAddr: 0x1001406A0, symSize: 0x0 }
  - { offsetInCU: 0x2CC93C, offset: 0x2CC93C, size: 0x8, addend: 0x0, symName: _.str.50, symObjAddr: 0x13B880, symBinAddr: 0x1001406E0, symSize: 0x0 }
  - { offsetInCU: 0x2CC94F, offset: 0x2CC94F, size: 0x8, addend: 0x0, symName: _.str.51, symObjAddr: 0x13B8C0, symBinAddr: 0x100140720, symSize: 0x0 }
  - { offsetInCU: 0x2CC970, offset: 0x2CC970, size: 0x8, addend: 0x0, symName: _.str.52, symObjAddr: 0x13B900, symBinAddr: 0x100140760, symSize: 0x0 }
  - { offsetInCU: 0x2CC983, offset: 0x2CC983, size: 0x8, addend: 0x0, symName: _.str.53, symObjAddr: 0x13B940, symBinAddr: 0x1001407A0, symSize: 0x0 }
  - { offsetInCU: 0x2CC996, offset: 0x2CC996, size: 0x8, addend: 0x0, symName: _.str.54, symObjAddr: 0x13B980, symBinAddr: 0x1001407E0, symSize: 0x0 }
  - { offsetInCU: 0x2CC9A9, offset: 0x2CC9A9, size: 0x8, addend: 0x0, symName: _.str.55, symObjAddr: 0x13B9C0, symBinAddr: 0x100140820, symSize: 0x0 }
  - { offsetInCU: 0x2CC9BC, offset: 0x2CC9BC, size: 0x8, addend: 0x0, symName: _.str.56, symObjAddr: 0x13BA00, symBinAddr: 0x100140860, symSize: 0x0 }
  - { offsetInCU: 0x2CC9CF, offset: 0x2CC9CF, size: 0x8, addend: 0x0, symName: _.str.57, symObjAddr: 0x13BA40, symBinAddr: 0x1001408A0, symSize: 0x0 }
  - { offsetInCU: 0x2CC9E2, offset: 0x2CC9E2, size: 0x8, addend: 0x0, symName: _.str.58, symObjAddr: 0x13BA80, symBinAddr: 0x1001408E0, symSize: 0x0 }
  - { offsetInCU: 0x2CC9F5, offset: 0x2CC9F5, size: 0x8, addend: 0x0, symName: _.str.59, symObjAddr: 0x13BAC0, symBinAddr: 0x100140920, symSize: 0x0 }
  - { offsetInCU: 0x2CCA08, offset: 0x2CCA08, size: 0x8, addend: 0x0, symName: _.str.60, symObjAddr: 0x13BB00, symBinAddr: 0x100140960, symSize: 0x0 }
  - { offsetInCU: 0x2CCA1B, offset: 0x2CCA1B, size: 0x8, addend: 0x0, symName: _.str.61, symObjAddr: 0x13BB40, symBinAddr: 0x1001409A0, symSize: 0x0 }
  - { offsetInCU: 0x2CCA2E, offset: 0x2CCA2E, size: 0x8, addend: 0x0, symName: _.str.62, symObjAddr: 0x13BB80, symBinAddr: 0x1001409E0, symSize: 0x0 }
  - { offsetInCU: 0x2CCA41, offset: 0x2CCA41, size: 0x8, addend: 0x0, symName: _.str.63, symObjAddr: 0x13BBC0, symBinAddr: 0x100140A20, symSize: 0x0 }
  - { offsetInCU: 0x2CCA54, offset: 0x2CCA54, size: 0x8, addend: 0x0, symName: _.str.64, symObjAddr: 0x13BC00, symBinAddr: 0x100140A60, symSize: 0x0 }
  - { offsetInCU: 0x2CCA67, offset: 0x2CCA67, size: 0x8, addend: 0x0, symName: _.str.65, symObjAddr: 0x13BC40, symBinAddr: 0x100140AA0, symSize: 0x0 }
  - { offsetInCU: 0x2CCA7A, offset: 0x2CCA7A, size: 0x8, addend: 0x0, symName: _.str.66, symObjAddr: 0x13BC80, symBinAddr: 0x100140AE0, symSize: 0x0 }
  - { offsetInCU: 0x2CCA8D, offset: 0x2CCA8D, size: 0x8, addend: 0x0, symName: _.str.67, symObjAddr: 0x13BCC0, symBinAddr: 0x100140B20, symSize: 0x0 }
  - { offsetInCU: 0x2CCAA0, offset: 0x2CCAA0, size: 0x8, addend: 0x0, symName: _.str.68, symObjAddr: 0x13BD00, symBinAddr: 0x100140B60, symSize: 0x0 }
  - { offsetInCU: 0x2CCAB3, offset: 0x2CCAB3, size: 0x8, addend: 0x0, symName: _.str.69, symObjAddr: 0x13BD40, symBinAddr: 0x100140BA0, symSize: 0x0 }
  - { offsetInCU: 0x2CCAC6, offset: 0x2CCAC6, size: 0x8, addend: 0x0, symName: _.str.70, symObjAddr: 0x13BD80, symBinAddr: 0x100140BE0, symSize: 0x0 }
  - { offsetInCU: 0x2CCAD9, offset: 0x2CCAD9, size: 0x8, addend: 0x0, symName: _.str.71, symObjAddr: 0x13BDC0, symBinAddr: 0x100140C20, symSize: 0x0 }
  - { offsetInCU: 0x2CCAFA, offset: 0x2CCAFA, size: 0x8, addend: 0x0, symName: _.str.72, symObjAddr: 0x13BE20, symBinAddr: 0x100140C80, symSize: 0x0 }
  - { offsetInCU: 0x2CCB1B, offset: 0x2CCB1B, size: 0x8, addend: 0x0, symName: _.str.73, symObjAddr: 0x13BE80, symBinAddr: 0x100140CE0, symSize: 0x0 }
  - { offsetInCU: 0x2CCB2E, offset: 0x2CCB2E, size: 0x8, addend: 0x0, symName: _.str.74, symObjAddr: 0x13BEE0, symBinAddr: 0x100140D40, symSize: 0x0 }
  - { offsetInCU: 0x2CCB41, offset: 0x2CCB41, size: 0x8, addend: 0x0, symName: _.str.75, symObjAddr: 0x13BF40, symBinAddr: 0x100140DA0, symSize: 0x0 }
  - { offsetInCU: 0x2CCB54, offset: 0x2CCB54, size: 0x8, addend: 0x0, symName: _.str.76, symObjAddr: 0x13BFA0, symBinAddr: 0x100140E00, symSize: 0x0 }
  - { offsetInCU: 0x2CCB67, offset: 0x2CCB67, size: 0x8, addend: 0x0, symName: _.str.77, symObjAddr: 0x13C000, symBinAddr: 0x100140E60, symSize: 0x0 }
  - { offsetInCU: 0x2CCB7A, offset: 0x2CCB7A, size: 0x8, addend: 0x0, symName: _.str.78, symObjAddr: 0x13C060, symBinAddr: 0x100140EC0, symSize: 0x0 }
  - { offsetInCU: 0x2CCB8D, offset: 0x2CCB8D, size: 0x8, addend: 0x0, symName: _.str.79, symObjAddr: 0x13C0C0, symBinAddr: 0x100140F20, symSize: 0x0 }
  - { offsetInCU: 0x2CCBA0, offset: 0x2CCBA0, size: 0x8, addend: 0x0, symName: _.str.80, symObjAddr: 0x13C120, symBinAddr: 0x100140F80, symSize: 0x0 }
  - { offsetInCU: 0x2CCBB3, offset: 0x2CCBB3, size: 0x8, addend: 0x0, symName: _.str.81, symObjAddr: 0x13C180, symBinAddr: 0x100140FE0, symSize: 0x0 }
  - { offsetInCU: 0x2CCBC6, offset: 0x2CCBC6, size: 0x8, addend: 0x0, symName: _.str.82, symObjAddr: 0x13C1C0, symBinAddr: 0x100141020, symSize: 0x0 }
  - { offsetInCU: 0x2CCBD9, offset: 0x2CCBD9, size: 0x8, addend: 0x0, symName: _.str.83, symObjAddr: 0x13C200, symBinAddr: 0x100141060, symSize: 0x0 }
  - { offsetInCU: 0x2CCBEC, offset: 0x2CCBEC, size: 0x8, addend: 0x0, symName: _.str.84, symObjAddr: 0x13C240, symBinAddr: 0x1001410A0, symSize: 0x0 }
  - { offsetInCU: 0x2CCBFF, offset: 0x2CCBFF, size: 0x8, addend: 0x0, symName: _.str.85, symObjAddr: 0x13C280, symBinAddr: 0x1001410E0, symSize: 0x0 }
  - { offsetInCU: 0x2CCC12, offset: 0x2CCC12, size: 0x8, addend: 0x0, symName: _.str.86, symObjAddr: 0x13C2C0, symBinAddr: 0x100141120, symSize: 0x0 }
  - { offsetInCU: 0x2CCC25, offset: 0x2CCC25, size: 0x8, addend: 0x0, symName: _.str.87, symObjAddr: 0x13C300, symBinAddr: 0x100141160, symSize: 0x0 }
  - { offsetInCU: 0x2CCC38, offset: 0x2CCC38, size: 0x8, addend: 0x0, symName: _.str.88, symObjAddr: 0x13C340, symBinAddr: 0x1001411A0, symSize: 0x0 }
  - { offsetInCU: 0x2CCC4B, offset: 0x2CCC4B, size: 0x8, addend: 0x0, symName: _.str.89, symObjAddr: 0x13C380, symBinAddr: 0x1001411E0, symSize: 0x0 }
  - { offsetInCU: 0x2CCC5E, offset: 0x2CCC5E, size: 0x8, addend: 0x0, symName: _.str.90, symObjAddr: 0x13C3C0, symBinAddr: 0x100141220, symSize: 0x0 }
  - { offsetInCU: 0x2CCC71, offset: 0x2CCC71, size: 0x8, addend: 0x0, symName: _.str.91, symObjAddr: 0x13C400, symBinAddr: 0x100141260, symSize: 0x0 }
  - { offsetInCU: 0x2CCC84, offset: 0x2CCC84, size: 0x8, addend: 0x0, symName: _.str.92, symObjAddr: 0x13C440, symBinAddr: 0x1001412A0, symSize: 0x0 }
  - { offsetInCU: 0x2CCC97, offset: 0x2CCC97, size: 0x8, addend: 0x0, symName: _.str.93, symObjAddr: 0x13C480, symBinAddr: 0x1001412E0, symSize: 0x0 }
  - { offsetInCU: 0x2CCCAA, offset: 0x2CCCAA, size: 0x8, addend: 0x0, symName: _.str.94, symObjAddr: 0x13C4C0, symBinAddr: 0x100141320, symSize: 0x0 }
  - { offsetInCU: 0x2CCCBD, offset: 0x2CCCBD, size: 0x8, addend: 0x0, symName: _.str.95, symObjAddr: 0x13C500, symBinAddr: 0x100141360, symSize: 0x0 }
  - { offsetInCU: 0x2CCCD0, offset: 0x2CCCD0, size: 0x8, addend: 0x0, symName: _.str.96, symObjAddr: 0x13C540, symBinAddr: 0x1001413A0, symSize: 0x0 }
  - { offsetInCU: 0x2CCCE3, offset: 0x2CCCE3, size: 0x8, addend: 0x0, symName: _.str.97, symObjAddr: 0x13C580, symBinAddr: 0x1001413E0, symSize: 0x0 }
  - { offsetInCU: 0x2CCCF6, offset: 0x2CCCF6, size: 0x8, addend: 0x0, symName: _.str.98, symObjAddr: 0x13C5C0, symBinAddr: 0x100141420, symSize: 0x0 }
  - { offsetInCU: 0x2CCD09, offset: 0x2CCD09, size: 0x8, addend: 0x0, symName: _.str.99, symObjAddr: 0x13C600, symBinAddr: 0x100141460, symSize: 0x0 }
  - { offsetInCU: 0x2CCD1C, offset: 0x2CCD1C, size: 0x8, addend: 0x0, symName: _.str.100, symObjAddr: 0x13C640, symBinAddr: 0x1001414A0, symSize: 0x0 }
  - { offsetInCU: 0x2CCD2F, offset: 0x2CCD2F, size: 0x8, addend: 0x0, symName: _.str.101, symObjAddr: 0x13C680, symBinAddr: 0x1001414E0, symSize: 0x0 }
  - { offsetInCU: 0x2CCD42, offset: 0x2CCD42, size: 0x8, addend: 0x0, symName: _.str.102, symObjAddr: 0x13C6C0, symBinAddr: 0x100141520, symSize: 0x0 }
  - { offsetInCU: 0x2CCD55, offset: 0x2CCD55, size: 0x8, addend: 0x0, symName: _.str.103, symObjAddr: 0x13C700, symBinAddr: 0x100141560, symSize: 0x0 }
  - { offsetInCU: 0x2CCD68, offset: 0x2CCD68, size: 0x8, addend: 0x0, symName: _.str.104, symObjAddr: 0x13C740, symBinAddr: 0x1001415A0, symSize: 0x0 }
  - { offsetInCU: 0x2CCD7B, offset: 0x2CCD7B, size: 0x8, addend: 0x0, symName: _.str.105, symObjAddr: 0x13C780, symBinAddr: 0x1001415E0, symSize: 0x0 }
  - { offsetInCU: 0x2CCD8E, offset: 0x2CCD8E, size: 0x8, addend: 0x0, symName: _.str.106, symObjAddr: 0x13C7C0, symBinAddr: 0x100141620, symSize: 0x0 }
  - { offsetInCU: 0x2CCDA1, offset: 0x2CCDA1, size: 0x8, addend: 0x0, symName: _.str.107, symObjAddr: 0x13C800, symBinAddr: 0x100141660, symSize: 0x0 }
  - { offsetInCU: 0x2CCDB4, offset: 0x2CCDB4, size: 0x8, addend: 0x0, symName: _.str.108, symObjAddr: 0x13C840, symBinAddr: 0x1001416A0, symSize: 0x0 }
  - { offsetInCU: 0x2CCDC7, offset: 0x2CCDC7, size: 0x8, addend: 0x0, symName: _.str.109, symObjAddr: 0x13C880, symBinAddr: 0x1001416E0, symSize: 0x0 }
  - { offsetInCU: 0x2CCDDA, offset: 0x2CCDDA, size: 0x8, addend: 0x0, symName: _.str.110, symObjAddr: 0x13C8C0, symBinAddr: 0x100141720, symSize: 0x0 }
  - { offsetInCU: 0x2CCDED, offset: 0x2CCDED, size: 0x8, addend: 0x0, symName: _.str.111, symObjAddr: 0x13C900, symBinAddr: 0x100141760, symSize: 0x0 }
  - { offsetInCU: 0x2CCE00, offset: 0x2CCE00, size: 0x8, addend: 0x0, symName: _.str.112, symObjAddr: 0x13C940, symBinAddr: 0x1001417A0, symSize: 0x0 }
  - { offsetInCU: 0x2CCE13, offset: 0x2CCE13, size: 0x8, addend: 0x0, symName: _.str.113, symObjAddr: 0x13C980, symBinAddr: 0x1001417E0, symSize: 0x0 }
  - { offsetInCU: 0x2CCE26, offset: 0x2CCE26, size: 0x8, addend: 0x0, symName: _.str.114, symObjAddr: 0x13C9C0, symBinAddr: 0x100141820, symSize: 0x0 }
  - { offsetInCU: 0x2CCE39, offset: 0x2CCE39, size: 0x8, addend: 0x0, symName: _.str.115, symObjAddr: 0x13CA00, symBinAddr: 0x100141860, symSize: 0x0 }
  - { offsetInCU: 0x2CCE4C, offset: 0x2CCE4C, size: 0x8, addend: 0x0, symName: _.str.116, symObjAddr: 0x13CA40, symBinAddr: 0x1001418A0, symSize: 0x0 }
  - { offsetInCU: 0x2CCE5F, offset: 0x2CCE5F, size: 0x8, addend: 0x0, symName: _.str.117, symObjAddr: 0x13CA80, symBinAddr: 0x1001418E0, symSize: 0x0 }
  - { offsetInCU: 0x2CCE72, offset: 0x2CCE72, size: 0x8, addend: 0x0, symName: _.str.118, symObjAddr: 0x13CAC0, symBinAddr: 0x100141920, symSize: 0x0 }
  - { offsetInCU: 0x2CCE85, offset: 0x2CCE85, size: 0x8, addend: 0x0, symName: _.str.119, symObjAddr: 0x13CB00, symBinAddr: 0x100141960, symSize: 0x0 }
  - { offsetInCU: 0x2CCE98, offset: 0x2CCE98, size: 0x8, addend: 0x0, symName: _.str.120, symObjAddr: 0x13CB40, symBinAddr: 0x1001419A0, symSize: 0x0 }
  - { offsetInCU: 0x2CCEAB, offset: 0x2CCEAB, size: 0x8, addend: 0x0, symName: _.str.121, symObjAddr: 0x13CB80, symBinAddr: 0x1001419E0, symSize: 0x0 }
  - { offsetInCU: 0x2CCEBE, offset: 0x2CCEBE, size: 0x8, addend: 0x0, symName: _.str.122, symObjAddr: 0x13CBE0, symBinAddr: 0x100141A40, symSize: 0x0 }
  - { offsetInCU: 0x2CCED1, offset: 0x2CCED1, size: 0x8, addend: 0x0, symName: _.str.123, symObjAddr: 0x13CC40, symBinAddr: 0x100141AA0, symSize: 0x0 }
  - { offsetInCU: 0x2CCEE4, offset: 0x2CCEE4, size: 0x8, addend: 0x0, symName: _.str.124, symObjAddr: 0x13CCA0, symBinAddr: 0x100141B00, symSize: 0x0 }
  - { offsetInCU: 0x2CCEF7, offset: 0x2CCEF7, size: 0x8, addend: 0x0, symName: _.str.125, symObjAddr: 0x13CD00, symBinAddr: 0x100141B60, symSize: 0x0 }
  - { offsetInCU: 0x2CCF0A, offset: 0x2CCF0A, size: 0x8, addend: 0x0, symName: _.str.126, symObjAddr: 0x13CD60, symBinAddr: 0x100141BC0, symSize: 0x0 }
  - { offsetInCU: 0x2CCF1D, offset: 0x2CCF1D, size: 0x8, addend: 0x0, symName: _.str.127, symObjAddr: 0x13CDC0, symBinAddr: 0x100141C20, symSize: 0x0 }
  - { offsetInCU: 0x2CCF30, offset: 0x2CCF30, size: 0x8, addend: 0x0, symName: _.str.128, symObjAddr: 0x13CE20, symBinAddr: 0x100141C80, symSize: 0x0 }
  - { offsetInCU: 0x2CCF43, offset: 0x2CCF43, size: 0x8, addend: 0x0, symName: _.str.129, symObjAddr: 0x13CE80, symBinAddr: 0x100141CE0, symSize: 0x0 }
  - { offsetInCU: 0x2CCF56, offset: 0x2CCF56, size: 0x8, addend: 0x0, symName: _.str.130, symObjAddr: 0x13CEE0, symBinAddr: 0x100141D40, symSize: 0x0 }
  - { offsetInCU: 0x2CCF69, offset: 0x2CCF69, size: 0x8, addend: 0x0, symName: _.str.131, symObjAddr: 0x13CF40, symBinAddr: 0x100141DA0, symSize: 0x0 }
  - { offsetInCU: 0x2CCFD7, offset: 0x2CCFD7, size: 0x8, addend: 0x0, symName: _.str.136, symObjAddr: 0x13CFA0, symBinAddr: 0x100141E00, symSize: 0x0 }
  - { offsetInCU: 0x2CCFF8, offset: 0x2CCFF8, size: 0x8, addend: 0x0, symName: _.str.137, symObjAddr: 0x13CFC0, symBinAddr: 0x100141E20, symSize: 0x0 }
  - { offsetInCU: 0x2CD00A, offset: 0x2CD00A, size: 0x8, addend: 0x0, symName: _.str.138, symObjAddr: 0x13CFE0, symBinAddr: 0x100141E40, symSize: 0x0 }
  - { offsetInCU: 0x2CD02A, offset: 0x2CD02A, size: 0x8, addend: 0x0, symName: _.str.139, symObjAddr: 0x13D040, symBinAddr: 0x100141EA0, symSize: 0x0 }
  - { offsetInCU: 0x2CD04A, offset: 0x2CD04A, size: 0x8, addend: 0x0, symName: _.str.145, symObjAddr: 0x13D060, symBinAddr: 0x100141EC0, symSize: 0x0 }
  - { offsetInCU: 0x2CD06B, offset: 0x2CD06B, size: 0x8, addend: 0x0, symName: ___func__._ZN5Eigen8internal17resize_if_allowedINS_6MatrixIfLin1ELin1ELi0ELin1ELin1EEES3_ffEEvRT_RKT0_RKNS0_9assign_opIT1_T2_EE, symObjAddr: 0x13D080, symBinAddr: 0x100141EE0, symSize: 0x0 }
  - { offsetInCU: 0x2CD08C, offset: 0x2CD08C, size: 0x8, addend: 0x0, symName: _.str.147, symObjAddr: 0x13D0C0, symBinAddr: 0x100141F20, symSize: 0x0 }
  - { offsetInCU: 0x2CD09F, offset: 0x2CD09F, size: 0x8, addend: 0x0, symName: _.str.148, symObjAddr: 0x13D100, symBinAddr: 0x100141F60, symSize: 0x0 }
  - { offsetInCU: 0x2CD0C0, offset: 0x2CD0C0, size: 0x8, addend: 0x0, symName: ___func__._ZN5Eigen15PlainObjectBaseINS_6MatrixIfLin1ELin1ELi0ELin1ELin1EEEE6resizeEll, symObjAddr: 0x13D160, symBinAddr: 0x100141FC0, symSize: 0x0 }
  - { offsetInCU: 0x2CD0D3, offset: 0x2CD0D3, size: 0x8, addend: 0x0, symName: _.str.150, symObjAddr: 0x13D180, symBinAddr: 0x100141FE0, symSize: 0x0 }
  - { offsetInCU: 0x2CD0E6, offset: 0x2CD0E6, size: 0x8, addend: 0x0, symName: _.str.151, symObjAddr: 0x13D1C0, symBinAddr: 0x100142020, symSize: 0x0 }
  - { offsetInCU: 0x2CD107, offset: 0x2CD107, size: 0x8, addend: 0x0, symName: ___func__._ZN5Eigen8internal14aligned_mallocEm, symObjAddr: 0x13D3C0, symBinAddr: 0x100142220, symSize: 0x0 }
  - { offsetInCU: 0x2CD127, offset: 0x2CD127, size: 0x8, addend: 0x0, symName: _.str.153, symObjAddr: 0x13D3E0, symBinAddr: 0x100142240, symSize: 0x0 }
  - { offsetInCU: 0x2CD139, offset: 0x2CD139, size: 0x8, addend: 0x0, symName: _.str.154, symObjAddr: 0x13D400, symBinAddr: 0x100142260, symSize: 0x0 }
  - { offsetInCU: 0x2CD15A, offset: 0x2CD15A, size: 0x8, addend: 0x0, symName: _.str.155, symObjAddr: 0x13D4E0, symBinAddr: 0x100142340, symSize: 0x0 }
  - { offsetInCU: 0x2CD187, offset: 0x2CD187, size: 0x8, addend: 0x0, symName: _.str.156, symObjAddr: 0x13D5A0, symBinAddr: 0x100142400, symSize: 0x0 }
  - { offsetInCU: 0x2CD199, offset: 0x2CD199, size: 0x8, addend: 0x0, symName: ___func__._ZN5Eigen5BlockINS_6MatrixIfLin1ELin1ELi0ELin1ELin1EEELi1ELin1ELb0EEC2ERS2_l, symObjAddr: 0x13D5C0, symBinAddr: 0x100142420, symSize: 0x0 }
  - { offsetInCU: 0x2CD1AB, offset: 0x2CD1AB, size: 0x8, addend: 0x0, symName: _.str.157, symObjAddr: 0x13D5E0, symBinAddr: 0x100142440, symSize: 0x0 }
  - { offsetInCU: 0x2CD1BD, offset: 0x2CD1BD, size: 0x8, addend: 0x0, symName: _.str.158, symObjAddr: 0x13D600, symBinAddr: 0x100142460, symSize: 0x0 }
  - { offsetInCU: 0x2CD1DD, offset: 0x2CD1DD, size: 0x8, addend: 0x0, symName: ___func__._ZN5Eigen7MapBaseINS_5BlockINS_6MatrixIfLin1ELin1ELi0ELin1ELin1EEELi1ELin1ELb0EEELi0EEC2EPfll, symObjAddr: 0x13D6E0, symBinAddr: 0x100142540, symSize: 0x0 }
  - { offsetInCU: 0x2CD1EF, offset: 0x2CD1EF, size: 0x8, addend: 0x0, symName: _.str.159, symObjAddr: 0x13D700, symBinAddr: 0x100142560, symSize: 0x0 }
  - { offsetInCU: 0x2CD201, offset: 0x2CD201, size: 0x8, addend: 0x0, symName: _.str.160, symObjAddr: 0x13D720, symBinAddr: 0x100142580, symSize: 0x0 }
  - { offsetInCU: 0x2CD221, offset: 0x2CD221, size: 0x8, addend: 0x0, symName: ___func__._ZN5Eigen8internal19variable_if_dynamicIlLi1EEC2El, symObjAddr: 0x13D800, symBinAddr: 0x100142660, symSize: 0x0 }
  - { offsetInCU: 0x2CD233, offset: 0x2CD233, size: 0x8, addend: 0x0, symName: _.str.161, symObjAddr: 0x13D840, symBinAddr: 0x1001426A0, symSize: 0x0 }
  - { offsetInCU: 0x2CD253, offset: 0x2CD253, size: 0x8, addend: 0x0, symName: _.str.162, symObjAddr: 0x13D860, symBinAddr: 0x1001426C0, symSize: 0x0 }
  - { offsetInCU: 0x2CD271, offset: 0x2CD271, size: 0x8, addend: 0x0, symName: __ZN5Board14__num_featuresE, symObjAddr: 0x13F7F4, symBinAddr: 0x10015C2D4, symSize: 0x0 }
  - { offsetInCU: 0x2CD285, offset: 0x2CD285, size: 0x8, addend: 0x0, symName: __ZN5Board11action_sizeE, symObjAddr: 0x13F7F8, symBinAddr: 0x10015C2D8, symSize: 0x0 }
  - { offsetInCU: 0x2CD29C, offset: 0x2CD29C, size: 0x8, addend: 0x0, symName: _.str.166, symObjAddr: 0x13D880, symBinAddr: 0x1001426E0, symSize: 0x0 }
  - { offsetInCU: 0x2CD2AE, offset: 0x2CD2AE, size: 0x8, addend: 0x0, symName: ___func__._ZN5Eigen14CwiseNullaryOpINS_8internal18scalar_constant_opIfEENS_6MatrixIfLin1ELi1ELi0ELin1ELi1EEEEC2EllRKS3_, symObjAddr: 0x13D8A0, symBinAddr: 0x100142700, symSize: 0x0 }
  - { offsetInCU: 0x2CD2C0, offset: 0x2CD2C0, size: 0x8, addend: 0x0, symName: _.str.167, symObjAddr: 0x13D8C0, symBinAddr: 0x100142720, symSize: 0x0 }
  - { offsetInCU: 0x2CD2D2, offset: 0x2CD2D2, size: 0x8, addend: 0x0, symName: _.str.168, symObjAddr: 0x13D900, symBinAddr: 0x100142760, symSize: 0x0 }
  - { offsetInCU: 0x2CD2F3, offset: 0x2CD2F3, size: 0x8, addend: 0x0, symName: _.str.169, symObjAddr: 0x13D9C0, symBinAddr: 0x100142820, symSize: 0x0 }
  - { offsetInCU: 0x2CD314, offset: 0x2CD314, size: 0x8, addend: 0x0, symName: _.str.170, symObjAddr: 0x13D9E0, symBinAddr: 0x100142840, symSize: 0x0 }
  - { offsetInCU: 0x2CD327, offset: 0x2CD327, size: 0x8, addend: 0x0, symName: _.str.171, symObjAddr: 0x13DA00, symBinAddr: 0x100142860, symSize: 0x0 }
  - { offsetInCU: 0x2CD33A, offset: 0x2CD33A, size: 0x8, addend: 0x0, symName: _.str.172, symObjAddr: 0x13DA20, symBinAddr: 0x100142880, symSize: 0x0 }
  - { offsetInCU: 0x2CD34D, offset: 0x2CD34D, size: 0x8, addend: 0x0, symName: _.str.173, symObjAddr: 0x13DA40, symBinAddr: 0x1001428A0, symSize: 0x0 }
  - { offsetInCU: 0x2CD36D, offset: 0x2CD36D, size: 0x8, addend: 0x0, symName: _.str.174, symObjAddr: 0x13DA80, symBinAddr: 0x1001428E0, symSize: 0x0 }
  - { offsetInCU: 0x2CD37F, offset: 0x2CD37F, size: 0x8, addend: 0x0, symName: _.str.175, symObjAddr: 0x13DAC0, symBinAddr: 0x100142920, symSize: 0x0 }
  - { offsetInCU: 0x2CD39F, offset: 0x2CD39F, size: 0x8, addend: 0x0, symName: _.str.176, symObjAddr: 0x13DB00, symBinAddr: 0x100142960, symSize: 0x0 }
  - { offsetInCU: 0x2CD3B1, offset: 0x2CD3B1, size: 0x8, addend: 0x0, symName: _.str.177, symObjAddr: 0x13DB60, symBinAddr: 0x1001429C0, symSize: 0x0 }
  - { offsetInCU: 0x2CD3D1, offset: 0x2CD3D1, size: 0x8, addend: 0x0, symName: _.str.178, symObjAddr: 0x13DBA0, symBinAddr: 0x100142A00, symSize: 0x0 }
  - { offsetInCU: 0x2CD3E3, offset: 0x2CD3E3, size: 0x8, addend: 0x0, symName: _.str.179, symObjAddr: 0x13DBE0, symBinAddr: 0x100142A40, symSize: 0x0 }
  - { offsetInCU: 0x2CD403, offset: 0x2CD403, size: 0x8, addend: 0x0, symName: _.str.180, symObjAddr: 0x13DC40, symBinAddr: 0x100142AA0, symSize: 0x0 }
  - { offsetInCU: 0x2CD423, offset: 0x2CD423, size: 0x8, addend: 0x0, symName: _.str.181, symObjAddr: 0x13DCA0, symBinAddr: 0x100142B00, symSize: 0x0 }
  - { offsetInCU: 0x2CD443, offset: 0x2CD443, size: 0x8, addend: 0x0, symName: _.str.182, symObjAddr: 0x13DD00, symBinAddr: 0x100142B60, symSize: 0x0 }
  - { offsetInCU: 0x2CD455, offset: 0x2CD455, size: 0x8, addend: 0x0, symName: _.str.183, symObjAddr: 0x13DD40, symBinAddr: 0x100142BA0, symSize: 0x0 }
  - { offsetInCU: 0x2CD475, offset: 0x2CD475, size: 0x8, addend: 0x0, symName: _.str.184, symObjAddr: 0x13DDA0, symBinAddr: 0x100142C00, symSize: 0x0 }
  - { offsetInCU: 0x2CD487, offset: 0x2CD487, size: 0x8, addend: 0x0, symName: _.str.185, symObjAddr: 0x13DE00, symBinAddr: 0x100142C60, symSize: 0x0 }
  - { offsetInCU: 0x2CD49A, offset: 0x2CD49A, size: 0x8, addend: 0x0, symName: _.str.186, symObjAddr: 0x13DE60, symBinAddr: 0x100142CC0, symSize: 0x0 }
  - { offsetInCU: 0x2CD4AD, offset: 0x2CD4AD, size: 0x8, addend: 0x0, symName: _.str.187, symObjAddr: 0x13DE80, symBinAddr: 0x100142CE0, symSize: 0x0 }
  - { offsetInCU: 0x2CD4DB, offset: 0x2CD4DB, size: 0x8, addend: 0x0, symName: ___func__._ZN5Eigen13CwiseBinaryOpINS_8internal17scalar_product_opIffEEKNS_6MatrixIfLin1ELi1ELi0ELin1ELi1EEEKNS_14CwiseNullaryOpINS1_18scalar_constant_opIfEES6_EEEC2ERS6_RSB_RKS3_, symObjAddr: 0x13DEA0, symBinAddr: 0x100142D00, symSize: 0x0 }
  - { offsetInCU: 0x2CD4ED, offset: 0x2CD4ED, size: 0x8, addend: 0x0, symName: _.str.189, symObjAddr: 0x13DEC0, symBinAddr: 0x100142D20, symSize: 0x0 }
  - { offsetInCU: 0x2CD4FF, offset: 0x2CD4FF, size: 0x8, addend: 0x0, symName: _.str.190, symObjAddr: 0x13DEE0, symBinAddr: 0x100142D40, symSize: 0x0 }
  - { offsetInCU: 0x2CD520, offset: 0x2CD520, size: 0x8, addend: 0x0, symName: ___func__._ZN5Eigen15DenseCoeffsBaseINS_6MatrixIfLin1ELi1ELi0ELin1ELi1EEELi1EEixEl, symObjAddr: 0x13DF40, symBinAddr: 0x100142DA0, symSize: 0x0 }
  - { offsetInCU: 0x2CD533, offset: 0x2CD533, size: 0x8, addend: 0x0, symName: _.str.191, symObjAddr: 0x13DF60, symBinAddr: 0x100142DC0, symSize: 0x0 }
  - { offsetInCU: 0x2CD546, offset: 0x2CD546, size: 0x8, addend: 0x0, symName: _.str.192, symObjAddr: 0x13DFA0, symBinAddr: 0x100142E00, symSize: 0x0 }
  - { offsetInCU: 0x2CD558, offset: 0x2CD558, size: 0x8, addend: 0x0, symName: ___func__._ZNK5Eigen10MatrixBaseINS_6MatrixIfLin1ELi1ELi0ELin1ELi1EEEE3dotIS2_EENS_20ScalarBinaryOpTraitsIfNS_8internal6traitsIT_E6ScalarENS6_17scalar_product_opIfSA_EEE10ReturnTypeERKNS0_IS8_EE, symObjAddr: 0x13DFE0, symBinAddr: 0x100142E40, symSize: 0x0 }
  - { offsetInCU: 0x2CD56A, offset: 0x2CD56A, size: 0x8, addend: 0x0, symName: _.str.193, symObjAddr: 0x13E000, symBinAddr: 0x100142E60, symSize: 0x0 }
  - { offsetInCU: 0x2CD57C, offset: 0x2CD57C, size: 0x8, addend: 0x0, symName: _.str.194, symObjAddr: 0x13E020, symBinAddr: 0x100142E80, symSize: 0x0 }
  - { offsetInCU: 0x2CD58F, offset: 0x2CD58F, size: 0x8, addend: 0x0, symName: ___func__._ZNK5Eigen9DenseBaseINS_13CwiseBinaryOpINS_8internal22scalar_conj_product_opIffEEKNS_6MatrixIfLin1ELi1ELi0ELin1ELi1EEES7_EEE5reduxINS2_13scalar_sum_opIffEEEEfRKT_, symObjAddr: 0x13E060, symBinAddr: 0x100142EC0, symSize: 0x0 }
  - { offsetInCU: 0x2CD5A2, offset: 0x2CD5A2, size: 0x8, addend: 0x0, symName: _.str.196, symObjAddr: 0x13E080, symBinAddr: 0x100142EE0, symSize: 0x0 }
  - { offsetInCU: 0x2CD5B5, offset: 0x2CD5B5, size: 0x8, addend: 0x0, symName: _.str.197, symObjAddr: 0x13E0A0, symBinAddr: 0x100142F00, symSize: 0x0 }
  - { offsetInCU: 0x2CD5D5, offset: 0x2CD5D5, size: 0x8, addend: 0x0, symName: _.str.198, symObjAddr: 0x13E120, symBinAddr: 0x100142F80, symSize: 0x0 }
  - { offsetInCU: 0x2CD5F5, offset: 0x2CD5F5, size: 0x8, addend: 0x0, symName: _.str.199, symObjAddr: 0x13E160, symBinAddr: 0x100142FC0, symSize: 0x0 }
  - { offsetInCU: 0x2CD607, offset: 0x2CD607, size: 0x8, addend: 0x0, symName: _.str.200, symObjAddr: 0x13E1A0, symBinAddr: 0x100143000, symSize: 0x0 }
  - { offsetInCU: 0x2CD61A, offset: 0x2CD61A, size: 0x8, addend: 0x0, symName: _.str.201, symObjAddr: 0x13E220, symBinAddr: 0x100143080, symSize: 0x0 }
  - { offsetInCU: 0x2CD63B, offset: 0x2CD63B, size: 0x8, addend: 0x0, symName: _.str.202, symObjAddr: 0x13E2A0, symBinAddr: 0x100143100, symSize: 0x0 }
  - { offsetInCU: 0x2CD65C, offset: 0x2CD65C, size: 0x8, addend: 0x0, symName: _.str.203, symObjAddr: 0x13E320, symBinAddr: 0x100143180, symSize: 0x0 }
  - { offsetInCU: 0x2CD67D, offset: 0x2CD67D, size: 0x8, addend: 0x0, symName: _.str.205, symObjAddr: 0x13E3A0, symBinAddr: 0x100143200, symSize: 0x0 }
  - { offsetInCU: 0x2CD690, offset: 0x2CD690, size: 0x8, addend: 0x0, symName: _.str.206, symObjAddr: 0x13E3C0, symBinAddr: 0x100143220, symSize: 0x0 }
  - { offsetInCU: 0x2CD6B1, offset: 0x2CD6B1, size: 0x8, addend: 0x0, symName: _.str.210, symObjAddr: 0x13E460, symBinAddr: 0x1001432C0, symSize: 0x0 }
  - { offsetInCU: 0x2CD6D2, offset: 0x2CD6D2, size: 0x8, addend: 0x0, symName: _.str.211, symObjAddr: 0x13E4C0, symBinAddr: 0x100143320, symSize: 0x0 }
  - { offsetInCU: 0x2CD6E4, offset: 0x2CD6E4, size: 0x8, addend: 0x0, symName: _.str.212, symObjAddr: 0x13E520, symBinAddr: 0x100143380, symSize: 0x0 }
  - { offsetInCU: 0x2CD704, offset: 0x2CD704, size: 0x8, addend: 0x0, symName: _.str.213, symObjAddr: 0x13E580, symBinAddr: 0x1001433E0, symSize: 0x0 }
  - { offsetInCU: 0x2CD724, offset: 0x2CD724, size: 0x8, addend: 0x0, symName: ___func__._ZN5Eigen7ProductINS_9TransposeIKNS_5BlockIKNS_6MatrixIfLin1ELin1ELi0ELin1ELin1EEELin1ELin1ELb1EEEEENS3_IfLin1ELi1ELi0ELin1ELi1EEELi0EEC2ERKS8_RKS9_, symObjAddr: 0x13E640, symBinAddr: 0x1001434A0, symSize: 0x0 }
  - { offsetInCU: 0x2CD736, offset: 0x2CD736, size: 0x8, addend: 0x0, symName: _.str.215, symObjAddr: 0x13E660, symBinAddr: 0x1001434C0, symSize: 0x0 }
  - { offsetInCU: 0x2CD748, offset: 0x2CD748, size: 0x8, addend: 0x0, symName: _.str.216, symObjAddr: 0x13E680, symBinAddr: 0x1001434E0, symSize: 0x0 }
  - { offsetInCU: 0x2CD768, offset: 0x2CD768, size: 0x8, addend: 0x0, symName: ___func__._ZN5Eigen8internal16blas_data_mapperIKflLi1ELi0ELi1EEC2EPS2_ll, symObjAddr: 0x13E740, symBinAddr: 0x1001435A0, symSize: 0x0 }
  - { offsetInCU: 0x2CD77A, offset: 0x2CD77A, size: 0x8, addend: 0x0, symName: _.str.218, symObjAddr: 0x13E780, symBinAddr: 0x1001435E0, symSize: 0x0 }
  - { offsetInCU: 0x2CD78C, offset: 0x2CD78C, size: 0x8, addend: 0x0, symName: _.str.219, symObjAddr: 0x13E7A0, symBinAddr: 0x100143600, symSize: 0x0 }
  - { offsetInCU: 0x2CD79F, offset: 0x2CD79F, size: 0x8, addend: 0x0, symName: _.str.220, symObjAddr: 0x13E7C0, symBinAddr: 0x100143620, symSize: 0x0 }
  - { offsetInCU: 0x2CD7BF, offset: 0x2CD7BF, size: 0x8, addend: 0x0, symName: _.str.221, symObjAddr: 0x13E820, symBinAddr: 0x100143680, symSize: 0x0 }
  - { offsetInCU: 0x2CD7D1, offset: 0x2CD7D1, size: 0x8, addend: 0x0, symName: ___func__._ZNK5Eigen15DenseCoeffsBaseINS_6MatrixIfLin1ELin1ELi0ELin1ELin1EEELi0EEclEll, symObjAddr: 0x13E840, symBinAddr: 0x1001436A0, symSize: 0x0 }
  - { offsetInCU: 0x2CD7E3, offset: 0x2CD7E3, size: 0x8, addend: 0x0, symName: _.str.224, symObjAddr: 0x13E860, symBinAddr: 0x1001436C0, symSize: 0x0 }
  - { offsetInCU: 0x2CD7F5, offset: 0x2CD7F5, size: 0x8, addend: 0x0, symName: ___func__._ZN5Eigen8DiagonalINS_6MatrixIfLin1ELin1ELi0ELin1ELin1EEELi0EEC2ERS2_l, symObjAddr: 0x13E8C0, symBinAddr: 0x100143720, symSize: 0x0 }
  - { offsetInCU: 0x2CD807, offset: 0x2CD807, size: 0x8, addend: 0x0, symName: _.str.225, symObjAddr: 0x13E8E0, symBinAddr: 0x100143740, symSize: 0x0 }
  - { offsetInCU: 0x2CD819, offset: 0x2CD819, size: 0x8, addend: 0x0, symName: _.str.226, symObjAddr: 0x13E900, symBinAddr: 0x100143760, symSize: 0x0 }
  - { offsetInCU: 0x2CD848, offset: 0x2CD848, size: 0x8, addend: 0x0, symName: ___func__._ZN5Eigen8internal27checkTransposeAliasing_implINS_5BlockINS_6MatrixIfLin1ELin1ELi0ELin1ELin1EEELin1ELin1ELb0EEENS_9TransposeINS3_IfLin1ELi1ELi0ELin1ELi1EEEEELb1EE3runERKS5_RKS8_, symObjAddr: 0x13E960, symBinAddr: 0x1001437C0, symSize: 0x0 }
  - { offsetInCU: 0x2CD85B, offset: 0x2CD85B, size: 0x8, addend: 0x0, symName: _.str.230, symObjAddr: 0x13E980, symBinAddr: 0x1001437E0, symSize: 0x0 }
  - { offsetInCU: 0x2CD86D, offset: 0x2CD86D, size: 0x8, addend: 0x0, symName: _.str.231, symObjAddr: 0x13E9C0, symBinAddr: 0x100143820, symSize: 0x0 }
  - { offsetInCU: 0x2CD88D, offset: 0x2CD88D, size: 0x8, addend: 0x0, symName: _.str.232, symObjAddr: 0x13EA20, symBinAddr: 0x100143880, symSize: 0x0 }
  - { offsetInCU: 0x2CD8A0, offset: 0x2CD8A0, size: 0x8, addend: 0x0, symName: ___func__._ZN5Eigen8internal20generic_product_implINS_9TransposeIKNS_5BlockIKNS_6MatrixIfLin1ELin1ELi0ELin1ELin1EEELin1ELin1ELb1EEEEES7_NS_10DenseShapeESA_Li8EE13scaleAndAddToINS3_IS5_Lin1ELin1ELb0EEEEEvRT_RKS9_RS8_RKf, symObjAddr: 0x13EA60, symBinAddr: 0x1001438C0, symSize: 0x0 }
  - { offsetInCU: 0x2CD8B3, offset: 0x2CD8B3, size: 0x8, addend: 0x0, symName: _.str.233, symObjAddr: 0x13EA80, symBinAddr: 0x1001438E0, symSize: 0x0 }
  - { offsetInCU: 0x2CD8C6, offset: 0x2CD8C6, size: 0x8, addend: 0x0, symName: _.str.234, symObjAddr: 0x13EAC0, symBinAddr: 0x100143920, symSize: 0x0 }
  - { offsetInCU: 0x2CD8EB, offset: 0x2CD8EB, size: 0x8, addend: 0x0, symName: _.str.235, symObjAddr: 0x13EB20, symBinAddr: 0x100143980, symSize: 0x0 }
  - { offsetInCU: 0x2CD8FE, offset: 0x2CD8FE, size: 0x8, addend: 0x0, symName: _.str.236, symObjAddr: 0x13EB60, symBinAddr: 0x1001439C0, symSize: 0x0 }
  - { offsetInCU: 0x2CD91E, offset: 0x2CD91E, size: 0x8, addend: 0x0, symName: ___func__._ZN5Eigen18LevenbergMarquardtIR5BoardfE12minimizeInitERNS_6MatrixIfLin1ELi1ELi0ELin1ELi1EEE, symObjAddr: 0x13EBE0, symBinAddr: 0x100143A40, symSize: 0x0 }
  - { offsetInCU: 0x2CD930, offset: 0x2CD930, size: 0x8, addend: 0x0, symName: _.str.238, symObjAddr: 0x13EC00, symBinAddr: 0x100143A60, symSize: 0x0 }
  - { offsetInCU: 0x2CD942, offset: 0x2CD942, size: 0x8, addend: 0x0, symName: _.str.239, symObjAddr: 0x13EC40, symBinAddr: 0x100143AA0, symSize: 0x0 }
  - { offsetInCU: 0x2CD962, offset: 0x2CD962, size: 0x8, addend: 0x0, symName: ___func__._ZNK5Eigen7MapBaseINS_3RefIKNS_6MatrixIfLin1ELi1ELi0ELi4096ELi1EEELi16ENS_11InnerStrideILi1EEEEELi0EE11checkSanityIS7_EEvNS_8internal9enable_ifIXgtsr8internal6traitsIT_EE9AlignmentLi0EEPvE4typeE, symObjAddr: 0x13ECE0, symBinAddr: 0x100143B40, symSize: 0x0 }
  - { offsetInCU: 0x2CD974, offset: 0x2CD974, size: 0x8, addend: 0x0, symName: _.str.240, symObjAddr: 0x13ED00, symBinAddr: 0x100143B60, symSize: 0x0 }
  - { offsetInCU: 0x2CD994, offset: 0x2CD994, size: 0x8, addend: 0x0, symName: ___func__._ZN5Eigen18LevenbergMarquardtIR5BoardfE15minimizeOneStepERNS_6MatrixIfLin1ELi1ELi0ELin1ELi1EEE, symObjAddr: 0x13EE00, symBinAddr: 0x100143C60, symSize: 0x0 }
  - { offsetInCU: 0x2CD9A6, offset: 0x2CD9A6, size: 0x8, addend: 0x0, symName: _.str.244, symObjAddr: 0x13EE20, symBinAddr: 0x100143C80, symSize: 0x0 }
  - { offsetInCU: 0x2CD9BF, offset: 0x2CD9BF, size: 0x8, addend: 0x0, symName: ___func__._ZN5Eigen19ColPivHouseholderQRINS_6MatrixIfLin1ELin1ELi0ELin1ELin1EEEE14computeInPlaceEv, symObjAddr: 0x13EE40, symBinAddr: 0x100143CA0, symSize: 0x0 }
  - { offsetInCU: 0x2CD9D2, offset: 0x2CD9D2, size: 0x8, addend: 0x0, symName: _.str.245, symObjAddr: 0x13EE60, symBinAddr: 0x100143CC0, symSize: 0x0 }
  - { offsetInCU: 0x2CD9E5, offset: 0x2CD9E5, size: 0x8, addend: 0x0, symName: _.str.246, symObjAddr: 0x13EEA0, symBinAddr: 0x100143D00, symSize: 0x0 }
  - { offsetInCU: 0x2CD9F8, offset: 0x2CD9F8, size: 0x8, addend: 0x0, symName: ___func__._ZNK5Eigen9DenseBaseINS_5BlockINS_6MatrixIfLi1ELin1ELi1ELi1ELin1EEELi1ELin1ELb0EEEE8maxCoeffILi0ElEEfPT0_, symObjAddr: 0x13EF00, symBinAddr: 0x100143D60, symSize: 0x0 }
  - { offsetInCU: 0x2CDA0B, offset: 0x2CDA0B, size: 0x8, addend: 0x0, symName: _.str.247, symObjAddr: 0x13EF20, symBinAddr: 0x100143D80, symSize: 0x0 }
  - { offsetInCU: 0x2CDA2B, offset: 0x2CDA2B, size: 0x8, addend: 0x0, symName: ___func__._ZN5Eigen15PermutationBaseINS_17PermutationMatrixILin1ELin1EiEEE28applyTranspositionOnTheRightEll, symObjAddr: 0x13EF40, symBinAddr: 0x100143DA0, symSize: 0x0 }
  - { offsetInCU: 0x2CDA3D, offset: 0x2CDA3D, size: 0x8, addend: 0x0, symName: _.str.249, symObjAddr: 0x13EF80, symBinAddr: 0x100143DE0, symSize: 0x0 }
  - { offsetInCU: 0x2CDA4F, offset: 0x2CDA4F, size: 0x8, addend: 0x0, symName: _.str.250, symObjAddr: 0x13EFC0, symBinAddr: 0x100143E20, symSize: 0x0 }
  - { offsetInCU: 0x2CDA61, offset: 0x2CDA61, size: 0x8, addend: 0x0, symName: ___func__._ZNK5Eigen19ColPivHouseholderQRINS_6MatrixIfLin1ELin1ELi0ELin1ELin1EEEE8matrixQREv, symObjAddr: 0x13F020, symBinAddr: 0x100143E80, symSize: 0x0 }
  - { offsetInCU: 0x2CDA73, offset: 0x2CDA73, size: 0x8, addend: 0x0, symName: _.str.252, symObjAddr: 0x13F040, symBinAddr: 0x100143EA0, symSize: 0x0 }
  - { offsetInCU: 0x2CDA93, offset: 0x2CDA93, size: 0x8, addend: 0x0, symName: ___func__._ZNK5Eigen19ColPivHouseholderQRINS_6MatrixIfLin1ELin1ELi0ELin1ELin1EEEE15colsPermutationEv, symObjAddr: 0x13F0A0, symBinAddr: 0x100143F00, symSize: 0x0 }
  - { offsetInCU: 0x2CDAA5, offset: 0x2CDAA5, size: 0x8, addend: 0x0, symName: _.str.255, symObjAddr: 0x13F0C0, symBinAddr: 0x100143F20, symSize: 0x0 }
  - { offsetInCU: 0x2CDAB7, offset: 0x2CDAB7, size: 0x8, addend: 0x0, symName: _.str.256, symObjAddr: 0x13F100, symBinAddr: 0x100143F60, symSize: 0x0 }
  - { offsetInCU: 0x2CDAD7, offset: 0x2CDAD7, size: 0x8, addend: 0x0, symName: ___func__._ZNK5Eigen19HouseholderSequenceINS_6MatrixIfLin1ELin1ELi0ELin1ELin1EEENS1_IfLin1ELi1ELi0ELin1ELi1EEELi1EE15essentialVectorEl, symObjAddr: 0x13F160, symBinAddr: 0x100143FC0, symSize: 0x0 }
  - { offsetInCU: 0x2CDAE9, offset: 0x2CDAE9, size: 0x8, addend: 0x0, symName: _.str.257, symObjAddr: 0x13F180, symBinAddr: 0x100143FE0, symSize: 0x0 }
  - { offsetInCU: 0x2CDAFB, offset: 0x2CDAFB, size: 0x8, addend: 0x0, symName: _.str.258, symObjAddr: 0x13F1C0, symBinAddr: 0x100144020, symSize: 0x0 }
  - { offsetInCU: 0x2CDB0E, offset: 0x2CDB0E, size: 0x8, addend: 0x0, symName: ___func__._ZNK5Eigen19ColPivHouseholderQRINS_6MatrixIfLin1ELin1ELi0ELin1ELin1EEEE12householderQEv, symObjAddr: 0x13F200, symBinAddr: 0x100144060, symSize: 0x0 }
  - { offsetInCU: 0x2CDB20, offset: 0x2CDB20, size: 0x8, addend: 0x0, symName: ___func__._ZN5Eigen8internal6lmpar2IfEEvRKNS_19ColPivHouseholderQRINS_6MatrixIT_Lin1ELin1ELi0ELin1ELin1EEEEERKNS3_IS4_Lin1ELi1ELi0ELin1ELi1EEESB_S4_RS4_RS9_, symObjAddr: 0x13F220, symBinAddr: 0x100144080, symSize: 0x0 }
  - { offsetInCU: 0x2CDB32, offset: 0x2CDB32, size: 0x8, addend: 0x0, symName: _.str.259, symObjAddr: 0x13F240, symBinAddr: 0x1001440A0, symSize: 0x0 }
  - { offsetInCU: 0x2CDB44, offset: 0x2CDB44, size: 0x8, addend: 0x0, symName: _.str.260, symObjAddr: 0x13F260, symBinAddr: 0x1001440C0, symSize: 0x0 }
  - { offsetInCU: 0x2CDB56, offset: 0x2CDB56, size: 0x8, addend: 0x0, symName: _.str.261, symObjAddr: 0x13F280, symBinAddr: 0x1001440E0, symSize: 0x0 }
  - { offsetInCU: 0x2CDB68, offset: 0x2CDB68, size: 0x8, addend: 0x0, symName: ___func__._ZNK5Eigen18TriangularViewImplIKNS_5BlockIKNS_6MatrixIfLin1ELin1ELi0ELin1ELin1EEELin1ELin1ELb0EEELj2ENS_5DenseEE12solveInPlaceILi1ENS1_INS2_IfLin1ELi1ELi0ELin1ELi1EEELin1ELi1ELb0EEEEEvRKNS_10MatrixBaseIT0_EE, symObjAddr: 0x13F2A0, symBinAddr: 0x100144100, symSize: 0x0 }
  - { offsetInCU: 0x2CDB7A, offset: 0x2CDB7A, size: 0x8, addend: 0x0, symName: _.str.263, symObjAddr: 0x13F2C0, symBinAddr: 0x100144120, symSize: 0x0 }
  - { offsetInCU: 0x2CDB8C, offset: 0x2CDB8C, size: 0x8, addend: 0x0, symName: _.str.264, symObjAddr: 0x13F300, symBinAddr: 0x100144160, symSize: 0x0 }
  - { offsetInCU: 0x2CDBA4, offset: 0x2CDBA4, size: 0x8, addend: 0x0, symName: __ZN5Eigen8internal23triangular_solve_vectorIfflLi1ELi2ELb0ELi0EE3runElPKflPf, symObjAddr: 0x106724, symBinAddr: 0x10010AF90, symSize: 0x1450 }
  - { offsetInCU: 0x2CE248, offset: 0x2CE248, size: 0x8, addend: 0x0, symName: __ZN5Eigen8internal23triangular_solve_vectorIfflLi1ELi1ELb0ELi1EE3runElPKflPf, symObjAddr: 0x10B6D8, symBinAddr: 0x10010FF44, symSize: 0xB1C }
  - { offsetInCU: 0x2CE926, offset: 0x2CE926, size: 0x8, addend: 0x0, symName: __ZN5Eigen8internal23triangular_solve_vectorIfflLi1ELi2ELb0ELi1EE3runElPKflPf, symObjAddr: 0x10C448, symBinAddr: 0x100110CB4, symSize: 0xAEC }
  - { offsetInCU: 0x2CF007, offset: 0x2CF007, size: 0x8, addend: 0x0, symName: __ZN5Eigen8internal32triangular_matrix_vector_productIlLi2EfLb0EfLb0ELi0ELi0EE3runEllPKflS4_lPflRS3_, symObjAddr: 0x10DF78, symBinAddr: 0x1001127E4, symSize: 0x13D0 }
  - { offsetInCU: 0x2CF8FB, offset: 0x2CF8FB, size: 0x8, addend: 0x0, symName: _.str.267, symObjAddr: 0x13F3C0, symBinAddr: 0x100144220, symSize: 0x0 }
  - { offsetInCU: 0x2CF90E, offset: 0x2CF90E, size: 0x8, addend: 0x0, symName: _.str.268, symObjAddr: 0x13F3E0, symBinAddr: 0x100144240, symSize: 0x0 }
  - { offsetInCU: 0x2CF921, offset: 0x2CF921, size: 0x8, addend: 0x0, symName: _.str.269, symObjAddr: 0x13F400, symBinAddr: 0x100144260, symSize: 0x0 }
  - { offsetInCU: 0x2CF934, offset: 0x2CF934, size: 0x8, addend: 0x0, symName: _.str.270, symObjAddr: 0x13F420, symBinAddr: 0x100144280, symSize: 0x0 }
  - { offsetInCU: 0x2CF947, offset: 0x2CF947, size: 0x8, addend: 0x0, symName: _.str.271, symObjAddr: 0x13F440, symBinAddr: 0x1001442A0, symSize: 0x0 }
  - { offsetInCU: 0x2CF95A, offset: 0x2CF95A, size: 0x8, addend: 0x0, symName: _.str.272, symObjAddr: 0x13F460, symBinAddr: 0x1001442C0, symSize: 0x0 }
  - { offsetInCU: 0x2CF96D, offset: 0x2CF96D, size: 0x8, addend: 0x0, symName: _.str.273, symObjAddr: 0x13F480, symBinAddr: 0x1001442E0, symSize: 0x0 }
  - { offsetInCU: 0x2CF98E, offset: 0x2CF98E, size: 0x8, addend: 0x0, symName: _.str.274, symObjAddr: 0x13F4A0, symBinAddr: 0x100144300, symSize: 0x0 }
  - { offsetInCU: 0x2CF9A1, offset: 0x2CF9A1, size: 0x8, addend: 0x0, symName: _.str.275, symObjAddr: 0x13F4C0, symBinAddr: 0x100144320, symSize: 0x0 }
  - { offsetInCU: 0x2CF9B4, offset: 0x2CF9B4, size: 0x8, addend: 0x0, symName: _.str.276, symObjAddr: 0x13F4E0, symBinAddr: 0x100144340, symSize: 0x0 }
  - { offsetInCU: 0x2CF9C7, offset: 0x2CF9C7, size: 0x8, addend: 0x0, symName: _.str.277, symObjAddr: 0x13F500, symBinAddr: 0x100144360, symSize: 0x0 }
  - { offsetInCU: 0x2CF9E2, offset: 0x2CF9E2, size: 0x8, addend: 0x0, symName: __ZN5Board8fit_timeE, symObjAddr: 0x13F7F0, symBinAddr: 0x10015C2D0, symSize: 0x0 }
  - { offsetInCU: 0x2D3B16, offset: 0x2D3B16, size: 0x8, addend: 0x0, symName: __ZN5Eigen8internal29general_matrix_vector_productIlfNS0_22const_blas_data_mapperIflLi1EEELi1ELb0EfNS2_IflLi0EEELb0ELi0EE3runEllRKS3_RKS4_Pflf, symObjAddr: 0xA7594, symBinAddr: 0x1000ABE00, symSize: 0x3378 }
  - { offsetInCU: 0x2D724E, offset: 0x2D724E, size: 0x8, addend: 0x0, symName: __ZN5Eigen8internal21dense_assignment_loopINS0_31generic_dense_assignment_kernelINS0_9evaluatorINS_5BlockINS_6MatrixIfLin1ELin1ELi0ELin1ELin1EEELin1ELin1ELb0EEEEENS3_INS5_IfLin1ELi1ELi0ELin1ELi1EEEEENS0_9assign_opIffEELi0EEELi4ELi0EE3runERSD_, symObjAddr: 0xB2470, symBinAddr: 0x1000B6CDC, symSize: 0xF54 }
  - { offsetInCU: 0x2D7902, offset: 0x2D7902, size: 0x8, addend: 0x0, symName: __ZN5Eigen8internal21dense_assignment_loopINS0_31generic_dense_assignment_kernelINS0_9evaluatorINS_5BlockINS_6MatrixIfLin1ELin1ELi0ELin1ELin1EEELin1ELin1ELb0EEEEENS3_INS_14CwiseNullaryOpINS0_18scalar_constant_opIfEES6_EEEENS0_9assign_opIffEELi0EEELi4ELi0EE3runERSG_, symObjAddr: 0xB33C4, symBinAddr: 0x1000B7C30, symSize: 0xB00 }
  - { offsetInCU: 0x2D80DA, offset: 0x2D80DA, size: 0x8, addend: 0x0, symName: __ZN5Eigen8internal21dense_assignment_loopINS0_31generic_dense_assignment_kernelINS0_9evaluatorINS_5BlockINS_6MatrixIfLin1ELin1ELi0ELin1ELin1EEELin1ELin1ELb0EEEEENS3_INS_14CwiseNullaryOpINS0_18scalar_constant_opIfEES6_EEEENS0_13mul_assign_opIffEELi0EEELi4ELi0EE3runERSG_, symObjAddr: 0xB3EC4, symBinAddr: 0x1000B8730, symSize: 0xBD4 }
  - { offsetInCU: 0x2DA33D, offset: 0x2DA33D, size: 0x8, addend: 0x0, symName: __ZN5Eigen8internal21dense_assignment_loopINS0_31generic_dense_assignment_kernelINS0_9evaluatorINS_5BlockINS_6MatrixIfLin1ELin1ELi0ELin1ELin1EEELin1ELin1ELb0EEEEENS3_INS_14CwiseNullaryOpINS0_18scalar_constant_opIfEES6_EEEENS0_13div_assign_opIffEELi0EEELi4ELi0EE3runERSG_, symObjAddr: 0xBD128, symBinAddr: 0x1000C1994, symSize: 0xBD4 }
  - { offsetInCU: 0x2DAB0C, offset: 0x2DAB0C, size: 0x8, addend: 0x0, symName: __ZN5Eigen8internal29general_matrix_vector_productIlfNS0_22const_blas_data_mapperIflLi0EEELi0ELb0EfNS2_IflLi1EEELb0ELi0EE3runEllRKS3_RKS4_Pflf, symObjAddr: 0xC99DC, symBinAddr: 0x1000CE248, symSize: 0x2390 }
  - { offsetInCU: 0x2DE3FC, offset: 0x2DE3FC, size: 0x8, addend: 0x0, symName: __ZN5Eigen8internal21dense_assignment_loopINS0_31generic_dense_assignment_kernelINS0_9evaluatorINS_5BlockINS_6MatrixIfLin1ELin1ELi0ELin1ELin1EEELin1ELin1ELb0EEEEENS3_INS4_IKS6_Lin1ELin1ELb0EEEEENS0_9assign_opIffEELi0EEELi4ELi0EE3runERSE_, symObjAddr: 0xCEB50, symBinAddr: 0x1000D33BC, symSize: 0x107C }
  - { offsetInCU: 0x2DEB05, offset: 0x2DEB05, size: 0x8, addend: 0x0, symName: __ZN5Eigen8internal13gemm_pack_lhsIflNS0_22const_blas_data_mapperIflLi1EEELi12ELi4E19__simd128_float32_tLi1ELb0ELb0EEclEPfRKS3_llll, symObjAddr: 0xD4018, symBinAddr: 0x1000D8884, symSize: 0x1524 }
  - { offsetInCU: 0x2DEF35, offset: 0x2DEF35, size: 0x8, addend: 0x0, symName: __ZN5Eigen8internal11gebp_kernelIfflNS0_16blas_data_mapperIflLi0ELi0ELi1EEELi12ELi4ELb0ELb0EEclERKS3_PKfS8_lllfllll, symObjAddr: 0xD64EC, symBinAddr: 0x1000DAD58, symSize: 0x5DA0 }
  - { offsetInCU: 0x2E5008, offset: 0x2E5008, size: 0x8, addend: 0x0, symName: __ZN5Eigen8internal21dense_assignment_loopINS0_31generic_dense_assignment_kernelINS0_9evaluatorINS_5BlockINS_6MatrixIfLin1ELin1ELi0ELin1ELin1EEELin1ELin1ELb0EEEEENS3_INS_13CwiseBinaryOpINS0_18scalar_quotient_opIffEEKNS9_INS0_20scalar_difference_opIffEEKNS5_IfLin1ELi1ELi0ELin1ELi1EEESF_EEKNS_14CwiseNullaryOpINS0_18scalar_constant_opIfEESF_EEEEEENS0_9assign_opIffEELi0EEELi4ELi0EE3runERSR_, symObjAddr: 0xF3000, symBinAddr: 0x1000F786C, symSize: 0x17A4 }
  - { offsetInCU: 0x2E9A49, offset: 0x2E9A49, size: 0x8, addend: 0x0, symName: __ZN5Eigen8internal21dense_assignment_loopINS0_31generic_dense_assignment_kernelINS0_9evaluatorINS_5BlockINS_6MatrixIfLin1ELi1ELi0ELin1ELi1EEELin1ELin1ELb0EEEEENS3_INS_14CwiseNullaryOpINS0_18scalar_constant_opIfEENS5_IfLin1ELin1ELi0ELin1ELi1EEEEEEENS0_13mul_assign_opIffEELi0EEELi4ELi0EE3runERSH_, symObjAddr: 0x100D88, symBinAddr: 0x1001055F4, symSize: 0xBD4 }
  - { offsetInCU: 0x2EB0F8, offset: 0x2EB0F8, size: 0x8, addend: 0x0, symName: __ZN5Eigen8internal21dense_assignment_loopINS0_31generic_dense_assignment_kernelINS0_9evaluatorINS_5BlockINS4_INS_6MatrixIfLin1ELi1ELi0ELin1ELi1EEELin1ELin1ELb0EEELin1ELin1ELb0EEEEENS3_INS_7ProductINS_13CwiseBinaryOpINS0_17scalar_product_opIffEEKNS_14CwiseNullaryOpINS0_18scalar_constant_opIfEEKS6_EEKNS4_IKNS5_IfLin1ELin1ELi0ELin1ELin1EEELin1ELi1ELb0EEEEENS_3MapINS5_IfLi1ELin1ELi1ELi1ELi1EEELi0ENS_6StrideILi0ELi0EEEEELi1EEEEENS0_13sub_assign_opIffEELi0EEELi4ELi0EE3runERSY_, symObjAddr: 0x103248, symBinAddr: 0x100107AB4, symSize: 0xB24 }
  - { offsetInCU: 0x2ECBE8, offset: 0x2ECBE8, size: 0x8, addend: 0x0, symName: __ZN5Eigen8internal29general_matrix_vector_productIlfNS0_22const_blas_data_mapperIflLi0EEELi0ELb0EfS3_Lb0ELi0EE3runEllRKS3_S6_Pflf, symObjAddr: 0x107B74, symBinAddr: 0x10010C3E0, symSize: 0x224C }
  - { offsetInCU: 0x2EEE54, offset: 0x2EEE54, size: 0x8, addend: 0x0, symName: __ZN5Eigen8internal29general_matrix_vector_productIlfNS0_22const_blas_data_mapperIflLi0EEELi0ELb0EfNS2_IflLi1EEELb0ELi1EE3runEllRKS3_RKS4_Pflf, symObjAddr: 0x10FB18, symBinAddr: 0x100114384, symSize: 0x2390 }
  - { offsetInCU: 0x2F1499, offset: 0x2F1499, size: 0x8, addend: 0x0, symName: __ZNSt3__16vectorIN5Eigen6MatrixIfLin1ELi1ELi0ELin1ELi1EEENS_9allocatorIS3_EEE26__swap_out_circular_bufferERNS_14__split_bufferIS3_RS5_EE, symObjAddr: 0x407AC, symBinAddr: 0x100045018, symSize: 0x378 }
  - { offsetInCU: 0x2F183B, offset: 0x2F183B, size: 0x8, addend: 0x0, symName: __ZNSt3__16vectorINS_12basic_stringIcNS_11char_traitsIcEENS_9allocatorIcEEEENS4_IS6_EEE26__swap_out_circular_bufferERNS_14__split_bufferIS6_RS7_EE, symObjAddr: 0x40C44, symBinAddr: 0x1000454B0, symSize: 0x2EC }
  - { offsetInCU: 0x2F1D4F, offset: 0x2F1D4F, size: 0x8, addend: 0x0, symName: __ZNSt3__16vectorIiNS_9allocatorIiEEE26__swap_out_circular_bufferERNS_14__split_bufferIiRS2_EE, symObjAddr: 0x4B2E8, symBinAddr: 0x10004FB54, symSize: 0x6F0 }
  - { offsetInCU: 0x2F2249, offset: 0x2F2249, size: 0x8, addend: 0x0, symName: __ZNSt3__16vectorINS_6futureIvEENS_9allocatorIS2_EEE26__swap_out_circular_bufferERNS_14__split_bufferIS2_RS4_EE, symObjAddr: 0x5A8B8, symBinAddr: 0x10005F124, symSize: 0x308 }
  - { offsetInCU: 0x2F2537, offset: 0x2F2537, size: 0x8, addend: 0x0, symName: __ZN5Board8AsyncPSOEv, symObjAddr: 0x4EF14, symBinAddr: 0x100053780, symSize: 0x1F14 }
  - { offsetInCU: 0x2F52BE, offset: 0x2F52BE, size: 0x8, addend: 0x0, symName: __ZNSt3__16vectorIN5Eigen14AutoDiffScalarINS1_6MatrixIfLin1ELi1ELi0ELin1ELi1EEEEENS_9allocatorIS5_EEE26__swap_out_circular_bufferERNS_14__split_bufferIS5_RS7_EE, symObjAddr: 0x6EBB4, symBinAddr: 0x100073420, symSize: 0x460 }
  - { offsetInCU: 0x2F72A2, offset: 0x2F72A2, size: 0x8, addend: 0x0, symName: __ZN5Eigen8internal19gemv_dense_selectorILi2ELi1ELb1EE3runINS_9TransposeIKNS_5BlockIKNS_6MatrixIfLin1ELin1ELi0ELin1ELin1EEELin1ELin1ELb1EEEEENS6_IfLin1ELi1ELi0ELin1ELi1EEENS5_ISC_Lin1ELi1ELb0EEEEEvRKT_RKT0_RT1_RKNSK_6ScalarE, symObjAddr: 0xA70C8, symBinAddr: 0x1000AB934, symSize: 0x4CC }
  - { offsetInCU: 0x2F847D, offset: 0x2F847D, size: 0x8, addend: 0x0, symName: __ZN5Eigen8internal19gemv_dense_selectorILi2ELi1ELb1EE3runINS_13CwiseBinaryOpINS0_17scalar_product_opIffEEKNS_14CwiseNullaryOpINS0_18scalar_constant_opIfEEKNS_6MatrixIfLin1ELin1ELi1ELin1ELin1EEEEEKNS_9TransposeIKNS_5BlockIKNSA_IfLin1ELin1ELi0ELin1ELin1EEELin1ELin1ELb1EEEEEEENSA_IfLin1ELi1ELi0ELin1ELi1EEENSG_ISO_Lin1ELi1ELb0EEEEEvRKT_RKT0_RT1_RKNSW_6ScalarE, symObjAddr: 0xAB62C, symBinAddr: 0x1000AFE98, symSize: 0x504 }
  - { offsetInCU: 0x2F9374, offset: 0x2F9374, size: 0x8, addend: 0x0, symName: __ZN5Eigen8internal19gemv_dense_selectorILi2ELi1ELb1EE3runINS_9TransposeINS_5BlockINS_6MatrixIfLin1ELin1ELi0ELin1ELin1EEELin1ELin1ELb1EEEEENS5_IS7_Lin1ELi1ELb1EEENS6_IfLin1ELi1ELi0ELin1ELi1EEEEEvRKT_RKT0_RT1_RKNSI_6ScalarE, symObjAddr: 0xB1FA4, symBinAddr: 0x1000B6810, symSize: 0x4CC }
  - { offsetInCU: 0x2F9938, offset: 0x2F9938, size: 0x8, addend: 0x0, symName: __ZNSt3__16vectorIPfNS_9allocatorIS1_EEE26__swap_out_circular_bufferERNS_14__split_bufferIS1_RS3_EE, symObjAddr: 0xBB840, symBinAddr: 0x1000C00AC, symSize: 0x304 }
  - { offsetInCU: 0x2F9DEA, offset: 0x2F9DEA, size: 0x8, addend: 0x0, symName: __ZNSt3__16vectorINS_4pairIllEENS_9allocatorIS2_EEE26__swap_out_circular_bufferERNS_14__split_bufferIS2_RS4_EE, symObjAddr: 0xBCE34, symBinAddr: 0x1000C16A0, symSize: 0x2DC }
  - { offsetInCU: 0x2FA3B4, offset: 0x2FA3B4, size: 0x8, addend: 0x0, symName: __ZN5Eigen8internal19gemv_dense_selectorILi2ELi1ELb1EE3runINS_9TransposeIKNS_6MatrixIfLin1ELin1ELi0ELin1ELin1EEEEENS5_IfLin1ELi1ELi0ELin1ELi1EEES9_EEvRKT_RKT0_RT1_RKNSG_6ScalarE, symObjAddr: 0xC8678, symBinAddr: 0x1000CCEE4, symSize: 0x498 }
  - { offsetInCU: 0x2FBA33, offset: 0x2FBA33, size: 0x8, addend: 0x0, symName: __ZN5Eigen8internal19gemv_dense_selectorILi2ELi1ELb1EE3runINS_9TransposeIKNS_5BlockIKNS_6MatrixIfLin1ELin1ELi0ELin1ELin1EEELin1ELin1ELb0EEEEENS5_IS8_Lin1ELi1ELb1EEENS6_IfLin1ELi1ELi0ELin1ELi1EEEEEvRKT_RKT0_RT1_RKNSK_6ScalarE, symObjAddr: 0xCE088, symBinAddr: 0x1000D28F4, symSize: 0x4CC }
  - { offsetInCU: 0x2FC67B, offset: 0x2FC67B, size: 0x8, addend: 0x0, symName: __ZN5Eigen8internal19gemv_dense_selectorILi2ELi1ELb1EE3runINS_9TransposeIKNS_5BlockIKNS_6MatrixIfLin1ELin1ELi0ELin1ELin1EEELin1ELin1ELb1EEEEENS5_ISA_Lin1ELi1ELb1EEENS5_INS5_IS7_Lin1ELin1ELb0EEELin1ELi1ELb1EEEEEvRKT_RKT0_RT1_RKNSL_6ScalarE, symObjAddr: 0xD284C, symBinAddr: 0x1000D70B8, symSize: 0x4CC }
  - { offsetInCU: 0x2FCE2C, offset: 0x2FCE2C, size: 0x8, addend: 0x0, symName: __ZN5Eigen8internal19gemv_dense_selectorILi2ELi1ELb1EE3runINS_9TransposeIKNS_5BlockIKNS_6MatrixIfLin1ELin1ELi0ELin1ELin1EEELin1ELin1ELb1EEEEENS4_IKNS5_IKSB_Li1ELin1ELb1EEEEENS4_INS5_INS5_IS7_Lin1ELin1ELb0EEELi1ELin1ELb0EEEEEEEvRKT_RKT0_RT1_RKNSP_6ScalarE, symObjAddr: 0xD2D18, symBinAddr: 0x1000D7584, symSize: 0x500 }
  - { offsetInCU: 0x2FD894, offset: 0x2FD894, size: 0x8, addend: 0x0, symName: __ZN5Eigen8internal19gemv_dense_selectorILi2ELi1ELb1EE3runINS_9TransposeIKNS_5BlockIKNS_6MatrixIfLin1ELin1ELi0ELin1ELin1EEELin1ELin1ELb1EEEEENS5_IS8_Lin1ELi1ELb1EEENS6_IfLin1ELi1ELi0ELin1ELi1EEEEEvRKT_RKT0_RT1_RKNSK_6ScalarE, symObjAddr: 0xE1594, symBinAddr: 0x1000E5E00, symSize: 0x4CC }
  - { offsetInCU: 0x2FEBCC, offset: 0x2FEBCC, size: 0x8, addend: 0x0, symName: __ZN5Eigen8internal19gemv_dense_selectorILi2ELi1ELb1EE3runINS_9TransposeIKNS_5BlockINS5_INS_6MatrixIfLin1ELin1ELi0ELin1ELin1EEELin1ELin1ELb0EEELin1ELin1ELb0EEEEENS4_IKNS4_IKNS5_INS5_IS7_Lin1ELi1ELb1EEELin1ELi1ELb0EEEEEEENS4_INS_3MapINS6_IfLi1ELin1ELi1ELi1ELin1EEELi0ENS_6StrideILi0ELi0EEEEEEEEEvRKT_RKT0_RT1_RKNSU_6ScalarE, symObjAddr: 0xFC234, symBinAddr: 0x100100AA0, symSize: 0x4CC }
  - { offsetInCU: 0x301510, offset: 0x301510, size: 0x8, addend: 0x0, symName: __ZN5Eigen8internal13trmv_selectorILi2ELi0EE3runINS_6MatrixIfLin1ELin1ELi0ELin1ELin1EEENS_7ProductINS_7InverseINS_17PermutationMatrixILin1ELin1EiEEEENS4_IfLin1ELi1ELi0ELin1ELi1EEELi2EEESB_EEvRKT_RKT0_RT1_RKNSJ_6ScalarE, symObjAddr: 0x10DADC, symBinAddr: 0x100112348, symSize: 0x49C }
  - { offsetInCU: 0x30212E, offset: 0x30212E, size: 0x8, addend: 0x0, symName: __ZNSt3__16vectorIfNS_9allocatorIfEEE26__swap_out_circular_bufferERNS_14__split_bufferIfRS2_EE, symObjAddr: 0x11E100, symBinAddr: 0x10012296C, symSize: 0x6F0 }
  - { offsetInCU: 0x3023B8, offset: 0x3023B8, size: 0x8, addend: 0x0, symName: __ZNSt3__16vectorINS_4pairIiiEENS_9allocatorIS2_EEE26__swap_out_circular_bufferERNS_14__split_bufferIS2_RS4_EE, symObjAddr: 0x11F7E4, symBinAddr: 0x100124050, symSize: 0x758 }
  - { offsetInCU: 0x30268B, offset: 0x30268B, size: 0x8, addend: 0x0, symName: __ZNSt3__16vectorIfNS_9allocatorIfEEE26__swap_out_circular_bufferERNS_14__split_bufferIfRS2_EEPf, symObjAddr: 0x120FF4, symBinAddr: 0x100125860, symSize: 0x770 }
  - { offsetInCU: 0x302E63, offset: 0x302E63, size: 0x8, addend: 0x0, symName: __ZNSt3__16vectorIdNS_9allocatorIdEEE26__swap_out_circular_bufferERNS_14__split_bufferIdRS2_EE, symObjAddr: 0x121BD0, symBinAddr: 0x10012643C, symSize: 0x494 }
  - { offsetInCU: 0x3032CD, offset: 0x3032CD, size: 0x8, addend: 0x0, symName: __ZNSt3__16vectorINS_4pairINS0_IfNS_9allocatorIfEEEEfEENS2_IS5_EEE26__swap_out_circular_bufferERNS_14__split_bufferIS5_RS6_EE, symObjAddr: 0x1222E0, symBinAddr: 0x100126B4C, symSize: 0x44C }
  - { offsetInCU: 0x303804, offset: 0x303804, size: 0x8, addend: 0x0, symName: __ZNSt3__16vectorINS_4pairINS_12basic_stringIcNS_11char_traitsIcEENS_9allocatorIcEEEEfEENS5_IS8_EEE26__swap_out_circular_bufferERNS_14__split_bufferIS8_RS9_EE, symObjAddr: 0x127B1C, symBinAddr: 0x10012C388, symSize: 0x38C }
  - { offsetInCU: 0x304557, offset: 0x304557, size: 0x8, addend: 0x0, symName: __ZNSt3__124uniform_int_distributionIiEclINS_23mersenne_twister_engineIjLm32ELm624ELm397ELm31ELj2567483615ELm11ELj4294967295ELm7ELj2636928640ELm15ELj4022730752ELm18ELj1812433253EEEEEiRT_RKNS1_10param_typeE, symObjAddr: 0x12D3C0, symBinAddr: 0x100131C2C, symSize: 0x3F4 }
  - { offsetInCU: 0x30475F, offset: 0x30475F, size: 0x8, addend: 0x0, symName: __Z18SimulatedAnnealingRKN5Eigen6MatrixIfLin1ELin1ELi0ELin1ELin1EEEiNSt3__112basic_stringIcNS4_11char_traitsIcEENS4_9allocatorIcEEEEfSA_iRKSA_bdiPKci, symObjAddr: 0x35E8, symBinAddr: 0x100007E54, symSize: 0x3290 }
  - { offsetInCU: 0x309038, offset: 0x309038, size: 0x8, addend: 0x0, symName: __ZNSt3__16vectorINS_4pairIidEENS_9allocatorIS2_EEE26__swap_out_circular_bufferERNS_14__split_bufferIS2_RS4_EE, symObjAddr: 0x12E3A8, symBinAddr: 0x100132C14, symSize: 0x2DC }
  - { offsetInCU: 0x30942D, offset: 0x30942D, size: 0x8, addend: 0x0, symName: __Z2GPRKN5Eigen6MatrixIfLin1ELin1ELi0ELin1ELin1EEEiNSt3__112basic_stringIcNS4_11char_traitsIcEENS4_9allocatorIcEEEEfSA_iRKSA_bdiPKci, symObjAddr: 0xA07C, symBinAddr: 0x10000E8E8, symSize: 0x63DC }
  - { offsetInCU: 0x312129, offset: 0x312129, size: 0x8, addend: 0x0, symName: __Z3PSORKN5Eigen6MatrixIfLin1ELin1ELi0ELin1ELin1EEEiNSt3__112basic_stringIcNS4_11char_traitsIcEENS4_9allocatorIcEEEEfSA_iRKSA_bdiPKci, symObjAddr: 0x10954, symBinAddr: 0x1000151C0, symSize: 0x559C }
  - { offsetInCU: 0x31AD23, offset: 0x31AD23, size: 0x8, addend: 0x0, symName: __Z4MCTSRKN5Eigen6MatrixIfLin1ELin1ELi0ELin1ELin1EEEiNSt3__112basic_stringIcNS4_11char_traitsIcEENS4_9allocatorIcEEEEfSA_iRKSA_bdiPKci, symObjAddr: 0x162F8, symBinAddr: 0x10001AB64, symSize: 0x3450 }
  - { offsetInCU: 0x320277, offset: 0x320277, size: 0x8, addend: 0x0, symName: __Z12RandomSearchRKN5Eigen6MatrixIfLin1ELin1ELi0ELin1ELin1EEEiNSt3__112basic_stringIcNS4_11char_traitsIcEENS4_9allocatorIcEEEEfSA_iRKSA_bdiPKci, symObjAddr: 0x19B2C, symBinAddr: 0x10001E398, symSize: 0x1FC4 }
  - { offsetInCU: 0x325BFD, offset: 0x325BFD, size: 0x8, addend: 0x0, symName: __Z12generateDataiiPFfRKN5Eigen6MatrixIfLin1ELi1ELi0ELin1ELi1EEEEff, symObjAddr: 0x0, symBinAddr: 0x10000486C, symSize: 0xD40 }
  - { offsetInCU: 0x32697C, offset: 0x32697C, size: 0x8, addend: 0x0, symName: __ZN5Eigen6MatrixIfLin1ELin1ELi0ELin1ELin1EEC2IiiEERKT_RKT0_, symObjAddr: 0x129058, symBinAddr: 0x10012D8C4, symSize: 0x230 }
  - { offsetInCU: 0x326C14, offset: 0x326C14, size: 0x8, addend: 0x0, symName: __Z7trueModii, symObjAddr: 0xD40, symBinAddr: 0x1000055AC, symSize: 0x18 }
  - { offsetInCU: 0x327383, offset: 0x327383, size: 0x8, addend: 0x0, symName: __Z3MSERKN5Eigen6MatrixIfLin1ELi1ELi0ELin1ELi1EEES3_, symObjAddr: 0xD58, symBinAddr: 0x1000055C4, symSize: 0x74C }
  - { offsetInCU: 0x327E87, offset: 0x327E87, size: 0x8, addend: 0x0, symName: __ZNSt16invalid_argumentC1B8ue170006EPKc, symObjAddr: 0x14A4, symBinAddr: 0x100005D10, symSize: 0x4C }
  - { offsetInCU: 0x3289FD, offset: 0x3289FD, size: 0x8, addend: 0x0, symName: __Z3MSERKN5Eigen6MatrixINS_14AutoDiffScalarINS0_IfLin1ELi1ELi0ELin1ELi1EEEEELin1ELi1ELi0ELin1ELi1EEERKS2_, symObjAddr: 0x14F0, symBinAddr: 0x100005D5C, symSize: 0x754 }
  - { offsetInCU: 0x329777, offset: 0x329777, size: 0x8, addend: 0x0, symName: __ZN5Eigen8internal10redux_implINS0_13scalar_sum_opINS_14AutoDiffScalarINS_6MatrixIfLin1ELi1ELi0ELin1ELi1EEEEES6_EENS0_15redux_evaluatorINS_12CwiseUnaryOpINS0_14scalar_abs2_opIS6_EEKNS_13CwiseBinaryOpINS0_20scalar_difference_opIfS6_EEKS5_KNS4_IS6_Lin1ELi1ELi0ELin1ELi1EEEEEEEEELi0ELi0EE3runISK_EES6_RKSL_RKS7_RKT_, symObjAddr: 0x129288, symBinAddr: 0x10012DAF4, symSize: 0x1704 }
  - { offsetInCU: 0x32B3BA, offset: 0x32B3BA, size: 0x8, addend: 0x0, symName: __ZN5Eigen14AutoDiffScalarINS_6MatrixIfLin1ELi1ELi0ELin1ELi1EEEEC2INS_13CwiseBinaryOpINS_8internal17scalar_product_opIffEEKS2_KNS_14CwiseNullaryOpINS6_18scalar_constant_opIfEES9_EEEEEERKNS0_IT_EENS6_9enable_ifIXaasr8internal7is_sameIfNS6_6traitsINS6_10remove_allISG_E4typeEE6ScalarEEE5valuesr8internal14is_convertibleISG_S2_EE5valueEPvE4typeE, symObjAddr: 0x12B7B4, symBinAddr: 0x100130020, symSize: 0x758 }
  - { offsetInCU: 0x32BABC, offset: 0x32BABC, size: 0x8, addend: 0x0, symName: __Z9loss_funcRKN5Eigen6MatrixIfLin1ELi1ELi0ELin1ELi1EEES3_, symObjAddr: 0x1C44, symBinAddr: 0x1000064B0, symSize: 0x20 }
  - { offsetInCU: 0x32BDCA, offset: 0x32BDCA, size: 0x8, addend: 0x0, symName: __ZNSt3__113unordered_mapINS_12basic_stringIcNS_11char_traitsIcEENS_9allocatorIcEEEENS_4pairIN5Eigen6MatrixIfLin1ELi1ELi0ELin1ELi1EEEiEENS_4hashIS6_EENS_8equal_toIS6_EENS4_INS7_IKS6_SB_EEEEED1B8ue170006Ev, symObjAddr: 0x1C64, symBinAddr: 0x1000064D0, symSize: 0x12C }
  - { offsetInCU: 0x32C359, offset: 0x32C359, size: 0x8, addend: 0x0, symName: __ZNSt3__16vectorINS_12basic_stringIcNS_11char_traitsIcEENS_9allocatorIcEEEENS4_IS6_EEED1B8ue170006Ev, symObjAddr: 0x1D90, symBinAddr: 0x1000065FC, symSize: 0x150 }
  - { offsetInCU: 0x32C3E4, offset: 0x32C3E4, size: 0x8, addend: 0x0, symName: __ZNSt3__16vectorINS_12basic_stringIcNS_11char_traitsIcEENS_9allocatorIcEEEENS4_IS6_EEE16__destroy_vectorclB8ue170006Ev, symObjAddr: 0x3733C, symBinAddr: 0x10003BBA8, symSize: 0x1F8 }
  - { offsetInCU: 0x32C808, offset: 0x32C808, size: 0x8, addend: 0x0, symName: __ZNSt3__16vectorIfNS_9allocatorIfEEED1B8ue170006Ev, symObjAddr: 0x1EE0, symBinAddr: 0x10000674C, symSize: 0xCC }
  - { offsetInCU: 0x32CCDF, offset: 0x32CCDF, size: 0x8, addend: 0x0, symName: __ZN4DataD1Ev, symObjAddr: 0x1FAC, symBinAddr: 0x100006818, symSize: 0x274 }
  - { offsetInCU: 0x32D30A, offset: 0x32D30A, size: 0x8, addend: 0x0, symName: __ZNSt3__16vectorIN5Eigen6MatrixIfLin1ELi1ELi0ELin1ELi1EEENS_9allocatorIS3_EEE16__destroy_vectorclB8ue170006Ev, symObjAddr: 0x37534, symBinAddr: 0x10003BDA0, symSize: 0x1C8 }
  - { offsetInCU: 0x32D80E, offset: 0x32D80E, size: 0x8, addend: 0x0, symName: __ZNSt3__113unordered_mapIfNS_12basic_stringIcNS_11char_traitsIcEENS_9allocatorIcEEEENS_4hashIfEENS_8equal_toIfEENS4_INS_4pairIKfS6_EEEEED1B8ue170006Ev, symObjAddr: 0x2220, symBinAddr: 0x100006A8C, symSize: 0x10C }
  - { offsetInCU: 0x32E01A, offset: 0x32E01A, size: 0x8, addend: 0x0, symName: __ZNSt3__113unordered_mapINS_12basic_stringIcNS_11char_traitsIcEENS_9allocatorIcEEEEfNS_4hashIS6_EENS_8equal_toIS6_EENS4_INS_4pairIKS6_fEEEEED1B8ue170006Ev, symObjAddr: 0x232C, symBinAddr: 0x100006B98, symSize: 0x10C }
  - { offsetInCU: 0x32E479, offset: 0x32E479, size: 0x8, addend: 0x0, symName: __ZNSt3__113unordered_mapIbNS0_IbNS0_IbNS_6vectorIfNS_9allocatorIfEEEENS_4hashIbEENS_8equal_toIbEENS2_INS_4pairIKbS4_EEEEEES6_S8_NS2_INS9_ISA_SD_EEEEEES6_S8_NS2_INS9_ISA_SG_EEEEED1B8ue170006Ev, symObjAddr: 0x2438, symBinAddr: 0x100006CA4, symSize: 0x4 }
  - { offsetInCU: 0x32E4A4, offset: 0x32E4A4, size: 0x8, addend: 0x0, symName: __ZNSt3__113unordered_mapIbNS0_IbNS0_IbNS_6vectorIfNS_9allocatorIfEEEENS_4hashIbEENS_8equal_toIbEENS2_INS_4pairIKbS4_EEEEEES6_S8_NS2_INS9_ISA_SD_EEEEEES6_S8_NS2_INS9_ISA_SG_EEEEED1B8ue170006Ev, symObjAddr: 0x2438, symBinAddr: 0x100006CA4, symSize: 0x4 }
  - { offsetInCU: 0x32E4C0, offset: 0x32E4C0, size: 0x8, addend: 0x0, symName: __ZNSt3__113unordered_mapIbNS0_IbNS0_IbNS_6vectorIfNS_9allocatorIfEEEENS_4hashIbEENS_8equal_toIbEENS2_INS_4pairIKbS4_EEEEEES6_S8_NS2_INS9_ISA_SD_EEEEEES6_S8_NS2_INS9_ISA_SG_EEEEED1B8ue170006Ev, symObjAddr: 0x2438, symBinAddr: 0x100006CA4, symSize: 0x4 }
  - { offsetInCU: 0x32E4DF, offset: 0x32E4DF, size: 0x8, addend: 0x0, symName: __ZNSt3__113unordered_mapIbNS0_IbNS0_IbNS_6vectorIfNS_9allocatorIfEEEENS_4hashIbEENS_8equal_toIbEENS2_INS_4pairIKbS4_EEEEEES6_S8_NS2_INS9_ISA_SD_EEEEEES6_S8_NS2_INS9_ISA_SG_EEEEED1B8ue170006Ev, symObjAddr: 0x2438, symBinAddr: 0x100006CA4, symSize: 0x4 }
  - { offsetInCU: 0x32E4F2, offset: 0x32E4F2, size: 0x8, addend: 0x0, symName: __ZNSt3__112__hash_tableINS_17__hash_value_typeIbNS_13unordered_mapIbNS2_IbNS_6vectorIfNS_9allocatorIfEEEENS_4hashIbEENS_8equal_toIbEENS4_INS_4pairIKbS6_EEEEEES8_SA_NS4_INSB_ISC_SF_EEEEEEEENS_22__unordered_map_hasherIbSJ_S8_SA_Lb1EEENS_21__unordered_map_equalIbSJ_SA_S8_Lb1EEENS4_ISJ_EEED2Ev, symObjAddr: 0x12BF0C, symBinAddr: 0x100130778, symSize: 0x164 }
  - { offsetInCU: 0x32EBA9, offset: 0x32EBA9, size: 0x8, addend: 0x0, symName: __Z11exampleFuncRKN5Eigen6MatrixIfLin1ELi1ELi0ELin1ELi1EEE, symObjAddr: 0x243C, symBinAddr: 0x100006CA8, symSize: 0x100 }
  - { offsetInCU: 0x32ED18, offset: 0x32ED18, size: 0x8, addend: 0x0, symName: __Z9Hemberg_1RKN5Eigen6MatrixIfLin1ELi1ELi0ELin1ELi1EEE, symObjAddr: 0x253C, symBinAddr: 0x100006DA8, symSize: 0xEC }
  - { offsetInCU: 0x32EE71, offset: 0x32EE71, size: 0x8, addend: 0x0, symName: __Z9Hemberg_2RKN5Eigen6MatrixIfLin1ELi1ELi0ELin1ELi1EEE, symObjAddr: 0x2628, symBinAddr: 0x100006E94, symSize: 0xFC }
  - { offsetInCU: 0x32EFCA, offset: 0x32EFCA, size: 0x8, addend: 0x0, symName: __Z9Hemberg_3RKN5Eigen6MatrixIfLin1ELi1ELi0ELin1ELi1EEE, symObjAddr: 0x2724, symBinAddr: 0x100006F90, symSize: 0x104 }
  - { offsetInCU: 0x32F123, offset: 0x32F123, size: 0x8, addend: 0x0, symName: __Z9Hemberg_4RKN5Eigen6MatrixIfLin1ELi1ELi0ELin1ELi1EEE, symObjAddr: 0x2828, symBinAddr: 0x100007094, symSize: 0x140 }
  - { offsetInCU: 0x32F27C, offset: 0x32F27C, size: 0x8, addend: 0x0, symName: __Z9Hemberg_5RKN5Eigen6MatrixIfLin1ELi1ELi0ELin1ELi1EEE, symObjAddr: 0x2968, symBinAddr: 0x1000071D4, symSize: 0x160 }
  - { offsetInCU: 0x32F411, offset: 0x32F411, size: 0x8, addend: 0x0, symName: __Z9Feynman_1RKN5Eigen6MatrixIfLin1ELi1ELi0ELin1ELi1EEE, symObjAddr: 0x2AC8, symBinAddr: 0x100007334, symSize: 0x1A8 }
  - { offsetInCU: 0x32F63A, offset: 0x32F63A, size: 0x8, addend: 0x0, symName: __Z9Feynman_2RKN5Eigen6MatrixIfLin1ELi1ELi0ELin1ELi1EEE, symObjAddr: 0x2C70, symBinAddr: 0x1000074DC, symSize: 0x2A4 }
  - { offsetInCU: 0x32FA36, offset: 0x32FA36, size: 0x8, addend: 0x0, symName: __Z9Feynman_3RKN5Eigen6MatrixIfLin1ELi1ELi0ELin1ELi1EEE, symObjAddr: 0x2F14, symBinAddr: 0x100007780, symSize: 0x23C }
  - { offsetInCU: 0x32FD78, offset: 0x32FD78, size: 0x8, addend: 0x0, symName: __Z9Feynman_4RKN5Eigen6MatrixIfLin1ELi1ELi0ELin1ELi1EEE, symObjAddr: 0x3150, symBinAddr: 0x1000079BC, symSize: 0x274 }
  - { offsetInCU: 0x3300C0, offset: 0x3300C0, size: 0x8, addend: 0x0, symName: __Z9Feynman_5RKN5Eigen6MatrixIfLin1ELi1ELi0ELin1ELi1EEE, symObjAddr: 0x33C4, symBinAddr: 0x100007C30, symSize: 0x224 }
  - { offsetInCU: 0x332214, offset: 0x332214, size: 0x8, addend: 0x0, symName: __ZN5BoardD2Ev, symObjAddr: 0x12207C, symBinAddr: 0x1001268E8, symSize: 0x24C }
  - { offsetInCU: 0x332890, offset: 0x332890, size: 0x8, addend: 0x0, symName: __ZN5BoardC2EbiRKNSt3__112basic_stringIcNS0_11char_traitsIcEENS0_9allocatorIcEEEES6_iS6_RKN5Eigen6MatrixIfLin1ELin1ELi0ELin1ELin1EEEbb, symObjAddr: 0x376FC, symBinAddr: 0x10003BF68, symSize: 0x4524 }
  - { offsetInCU: 0x338340, offset: 0x338340, size: 0x8, addend: 0x0, symName: __ZNSt3__16vectorIfNS_9allocatorIfEEE21__push_back_slow_pathIRKfEEvOT_, symObjAddr: 0x11DC74, symBinAddr: 0x1001224E0, symSize: 0x48C }
  - { offsetInCU: 0x338810, offset: 0x338810, size: 0x8, addend: 0x0, symName: __ZN5Board15complete_statusEb, symObjAddr: 0x6878, symBinAddr: 0x10000B0E4, symSize: 0xE64 }
  - { offsetInCU: 0x339A0B, offset: 0x339A0B, size: 0x8, addend: 0x0, symName: __ZN5Board15get_legal_movesEv, symObjAddr: 0x76DC, symBinAddr: 0x10000BF48, symSize: 0x1F24 }
  - { offsetInCU: 0x33B025, offset: 0x33B025, size: 0x8, addend: 0x0, symName: __ZNSt3__16vectorIfNS_9allocatorIfEEE13__vdeallocateEv, symObjAddr: 0x47904, symBinAddr: 0x10004C170, symSize: 0x154 }
  - { offsetInCU: 0x33B295, offset: 0x33B295, size: 0x8, addend: 0x0, symName: '__ZZ18SimulatedAnnealingRKN5Eigen6MatrixIfLin1ELin1ELi0ELin1ELin1EEEiNSt3__112basic_stringIcNS4_11char_traitsIcEENS4_9allocatorIcEEEEfSA_iRKSA_bdiPKciENK3$_1clEf', symObjAddr: 0x9600, symBinAddr: 0x10000DE6C, symSize: 0x56C }
  - { offsetInCU: 0x33B5A9, offset: 0x33B5A9, size: 0x8, addend: 0x0, symName: __ZN5Board11get_indicesERNSt3__16vectorINS0_4pairIiiEENS0_9allocatorIS3_EEEERNS1_IfNS4_IfEEEE, symObjAddr: 0x11E7F0, symBinAddr: 0x10012305C, symSize: 0x87C }
  - { offsetInCU: 0x33BD0E, offset: 0x33BD0E, size: 0x8, addend: 0x0, symName: __ZNSt3__16vectorIfNS_9allocatorIfEEE18__insert_with_sizeB8ue170006INS_11__wrap_iterIPfEES7_EES7_NS5_IPKfEET_T0_l, symObjAddr: 0x11FF54, symBinAddr: 0x1001247C0, symSize: 0x95C }
  - { offsetInCU: 0x33C516, offset: 0x33C516, size: 0x8, addend: 0x0, symName: __ZNSt3__16vectorIdNS_9allocatorIdEEE21__push_back_slow_pathIRKdEEvOT_, symObjAddr: 0x121764, symBinAddr: 0x100125FD0, symSize: 0x46C }
  - { offsetInCU: 0x33C9E6, offset: 0x33C9E6, size: 0x8, addend: 0x0, symName: __ZNSt3__114basic_ofstreamIcNS_11char_traitsIcEEEC1EPKcj, symObjAddr: 0x9D04, symBinAddr: 0x10000E570, symSize: 0x298 }
  - { offsetInCU: 0x33CABB, offset: 0x33CABB, size: 0x8, addend: 0x0, symName: __ZNSt3__16__treeINS_12__value_typeIiNS_6vectorIdNS_9allocatorIdEEEEEENS_19__map_value_compareIiS6_NS_4lessIiEELb1EEENS3_IS6_EEE7destroyEPNS_11__tree_nodeIS6_PvEE, symObjAddr: 0x12D290, symBinAddr: 0x100131AFC, symSize: 0x130 }
  - { offsetInCU: 0x33CDF7, offset: 0x33CDF7, size: 0x8, addend: 0x0, symName: __ZNKSt3__112basic_stringIcNS_11char_traitsIcEENS_9allocatorIcEEE20__throw_length_errorB8ue170006Ev, symObjAddr: 0x3724C, symBinAddr: 0x10003BAB8, symSize: 0x18 }
  - { offsetInCU: 0x33CE20, offset: 0x33CE20, size: 0x8, addend: 0x0, symName: __ZNSt3__120__throw_length_errorB8ue170006EPKc, symObjAddr: 0x37264, symBinAddr: 0x10003BAD0, symSize: 0x54 }
  - { offsetInCU: 0x33CE2B, offset: 0x33CE2B, size: 0x8, addend: 0x0, symName: __ZNSt3__114basic_ofstreamIcNS_11char_traitsIcEEED1Ev, symObjAddr: 0x9F9C, symBinAddr: 0x10000E808, symSize: 0xE0 }
  - { offsetInCU: 0x33CE64, offset: 0x33CE64, size: 0x8, addend: 0x0, symName: __ZNSt3__16vectorINS_4pairIidEENS_9allocatorIS2_EEED1B8ue170006Ev, symObjAddr: 0x9B6C, symBinAddr: 0x10000E3D8, symSize: 0xCC }
  - { offsetInCU: 0x33D022, offset: 0x33D022, size: 0x8, addend: 0x0, symName: __ZNSt3__16vectorINS_4pairIiiEENS_9allocatorIS2_EEED1B8ue170006Ev, symObjAddr: 0x9C38, symBinAddr: 0x10000E4A4, symSize: 0xCC }
  - { offsetInCU: 0x33D751, offset: 0x33D751, size: 0x8, addend: 0x0, symName: __ZN5Board11getRPNdepthERKNSt3__16vectorIfNS0_9allocatorIfEEEEmmbbbb, symObjAddr: 0x49230, symBinAddr: 0x10004DA9C, symSize: 0x15A4 }
  - { offsetInCU: 0x33ED7B, offset: 0x33ED7B, size: 0x8, addend: 0x0, symName: __ZNSt3__112__hash_tableINS_17__hash_value_typeINS_12basic_stringIcNS_11char_traitsIcEENS_9allocatorIcEEEENS_4pairIN5Eigen6MatrixIfLin1ELi1ELi0ELin1ELi1EEEiEEEENS_22__unordered_map_hasherIS7_SD_NS_4hashIS7_EENS_8equal_toIS7_EELb1EEENS_21__unordered_map_equalIS7_SD_SI_SG_Lb1EEENS5_ISD_EEE25__emplace_unique_key_argsIS7_JRKNS_21piecewise_construct_tENS_5tupleIJRKS7_EEENSS_IJEEEEEENS8_INS_15__hash_iteratorIPNS_11__hash_nodeISD_PvEEEEbEERKT_DpOT0_, symObjAddr: 0x4B9F0, symBinAddr: 0x10005025C, symSize: 0xA64 }
  - { offsetInCU: 0x33F51F, offset: 0x33F51F, size: 0x8, addend: 0x0, symName: __ZNSt3__112__hash_tableINS_17__hash_value_typeIfNS_12basic_stringIcNS_11char_traitsIcEENS_9allocatorIcEEEEEENS_22__unordered_map_hasherIfS8_NS_4hashIfEENS_8equal_toIfEELb1EEENS_21__unordered_map_equalIfS8_SD_SB_Lb1EEENS5_IS8_EEE25__emplace_unique_key_argsIfJRKNS_21piecewise_construct_tENS_5tupleIJRKfEEENSN_IJEEEEEENS_4pairINS_15__hash_iteratorIPNS_11__hash_nodeIS8_PvEEEEbEERKT_DpOT0_, symObjAddr: 0x43C58, symBinAddr: 0x1000484C4, symSize: 0x8E8 }
  - { offsetInCU: 0x33FC35, offset: 0x33FC35, size: 0x8, addend: 0x0, symName: __ZN5Board10getPNdepthERKNSt3__16vectorIfNS0_9allocatorIfEEEEmmbbbbb, symObjAddr: 0x47F6C, symBinAddr: 0x10004C7D8, symSize: 0x12C4 }
  - { offsetInCU: 0x340A1C, offset: 0x340A1C, size: 0x8, addend: 0x0, symName: __ZN5Board17fitFunctionToDataEv, symObjAddr: 0x4A7D4, symBinAddr: 0x10004F040, symSize: 0x688 }
  - { offsetInCU: 0x34187F, offset: 0x34187F, size: 0x8, addend: 0x0, symName: __ZNSt3__112__hash_tableINS_17__hash_value_typeIbNS_13unordered_mapIbNS2_IbNS_6vectorIfNS_9allocatorIfEEEENS_4hashIbEENS_8equal_toIbEENS4_INS_4pairIKbS6_EEEEEES8_SA_NS4_INSB_ISC_SF_EEEEEEEENS_22__unordered_map_hasherIbSJ_S8_SA_Lb1EEENS_21__unordered_map_equalIbSJ_SA_S8_Lb1EEENS4_ISJ_EEE25__emplace_unique_key_argsIbJRKNS_21piecewise_construct_tENS_5tupleIJObEEENSU_IJEEEEEENSB_INS_15__hash_iteratorIPNS_11__hash_nodeISJ_PvEEEEbEERKT_DpOT0_, symObjAddr: 0x44A04, symBinAddr: 0x100049270, symSize: 0x8F8 }
  - { offsetInCU: 0x342045, offset: 0x342045, size: 0x8, addend: 0x0, symName: __ZNSt3__112__hash_tableINS_17__hash_value_typeIbNS_13unordered_mapIbNS_6vectorIfNS_9allocatorIfEEEENS_4hashIbEENS_8equal_toIbEENS4_INS_4pairIKbS6_EEEEEEEENS_22__unordered_map_hasherIbSG_S8_SA_Lb1EEENS_21__unordered_map_equalIbSG_SA_S8_Lb1EEENS4_ISG_EEE25__emplace_unique_key_argsIbJRKNS_21piecewise_construct_tENS_5tupleIJObEEENSR_IJEEEEEENSB_INS_15__hash_iteratorIPNS_11__hash_nodeISG_PvEEEEbEERKT_DpOT0_, symObjAddr: 0x45978, symBinAddr: 0x10004A1E4, symSize: 0x8F8 }
  - { offsetInCU: 0x34280B, offset: 0x34280B, size: 0x8, addend: 0x0, symName: __ZNSt3__112__hash_tableINS_17__hash_value_typeIbNS_6vectorIfNS_9allocatorIfEEEEEENS_22__unordered_map_hasherIbS6_NS_4hashIbEENS_8equal_toIbEELb1EEENS_21__unordered_map_equalIbS6_SB_S9_Lb1EEENS3_IS6_EEE25__emplace_unique_key_argsIbJRKNS_21piecewise_construct_tENS_5tupleIJObEEENSL_IJEEEEEENS_4pairINS_15__hash_iteratorIPNS_11__hash_nodeIS6_PvEEEEbEERKT_DpOT0_, symObjAddr: 0x466F0, symBinAddr: 0x10004AF5C, symSize: 0x8C8 }
  - { offsetInCU: 0x342EDD, offset: 0x342EDD, size: 0x8, addend: 0x0, symName: __ZNSt3__16vectorIfNS_9allocatorIfEEE16__init_with_sizeB8ue170006IPfS5_EEvT_T0_m, symObjAddr: 0x11BDF8, symBinAddr: 0x100120664, symSize: 0x298 }
  - { offsetInCU: 0x343114, offset: 0x343114, size: 0x8, addend: 0x0, symName: __ZNSt3__112__hash_tableINS_17__hash_value_typeIbNS_13unordered_mapIbNS2_IbNS_6vectorIfNS_9allocatorIfEEEENS_4hashIbEENS_8equal_toIbEENS4_INS_4pairIKbS6_EEEEEES8_SA_NS4_INSB_ISC_SF_EEEEEEEENS_22__unordered_map_hasherIbSJ_S8_SA_Lb1EEENS_21__unordered_map_equalIbSJ_SA_S8_Lb1EEENS4_ISJ_EEE25__emplace_unique_key_argsIbJRKNS_21piecewise_construct_tENS_5tupleIJRSC_EEENSU_IJEEEEEENSB_INS_15__hash_iteratorIPNS_11__hash_nodeISJ_PvEEEEbEERKT_DpOT0_, symObjAddr: 0x11C1BC, symBinAddr: 0x100120A28, symSize: 0x8F8 }
  - { offsetInCU: 0x3438DA, offset: 0x3438DA, size: 0x8, addend: 0x0, symName: __ZNSt3__112__hash_tableINS_17__hash_value_typeIbNS_13unordered_mapIbNS_6vectorIfNS_9allocatorIfEEEENS_4hashIbEENS_8equal_toIbEENS4_INS_4pairIKbS6_EEEEEEEENS_22__unordered_map_hasherIbSG_S8_SA_Lb1EEENS_21__unordered_map_equalIbSG_SA_S8_Lb1EEENS4_ISG_EEE25__emplace_unique_key_argsIbJRKNS_21piecewise_construct_tENS_5tupleIJRSC_EEENSR_IJEEEEEENSB_INS_15__hash_iteratorIPNS_11__hash_nodeISG_PvEEEEbEERKT_DpOT0_, symObjAddr: 0x11CAB4, symBinAddr: 0x100121320, symSize: 0x8F8 }
  - { offsetInCU: 0x3440A0, offset: 0x3440A0, size: 0x8, addend: 0x0, symName: __ZNSt3__112__hash_tableINS_17__hash_value_typeIbNS_6vectorIfNS_9allocatorIfEEEEEENS_22__unordered_map_hasherIbS6_NS_4hashIbEENS_8equal_toIbEELb1EEENS_21__unordered_map_equalIbS6_SB_S9_Lb1EEENS3_IS6_EEE25__emplace_unique_key_argsIbJRKNS_21piecewise_construct_tENS_5tupleIJRKbEEENSL_IJEEEEEENS_4pairINS_15__hash_iteratorIPNS_11__hash_nodeIS6_PvEEEEbEERKT_DpOT0_, symObjAddr: 0x11D3AC, symBinAddr: 0x100121C18, symSize: 0x8C8 }
  - { offsetInCU: 0x34485E, offset: 0x34485E, size: 0x8, addend: 0x0, symName: __ZNSt3__16vectorIfNS_9allocatorIfEEE18__assign_with_sizeB8ue170006IPfS5_EEvT_T0_l, symObjAddr: 0x474DC, symBinAddr: 0x10004BD48, symSize: 0x2D4 }
  - { offsetInCU: 0x345989, offset: 0x345989, size: 0x8, addend: 0x0, symName: __ZNSt3__16vectorINS_4pairINS0_IfNS_9allocatorIfEEEEfEENS2_IS5_EEE7reserveEm, symObjAddr: 0x10458, symBinAddr: 0x100014CC4, symSize: 0x430 }
  - { offsetInCU: 0x345EE4, offset: 0x345EE4, size: 0x8, addend: 0x0, symName: __ZNSt3__16vectorINS_4pairINS0_IfNS_9allocatorIfEEEEfEENS2_IS5_EEE21__push_back_slow_pathIS5_EEvOT_, symObjAddr: 0x1228A8, symBinAddr: 0x100127114, symSize: 0x5C0 }
  - { offsetInCU: 0x346560, offset: 0x346560, size: 0x8, addend: 0x0, symName: __ZNSt3__16vectorINS_4pairINS0_IfNS_9allocatorIfEEEEfEENS2_IS5_EEE8__appendEm, symObjAddr: 0x126D38, symBinAddr: 0x10012B5A4, symSize: 0x53C }
  - { offsetInCU: 0x346D66, offset: 0x346D66, size: 0x8, addend: 0x0, symName: __ZNSt3__16vectorINS_4pairINS0_IfNS_9allocatorIfEEEEfEENS2_IS5_EEE17__destruct_at_endB8ue170006EPS5_, symObjAddr: 0x127274, symBinAddr: 0x10012BAE0, symSize: 0x1C0 }
  - { offsetInCU: 0x34706C, offset: 0x34706C, size: 0x8, addend: 0x0, symName: __ZNSt3__16vectorINS_4pairINS0_IfNS_9allocatorIfEEEEfEENS2_IS5_EEE16__destroy_vectorclB8ue170006Ev, symObjAddr: 0x127434, symBinAddr: 0x10012BCA0, symSize: 0x244 }
  - { offsetInCU: 0x3473DE, offset: 0x3473DE, size: 0x8, addend: 0x0, symName: __ZNSt3__14pairINS_6vectorIfNS_9allocatorIfEEEEfED1Ev, symObjAddr: 0x10888, symBinAddr: 0x1000150F4, symSize: 0xCC }
  - { offsetInCU: 0x34787D, offset: 0x34787D, size: 0x8, addend: 0x0, symName: __ZNKSt3__16vectorINS_4pairINS0_IfNS_9allocatorIfEEEEfEENS2_IS5_EEE20__throw_length_errorB8ue170006Ev, symObjAddr: 0x1222C8, symBinAddr: 0x100126B34, symSize: 0x18 }
  - { offsetInCU: 0x3478A6, offset: 0x3478A6, size: 0x8, addend: 0x0, symName: __ZNSt3__16vectorINS_4pairINS0_IfNS_9allocatorIfEEEEfEENS2_IS5_EEE26__swap_out_circular_bufferERNS_14__split_bufferIS5_RS6_EE, symObjAddr: 0x1222E0, symBinAddr: 0x100126B4C, symSize: 0x44C }
  - { offsetInCU: 0x3478B1, offset: 0x3478B1, size: 0x8, addend: 0x0, symName: __ZNSt3__114__split_bufferINS_4pairINS_6vectorIfNS_9allocatorIfEEEEfEERNS3_IS6_EEED1Ev, symObjAddr: 0x12272C, symBinAddr: 0x100126F98, symSize: 0x17C }
  - { offsetInCU: 0x34909C, offset: 0x34909C, size: 0x8, addend: 0x0, symName: __ZNSt3__16vectorIfNS_9allocatorIfEEE7reserveEm, symObjAddr: 0x15EF0, symBinAddr: 0x10001A75C, symSize: 0x408 }
  - { offsetInCU: 0x3494F4, offset: 0x3494F4, size: 0x8, addend: 0x0, symName: __ZNSt3__16vectorIfNS_9allocatorIfEEE21__push_back_slow_pathIfEEvOT_, symObjAddr: 0x127678, symBinAddr: 0x10012BEE4, symSize: 0x48C }
  - { offsetInCU: 0x3499C4, offset: 0x3499C4, size: 0x8, addend: 0x0, symName: __ZNSt3__112__hash_tableINS_17__hash_value_typeIifEENS_22__unordered_map_hasherIiS2_NS_4hashIiEENS_8equal_toIiEELb1EEENS_21__unordered_map_equalIiS2_S7_S5_Lb1EEENS_9allocatorIS2_EEE25__emplace_unique_key_argsIiJRKNS_21piecewise_construct_tENS_5tupleIJRKiEEENSI_IJEEEEEENS_4pairINS_15__hash_iteratorIPNS_11__hash_nodeIS2_PvEEEEbEERKT_DpOT0_, symObjAddr: 0x12FE4C, symBinAddr: 0x1001346B8, symSize: 0x670 }
  - { offsetInCU: 0x34A098, offset: 0x34A098, size: 0x8, addend: 0x0, symName: __ZNSt3__112__hash_tableINS_17__hash_value_typeIfNS_13unordered_mapIiiNS_4hashIiEENS_8equal_toIiEENS_9allocatorINS_4pairIKiiEEEEEEEENS_22__unordered_map_hasherIfSD_NS3_IfEENS5_IfEELb1EEENS_21__unordered_map_equalIfSD_SG_SF_Lb1EEENS7_ISD_EEE25__emplace_unique_key_argsIfJRKNS_21piecewise_construct_tENS_5tupleIJRKfEEENSQ_IJEEEEEENS8_INS_15__hash_iteratorIPNS_11__hash_nodeISD_PvEEEEbEERKT_DpOT0_, symObjAddr: 0x13089C, symBinAddr: 0x100135108, symSize: 0x918 }
  - { offsetInCU: 0x34A885, offset: 0x34A885, size: 0x8, addend: 0x0, symName: __ZNSt3__112__hash_tableINS_17__hash_value_typeIiiEENS_22__unordered_map_hasherIiS2_NS_4hashIiEENS_8equal_toIiEELb1EEENS_21__unordered_map_equalIiS2_S7_S5_Lb1EEENS_9allocatorIS2_EEE25__emplace_unique_key_argsIiJRKNS_21piecewise_construct_tENS_5tupleIJRKiEEENSI_IJEEEEEENS_4pairINS_15__hash_iteratorIPNS_11__hash_nodeIS2_PvEEEEbEERKT_DpOT0_, symObjAddr: 0x1316B4, symBinAddr: 0x100135F20, symSize: 0x670 }
  - { offsetInCU: 0x34AF59, offset: 0x34AF59, size: 0x8, addend: 0x0, symName: __ZNSt3__112__hash_tableINS_17__hash_value_typeIfNS_13unordered_mapIifNS_4hashIiEENS_8equal_toIiEENS_9allocatorINS_4pairIKifEEEEEEEENS_22__unordered_map_hasherIfSD_NS3_IfEENS5_IfEELb1EEENS_21__unordered_map_equalIfSD_SG_SF_Lb1EEENS7_ISD_EEE25__emplace_unique_key_argsIfJRKNS_21piecewise_construct_tENS_5tupleIJRKfEEENSQ_IJEEEEEENS8_INS_15__hash_iteratorIPNS_11__hash_nodeISD_PvEEEEbEERKT_DpOT0_, symObjAddr: 0x132104, symBinAddr: 0x100136970, symSize: 0x918 }
  - { offsetInCU: 0x34B942, offset: 0x34B942, size: 0x8, addend: 0x0, symName: __ZNKSt3__16vectorIfNS_9allocatorIfEEE20__throw_length_errorB8ue170006Ev, symObjAddr: 0x47A58, symBinAddr: 0x10004C2C4, symSize: 0x18 }
  - { offsetInCU: 0x34B96B, offset: 0x34B96B, size: 0x8, addend: 0x0, symName: __ZNSt3__16vectorIfNS_9allocatorIfEEE18__assign_with_sizeB8ue170006IPKfS6_EEvT_T0_l, symObjAddr: 0x47A70, symBinAddr: 0x10004C2DC, symSize: 0x2D4 }
  - { offsetInCU: 0x34C832, offset: 0x34C832, size: 0x8, addend: 0x0, symName: __ZNSt3__16vectorINS_4pairINS_12basic_stringIcNS_11char_traitsIcEENS_9allocatorIcEEEEfEENS5_IS8_EEE7reserveEm, symObjAddr: 0x19748, symBinAddr: 0x10001DFB4, symSize: 0x3E4 }
  - { offsetInCU: 0x34CCDE, offset: 0x34CCDE, size: 0x8, addend: 0x0, symName: __ZNSt3__112__hash_tableINS_17__hash_value_typeINS_12basic_stringIcNS_11char_traitsIcEENS_9allocatorIcEEEENS_13unordered_mapIffNS_4hashIfEENS_8equal_toIfEENS5_INS_4pairIKffEEEEEEEENS_22__unordered_map_hasherIS7_SI_NS9_IS7_EENSB_IS7_EELb1EEENS_21__unordered_map_equalIS7_SI_SL_SK_Lb1EEENS5_ISI_EEE25__emplace_unique_key_argsIS7_JRKNS_21piecewise_construct_tENS_5tupleIJRKS7_EEENSV_IJEEEEEENSD_INS_15__hash_iteratorIPNS_11__hash_nodeISI_PvEEEEbEERKT_DpOT0_, symObjAddr: 0x133854, symBinAddr: 0x1001380C0, symSize: 0xA64 }
  - { offsetInCU: 0x34D482, offset: 0x34D482, size: 0x8, addend: 0x0, symName: __ZNSt3__112__hash_tableINS_17__hash_value_typeIffEENS_22__unordered_map_hasherIfS2_NS_4hashIfEENS_8equal_toIfEELb1EEENS_21__unordered_map_equalIfS2_S7_S5_Lb1EEENS_9allocatorIS2_EEE25__emplace_unique_key_argsIfJRKNS_21piecewise_construct_tENS_5tupleIJRKfEEENSI_IJEEEEEENS_4pairINS_15__hash_iteratorIPNS_11__hash_nodeIS2_PvEEEEbEERKT_DpOT0_, symObjAddr: 0x134B14, symBinAddr: 0x100139380, symSize: 0x684 }
  - { offsetInCU: 0x34DB7D, offset: 0x34DB7D, size: 0x8, addend: 0x0, symName: __ZNSt3__112__hash_tableINS_17__hash_value_typeINS_12basic_stringIcNS_11char_traitsIcEENS_9allocatorIcEEEEfEENS_22__unordered_map_hasherIS7_S8_NS_4hashIS7_EENS_8equal_toIS7_EELb1EEENS_21__unordered_map_equalIS7_S8_SD_SB_Lb1EEENS5_IS8_EEE25__emplace_unique_key_argsIS7_JRKNS_21piecewise_construct_tENS_5tupleIJRKS7_EEENSN_IJEEEEEENS_4pairINS_15__hash_iteratorIPNS_11__hash_nodeIS8_PvEEEEbEERKT_DpOT0_, symObjAddr: 0x12C070, symBinAddr: 0x1001308DC, symSize: 0xA64 }
  - { offsetInCU: 0x34E321, offset: 0x34E321, size: 0x8, addend: 0x0, symName: __ZNSt3__16vectorINS_4pairINS_12basic_stringIcNS_11char_traitsIcEENS_9allocatorIcEEEEfEENS5_IS8_EEE21__push_back_slow_pathIS8_EEvOT_, symObjAddr: 0x127FD0, symBinAddr: 0x10012C83C, symSize: 0x4A0 }
  - { offsetInCU: 0x34E8F0, offset: 0x34E8F0, size: 0x8, addend: 0x0, symName: __ZNSt3__16vectorINS_4pairINS_12basic_stringIcNS_11char_traitsIcEENS_9allocatorIcEEEEfEENS5_IS8_EEE16__destroy_vectorclB8ue170006Ev, symObjAddr: 0x128470, symBinAddr: 0x10012CCDC, symSize: 0x1F8 }
  - { offsetInCU: 0x34EBC2, offset: 0x34EBC2, size: 0x8, addend: 0x0, symName: __ZNSt3__112__hash_tableINS_17__hash_value_typeINS_12basic_stringIcNS_11char_traitsIcEENS_9allocatorIcEEEENS_13unordered_mapIffNS_4hashIfEENS_8equal_toIfEENS5_INS_4pairIKffEEEEEEEENS_22__unordered_map_hasherIS7_SI_NS9_IS7_EENSB_IS7_EELb1EEENS_21__unordered_map_equalIS7_SI_SL_SK_Lb1EEENS5_ISI_EEED2Ev, symObjAddr: 0x132F1C, symBinAddr: 0x100137788, symSize: 0x198 }
  - { offsetInCU: 0x34F471, offset: 0x34F471, size: 0x8, addend: 0x0, symName: __ZNKSt3__16vectorINS_4pairINS_12basic_stringIcNS_11char_traitsIcEENS_9allocatorIcEEEEfEENS5_IS8_EEE20__throw_length_errorB8ue170006Ev, symObjAddr: 0x127B04, symBinAddr: 0x10012C370, symSize: 0x18 }
  - { offsetInCU: 0x34F49A, offset: 0x34F49A, size: 0x8, addend: 0x0, symName: __ZNSt3__16vectorINS_4pairINS_12basic_stringIcNS_11char_traitsIcEENS_9allocatorIcEEEEfEENS5_IS8_EEE26__swap_out_circular_bufferERNS_14__split_bufferIS8_RS9_EE, symObjAddr: 0x127B1C, symBinAddr: 0x10012C388, symSize: 0x38C }
  - { offsetInCU: 0x34F4A5, offset: 0x34F4A5, size: 0x8, addend: 0x0, symName: __ZNSt3__114__split_bufferINS_4pairINS_12basic_stringIcNS_11char_traitsIcEENS_9allocatorIcEEEEfEERNS5_IS8_EEED1Ev, symObjAddr: 0x127EA8, symBinAddr: 0x10012C714, symSize: 0x128 }
  - { offsetInCU: 0x34FBCC, offset: 0x34FBCC, size: 0x8, addend: 0x0, symName: __Z17HembergBenchmarksidi, symObjAddr: 0x1BAF0, symBinAddr: 0x10002035C, symSize: 0xD860 }
  - { offsetInCU: 0x37B1F0, offset: 0x37B1F0, size: 0x8, addend: 0x0, symName: __Z19AIFeynmanBenchmarksidi, symObjAddr: 0x29350, symBinAddr: 0x10002DBBC, symSize: 0xD928 }
  - { offsetInCU: 0x3A671B, offset: 0x3A671B, size: 0x8, addend: 0x0, symName: _main, symObjAddr: 0x36C78, symBinAddr: 0x10003B4E4, symSize: 0x5C8 }
  - { offsetInCU: 0x3A7540, offset: 0x3A7540, size: 0x8, addend: 0x0, symName: __ZNSt12length_errorC1B8ue170006EPKc, symObjAddr: 0x372B8, symBinAddr: 0x10003BB24, symSize: 0x4C }
  - { offsetInCU: 0x3A7E6C, offset: 0x3A7E6C, size: 0x8, addend: 0x0, symName: __ZN4DataaSERKN5Eigen6MatrixIfLin1ELin1ELi0ELin1ELin1EEE, symObjAddr: 0x3BC20, symBinAddr: 0x10004048C, symSize: 0x1C28 }
  - { offsetInCU: 0x3AA35F, offset: 0x3AA35F, size: 0x8, addend: 0x0, symName: __ZNSt3__16vectorINS_12basic_stringIcNS_11char_traitsIcEENS_9allocatorIcEEEENS4_IS6_EEE7reserveEm, symObjAddr: 0x3D848, symBinAddr: 0x1000420B4, symSize: 0x418 }
  - { offsetInCU: 0x3AA7DF, offset: 0x3AA7DF, size: 0x8, addend: 0x0, symName: __ZNSt3__16vectorINS_12basic_stringIcNS_11char_traitsIcEENS_9allocatorIcEEEENS4_IS6_EEE21__push_back_slow_pathIS6_EEvOT_, symObjAddr: 0x41058, symBinAddr: 0x1000458C4, symSize: 0x478 }
  - { offsetInCU: 0x3AAD3F, offset: 0x3AAD3F, size: 0x8, addend: 0x0, symName: __ZNSt3__16vectorINS_12basic_stringIcNS_11char_traitsIcEENS_9allocatorIcEEEENS4_IS6_EEE18__assign_with_sizeB8ue170006IPKS6_SB_EEvT_T0_l, symObjAddr: 0x415CC, symBinAddr: 0x100045E38, symSize: 0x404 }
  - { offsetInCU: 0x3AB351, offset: 0x3AB351, size: 0x8, addend: 0x0, symName: __ZNSt3__16vectorINS_12basic_stringIcNS_11char_traitsIcEENS_9allocatorIcEEEENS4_IS6_EEE21__push_back_slow_pathIRKS6_EEvOT_, symObjAddr: 0x42A38, symBinAddr: 0x1000472A4, symSize: 0x5CC }
  - { offsetInCU: 0x3ABBF7, offset: 0x3ABBF7, size: 0x8, addend: 0x0, symName: __ZNSt3__16vectorINS_12basic_stringIcNS_11char_traitsIcEENS_9allocatorIcEEEENS4_IS6_EEE22__construct_one_at_endB8ue170006IJRKS6_EEEvDpOT_, symObjAddr: 0x42568, symBinAddr: 0x100046DD4, symSize: 0x4D0 }
  - { offsetInCU: 0x3AC1E0, offset: 0x3AC1E0, size: 0x8, addend: 0x0, symName: __ZNSt3__16vectorINS_12basic_stringIcNS_11char_traitsIcEENS_9allocatorIcEEEENS4_IS6_EEE18__assign_with_sizeB8ue170006IPS6_SA_EEvT_T0_l, symObjAddr: 0x43004, symBinAddr: 0x100047870, symSize: 0x404 }
  - { offsetInCU: 0x3AC7F2, offset: 0x3AC7F2, size: 0x8, addend: 0x0, symName: __ZNSt3__16vectorIfNS_9allocatorIfEEE18__assign_with_sizeB8ue170006IPKfS6_EEvT_T0_l, symObjAddr: 0x47A70, symBinAddr: 0x10004C2DC, symSize: 0x2D4 }
  - { offsetInCU: 0x3ACD81, offset: 0x3ACD81, size: 0x8, addend: 0x0, symName: __ZNSt3__16vectorIiNS_9allocatorIiEEED1B8ue170006Ev, symObjAddr: 0x3DC60, symBinAddr: 0x1000424CC, symSize: 0xCC }
  - { offsetInCU: 0x3AD6E4, offset: 0x3AD6E4, size: 0x8, addend: 0x0, symName: __ZNSt3__112__hash_tableINS_17__hash_value_typeINS_12basic_stringIcNS_11char_traitsIcEENS_9allocatorIcEEEEN5Eigen6MatrixIfLin1ELi1ELi0ELin1ELi1EEEEENS_22__unordered_map_hasherIS7_SB_NS_4hashIS7_EENS_8equal_toIS7_EELb1EEENS_21__unordered_map_equalIS7_SB_SG_SE_Lb1EEENS5_ISB_EEE25__emplace_unique_key_argsIS7_JRKNS_21piecewise_construct_tENS_5tupleIJOS7_EEENSQ_IJEEEEEENS_4pairINS_15__hash_iteratorIPNS_11__hash_nodeISB_PvEEEEbEERKT_DpOT0_, symObjAddr: 0x3E184, symBinAddr: 0x1000429F0, symSize: 0xB08 }
  - { offsetInCU: 0x3AE115, offset: 0x3AE115, size: 0x8, addend: 0x0, symName: __ZNSt3__16vectorIN5Eigen6MatrixIfLin1ELi1ELi0ELin1ELi1EEENS_9allocatorIS3_EEE6resizeEm, symObjAddr: 0x3DD2C, symBinAddr: 0x100042598, symSize: 0x16C }
  - { offsetInCU: 0x3AE598, offset: 0x3AE598, size: 0x8, addend: 0x0, symName: __ZNKSt3__16vectorINS_12basic_stringIcNS_11char_traitsIcEENS_9allocatorIcEEEENS4_IS6_EEE20__throw_length_errorB8ue170006Ev, symObjAddr: 0x40C2C, symBinAddr: 0x100045498, symSize: 0x18 }
  - { offsetInCU: 0x3AE5C1, offset: 0x3AE5C1, size: 0x8, addend: 0x0, symName: __ZNSt3__16vectorINS_12basic_stringIcNS_11char_traitsIcEENS_9allocatorIcEEEENS4_IS6_EEE26__swap_out_circular_bufferERNS_14__split_bufferIS6_RS7_EE, symObjAddr: 0x40C44, symBinAddr: 0x1000454B0, symSize: 0x2EC }
  - { offsetInCU: 0x3AE5CC, offset: 0x3AE5CC, size: 0x8, addend: 0x0, symName: __ZNSt3__114__split_bufferINS_12basic_stringIcNS_11char_traitsIcEENS_9allocatorIcEEEERNS4_IS6_EEED1Ev, symObjAddr: 0x40F30, symBinAddr: 0x10004579C, symSize: 0x128 }
  - { offsetInCU: 0x3AE93D, offset: 0x3AE93D, size: 0x8, addend: 0x0, symName: __ZNSt3__16vectorIN5Eigen6MatrixIfLin1ELi1ELi0ELin1ELi1EEENS_9allocatorIS3_EEE8__appendEm, symObjAddr: 0x40220, symBinAddr: 0x100044A8C, symSize: 0x438 }
  - { offsetInCU: 0x3AF57D, offset: 0x3AF57D, size: 0x8, addend: 0x0, symName: __ZNKSt3__121__murmur2_or_cityhashImLm64EEclB8ue170006EPKvm, symObjAddr: 0x3ED98, symBinAddr: 0x100043604, symSize: 0x10A8 }
  - { offsetInCU: 0x3AFD28, offset: 0x3AFD28, size: 0x8, addend: 0x0, symName: __ZNSt3__112__hash_tableINS_17__hash_value_typeINS_12basic_stringIcNS_11char_traitsIcEENS_9allocatorIcEEEEN5Eigen6MatrixIfLin1ELi1ELi0ELin1ELi1EEEEENS_22__unordered_map_hasherIS7_SB_NS_4hashIS7_EENS_8equal_toIS7_EELb1EEENS_21__unordered_map_equalIS7_SB_SG_SE_Lb1EEENS5_ISB_EEE11__do_rehashILb1EEEvm, symObjAddr: 0x3FE40, symBinAddr: 0x1000446AC, symSize: 0x3E0 }
  - { offsetInCU: 0x3B01F1, offset: 0x3B01F1, size: 0x8, addend: 0x0, symName: __ZNSt3__110unique_ptrINS_11__hash_nodeINS_17__hash_value_typeINS_12basic_stringIcNS_11char_traitsIcEENS_9allocatorIcEEEEN5Eigen6MatrixIfLin1ELi1ELi0ELin1ELi1EEEEEPvEENS_22__hash_node_destructorINS6_ISE_EEEEED1B8ue170006Ev, symObjAddr: 0x3EC8C, symBinAddr: 0x1000434F8, symSize: 0x10C }
  - { offsetInCU: 0x3B0BED, offset: 0x3B0BED, size: 0x8, addend: 0x0, symName: __ZNSt3__16vectorIN5Eigen6MatrixIfLin1ELi1ELi0ELin1ELi1EEENS_9allocatorIS3_EEE18__construct_at_endEm, symObjAddr: 0x40658, symBinAddr: 0x100044EC4, symSize: 0x154 }
  - { offsetInCU: 0x3B0E7B, offset: 0x3B0E7B, size: 0x8, addend: 0x0, symName: __ZNKSt3__16vectorIN5Eigen6MatrixIfLin1ELi1ELi0ELin1ELi1EEENS_9allocatorIS3_EEE20__throw_length_errorB8ue170006Ev, symObjAddr: 0x40C14, symBinAddr: 0x100045480, symSize: 0x18 }
  - { offsetInCU: 0x3B0EA4, offset: 0x3B0EA4, size: 0x8, addend: 0x0, symName: __ZNKSt3__16vectorINS_12basic_stringIcNS_11char_traitsIcEENS_9allocatorIcEEEENS4_IS6_EEE20__throw_length_errorB8ue170006Ev, symObjAddr: 0x40C2C, symBinAddr: 0x100045498, symSize: 0x18 }
  - { offsetInCU: 0x3B0EAF, offset: 0x3B0EAF, size: 0x8, addend: 0x0, symName: __ZNSt3__114__split_bufferIN5Eigen6MatrixIfLin1ELi1ELi0ELin1ELi1EEERNS_9allocatorIS3_EEED1Ev, symObjAddr: 0x40B24, symBinAddr: 0x100045390, symSize: 0xF0 }
  - { offsetInCU: 0x3B13E4, offset: 0x3B13E4, size: 0x8, addend: 0x0, symName: __ZNSt3__16vectorINS_12basic_stringIcNS_11char_traitsIcEENS_9allocatorIcEEEENS4_IS6_EEE21_ConstructTransactionD1B8ue170006Ev, symObjAddr: 0x414D0, symBinAddr: 0x100045D3C, symSize: 0xFC }
  - { offsetInCU: 0x3B1585, offset: 0x3B1585, size: 0x8, addend: 0x0, symName: __ZNSt3__16vectorINS_12basic_stringIcNS_11char_traitsIcEENS_9allocatorIcEEEENS4_IS6_EEE13__vdeallocateEv, symObjAddr: 0x41D54, symBinAddr: 0x1000465C0, symSize: 0x200 }
  - { offsetInCU: 0x3B1929, offset: 0x3B1929, size: 0x8, addend: 0x0, symName: __ZNSt3__16vectorINS_12basic_stringIcNS_11char_traitsIcEENS_9allocatorIcEEEENS4_IS6_EEE18__construct_at_endIPKS6_SB_EEvT_T0_m, symObjAddr: 0x419D0, symBinAddr: 0x10004623C, symSize: 0x384 }
  - { offsetInCU: 0x3B1C26, offset: 0x3B1C26, size: 0x8, addend: 0x0, symName: __ZNSt3__128__exception_guard_exceptionsINS_29_AllocatorDestroyRangeReverseINS_9allocatorINS_12basic_stringIcNS_11char_traitsIcEENS2_IcEEEEEEPS7_EEED1B8ue170006Ev, symObjAddr: 0x42420, symBinAddr: 0x100046C8C, symSize: 0x148 }
  - { offsetInCU: 0x3B1E9E, offset: 0x3B1E9E, size: 0x8, addend: 0x0, symName: __ZNSt3__16vectorINS_12basic_stringIcNS_11char_traitsIcEENS_9allocatorIcEEEENS4_IS6_EEE18__construct_at_endIPS6_SA_EEvT_T0_m, symObjAddr: 0x43408, symBinAddr: 0x100047C74, symSize: 0x384 }
  - { offsetInCU: 0x3B26F5, offset: 0x3B26F5, size: 0x8, addend: 0x0, symName: __ZNSt3__112__hash_tableINS_17__hash_value_typeIfNS_12basic_stringIcNS_11char_traitsIcEENS_9allocatorIcEEEEEENS_22__unordered_map_hasherIfS8_NS_4hashIfEENS_8equal_toIfEELb1EEENS_21__unordered_map_equalIfS8_SD_SB_Lb1EEENS5_IS8_EEE11__do_rehashILb1EEEvm, symObjAddr: 0x44624, symBinAddr: 0x100048E90, symSize: 0x3E0 }
  - { offsetInCU: 0x3B2BBE, offset: 0x3B2BBE, size: 0x8, addend: 0x0, symName: __ZNSt3__110unique_ptrINS_11__hash_nodeINS_17__hash_value_typeIfNS_12basic_stringIcNS_11char_traitsIcEENS_9allocatorIcEEEEEEPvEENS_22__hash_node_destructorINS6_ISB_EEEEED1B8ue170006Ev, symObjAddr: 0x44540, symBinAddr: 0x100048DAC, symSize: 0xE4 }
  - { offsetInCU: 0x3B3707, offset: 0x3B3707, size: 0x8, addend: 0x0, symName: __ZNSt3__112__hash_tableINS_17__hash_value_typeIbNS_13unordered_mapIbNS2_IbNS_6vectorIfNS_9allocatorIfEEEENS_4hashIbEENS_8equal_toIbEENS4_INS_4pairIKbS6_EEEEEES8_SA_NS4_INSB_ISC_SF_EEEEEEEENS_22__unordered_map_hasherIbSJ_S8_SA_Lb1EEENS_21__unordered_map_equalIbSJ_SA_S8_Lb1EEENS4_ISJ_EEE11__do_rehashILb1EEEvm, symObjAddr: 0x45434, symBinAddr: 0x100049CA0, symSize: 0x3E0 }
  - { offsetInCU: 0x3B3BD0, offset: 0x3B3BD0, size: 0x8, addend: 0x0, symName: __ZNSt3__110unique_ptrINS_11__hash_nodeINS_17__hash_value_typeIbNS_13unordered_mapIbNS3_IbNS_6vectorIfNS_9allocatorIfEEEENS_4hashIbEENS_8equal_toIbEENS5_INS_4pairIKbS7_EEEEEES9_SB_NS5_INSC_ISD_SG_EEEEEEEEPvEENS_22__hash_node_destructorINS5_ISM_EEEEED1B8ue170006Ev, symObjAddr: 0x452FC, symBinAddr: 0x100049B68, symSize: 0x138 }
  - { offsetInCU: 0x3B44A4, offset: 0x3B44A4, size: 0x8, addend: 0x0, symName: __ZNSt3__112__hash_tableINS_17__hash_value_typeIbNS_6vectorIfNS_9allocatorIfEEEEEENS_22__unordered_map_hasherIbS6_NS_4hashIbEENS_8equal_toIbEELb1EEENS_21__unordered_map_equalIbS6_SB_S9_Lb1EEENS3_IS6_EEED2Ev, symObjAddr: 0x45814, symBinAddr: 0x10004A080, symSize: 0x164 }
  - { offsetInCU: 0x3B5382, offset: 0x3B5382, size: 0x8, addend: 0x0, symName: __ZNSt3__112__hash_tableINS_17__hash_value_typeIbNS_13unordered_mapIbNS_6vectorIfNS_9allocatorIfEEEENS_4hashIbEENS_8equal_toIbEENS4_INS_4pairIKbS6_EEEEEEEENS_22__unordered_map_hasherIbSG_S8_SA_Lb1EEENS_21__unordered_map_equalIbSG_SA_S8_Lb1EEENS4_ISG_EEE11__do_rehashILb1EEEvm, symObjAddr: 0x46310, symBinAddr: 0x10004AB7C, symSize: 0x3E0 }
  - { offsetInCU: 0x3B584B, offset: 0x3B584B, size: 0x8, addend: 0x0, symName: __ZNSt3__110unique_ptrINS_11__hash_nodeINS_17__hash_value_typeIbNS_13unordered_mapIbNS_6vectorIfNS_9allocatorIfEEEENS_4hashIbEENS_8equal_toIbEENS5_INS_4pairIKbS7_EEEEEEEEPvEENS_22__hash_node_destructorINS5_ISJ_EEEEED1B8ue170006Ev, symObjAddr: 0x46270, symBinAddr: 0x10004AADC, symSize: 0xA0 }
  - { offsetInCU: 0x3B614C, offset: 0x3B614C, size: 0x8, addend: 0x0, symName: __ZNSt3__112__hash_tableINS_17__hash_value_typeIbNS_6vectorIfNS_9allocatorIfEEEEEENS_22__unordered_map_hasherIbS6_NS_4hashIbEENS_8equal_toIbEELb1EEENS_21__unordered_map_equalIbS6_SB_S9_Lb1EEENS3_IS6_EEE11__do_rehashILb1EEEvm, symObjAddr: 0x470FC, symBinAddr: 0x10004B968, symSize: 0x3E0 }
  - { offsetInCU: 0x3B6615, offset: 0x3B6615, size: 0x8, addend: 0x0, symName: __ZNSt3__110unique_ptrINS_11__hash_nodeINS_17__hash_value_typeIbNS_6vectorIfNS_9allocatorIfEEEEEEPvEENS_22__hash_node_destructorINS4_IS9_EEEEED1B8ue170006Ev, symObjAddr: 0x46FB8, symBinAddr: 0x10004B824, symSize: 0x144 }
  - { offsetInCU: 0x3B6B5E, offset: 0x3B6B5E, size: 0x8, addend: 0x0, symName: __ZNSt3__16vectorIfNS_9allocatorIfEEE18__construct_at_endIPfS5_EEvT_T0_m, symObjAddr: 0x477B0, symBinAddr: 0x10004C01C, symSize: 0x154 }
  - { offsetInCU: 0x3B6FA9, offset: 0x3B6FA9, size: 0x8, addend: 0x0, symName: __ZNSt3__16vectorIfNS_9allocatorIfEEE18__construct_at_endIPKfS6_EEvT_T0_m, symObjAddr: 0x47D44, symBinAddr: 0x10004C5B0, symSize: 0x154 }
  - { offsetInCU: 0x3B76AA, offset: 0x3B76AA, size: 0x8, addend: 0x0, symName: __ZNSt3__16vectorIiNS_9allocatorIiEEE21__push_back_slow_pathIiEEvOT_, symObjAddr: 0x4AE5C, symBinAddr: 0x10004F6C8, symSize: 0x48C }
  - { offsetInCU: 0x3B7D1C, offset: 0x3B7D1C, size: 0x8, addend: 0x0, symName: __ZN5Board18LevenbergMarquardtEv, symObjAddr: 0x53214, symBinAddr: 0x100057A80, symSize: 0xB7C }
  - { offsetInCU: 0x3B95CE, offset: 0x3B95CE, size: 0x8, addend: 0x0, symName: __ZN5Board3PSOEv, symObjAddr: 0x4CC1C, symBinAddr: 0x100051488, symSize: 0x22F8 }
  - { offsetInCU: 0x3BC735, offset: 0x3BC735, size: 0x8, addend: 0x0, symName: __ZN5Board5LBFGSEv, symObjAddr: 0x50E28, symBinAddr: 0x100055694, symSize: 0x1058 }
  - { offsetInCU: 0x3BDE23, offset: 0x3BDE23, size: 0x8, addend: 0x0, symName: __ZN5Board6LBFGSBEv, symObjAddr: 0x51E80, symBinAddr: 0x1000566EC, symSize: 0x1394 }
  - { offsetInCU: 0x3BFEC8, offset: 0x3BFEC8, size: 0x8, addend: 0x0, symName: __ZN5Board20expression_evaluatorERKN5Eigen6MatrixIfLin1ELi1ELi0ELin1ELi1EEE, symObjAddr: 0x53D90, symBinAddr: 0x1000585FC, symSize: 0x6140 }
  - { offsetInCU: 0x3C9955, offset: 0x3C9955, size: 0x8, addend: 0x0, symName: __ZNSt3__112__hash_tableINS_17__hash_value_typeINS_12basic_stringIcNS_11char_traitsIcEENS_9allocatorIcEEEEN5Eigen6MatrixIfLin1ELi1ELi0ELin1ELi1EEEEENS_22__unordered_map_hasherIS7_SB_NS_4hashIS7_EENS_8equal_toIS7_EELb1EEENS_21__unordered_map_equalIS7_SB_SG_SE_Lb1EEENS5_ISB_EEE25__emplace_unique_key_argsIS7_JRKNS_21piecewise_construct_tENS_5tupleIJRKS7_EEENSQ_IJEEEEEENS_4pairINS_15__hash_iteratorIPNS_11__hash_nodeISB_PvEEEEbEERKT_DpOT0_, symObjAddr: 0x11B0B8, symBinAddr: 0x10011F924, symSize: 0xA64 }
  - { offsetInCU: 0x3CA34D, offset: 0x3CA34D, size: 0x8, addend: 0x0, symName: __ZNKSt3__16vectorIiNS_9allocatorIiEEE20__throw_length_errorB8ue170006Ev, symObjAddr: 0x4B9D8, symBinAddr: 0x100050244, symSize: 0x18 }
  - { offsetInCU: 0x3CA376, offset: 0x3CA376, size: 0x8, addend: 0x0, symName: __ZNSt3__112__hash_tableINS_17__hash_value_typeINS_12basic_stringIcNS_11char_traitsIcEENS_9allocatorIcEEEENS_4pairIN5Eigen6MatrixIfLin1ELi1ELi0ELin1ELi1EEEiEEEENS_22__unordered_map_hasherIS7_SD_NS_4hashIS7_EENS_8equal_toIS7_EELb1EEENS_21__unordered_map_equalIS7_SD_SI_SG_Lb1EEENS5_ISD_EEE25__emplace_unique_key_argsIS7_JRKNS_21piecewise_construct_tENS_5tupleIJRKS7_EEENSS_IJEEEEEENS8_INS_15__hash_iteratorIPNS_11__hash_nodeISD_PvEEEEbEERKT_DpOT0_, symObjAddr: 0x4B9F0, symBinAddr: 0x10005025C, symSize: 0xA64 }
  - { offsetInCU: 0x3CA5B7, offset: 0x3CA5B7, size: 0x8, addend: 0x0, symName: __ZNSt3__112__hash_tableINS_17__hash_value_typeINS_12basic_stringIcNS_11char_traitsIcEENS_9allocatorIcEEEENS_4pairIN5Eigen6MatrixIfLin1ELi1ELi0ELin1ELi1EEEiEEEENS_22__unordered_map_hasherIS7_SD_NS_4hashIS7_EENS_8equal_toIS7_EELb1EEENS_21__unordered_map_equalIS7_SD_SI_SG_Lb1EEENS5_ISD_EEE21__construct_node_hashIRKNS_21piecewise_construct_tEJNS_5tupleIJRKS7_EEENSS_IJEEEEEENS_10unique_ptrINS_11__hash_nodeISD_PvEENS_22__hash_node_destructorINS5_IS10_EEEEEEmOT_DpOT0_, symObjAddr: 0x4C454, symBinAddr: 0x100050CC0, symSize: 0x2DC }
  - { offsetInCU: 0x3CAC0B, offset: 0x3CAC0B, size: 0x8, addend: 0x0, symName: __ZNSt3__112__hash_tableINS_17__hash_value_typeINS_12basic_stringIcNS_11char_traitsIcEENS_9allocatorIcEEEENS_4pairIN5Eigen6MatrixIfLin1ELi1ELi0ELin1ELi1EEEiEEEENS_22__unordered_map_hasherIS7_SD_NS_4hashIS7_EENS_8equal_toIS7_EELb1EEENS_21__unordered_map_equalIS7_SD_SI_SG_Lb1EEENS5_ISD_EEE11__do_rehashILb1EEEvm, symObjAddr: 0x4C83C, symBinAddr: 0x1000510A8, symSize: 0x3E0 }
  - { offsetInCU: 0x3CB0D4, offset: 0x3CB0D4, size: 0x8, addend: 0x0, symName: __ZNSt3__110unique_ptrINS_11__hash_nodeINS_17__hash_value_typeINS_12basic_stringIcNS_11char_traitsIcEENS_9allocatorIcEEEENS_4pairIN5Eigen6MatrixIfLin1ELi1ELi0ELin1ELi1EEEiEEEEPvEENS_22__hash_node_destructorINS6_ISG_EEEEED1B8ue170006Ev, symObjAddr: 0x4C730, symBinAddr: 0x100050F9C, symSize: 0x10C }
  - { offsetInCU: 0x3CBEAB, offset: 0x3CBEAB, size: 0x8, addend: 0x0, symName: __ZNSt3__16vectorINS_6futureIvEENS_9allocatorIS2_EEE7reserveEm, symObjAddr: 0x59ED0, symBinAddr: 0x10005E73C, symSize: 0x394 }
  - { offsetInCU: 0x3CC242, offset: 0x3CC242, size: 0x8, addend: 0x0, symName: __ZNSt3__16vectorINS_6futureIvEENS_9allocatorIS2_EEE21__push_back_slow_pathIS2_EEvOT_, symObjAddr: 0x5AC98, symBinAddr: 0x10005F504, symSize: 0x3FC }
  - { offsetInCU: 0x3CC68E, offset: 0x3CC68E, size: 0x8, addend: 0x0, symName: __ZNSt3__16vectorINS_6futureIvEENS_9allocatorIS2_EEED1B8ue170006Ev, symObjAddr: 0x5A780, symBinAddr: 0x10005EFEC, symSize: 0x120 }
  - { offsetInCU: 0x3CCA93, offset: 0x3CCA93, size: 0x8, addend: 0x0, symName: __ZN7LBFGSpp11LBFGSSolverIfNS_21LineSearchMoreThuenteEEC2ERKNS_10LBFGSParamIfEE, symObjAddr: 0x62CF0, symBinAddr: 0x10006755C, symSize: 0x1A8 }
  - { offsetInCU: 0x3CD1C5, offset: 0x3CD1C5, size: 0x8, addend: 0x0, symName: __ZN7LBFGSpp11LBFGSSolverIfNS_21LineSearchMoreThuenteEE8minimizeI5BoardEEiRT_RN5Eigen6MatrixIfLin1ELi1ELi0ELin1ELi1EEERf, symObjAddr: 0x5D68C, symBinAddr: 0x100061EF8, symSize: 0x54F0 }
  - { offsetInCU: 0x3D2D77, offset: 0x3D2D77, size: 0x8, addend: 0x0, symName: __ZN7LBFGSpp6BKLDLTIfED2Ev, symObjAddr: 0x633E0, symBinAddr: 0x100067C4C, symSize: 0x1A0 }
  - { offsetInCU: 0x3D327E, offset: 0x3D327E, size: 0x8, addend: 0x0, symName: __ZN7LBFGSpp11LBFGSSolverIfNS_21LineSearchMoreThuenteEED1Ev, symObjAddr: 0x62B7C, symBinAddr: 0x1000673E8, symSize: 0x174 }
  - { offsetInCU: 0x3D3DD5, offset: 0x3D3DD5, size: 0x8, addend: 0x0, symName: __ZN7LBFGSpp12LBFGSBSolverIfNS_21LineSearchMoreThuenteEEC2ERKNS_11LBFGSBParamIfEE, symObjAddr: 0x8392C, symBinAddr: 0x100088198, symSize: 0x1A8 }
  - { offsetInCU: 0x3D44F8, offset: 0x3D44F8, size: 0x8, addend: 0x0, symName: __ZN7LBFGSpp12LBFGSBSolverIfNS_21LineSearchMoreThuenteEE8minimizeI5BoardEEiRT_RN5Eigen6MatrixIfLin1ELi1ELi0ELin1ELi1EEERfRKS9_SD_, symObjAddr: 0x7CB7C, symBinAddr: 0x1000813E8, symSize: 0x6C3C }
  - { offsetInCU: 0x3DB2EE, offset: 0x3DB2EE, size: 0x8, addend: 0x0, symName: __ZN7LBFGSpp12LBFGSBSolverIfNS_21LineSearchMoreThuenteEED1Ev, symObjAddr: 0x837B8, symBinAddr: 0x100088024, symSize: 0x174 }
  - { offsetInCU: 0x3DBD8E, offset: 0x3DBD8E, size: 0x8, addend: 0x0, symName: __ZN5Eigen18LevenbergMarquardtIR5BoardfE12minimizeInitERNS_6MatrixIfLin1ELi1ELi0ELin1ELi1EEE, symObjAddr: 0xE46F0, symBinAddr: 0x1000E8F5C, symSize: 0xB24 }
  - { offsetInCU: 0x3DC5D2, offset: 0x3DC5D2, size: 0x8, addend: 0x0, symName: __ZN5Eigen18LevenbergMarquardtIR5BoardfE15minimizeOneStepERNS_6MatrixIfLin1ELi1ELi0ELin1ELi1EEE, symObjAddr: 0xE5214, symBinAddr: 0x1000E9A80, symSize: 0x6ECC }
  - { offsetInCU: 0x3E1A60, offset: 0x3E1A60, size: 0x8, addend: 0x0, symName: __ZN5Eigen18LevenbergMarquardtIR5BoardfED1Ev, symObjAddr: 0xE45A4, symBinAddr: 0x1000E8E10, symSize: 0x14C }
  - { offsetInCU: 0x3E38F1, offset: 0x3E38F1, size: 0x8, addend: 0x0, symName: __ZNSt3__15dequeIN5Eigen6MatrixIfLin1ELi1ELi0ELin1ELi1EEENS_9allocatorIS3_EEE19__add_back_capacityEv, symObjAddr: 0x11228C, symBinAddr: 0x100116AF8, symSize: 0x1464 }
  - { offsetInCU: 0x3E5076, offset: 0x3E5076, size: 0x8, addend: 0x0, symName: __ZN5Eigen15PlainObjectBaseINS_6MatrixIfLin1ELi1ELi0ELin1ELi1EEEEC2INS_13CwiseBinaryOpINS_8internal17scalar_product_opIffEEKNS_14CwiseNullaryOpINS6_18scalar_constant_opIfEES2_EEKNS9_ISB_KS2_EEEEEERKNS_9DenseBaseIT_EE, symObjAddr: 0x1144FC, symBinAddr: 0x100118D68, symSize: 0x528 }
  - { offsetInCU: 0x3E57A1, offset: 0x3E57A1, size: 0x8, addend: 0x0, symName: __ZN5Eigen15PlainObjectBaseINS_6MatrixIfLin1ELi1ELi0ELin1ELi1EEEEC2INS_12CwiseUnaryOpINS_8internal14scalar_asin_opIfEEKNS_12ArrayWrapperIS2_EEEEEERKNS_9DenseBaseIT_EE, symObjAddr: 0x116330, symBinAddr: 0x10011AB9C, symSize: 0x2CC }
  - { offsetInCU: 0x3E5E5F, offset: 0x3E5E5F, size: 0x8, addend: 0x0, symName: __ZN5Eigen15PlainObjectBaseINS_6MatrixIfLin1ELi1ELi0ELin1ELi1EEEEC2INS_12CwiseUnaryOpINS_8internal14scalar_sqrt_opIfEEKNS_12ArrayWrapperIS2_EEEEEERKNS_9DenseBaseIT_EE, symObjAddr: 0x1152E8, symBinAddr: 0x100119B54, symSize: 0x788 }
  - { offsetInCU: 0x3E6626, offset: 0x3E6626, size: 0x8, addend: 0x0, symName: __ZN5Eigen15PlainObjectBaseINS_6MatrixIfLin1ELi1ELi0ELin1ELi1EEEEC2INS_12CwiseUnaryOpINS_8internal13scalar_log_opIfEEKNS_12ArrayWrapperIS2_EEEEEERKNS_9DenseBaseIT_EE, symObjAddr: 0x1165FC, symBinAddr: 0x10011AE68, symSize: 0x6C4 }
  - { offsetInCU: 0x3E6DE1, offset: 0x3E6DE1, size: 0x8, addend: 0x0, symName: __ZNSt3__15stackIN5Eigen6MatrixIfLin1ELi1ELi0ELin1ELi1EEENS_5dequeIS3_NS_9allocatorIS3_EEEEE3popB8ue170006Ev, symObjAddr: 0x1120B4, symBinAddr: 0x100116920, symSize: 0x1D8 }
  - { offsetInCU: 0x3E7137, offset: 0x3E7137, size: 0x8, addend: 0x0, symName: __ZN5Eigen15PlainObjectBaseINS_6MatrixIfLin1ELi1ELi0ELin1ELi1EEEEC2INS_12CwiseUnaryOpINS_8internal14scalar_acos_opIfEEKNS_12ArrayWrapperIS2_EEEEEERKNS_9DenseBaseIT_EE, symObjAddr: 0x1174AC, symBinAddr: 0x10011BD18, symSize: 0x2CC }
  - { offsetInCU: 0x3E77F5, offset: 0x3E77F5, size: 0x8, addend: 0x0, symName: __ZNSt3__15stackIN5Eigen6MatrixIfLin1ELi1ELi0ELin1ELi1EEENS_5dequeIS3_NS_9allocatorIS3_EEEEE4pushB8ue170006EOS3_, symObjAddr: 0x111EA8, symBinAddr: 0x100116714, symSize: 0x20C }
  - { offsetInCU: 0x3E79EE, offset: 0x3E79EE, size: 0x8, addend: 0x0, symName: __ZN5Eigen15PlainObjectBaseINS_6MatrixIfLin1ELi1ELi0ELin1ELi1EEEEC2INS_13CwiseBinaryOpINS_8internal13scalar_sum_opIffEEKNS_12ArrayWrapperIS2_EESB_EEEERKNS_9DenseBaseIT_EE, symObjAddr: 0x117EF8, symBinAddr: 0x10011C764, symSize: 0xA40 }
  - { offsetInCU: 0x3E82E1, offset: 0x3E82E1, size: 0x8, addend: 0x0, symName: __ZN5Eigen15PlainObjectBaseINS_6MatrixIfLin1ELi1ELi0ELin1ELi1EEEEC2INS_13CwiseBinaryOpINS_8internal20scalar_difference_opIffEEKNS_12ArrayWrapperIS2_EESB_EEEERKNS_9DenseBaseIT_EE, symObjAddr: 0x118938, symBinAddr: 0x10011D1A4, symSize: 0xA40 }
  - { offsetInCU: 0x3E8BD4, offset: 0x3E8BD4, size: 0x8, addend: 0x0, symName: __ZN5Eigen15PlainObjectBaseINS_6MatrixIfLin1ELi1ELi0ELin1ELi1EEEEC2INS_12CwiseUnaryOpINS_8internal18scalar_opposite_opIfEEKNS_12ArrayWrapperIS2_EEEEEERKNS_9DenseBaseIT_EE, symObjAddr: 0x117778, symBinAddr: 0x10011BFE4, symSize: 0x780 }
  - { offsetInCU: 0x3E936D, offset: 0x3E936D, size: 0x8, addend: 0x0, symName: __ZN5Eigen15PlainObjectBaseINS_6MatrixIfLin1ELi1ELi0ELin1ELi1EEEEC2INS_12CwiseUnaryOpINS_8internal14scalar_tanh_opIfEEKNS_12ArrayWrapperIS2_EEEEEERKNS_9DenseBaseIT_EE, symObjAddr: 0x116CC0, symBinAddr: 0x10011B52C, symSize: 0x7EC }
  - { offsetInCU: 0x3E9E65, offset: 0x3E9E65, size: 0x8, addend: 0x0, symName: __ZN5Eigen15PlainObjectBaseINS_6MatrixIfLin1ELi1ELi0ELin1ELi1EEEEC2INS_13CwiseBinaryOpINS_8internal17scalar_product_opIffEEKNS_12ArrayWrapperIS2_EESB_EEEERKNS_9DenseBaseIT_EE, symObjAddr: 0x119378, symBinAddr: 0x10011DBE4, symSize: 0xA40 }
  - { offsetInCU: 0x3EA758, offset: 0x3EA758, size: 0x8, addend: 0x0, symName: __ZN5Eigen15PlainObjectBaseINS_6MatrixIfLin1ELi1ELi0ELin1ELi1EEEEC2INS_13CwiseBinaryOpINS_8internal18scalar_quotient_opIffEEKNS_12ArrayWrapperIS2_EESB_EEEERKNS_9DenseBaseIT_EE, symObjAddr: 0x119DB8, symBinAddr: 0x10011E624, symSize: 0xA40 }
  - { offsetInCU: 0x3EB04B, offset: 0x3EB04B, size: 0x8, addend: 0x0, symName: __ZN5Eigen15PlainObjectBaseINS_6MatrixIfLin1ELi1ELi0ELin1ELi1EEEEC2INS_13CwiseBinaryOpINS_8internal13scalar_pow_opIffEEKNS_12ArrayWrapperIS2_EESB_EEEERKNS_9DenseBaseIT_EE, symObjAddr: 0x11A7F8, symBinAddr: 0x10011F064, symSize: 0x514 }
  - { offsetInCU: 0x3EB827, offset: 0x3EB827, size: 0x8, addend: 0x0, symName: __ZNSt3__15dequeIN5Eigen6MatrixIfLin1ELi1ELi0ELin1ELi1EEENS_9allocatorIS3_EEED2B8ue170006Ev, symObjAddr: 0x11AD0C, symBinAddr: 0x10011F578, symSize: 0x3AC }
  - { offsetInCU: 0x3EC003, offset: 0x3EC003, size: 0x8, addend: 0x0, symName: __ZNKSt3__16vectorINS_6futureIvEENS_9allocatorIS2_EEE20__throw_length_errorB8ue170006Ev, symObjAddr: 0x5A8A0, symBinAddr: 0x10005F10C, symSize: 0x18 }
  - { offsetInCU: 0x3EC02C, offset: 0x3EC02C, size: 0x8, addend: 0x0, symName: __ZNSt3__16vectorINS_6futureIvEENS_9allocatorIS2_EEE26__swap_out_circular_bufferERNS_14__split_bufferIS2_RS4_EE, symObjAddr: 0x5A8B8, symBinAddr: 0x10005F124, symSize: 0x308 }
  - { offsetInCU: 0x3EC037, offset: 0x3EC037, size: 0x8, addend: 0x0, symName: __ZNSt3__114__split_bufferINS_6futureIvEERNS_9allocatorIS2_EEED1Ev, symObjAddr: 0x5ABC0, symBinAddr: 0x10005F42C, symSize: 0xD8 }
  - { offsetInCU: 0x3EC977, offset: 0x3EC977, size: 0x8, addend: 0x0, symName: __ZNSt3__16threadC2IMNS_19__async_assoc_stateIvNS_12__async_funcIZN5Board8AsyncPSOEvEUliE_JiEEEEEFvvEJPS7_EvEEOT_DpOT0_, symObjAddr: 0x5CC48, symBinAddr: 0x1000614B4, symSize: 0x33C }
  - { offsetInCU: 0x3ECDF7, offset: 0x3ECDF7, size: 0x8, addend: 0x0, symName: __ZNSt3__119__async_assoc_stateIvNS_12__async_funcIZN5Board8AsyncPSOEvEUliE_JiEEEED1Ev, symObjAddr: 0x5B468, symBinAddr: 0x10005FCD4, symSize: 0x70 }
  - { offsetInCU: 0x3ECE74, offset: 0x3ECE74, size: 0x8, addend: 0x0, symName: __ZNSt3__119__async_assoc_stateIvNS_12__async_funcIZN5Board8AsyncPSOEvEUliE_JiEEEED0Ev, symObjAddr: 0x5B4D8, symBinAddr: 0x10005FD44, symSize: 0x74 }
  - { offsetInCU: 0x3ECEE7, offset: 0x3ECEE7, size: 0x8, addend: 0x0, symName: __ZNSt3__119__async_assoc_stateIvNS_12__async_funcIZN5Board8AsyncPSOEvEUliE_JiEEEE16__on_zero_sharedEv, symObjAddr: 0x5B54C, symBinAddr: 0x10005FDB8, symSize: 0x34 }
  - { offsetInCU: 0x3ECF52, offset: 0x3ECF52, size: 0x8, addend: 0x0, symName: __ZNSt3__119__async_assoc_stateIvNS_12__async_funcIZN5Board8AsyncPSOEvEUliE_JiEEEE9__executeEv, symObjAddr: 0x5B580, symBinAddr: 0x10005FDEC, symSize: 0x1F4 }
  - { offsetInCU: 0x3ED00D, offset: 0x3ED00D, size: 0x8, addend: 0x0, symName: __ZZN5Board8AsyncPSOEvENKUliE_clEi, symObjAddr: 0x5B774, symBinAddr: 0x10005FFE0, symSize: 0x14D4 }
  - { offsetInCU: 0x3EED39, offset: 0x3EED39, size: 0x8, addend: 0x0, symName: __ZNSt3__110unique_ptrINS_5tupleIJNS0_INS_15__thread_structENS_14default_deleteIS2_EEEEMNS_19__async_assoc_stateIvNS_12__async_funcIZN5Board8AsyncPSOEvEUliE_JiEEEEEFvvEPSB_EEENS3_ISF_EEED1B8ue170006Ev, symObjAddr: 0x5D29C, symBinAddr: 0x100061B08, symSize: 0xAC }
  - { offsetInCU: 0x3EEEA8, offset: 0x3EEEA8, size: 0x8, addend: 0x0, symName: __ZNSt3__110unique_ptrINS_15__thread_structENS_14default_deleteIS1_EEED1B8ue170006Ev, symObjAddr: 0x5D348, symBinAddr: 0x100061BB4, symSize: 0x6C }
  - { offsetInCU: 0x3EF0D9, offset: 0x3EF0D9, size: 0x8, addend: 0x0, symName: __ZNSt3__122__deferred_assoc_stateIvNS_12__async_funcIZN5Board8AsyncPSOEvEUliE_JiEEEED1Ev, symObjAddr: 0x5D3B4, symBinAddr: 0x100061C20, symSize: 0x70 }
  - { offsetInCU: 0x3EF156, offset: 0x3EF156, size: 0x8, addend: 0x0, symName: __ZNSt3__122__deferred_assoc_stateIvNS_12__async_funcIZN5Board8AsyncPSOEvEUliE_JiEEEED0Ev, symObjAddr: 0x5D424, symBinAddr: 0x100061C90, symSize: 0x74 }
  - { offsetInCU: 0x3EF1C9, offset: 0x3EF1C9, size: 0x8, addend: 0x0, symName: __ZNSt3__122__deferred_assoc_stateIvNS_12__async_funcIZN5Board8AsyncPSOEvEUliE_JiEEEE9__executeEv, symObjAddr: 0x5D498, symBinAddr: 0x100061D04, symSize: 0x1F4 }
  - { offsetInCU: 0x3F0237, offset: 0x3F0237, size: 0x8, addend: 0x0, symName: __ZN7LBFGSpp11LBFGSSolverIfNS_21LineSearchMoreThuenteEE5resetEi, symObjAddr: 0x63580, symBinAddr: 0x100067DEC, symSize: 0x3E4 }
  - { offsetInCU: 0x3F0667, offset: 0x3F0667, size: 0x8, addend: 0x0, symName: __ZN5BoardclERN5Eigen6MatrixIfLin1ELi1ELi0ELin1ELi1EEES3_, symObjAddr: 0x63964, symBinAddr: 0x1000681D0, symSize: 0x26A4 }
  - { offsetInCU: 0x3F3BC0, offset: 0x3F3BC0, size: 0x8, addend: 0x0, symName: __ZN7LBFGSpp21LineSearchMoreThuenteIfE10LineSearchI5BoardNS_10LBFGSParamIfEEEEvRT_RKT0_RKN5Eigen6MatrixIfLin1ELi1ELi0ELin1ELi1EEESF_RKfRfSI_RSD_SI_SJ_, symObjAddr: 0x66008, symBinAddr: 0x10006A874, symSize: 0x2F04 }
  - { offsetInCU: 0x3F68E1, offset: 0x3F68E1, size: 0x8, addend: 0x0, symName: __ZN7LBFGSpp7BFGSMatIfLb0EE14add_correctionERKN5Eigen3RefIKNS2_6MatrixIfLin1ELi1ELi0ELin1ELi1EEELi0ENS2_11InnerStrideILi1EEEEESB_, symObjAddr: 0x68F0C, symBinAddr: 0x10006D778, symSize: 0x23AC }
  - { offsetInCU: 0x3F832C, offset: 0x3F832C, size: 0x8, addend: 0x0, symName: __ZN7LBFGSpp7BFGSMatIfLb0EE8apply_HvERKN5Eigen6MatrixIfLin1ELi1ELi0ELin1ELi1EEERKfRS4_, symObjAddr: 0x6B2B8, symBinAddr: 0x10006FB24, symSize: 0x2704 }
  - { offsetInCU: 0x3FAEED, offset: 0x3FAEED, size: 0x8, addend: 0x0, symName: __ZNK7LBFGSpp10LBFGSParamIfE11check_paramEv, symObjAddr: 0x62E98, symBinAddr: 0x100067704, symSize: 0x474 }
  - { offsetInCU: 0x3FAFB0, offset: 0x3FAFB0, size: 0x8, addend: 0x0, symName: __ZN7LBFGSpp7BFGSMatIfLb0EED1Ev, symObjAddr: 0x6330C, symBinAddr: 0x100067B78, symSize: 0xD4 }
  - { offsetInCU: 0x3FB7C8, offset: 0x3FB7C8, size: 0x8, addend: 0x0, symName: __ZN7LBFGSpp7BFGSMatIfLb0EE5resetEii, symObjAddr: 0x6D9BC, symBinAddr: 0x100072228, symSize: 0x4B4 }
  - { offsetInCU: 0x3FC0C7, offset: 0x3FC0C7, size: 0x8, addend: 0x0, symName: __ZNSt3__16vectorIN5Eigen14AutoDiffScalarINS1_6MatrixIfLin1ELi1ELi0ELin1ELi1EEEEENS_9allocatorIS5_EEEC2Em, symObjAddr: 0x6E648, symBinAddr: 0x100072EB4, symSize: 0x38C }
  - { offsetInCU: 0x3FC4EA, offset: 0x3FC4EA, size: 0x8, addend: 0x0, symName: __ZNSt3__16vectorIN5Eigen14AutoDiffScalarINS1_6MatrixIfLin1ELi1ELi0ELin1ELi1EEEEENS_9allocatorIS5_EEE7reserveEm, symObjAddr: 0x6DE70, symBinAddr: 0x1000726DC, symSize: 0x3E4 }
  - { offsetInCU: 0x3FC93B, offset: 0x3FC93B, size: 0x8, addend: 0x0, symName: __ZN5Board9grad_funcERNSt3__16vectorIN5Eigen14AutoDiffScalarINS2_6MatrixIfLin1ELi1ELi0ELin1ELi1EEEEENS0_9allocatorIS6_EEEE, symObjAddr: 0x6E254, symBinAddr: 0x100072AC0, symSize: 0x3F4 }
  - { offsetInCU: 0x3FCF87, offset: 0x3FCF87, size: 0x8, addend: 0x0, symName: __ZNSt3__16vectorIN5Eigen14AutoDiffScalarINS1_6MatrixIfLin1ELi1ELi0ELin1ELi1EEEEENS_9allocatorIS5_EEE16__destroy_vectorclB8ue170006Ev, symObjAddr: 0x6E9EC, symBinAddr: 0x100073258, symSize: 0x1C8 }
  - { offsetInCU: 0x3FD787, offset: 0x3FD787, size: 0x8, addend: 0x0, symName: __ZN7LBFGSpp21LineSearchMoreThuenteIfE14step_selectionERKfS3_S3_S3_S3_S3_S3_S3_S3_, symObjAddr: 0x7C1DC, symBinAddr: 0x100080A48, symSize: 0x6CC }
  - { offsetInCU: 0x3FF123, offset: 0x3FF123, size: 0x8, addend: 0x0, symName: __ZNKSt3__16vectorIN5Eigen14AutoDiffScalarINS1_6MatrixIfLin1ELi1ELi0ELin1ELi1EEEEENS_9allocatorIS5_EEE20__throw_length_errorB8ue170006Ev, symObjAddr: 0x6E9D4, symBinAddr: 0x100073240, symSize: 0x18 }
  - { offsetInCU: 0x3FF14C, offset: 0x3FF14C, size: 0x8, addend: 0x0, symName: __ZNSt3__16vectorIN5Eigen14AutoDiffScalarINS1_6MatrixIfLin1ELi1ELi0ELin1ELi1EEEEENS_9allocatorIS5_EEE16__destroy_vectorclB8ue170006Ev, symObjAddr: 0x6E9EC, symBinAddr: 0x100073258, symSize: 0x1C8 }
  - { offsetInCU: 0x3FF157, offset: 0x3FF157, size: 0x8, addend: 0x0, symName: __ZNSt3__114__split_bufferIN5Eigen14AutoDiffScalarINS1_6MatrixIfLin1ELi1ELi0ELin1ELi1EEEEERNS_9allocatorIS5_EEED1Ev, symObjAddr: 0x6F014, symBinAddr: 0x100073880, symSize: 0xF4 }
  - { offsetInCU: 0x3FF433, offset: 0x3FF433, size: 0x8, addend: 0x0, symName: __ZN5Board20expression_evaluatorERNSt3__16vectorIN5Eigen14AutoDiffScalarINS2_6MatrixIfLin1ELi1ELi0ELin1ELi1EEEEENS0_9allocatorIS6_EEEE, symObjAddr: 0x6F108, symBinAddr: 0x100073974, symSize: 0x32E0 }
  - { offsetInCU: 0x40408B, offset: 0x40408B, size: 0x8, addend: 0x0, symName: __ZN5Eigen6MatrixINS_14AutoDiffScalarINS0_IfLin1ELi1ELi0ELin1ELi1EEEEELin1ELi1ELi0ELin1ELi1EED1Ev, symObjAddr: 0x723E8, symBinAddr: 0x100076C54, symSize: 0xC4 }
  - { offsetInCU: 0x4052E3, offset: 0x4052E3, size: 0x8, addend: 0x0, symName: __ZN5Eigen6MatrixINS_14AutoDiffScalarINS0_IfLin1ELi1ELi0ELin1ELi1EEEEELin1ELi1ELi0ELin1ELi1EEC2INS_12CwiseUnaryOpINS_8internal13scalar_cos_opIS3_EEKNS_12ArrayWrapperIS4_EEEEEERKNS_9EigenBaseIT_EE, symObjAddr: 0x759F0, symBinAddr: 0x10007A25C, symSize: 0x390 }
  - { offsetInCU: 0x405847, offset: 0x405847, size: 0x8, addend: 0x0, symName: __ZNSt3__15dequeIN5Eigen6MatrixINS1_14AutoDiffScalarINS2_IfLin1ELi1ELi0ELin1ELi1EEEEELin1ELi1ELi0ELin1ELi1EEENS_9allocatorIS6_EEE19__add_back_capacityEv, symObjAddr: 0x725FC, symBinAddr: 0x100076E68, symSize: 0x1464 }
  - { offsetInCU: 0x406FCC, offset: 0x406FCC, size: 0x8, addend: 0x0, symName: __ZN5Eigen15PlainObjectBaseINS_6MatrixINS_14AutoDiffScalarINS1_IfLin1ELi1ELi0ELin1ELi1EEEEELin1ELi1ELi0ELin1ELi1EEEEC2IS3_EERKNS_9DenseBaseIT_EE, symObjAddr: 0x75654, symBinAddr: 0x100079EC0, symSize: 0x39C }
  - { offsetInCU: 0x40784C, offset: 0x40784C, size: 0x8, addend: 0x0, symName: __ZN5Eigen6MatrixINS_14AutoDiffScalarINS0_IfLin1ELi1ELi0ELin1ELi1EEEEELin1ELi1ELi0ELin1ELi1EEC2INS_14CwiseNullaryOpINS_8internal18scalar_constant_opIS3_EES4_EEEERKNS_9EigenBaseIT_EE, symObjAddr: 0x7486C, symBinAddr: 0x1000790D8, symSize: 0x374 }
  - { offsetInCU: 0x407D84, offset: 0x407D84, size: 0x8, addend: 0x0, symName: __ZN5Eigen6MatrixINS_14AutoDiffScalarINS0_IfLin1ELi1ELi0ELin1ELi1EEEEELin1ELi1ELi0ELin1ELi1EEC2INS_13CwiseBinaryOpINS_8internal13scalar_sum_opIS3_S3_EEKNS_12ArrayWrapperIS4_EESC_EEEERKNS_9EigenBaseIT_EE, symObjAddr: 0x76BD0, symBinAddr: 0x10007B43C, symSize: 0x390 }
  - { offsetInCU: 0x4082E8, offset: 0x4082E8, size: 0x8, addend: 0x0, symName: __ZN5Eigen6MatrixINS_14AutoDiffScalarINS0_IfLin1ELi1ELi0ELin1ELi1EEEEELin1ELi1ELi0ELin1ELi1EEC2INS_13CwiseBinaryOpINS_8internal20scalar_difference_opIS3_S3_EEKNS_12ArrayWrapperIS4_EESC_EEEERKNS_9EigenBaseIT_EE, symObjAddr: 0x789F4, symBinAddr: 0x10007D260, symSize: 0x390 }
  - { offsetInCU: 0x40884C, offset: 0x40884C, size: 0x8, addend: 0x0, symName: __ZN5Eigen6MatrixINS_14AutoDiffScalarINS0_IfLin1ELi1ELi0ELin1ELi1EEEEELin1ELi1ELi0ELin1ELi1EEC2INS_13CwiseBinaryOpINS_8internal17scalar_product_opIS3_S3_EEKNS_12ArrayWrapperIS4_EESC_EEEERKNS_9EigenBaseIT_EE, symObjAddr: 0x7A674, symBinAddr: 0x10007EEE0, symSize: 0x390 }
  - { offsetInCU: 0x408DB0, offset: 0x408DB0, size: 0x8, addend: 0x0, symName: __ZNSt3__15stackIN5Eigen6MatrixINS1_14AutoDiffScalarINS2_IfLin1ELi1ELi0ELin1ELi1EEEEELin1ELi1ELi0ELin1ELi1EEENS_5dequeIS6_NS_9allocatorIS6_EEEEED1Ev, symObjAddr: 0x724AC, symBinAddr: 0x100076D18, symSize: 0x150 }
  - { offsetInCU: 0x40907F, offset: 0x40907F, size: 0x8, addend: 0x0, symName: __ZNSt3__15dequeIN5Eigen6MatrixINS1_14AutoDiffScalarINS2_IfLin1ELi1ELi0ELin1ELi1EEEEELin1ELi1ELi0ELin1ELi1EEENS_9allocatorIS6_EEE5clearEv, symObjAddr: 0x7BEB4, symBinAddr: 0x100080720, symSize: 0x328 }
  - { offsetInCU: 0x409A96, offset: 0x409A96, size: 0x8, addend: 0x0, symName: __ZNSt3__114__split_bufferIPN5Eigen6MatrixINS1_14AutoDiffScalarINS2_IfLin1ELi1ELi0ELin1ELi1EEEEELin1ELi1ELi0ELin1ELi1EEENS_9allocatorIS7_EEE9push_backEOS7_, symObjAddr: 0x73A60, symBinAddr: 0x1000782CC, symSize: 0x4AC }
  - { offsetInCU: 0x409F92, offset: 0x409F92, size: 0x8, addend: 0x0, symName: __ZNSt3__114__split_bufferIPN5Eigen6MatrixINS1_14AutoDiffScalarINS2_IfLin1ELi1ELi0ELin1ELi1EEEEELin1ELi1ELi0ELin1ELi1EEENS_9allocatorIS7_EEE10push_frontEOS7_, symObjAddr: 0x73F0C, symBinAddr: 0x100078778, symSize: 0x4B0 }
  - { offsetInCU: 0x40A474, offset: 0x40A474, size: 0x8, addend: 0x0, symName: __ZNSt3__114__split_bufferIPN5Eigen6MatrixINS1_14AutoDiffScalarINS2_IfLin1ELi1ELi0ELin1ELi1EEEEELin1ELi1ELi0ELin1ELi1EEERNS_9allocatorIS7_EEE10push_frontERKS7_, symObjAddr: 0x743BC, symBinAddr: 0x100078C28, symSize: 0x4B0 }
  - { offsetInCU: 0x40AB4E, offset: 0x40AB4E, size: 0x8, addend: 0x0, symName: __ZN5Eigen12DenseStorageINS_14AutoDiffScalarINS_6MatrixIfLin1ELi1ELi0ELin1ELi1EEEEELin1ELin1ELi1ELi0EED1Ev, symObjAddr: 0x74BE0, symBinAddr: 0x10007944C, symSize: 0xC4 }
  - { offsetInCU: 0x40B38D, offset: 0x40B38D, size: 0x8, addend: 0x0, symName: __ZN5Eigen8internal31generic_dense_assignment_kernelINS0_9evaluatorINS_6MatrixINS_14AutoDiffScalarINS3_IfLin1ELi1ELi0ELin1ELi1EEEEELin1ELi1ELi0ELin1ELi1EEEEENS2_INS_12CwiseUnaryOpINS0_13scalar_cos_opIS6_EEKNS_12ArrayWrapperIS7_EEEEEENS0_9assign_opIS6_S6_EELi0EE11assignCoeffEl, symObjAddr: 0x76160, symBinAddr: 0x10007A9CC, symSize: 0xA70 }
  - { offsetInCU: 0x40C124, offset: 0x40C124, size: 0x8, addend: 0x0, symName: __ZN5Eigen8internal31generic_dense_assignment_kernelINS0_9evaluatorINS_6MatrixINS_14AutoDiffScalarINS3_IfLin1ELi1ELi0ELin1ELi1EEEEELin1ELi1ELi0ELin1ELi1EEEEENS2_INS_13CwiseBinaryOpINS0_13scalar_sum_opIS6_S6_EEKNS_12ArrayWrapperIS7_EESE_EEEENS0_9assign_opIS6_S6_EELi0EE11assignCoeffEl, symObjAddr: 0x773A8, symBinAddr: 0x10007BC14, symSize: 0xAD4 }
  - { offsetInCU: 0x40CD2C, offset: 0x40CD2C, size: 0x8, addend: 0x0, symName: __ZN5Eigen8internal18make_coherent_implINS_6MatrixIfLin1ELi1ELi0ELin1ELi1EEES3_E3runERS3_S5_, symObjAddr: 0x77E7C, symBinAddr: 0x10007C6E8, symSize: 0x1A4 }
  - { offsetInCU: 0x40D14E, offset: 0x40D14E, size: 0x8, addend: 0x0, symName: __ZN5Eigen14AutoDiffScalarINS_6MatrixIfLin1ELi1ELi0ELin1ELi1EEEEC2INS_13CwiseBinaryOpINS_8internal13scalar_sum_opIffEEKS2_S9_EEEERKNS0_IT_EENS6_9enable_ifIXaasr8internal7is_sameIfNS6_6traitsINS6_10remove_allISB_E4typeEE6ScalarEEE5valuesr8internal14is_convertibleISB_S2_EE5valueEPvE4typeE, symObjAddr: 0x78020, symBinAddr: 0x10007C88C, symSize: 0x9D4 }
  - { offsetInCU: 0x40DF30, offset: 0x40DF30, size: 0x8, addend: 0x0, symName: __ZN5Eigen8internal31generic_dense_assignment_kernelINS0_9evaluatorINS_6MatrixINS_14AutoDiffScalarINS3_IfLin1ELi1ELi0ELin1ELi1EEEEELin1ELi1ELi0ELin1ELi1EEEEENS2_INS_13CwiseBinaryOpINS0_20scalar_difference_opIS6_S6_EEKNS_12ArrayWrapperIS7_EESE_EEEENS0_9assign_opIS6_S6_EELi0EE11assignCoeffEl, symObjAddr: 0x791CC, symBinAddr: 0x10007DA38, symSize: 0xAD4 }
  - { offsetInCU: 0x40EA8A, offset: 0x40EA8A, size: 0x8, addend: 0x0, symName: __ZN5Eigen14AutoDiffScalarINS_6MatrixIfLin1ELi1ELi0ELin1ELi1EEEEC2INS_13CwiseBinaryOpINS_8internal20scalar_difference_opIffEEKS2_S9_EEEERKNS0_IT_EENS6_9enable_ifIXaasr8internal7is_sameIfNS6_6traitsINS6_10remove_allISB_E4typeEE6ScalarEEE5valuesr8internal14is_convertibleISB_S2_EE5valueEPvE4typeE, symObjAddr: 0x79CA0, symBinAddr: 0x10007E50C, symSize: 0x9D4 }
  - { offsetInCU: 0x40F623, offset: 0x40F623, size: 0x8, addend: 0x0, symName: __ZN5Eigen8internal31generic_dense_assignment_kernelINS0_9evaluatorINS_6MatrixINS_14AutoDiffScalarINS3_IfLin1ELi1ELi0ELin1ELi1EEEEELin1ELi1ELi0ELin1ELi1EEEEENS2_INS_13CwiseBinaryOpINS0_17scalar_product_opIS6_S6_EEKNS_12ArrayWrapperIS7_EESE_EEEENS0_9assign_opIS6_S6_EELi0EE11assignCoeffEl, symObjAddr: 0x7AE4C, symBinAddr: 0x10007F6B8, symSize: 0x1068 }
  - { offsetInCU: 0x410B11, offset: 0x410B11, size: 0x8, addend: 0x0, symName: __ZN7LBFGSpp21LineSearchMoreThuenteIfE15cubic_minimizerERKfS3_S3_S3_S3_S3_Rb, symObjAddr: 0x7C8A8, symBinAddr: 0x100081114, symSize: 0x2D4 }
  - { offsetInCU: 0x410E21, offset: 0x410E21, size: 0x8, addend: 0x0, symName: __ZN7LBFGSpp12LBFGSBSolverIfNS_21LineSearchMoreThuenteEE12force_boundsERN5Eigen6MatrixIfLin1ELi1ELi0ELin1ELi1EEERKS5_S8_, symObjAddr: 0x84014, symBinAddr: 0x100088880, symSize: 0x9AC }
  - { offsetInCU: 0x41156E, offset: 0x41156E, size: 0x8, addend: 0x0, symName: __ZN7LBFGSpp12LBFGSBSolverIfNS_21LineSearchMoreThuenteEE5resetEi, symObjAddr: 0x849C0, symBinAddr: 0x10008922C, symSize: 0x3E4 }
  - { offsetInCU: 0x411996, offset: 0x411996, size: 0x8, addend: 0x0, symName: __ZN7LBFGSpp12LBFGSBSolverIfNS_21LineSearchMoreThuenteEE14proj_grad_normERKN5Eigen6MatrixIfLin1ELi1ELi0ELin1ELi1EEES7_S7_S7_, symObjAddr: 0x84DA4, symBinAddr: 0x100089610, symSize: 0x45C }
  - { offsetInCU: 0x412518, offset: 0x412518, size: 0x8, addend: 0x0, symName: __ZN7LBFGSpp6CauchyIfE16get_cauchy_pointERKNS_7BFGSMatIfLb1EEERKN5Eigen6MatrixIfLin1ELi1ELi0ELin1ELi1EEESA_SA_SA_RS8_SB_RNSt3__16vectorIiNSC_9allocatorIiEEEESH_, symObjAddr: 0x85200, symBinAddr: 0x100089A6C, symSize: 0x6280 }
  - { offsetInCU: 0x41A253, offset: 0x41A253, size: 0x8, addend: 0x0, symName: __ZN7LBFGSpp12LBFGSBSolverIfNS_21LineSearchMoreThuenteEE13max_step_sizeERKN5Eigen6MatrixIfLin1ELi1ELi0ELin1ELi1EEES7_S7_S7_, symObjAddr: 0x8B480, symBinAddr: 0x10008FCEC, symSize: 0x2B8 }
  - { offsetInCU: 0x41A7C1, offset: 0x41A7C1, size: 0x8, addend: 0x0, symName: __ZN7LBFGSpp7BFGSMatIfLb1EE5resetEii, symObjAddr: 0x8B738, symBinAddr: 0x10008FFA4, symSize: 0xBEC }
  - { offsetInCU: 0x41B21B, offset: 0x41B21B, size: 0x8, addend: 0x0, symName: __ZN7LBFGSpp21LineSearchMoreThuenteIfE10LineSearchI5BoardNS_11LBFGSBParamIfEEEEvRT_RKT0_RKN5Eigen6MatrixIfLin1ELi1ELi0ELin1ELi1EEESF_RKfRfSI_RSD_SI_SJ_, symObjAddr: 0x8C324, symBinAddr: 0x100090B90, symSize: 0x2F04 }
  - { offsetInCU: 0x41DF3C, offset: 0x41DF3C, size: 0x8, addend: 0x0, symName: __ZN7LBFGSpp7BFGSMatIfLb1EE14add_correctionERKN5Eigen3RefIKNS2_6MatrixIfLin1ELi1ELi0ELin1ELi1EEELi0ENS2_11InnerStrideILi1EEEEESB_, symObjAddr: 0x8F228, symBinAddr: 0x100093A94, symSize: 0x4898 }
  - { offsetInCU: 0x42296D, offset: 0x42296D, size: 0x8, addend: 0x0, symName: __ZN7LBFGSpp11SubspaceMinIfE17subspace_minimizeERKNS_7BFGSMatIfLb1EEERKN5Eigen6MatrixIfLin1ELi1ELi0ELin1ELi1EEESA_SA_SA_SA_SA_RKNSt3__16vectorIiNSB_9allocatorIiEEEESH_iRS8_, symObjAddr: 0x93AC0, symBinAddr: 0x10009832C, symSize: 0x7FBC }
  - { offsetInCU: 0x42D397, offset: 0x42D397, size: 0x8, addend: 0x0, symName: __ZNK7LBFGSpp11LBFGSBParamIfE11check_paramEv, symObjAddr: 0x83AD4, symBinAddr: 0x100088340, symSize: 0x46C }
  - { offsetInCU: 0x42D45A, offset: 0x42D45A, size: 0x8, addend: 0x0, symName: __ZN7LBFGSpp7BFGSMatIfLb1EED1Ev, symObjAddr: 0x83F40, symBinAddr: 0x1000887AC, symSize: 0xD4 }
  - { offsetInCU: 0x42E731, offset: 0x42E731, size: 0x8, addend: 0x0, symName: __ZN5Eigen8internal10redux_implINS0_13scalar_max_opIffLi0EEENS0_15redux_evaluatorINS_12CwiseUnaryOpINS0_13scalar_abs_opIfEEKNS_13CwiseBinaryOpINS0_20scalar_difference_opIffEEKNS8_INS0_13scalar_min_opIffLi0EEEKNS8_IS3_KNS8_ISA_KNS_6MatrixIfLin1ELi1ELi0ELin1ELi1EEESF_EESF_EESF_EESF_EEEEEELi3ELi0EE3runISO_EEfRKSP_RKS3_RKT_, symObjAddr: 0x9BA7C, symBinAddr: 0x1000A02E8, symSize: 0xF90 }
  - { offsetInCU: 0x42FFED, offset: 0x42FFED, size: 0x8, addend: 0x0, symName: __ZNSt3__16vectorIiNS_9allocatorIiEEE7reserveEm, symObjAddr: 0x9CA0C, symBinAddr: 0x1000A1278, symSize: 0x408 }
  - { offsetInCU: 0x430445, offset: 0x430445, size: 0x8, addend: 0x0, symName: __ZNSt3__16vectorIiNS_9allocatorIiEEE21__push_back_slow_pathIRKiEEvOT_, symObjAddr: 0xA11F4, symBinAddr: 0x1000A5A60, symSize: 0x48C }
  - { offsetInCU: 0x430915, offset: 0x430915, size: 0x8, addend: 0x0, symName: __ZNK7LBFGSpp7BFGSMatIfLb1EE9apply_WtvERKN5Eigen6MatrixIfLin1ELi1ELi0ELin1ELi1EEERS4_, symObjAddr: 0x9CE14, symBinAddr: 0x1000A1680, symSize: 0x920 }
  - { offsetInCU: 0x4315D4, offset: 0x4315D4, size: 0x8, addend: 0x0, symName: __ZNK7LBFGSpp7BFGSMatIfLb1EE8apply_MvERKN5Eigen6MatrixIfLin1ELi1ELi0ELin1ELi1EEERS4_, symObjAddr: 0x9D734, symBinAddr: 0x1000A1FA0, symSize: 0x2FCC }
  - { offsetInCU: 0x432F5A, offset: 0x432F5A, size: 0x8, addend: 0x0, symName: __ZNK7LBFGSpp7BFGSMatIfLb1EE2WbEi, symObjAddr: 0xA0700, symBinAddr: 0x1000A4F6C, symSize: 0xAF4 }
  - { offsetInCU: 0x434C5C, offset: 0x434C5C, size: 0x8, addend: 0x0, symName: __ZN5Eigen15PlainObjectBaseINS_6MatrixIfLin1ELi1ELi0ELin1ELi1EEEEC2INS_7ProductINS_9TransposeINS_5BlockINS1_IfLin1ELin1ELi0ELin1ELin1EEELin1ELin1ELb1EEEEENS7_IS8_Lin1ELi1ELb1EEELi0EEEEERKNS_9DenseBaseIT_EE, symObjAddr: 0xB1254, symBinAddr: 0x1000B5AC0, symSize: 0x3A8 }
  - { offsetInCU: 0x4351A2, offset: 0x4351A2, size: 0x8, addend: 0x0, symName: __ZN7LBFGSpp6BKLDLTIfE7computeERKN5Eigen3RefIKNS2_6MatrixIfLin1ELin1ELi0ELin1ELin1EEELi0ENS2_11OuterStrideILin1EEEEEiRKf, symObjAddr: 0xB0388, symBinAddr: 0x1000B4BF4, symSize: 0xECC }
  - { offsetInCU: 0x4360C9, offset: 0x4360C9, size: 0x8, addend: 0x0, symName: __ZNK7LBFGSpp7BFGSMatIfLb1EE2WbERKNSt3__16vectorIiNS2_9allocatorIiEEEE, symObjAddr: 0xBDCFC, symBinAddr: 0x1000C2568, symSize: 0x5E0 }
  - { offsetInCU: 0x43651C, offset: 0x43651C, size: 0x8, addend: 0x0, symName: __ZNK7LBFGSpp7BFGSMatIfLb1EE13compute_FtBAbERKN5Eigen6MatrixIfLin1ELin1ELi0ELin1ELin1EEERKNSt3__16vectorIiNS7_9allocatorIiEEEESD_RKNS3_IfLin1ELi1ELi0ELin1ELi1EEESG_RSE_, symObjAddr: 0xBE2DC, symBinAddr: 0x1000C2B48, symSize: 0x1A04 }
  - { offsetInCU: 0x4383FF, offset: 0x4383FF, size: 0x8, addend: 0x0, symName: __ZN5Eigen15PlainObjectBaseINS_6MatrixIfLin1ELi1ELi0ELin1ELi1EEEEC2INS_12CwiseUnaryOpINS_8internal18scalar_opposite_opIfEEKS2_EEEERKNS_9DenseBaseIT_EE, symObjAddr: 0xE390C, symBinAddr: 0x1000E8178, symSize: 0x780 }
  - { offsetInCU: 0x438B03, offset: 0x438B03, size: 0x8, addend: 0x0, symName: __ZNK7LBFGSpp7BFGSMatIfLb1EE10solve_PtBPERKN5Eigen6MatrixIfLin1ELin1ELi0ELin1ELin1EEERKNS3_IfLin1ELi1ELi0ELin1ELi1EEERS7_, symObjAddr: 0xBFCE0, symBinAddr: 0x1000C454C, symSize: 0x38DC }
  - { offsetInCU: 0x43CC57, offset: 0x43CC57, size: 0x8, addend: 0x0, symName: __ZN7LBFGSpp11SubspaceMinIfE9in_boundsERKN5Eigen6MatrixIfLin1ELi1ELi0ELin1ELi1EEES6_S6_, symObjAddr: 0xC35BC, symBinAddr: 0x1000C7E28, symSize: 0x1F4 }
  - { offsetInCU: 0x43D02E, offset: 0x43D02E, size: 0x8, addend: 0x0, symName: __ZN7LBFGSpp11SubspaceMinIfE6subvecERKN5Eigen6MatrixIfLin1ELi1ELi0ELin1ELi1EEERKNSt3__16vectorIiNS7_9allocatorIiEEEE, symObjAddr: 0xC37B0, symBinAddr: 0x1000C801C, symSize: 0x304 }
  - { offsetInCU: 0x43D3F6, offset: 0x43D3F6, size: 0x8, addend: 0x0, symName: __ZNK7LBFGSpp7BFGSMatIfLb1EE11apply_PtBQvERKN5Eigen6MatrixIfLin1ELin1ELi0ELin1ELin1EEERKNSt3__16vectorIiNS7_9allocatorIiEEEERKNS3_IfLin1ELi1ELi0ELin1ELi1EEERSE_b, symObjAddr: 0xC3AB4, symBinAddr: 0x1000C8320, symSize: 0xF24 }
  - { offsetInCU: 0x43E65A, offset: 0x43E65A, size: 0x8, addend: 0x0, symName: __ZNK7LBFGSpp7BFGSMatIfLb1EE10apply_WtPvERKNSt3__16vectorIiNS2_9allocatorIiEEEERKN5Eigen6MatrixIfLin1ELi1ELi0ELin1ELi1EEERSB_b, symObjAddr: 0xC49D8, symBinAddr: 0x1000C9244, symSize: 0x12D4 }
  - { offsetInCU: 0x43F87A, offset: 0x43F87A, size: 0x8, addend: 0x0, symName: __ZNK7LBFGSpp7BFGSMatIfLb1EE11apply_PtWMvERKNSt3__16vectorIiNS2_9allocatorIiEEEERKN5Eigen6MatrixIfLin1ELi1ELi0ELin1ELi1EEERSB_RKf, symObjAddr: 0xC5CAC, symBinAddr: 0x1000CA518, symSize: 0x1110 }
  - { offsetInCU: 0x4409B9, offset: 0x4409B9, size: 0x8, addend: 0x0, symName: __ZN7LBFGSpp11SubspaceMinIfE11P_convergedERKNSt3__16vectorIiNS2_9allocatorIiEEEERKN5Eigen6MatrixIfLin1ELi1ELi0ELin1ELi1EEESD_SD_, symObjAddr: 0xC6DBC, symBinAddr: 0x1000CB628, symSize: 0x26C }
  - { offsetInCU: 0x441880, offset: 0x441880, size: 0x8, addend: 0x0, symName: __ZN5Eigen8internal10AssignmentINS_5BlockINS_6MatrixIfLin1ELi1ELi0ELin1ELi1EEELin1ELi1ELb0EEENS_7ProductINS_9TransposeIKNS2_IKNS3_IfLin1ELin1ELi0ELin1ELin1EEELin1ELin1ELb1EEEEES4_Li0EEENS0_9assign_opIffEENS0_11Dense2DenseEvE3runERS5_RKSD_RKSF_, symObjAddr: 0xA6460, symBinAddr: 0x1000AACCC, symSize: 0x310 }
  - { offsetInCU: 0x441D91, offset: 0x441D91, size: 0x8, addend: 0x0, symName: __ZN5Eigen8internal10AssignmentINS_5BlockINS_6MatrixIfLin1ELi1ELi0ELin1ELi1EEELin1ELi1ELb0EEENS_7ProductINS_13CwiseBinaryOpINS0_17scalar_product_opIffEEKNS_14CwiseNullaryOpINS0_18scalar_constant_opIfEEKNS3_IfLin1ELin1ELi1ELin1ELin1EEEEEKNS_9TransposeIKNS2_IKNS3_IfLin1ELin1ELi0ELin1ELin1EEELin1ELin1ELb1EEEEEEES4_Li0EEENS0_9assign_opIffEENS0_11Dense2DenseEvE3runERS5_RKSP_RKSR_, symObjAddr: 0xAA90C, symBinAddr: 0x1000AF178, symSize: 0x310 }
  - { offsetInCU: 0x442A87, offset: 0x442A87, size: 0x8, addend: 0x0, symName: __ZNK7LBFGSpp6BKLDLTIfE13solve_inplaceEN5Eigen3RefINS2_6MatrixIfLin1ELi1ELi0ELin1ELi1EEELi0ENS2_11InnerStrideILi1EEEEE, symObjAddr: 0xABB30, symBinAddr: 0x1000B039C, symSize: 0x4600 }
  - { offsetInCU: 0x445330, offset: 0x445330, size: 0x8, addend: 0x0, symName: __ZN5Eigen8internal20generic_product_implINS_9TransposeIKNS_5BlockIKNS_6MatrixIfLin1ELin1ELi0ELin1ELin1EEELin1ELin1ELb1EEEEENS4_IfLin1ELi1ELi0ELin1ELi1EEENS_10DenseShapeESB_Li7EE13scaleAndAddToINS3_ISA_Lin1ELi1ELb0EEEEEvRT_RKS9_RKSA_RKf, symObjAddr: 0xA6770, symBinAddr: 0x1000AAFDC, symSize: 0x958 }
  - { offsetInCU: 0x446C0F, offset: 0x446C0F, size: 0x8, addend: 0x0, symName: __ZN5Eigen8internal20generic_product_implINS_13CwiseBinaryOpINS0_17scalar_product_opIffEEKNS_14CwiseNullaryOpINS0_18scalar_constant_opIfEEKNS_6MatrixIfLin1ELin1ELi1ELin1ELin1EEEEEKNS_9TransposeIKNS_5BlockIKNS8_IfLin1ELin1ELi0ELin1ELin1EEELin1ELin1ELb1EEEEEEENS8_IfLin1ELi1ELi0ELin1ELi1EEENS_10DenseShapeESN_Li7EE13scaleAndAddToINSE_ISM_Lin1ELi1ELb0EEEEEvRT_RKSL_RKSM_RKf, symObjAddr: 0xAAC1C, symBinAddr: 0x1000AF488, symSize: 0xA10 }
  - { offsetInCU: 0x449525, offset: 0x449525, size: 0x8, addend: 0x0, symName: __ZN7LBFGSpp6BKLDLTIfE15compute_pointerEv, symObjAddr: 0xB4A98, symBinAddr: 0x1000B9304, symSize: 0x3D4 }
  - { offsetInCU: 0x44982C, offset: 0x44982C, size: 0x8, addend: 0x0, symName: __ZN7LBFGSpp6BKLDLTIfE13permutate_matElRKf, symObjAddr: 0xB4E6C, symBinAddr: 0x1000B96D8, symSize: 0x57C }
  - { offsetInCU: 0x449C4C, offset: 0x449C4C, size: 0x8, addend: 0x0, symName: __ZN7LBFGSpp6BKLDLTIfE24gaussian_elimination_1x1El, symObjAddr: 0xB53E8, symBinAddr: 0x1000B9C54, symSize: 0x145C }
  - { offsetInCU: 0x44A329, offset: 0x44A329, size: 0x8, addend: 0x0, symName: __ZN7LBFGSpp6BKLDLTIfE24gaussian_elimination_2x2El, symObjAddr: 0xB6844, symBinAddr: 0x1000BB0B0, symSize: 0x47CC }
  - { offsetInCU: 0x44BA2F, offset: 0x44BA2F, size: 0x8, addend: 0x0, symName: __ZN7LBFGSpp6BKLDLTIfE20compress_permutationEv, symObjAddr: 0xBB010, symBinAddr: 0x1000BF87C, symSize: 0x37C }
  - { offsetInCU: 0x44BEB7, offset: 0x44BEB7, size: 0x8, addend: 0x0, symName: __ZN5Eigen8internal20generic_product_implINS_9TransposeINS_5BlockINS_6MatrixIfLin1ELin1ELi0ELin1ELin1EEELin1ELin1ELb1EEEEENS3_IS5_Lin1ELi1ELb1EEENS_10DenseShapeES9_Li7EE13scaleAndAddToINS4_IfLin1ELi1ELi0ELin1ELi1EEEEEvRT_RKS7_RKS8_RKf, symObjAddr: 0xB15FC, symBinAddr: 0x1000B5E68, symSize: 0x9A8 }
  - { offsetInCU: 0x44DD75, offset: 0x44DD75, size: 0x8, addend: 0x0, symName: __ZNSt3__16vectorIPfNS_9allocatorIS1_EEE7reserveEm, symObjAddr: 0xBB420, symBinAddr: 0x1000BFC8C, symSize: 0x408 }
  - { offsetInCU: 0x44E1CD, offset: 0x44E1CD, size: 0x8, addend: 0x0, symName: __ZNSt3__16vectorIPfNS_9allocatorIS1_EEE21__push_back_slow_pathIRKS1_EEvOT_, symObjAddr: 0xBBB44, symBinAddr: 0x1000C03B0, symSize: 0x484 }
  - { offsetInCU: 0x44E7E9, offset: 0x44E7E9, size: 0x8, addend: 0x0, symName: __ZN7LBFGSpp6BKLDLTIfE12pivoting_2x2Elll, symObjAddr: 0xBC7CC, symBinAddr: 0x1000C1038, symSize: 0x214 }
  - { offsetInCU: 0x44EA74, offset: 0x44EA74, size: 0x8, addend: 0x0, symName: __ZN7LBFGSpp6BKLDLTIfE12pivoting_1x1Ell, symObjAddr: 0xBBFC8, symBinAddr: 0x1000C0834, symSize: 0x804 }
  - { offsetInCU: 0x44FF97, offset: 0x44FF97, size: 0x8, addend: 0x0, symName: __ZNSt3__16vectorINS_4pairIllEENS_9allocatorIS2_EEE21__push_back_slow_pathIS2_EEvOT_, symObjAddr: 0xBC9E0, symBinAddr: 0x1000C124C, symSize: 0x454 }
  - { offsetInCU: 0x45066F, offset: 0x45066F, size: 0x8, addend: 0x0, symName: __ZNKSt3__16vectorIPfNS_9allocatorIS1_EEE20__throw_length_errorB8ue170006Ev, symObjAddr: 0xBB828, symBinAddr: 0x1000C0094, symSize: 0x18 }
  - { offsetInCU: 0x450698, offset: 0x450698, size: 0x8, addend: 0x0, symName: __ZNSt3__16vectorIPfNS_9allocatorIS1_EEE26__swap_out_circular_bufferERNS_14__split_bufferIS1_RS3_EE, symObjAddr: 0xBB840, symBinAddr: 0x1000C00AC, symSize: 0x304 }
  - { offsetInCU: 0x450A2D, offset: 0x450A2D, size: 0x8, addend: 0x0, symName: __ZNKSt3__16vectorINS_4pairIllEENS_9allocatorIS2_EEE20__throw_length_errorB8ue170006Ev, symObjAddr: 0xBD110, symBinAddr: 0x1000C197C, symSize: 0x18 }
  - { offsetInCU: 0x450A56, offset: 0x450A56, size: 0x8, addend: 0x0, symName: __ZN5Eigen8internal21dense_assignment_loopINS0_31generic_dense_assignment_kernelINS0_9evaluatorINS_5BlockINS_6MatrixIfLin1ELin1ELi0ELin1ELin1EEELin1ELin1ELb0EEEEENS3_INS_14CwiseNullaryOpINS0_18scalar_constant_opIfEES6_EEEENS0_13div_assign_opIffEELi0EEELi4ELi0EE3runERSG_, symObjAddr: 0xBD128, symBinAddr: 0x1000C1994, symSize: 0xBD4 }
  - { offsetInCU: 0x450E8F, offset: 0x450E8F, size: 0x8, addend: 0x0, symName: __ZN5Eigen8internal20generic_product_implINS_9TransposeIKNS_6MatrixIfLin1ELin1ELi0ELin1ELin1EEEEENS3_IfLin1ELi1ELi0ELin1ELi1EEENS_10DenseShapeES8_Li7EE13scaleAndAddToIS7_EEvRT_RKS6_RKS7_RKf, symObjAddr: 0xC7CE0, symBinAddr: 0x1000CC54C, symSize: 0x998 }
  - { offsetInCU: 0x451A66, offset: 0x451A66, size: 0x8, addend: 0x0, symName: __ZNK7LBFGSpp7BFGSMatIfLb1EE11apply_PtWMvERKN5Eigen6MatrixIfLin1ELin1ELi0ELin1ELin1EEERKNS3_IfLin1ELi1ELi0ELin1ELi1EEERS7_RKf, symObjAddr: 0xC7028, symBinAddr: 0x1000CB894, symSize: 0xCB8 }
  - { offsetInCU: 0x453933, offset: 0x453933, size: 0x8, addend: 0x0, symName: __ZN5Eigen8internal30assignment_from_xpr_op_productINS_5BlockINS_6MatrixIfLin1ELin1ELi0ELin1ELin1EEELin1ELin1ELb0EEENS2_IKS4_Lin1ELin1ELb0EEENS_7ProductINS_9TransposeIKNS2_IS6_Lin1ELin1ELb1EEEEESA_Li0EEENS0_9assign_opIffEENS0_13sub_assign_opIffEEE3runINS_13CwiseBinaryOpINS0_20scalar_difference_opIffEEKS7_KSD_EESF_EEvRS5_RKT_RKT0_, symObjAddr: 0xCE554, symBinAddr: 0x1000D2DC0, symSize: 0x5FC }
  - { offsetInCU: 0x454098, offset: 0x454098, size: 0x8, addend: 0x0, symName: __ZN7LBFGSpp6BKLDLTIfEC1ERKN5Eigen3RefIKNS2_6MatrixIfLin1ELin1ELi0ELin1ELin1EEELi0ENS2_11OuterStrideILin1EEEEEiRKf, symObjAddr: 0xCBD6C, symBinAddr: 0x1000D05D8, symSize: 0x25C }
  - { offsetInCU: 0x45467F, offset: 0x45467F, size: 0x8, addend: 0x0, symName: __ZN5Eigen15PlainObjectBaseINS_6MatrixIfLin1ELi1ELi0ELin1ELi1EEEEC2INS_7ProductINS_9TransposeIKNS1_IfLin1ELin1ELi0ELin1ELin1EEEEES2_Li0EEEEERKNS_9DenseBaseIT_EE, symObjAddr: 0xE1A60, symBinAddr: 0x1000E62CC, symSize: 0x3F4 }
  - { offsetInCU: 0x454DFA, offset: 0x454DFA, size: 0x8, addend: 0x0, symName: __ZN5Eigen8internal20generic_product_implINS_12CwiseUnaryOpINS0_18scalar_opposite_opIfEEKNS_6MatrixIfLin1ELin1ELi0ELin1ELin1EEEEENS5_IfLin1ELi1ELi0ELin1ELi1EEENS_10DenseShapeESA_Li7EE13scaleAndAddToIS9_EEvRT_RKS8_RKS9_RKf, symObjAddr: 0xE408C, symBinAddr: 0x1000E88F8, symSize: 0x518 }
  - { offsetInCU: 0x4558F8, offset: 0x4558F8, size: 0x8, addend: 0x0, symName: __ZN5Eigen8internal10AssignmentINS_6MatrixIfLin1ELi1ELi0ELin1ELi1EEENS_13CwiseBinaryOpINS0_17scalar_product_opIffEEKNS_14CwiseNullaryOpINS0_18scalar_constant_opIfEEKS3_EEKNS_7ProductINS2_IfLin1ELin1ELi0ELin1ELin1EEES3_Li0EEEEENS0_9assign_opIffEENS0_11Dense2DenseEvE3runERS3_RKSH_RKSJ_, symObjAddr: 0xC8B10, symBinAddr: 0x1000CD37C, symSize: 0x4D8 }
  - { offsetInCU: 0x456993, offset: 0x456993, size: 0x8, addend: 0x0, symName: __ZN5Eigen8internal20generic_product_implINS_13CwiseBinaryOpINS0_17scalar_product_opIffEEKNS_14CwiseNullaryOpINS0_18scalar_constant_opIfEEKNS_6MatrixIfLin1ELin1ELi0ELin1ELin1EEEEESA_EENS8_IfLin1ELi1ELi0ELin1ELi1EEENS_10DenseShapeESF_Li7EE13scaleAndAddToISE_EEvRT_RKSD_RKSE_RKf, symObjAddr: 0xC8FE8, symBinAddr: 0x1000CD854, symSize: 0x9F4 }
  - { offsetInCU: 0x4587D0, offset: 0x4587D0, size: 0x8, addend: 0x0, symName: __ZN5Eigen8internal17product_evaluatorINS_7ProductINS_9TransposeIKNS_5BlockIKNS_6MatrixIfLin1ELin1ELi0ELin1ELin1EEELin1ELin1ELb0EEEEENS4_IS7_Lin1ELi1ELb1EEELi0EEELi7ENS_10DenseShapeESD_ffEC2ERKSC_, symObjAddr: 0xCD36C, symBinAddr: 0x1000D1BD8, symSize: 0x374 }
  - { offsetInCU: 0x458FAF, offset: 0x458FAF, size: 0x8, addend: 0x0, symName: __ZN5Eigen8internal20generic_product_implINS_9TransposeIKNS_5BlockIKNS_6MatrixIfLin1ELin1ELi0ELin1ELin1EEELin1ELin1ELb0EEEEENS3_IS6_Lin1ELi1ELb1EEENS_10DenseShapeESB_Li7EE13scaleAndAddToINS4_IfLin1ELi1ELi0ELin1ELi1EEEEEvRT_RKS9_RKSA_RKf, symObjAddr: 0xCD6E0, symBinAddr: 0x1000D1F4C, symSize: 0x9A8 }
  - { offsetInCU: 0x45A591, offset: 0x45A591, size: 0x8, addend: 0x0, symName: __ZN5Eigen8internal20generic_product_implINS_9TransposeIKNS_5BlockIKNS_6MatrixIfLin1ELin1ELi0ELin1ELin1EEELin1ELin1ELb1EEEEES7_NS_10DenseShapeESA_Li3EE17eval_dynamic_implINS3_IS5_Lin1ELin1ELb0EEES9_S7_NS0_13sub_assign_opIffEEfEEvRT_RKT0_RKT1_RKT2_RKT3_NS0_10false_typeE, symObjAddr: 0xD067C, symBinAddr: 0x1000D4EE8, symSize: 0x5E0 }
  - { offsetInCU: 0x45ACEA, offset: 0x45ACEA, size: 0x8, addend: 0x0, symName: __ZN5Eigen8internal20generic_product_implINS_9TransposeIKNS_5BlockIKNS_6MatrixIfLin1ELin1ELi0ELin1ELin1EEELin1ELin1ELb1EEEEES7_NS_10DenseShapeESA_Li8EE13scaleAndAddToINS3_IS5_Lin1ELin1ELb0EEEEEvRT_RKS9_RS8_RKf, symObjAddr: 0xCFBCC, symBinAddr: 0x1000D4438, symSize: 0xAB0 }
  - { offsetInCU: 0x45C9A9, offset: 0x45C9A9, size: 0x8, addend: 0x0, symName: __ZN5Eigen8internal20generic_product_implINS_9TransposeIKNS_5BlockIKNS_6MatrixIfLin1ELin1ELi0ELin1ELin1EEELin1ELin1ELb1EEEEEKNS3_IS8_Lin1ELi1ELb1EEENS_10DenseShapeESC_Li7EE13scaleAndAddToINS3_INS3_IS5_Lin1ELin1ELb0EEELin1ELi1ELb1EEEEEvRT_RKS9_RSB_RKf, symObjAddr: 0xD14B8, symBinAddr: 0x1000D5D24, symSize: 0x9A8 }
  - { offsetInCU: 0x45D6D2, offset: 0x45D6D2, size: 0x8, addend: 0x0, symName: __ZN5Eigen8internal20generic_product_implIKNS_5BlockIKNS_9TransposeIKNS2_IKNS_6MatrixIfLin1ELin1ELi0ELin1ELin1EEELin1ELin1ELb1EEEEELi1ELin1ELb1EEES7_NS_10DenseShapeESD_Li7EE13scaleAndAddToINS2_INS2_IS5_Lin1ELin1ELb0EEELi1ELin1ELb0EEEEEvRT_RSC_RS8_RKf, symObjAddr: 0xD1E60, symBinAddr: 0x1000D66CC, symSize: 0x9EC }
  - { offsetInCU: 0x45E2A9, offset: 0x45E2A9, size: 0x8, addend: 0x0, symName: __ZN5Eigen8internal29general_matrix_matrix_productIlfLi1ELb0EfLi0ELb0ELi0ELi1EE3runElllPKflS4_lPfllfRNS0_15level3_blockingIffEEPNS0_16GemmParallelInfoIlEE, symObjAddr: 0xD3708, symBinAddr: 0x1000D7F74, symSize: 0x910 }
  - { offsetInCU: 0x45EE30, offset: 0x45EE30, size: 0x8, addend: 0x0, symName: __ZNK5Eigen8internal17product_evaluatorINS_7ProductINS_9TransposeIKNS_5BlockIKNS_6MatrixIfLin1ELin1ELi0ELin1ELin1EEELin1ELin1ELb1EEEEES8_Li1EEELi8ENS_10DenseShapeESC_ffE5coeffEll, symObjAddr: 0xD0C5C, symBinAddr: 0x1000D54C8, symSize: 0x85C }
  - { offsetInCU: 0x460D84, offset: 0x460D84, size: 0x8, addend: 0x0, symName: __ZN5Eigen8internal13gemm_pack_rhsIflNS0_22const_blas_data_mapperIflLi0EEELi4ELi0ELb0ELb0EEclEPfRKS3_llll, symObjAddr: 0xD553C, symBinAddr: 0x1000D9DA8, symSize: 0xFB0 }
  - { offsetInCU: 0x4618C1, offset: 0x4618C1, size: 0x8, addend: 0x0, symName: __ZN5Eigen8internal22lhs_process_one_packetILi4ELl4ELl1Efff19__simd128_float32_tS2_fS2_NS0_11gebp_traitsIffLb0ELb0ELi4ELi0EEENS0_16BlasLinearMapperIflLi0ELi1EEENS0_16blas_data_mapperIflLi0ELi0ELi1EEEEclERKS8_PKfSD_fllllllilllll, symObjAddr: 0xDC28C, symBinAddr: 0x1000E0AF8, symSize: 0x1630 }
  - { offsetInCU: 0x4629DF, offset: 0x4629DF, size: 0x8, addend: 0x0, symName: __ZN5Eigen8internal22lhs_process_one_packetILi4ELl2ELl1Efff18__simd64_float32_tS2_S2_S2_NS0_11gebp_traitsIffLb0ELb0ELi4ELi1EEENS0_16BlasLinearMapperIflLi0ELi1EEENS0_16blas_data_mapperIflLi0ELi0ELi1EEEEclERKS8_PKfSD_fllllllilllll, symObjAddr: 0xDD8BC, symBinAddr: 0x1000E2128, symSize: 0x1C30 }
  - { offsetInCU: 0x464C9F, offset: 0x464C9F, size: 0x8, addend: 0x0, symName: __ZN5Eigen8internal17product_evaluatorINS_7ProductINS_9TransposeIKNS_5BlockIKNS_6MatrixIfLin1ELin1ELi0ELin1ELin1EEELin1ELin1ELb1EEEEENS4_IS7_Lin1ELi1ELb1EEELi0EEELi7ENS_10DenseShapeESD_ffEC2ERKSC_, symObjAddr: 0xE0878, symBinAddr: 0x1000E50E4, symSize: 0x374 }
  - { offsetInCU: 0x46531A, offset: 0x46531A, size: 0x8, addend: 0x0, symName: __ZN5Eigen8internal20generic_product_implINS_9TransposeIKNS_5BlockIKNS_6MatrixIfLin1ELin1ELi0ELin1ELin1EEELin1ELin1ELb1EEEEENS3_IS6_Lin1ELi1ELb1EEENS_10DenseShapeESB_Li7EE13scaleAndAddToINS4_IfLin1ELi1ELi0ELin1ELi1EEEEEvRT_RKS9_RKSA_RKf, symObjAddr: 0xE0BEC, symBinAddr: 0x1000E5458, symSize: 0x9A8 }
  - { offsetInCU: 0x4667E5, offset: 0x4667E5, size: 0x8, addend: 0x0, symName: __ZN5Eigen8internal17product_evaluatorINS_7ProductINS_6MatrixIfLin1ELin1ELi0ELin1ELin1EEENS3_IfLin1ELi1ELi0ELin1ELi1EEELi0EEELi7ENS_10DenseShapeES7_ffEC2ERKS6_, symObjAddr: 0xE2C08, symBinAddr: 0x1000E7474, symSize: 0x3D0 }
  - { offsetInCU: 0x466E6C, offset: 0x466E6C, size: 0x8, addend: 0x0, symName: __ZN5Eigen8internal20generic_product_implINS_6MatrixIfLin1ELin1ELi0ELin1ELin1EEENS2_IfLin1ELi1ELi0ELin1ELi1EEENS_10DenseShapeES5_Li7EE13scaleAndAddToIS4_EEvRT_RKS3_RKS4_RKf, symObjAddr: 0xE2FD8, symBinAddr: 0x1000E7844, symSize: 0x934 }
  - { offsetInCU: 0x46840E, offset: 0x46840E, size: 0x8, addend: 0x0, symName: __ZNK5Eigen10MatrixBaseINS_6MatrixIfLin1ELi1ELi0ELin1ELi1EEEE10stableNormEv, symObjAddr: 0xEC0E0, symBinAddr: 0x1000F094C, symSize: 0x2D0 }
  - { offsetInCU: 0x469B90, offset: 0x469B90, size: 0x8, addend: 0x0, symName: __ZN5Board2dfERN5Eigen6MatrixIfLin1ELi1ELi0ELin1ELi1EEERNS1_IfLin1ELin1ELi0ELin1ELin1EEE, symObjAddr: 0xED534, symBinAddr: 0x1000F1DA0, symSize: 0xCEC }
  - { offsetInCU: 0x46B0FF, offset: 0x46B0FF, size: 0x8, addend: 0x0, symName: __ZN5Eigen19ColPivHouseholderQRINS_6MatrixIfLin1ELin1ELi0ELin1ELin1EEEEC2IS2_EERNS_9EigenBaseIT_EE, symObjAddr: 0xF5124, symBinAddr: 0x1000F9990, symSize: 0x85C }
  - { offsetInCU: 0x46BD3F, offset: 0x46BD3F, size: 0x8, addend: 0x0, symName: __ZNK5Eigen19HouseholderSequenceINS_6MatrixIfLin1ELin1ELi0ELin1ELin1EEENS1_IfLin1ELi1ELi0ELin1ELi1EEELi1EE18applyThisOnTheLeftIS3_NS1_IfLi1ELi1ELi1ELi1ELi1EEEEEvRT_RT0_b, symObjAddr: 0xFF1D0, symBinAddr: 0x100103A3C, symSize: 0x574 }
  - { offsetInCU: 0x46C1A6, offset: 0x46C1A6, size: 0x8, addend: 0x0, symName: __ZN5Eigen19ColPivHouseholderQRINS_6MatrixIfLin1ELin1ELi0ELin1ELin1EEEED1Ev, symObjAddr: 0xF2EF4, symBinAddr: 0x1000F7760, symSize: 0x10C }
  - { offsetInCU: 0x46E9F2, offset: 0x46E9F2, size: 0x8, addend: 0x0, symName: __ZN5Eigen8internal26triangular_solver_selectorIKNS_5BlockIKNS_6MatrixIfLin1ELin1ELi0ELin1ELin1EEELin1ELin1ELb0EEENS2_INS3_IfLin1ELi1ELi0ELin1ELi1EEELin1ELi1ELb0EEELi1ELi2ELi0ELi1EE3runERS7_RS9_, symObjAddr: 0x1064E0, symBinAddr: 0x10010AD4C, symSize: 0x244 }
  - { offsetInCU: 0x46EC80, offset: 0x46EC80, size: 0x8, addend: 0x0, symName: __ZN5Eigen8internal26permutation_matrix_productINS_6MatrixIfLin1ELi1ELi0ELin1ELi1EEELi1ELb0ENS_10DenseShapeEE3runIS3_NS_17PermutationMatrixILin1ELin1EiEEEEvRT_RKT0_RKS3_, symObjAddr: 0x109DC0, symBinAddr: 0x10010E62C, symSize: 0x574 }
  - { offsetInCU: 0x46F5BD, offset: 0x46F5BD, size: 0x8, addend: 0x0, symName: __ZN5Eigen8internal26triangular_solver_selectorIKNS_9TransposeIKNS_5BlockIKNS_6MatrixIfLin1ELin1ELi0ELin1ELin1EEELin1ELin1ELb0EEEEENS4_IfLin1ELi1ELi0ELin1ELi1EEELi1ELi1ELi0ELi1EE3runERSA_RSB_, symObjAddr: 0x10B484, symBinAddr: 0x10010FCF0, symSize: 0x254 }
  - { offsetInCU: 0x470253, offset: 0x470253, size: 0x8, addend: 0x0, symName: __ZN5Eigen19ColPivHouseholderQRINS_6MatrixIfLin1ELin1ELi0ELin1ELin1EEEE14computeInPlaceEv, symObjAddr: 0xF5980, symBinAddr: 0x1000FA1EC, symSize: 0x31A4 }
  - { offsetInCU: 0x47471A, offset: 0x47471A, size: 0x8, addend: 0x0, symName: __ZNK5Eigen10MatrixBaseINS_5BlockINS1_INS_6MatrixIfLin1ELin1ELi0ELin1ELin1EEELin1ELi1ELb1EEELin1ELi1ELb0EEEE15makeHouseholderINS_11VectorBlockIS5_Lin1EEEEEvRT_RfSC_, symObjAddr: 0xF9FA0, symBinAddr: 0x1000FE80C, symSize: 0x15E0 }
  - { offsetInCU: 0x475717, offset: 0x475717, size: 0x8, addend: 0x0, symName: __ZN5Eigen10MatrixBaseINS_5BlockINS_6MatrixIfLin1ELin1ELi0ELin1ELin1EEELin1ELin1ELb0EEEE25applyHouseholderOnTheLeftINS_11VectorBlockINS1_IS3_Lin1ELi1ELb1EEELin1EEEEEvRKT_RKfPf, symObjAddr: 0xF8BB8, symBinAddr: 0x1000FD424, symSize: 0x13E8 }
  - { offsetInCU: 0x4776DF, offset: 0x4776DF, size: 0x8, addend: 0x0, symName: __ZN5Eigen8internal10AssignmentINS_3MapINS_6MatrixIfLi1ELin1ELi1ELi1ELin1EEELi0ENS_6StrideILi0ELi0EEEEENS_7ProductINS_9TransposeIKNS_5BlockINSA_INS3_IfLin1ELin1ELi0ELin1ELin1EEELin1ELi1ELb1EEELin1ELi1ELb0EEEEENSA_INSA_ISB_Lin1ELin1ELb0EEELin1ELin1ELb0EEELi0EEENS0_9assign_opIffEENS0_11Dense2DenseEvE3runERS7_RKSI_RKSK_, symObjAddr: 0xFB580, symBinAddr: 0x1000FFDEC, symSize: 0x2EC }
  - { offsetInCU: 0x47897E, offset: 0x47897E, size: 0x8, addend: 0x0, symName: __ZN5Eigen8internal20generic_product_implINS_9TransposeIKNS_5BlockINS3_INS_6MatrixIfLin1ELin1ELi0ELin1ELin1EEELin1ELi1ELb1EEELin1ELi1ELb0EEEEENS3_INS3_IS5_Lin1ELin1ELb0EEELin1ELin1ELb0EEENS_10DenseShapeESC_Li7EE13scaleAndAddToINS_3MapINS4_IfLi1ELin1ELi1ELi1ELin1EEELi0ENS_6StrideILi0ELi0EEEEEEEvRT_RKS9_RKSB_RKf, symObjAddr: 0xFB86C, symBinAddr: 0x1001000D8, symSize: 0x9C8 }
  - { offsetInCU: 0x47A442, offset: 0x47A442, size: 0x8, addend: 0x0, symName: __ZN5Eigen8internal25local_nested_eval_wrapperINS_13CwiseBinaryOpINS0_17scalar_product_opIffEEKNS_14CwiseNullaryOpINS0_18scalar_constant_opIfEEKNS_6MatrixIfLin1ELi1ELi0ELin1ELi1EEEEEKNS_5BlockINSD_INS8_IfLin1ELin1ELi0ELin1ELin1EEELin1ELi1ELb1EEELin1ELi1ELb0EEEEELin1ELb1EEC2ERKSI_Pf, symObjAddr: 0xFDA78, symBinAddr: 0x1001022E4, symSize: 0x7C0 }
  - { offsetInCU: 0x47AB5D, offset: 0x47AB5D, size: 0x8, addend: 0x0, symName: __ZNK5Eigen8internal20generic_product_implINS_13CwiseBinaryOpINS0_17scalar_product_opIffEEKNS_14CwiseNullaryOpINS0_18scalar_constant_opIfEEKNS_6MatrixIfLin1ELi1ELi0ELin1ELi1EEEEEKNS_5BlockINSD_INS8_IfLin1ELin1ELi0ELin1ELin1EEELin1ELi1ELb1EEELin1ELi1ELb0EEEEENS_3MapINS8_IfLi1ELin1ELi1ELi1ELin1EEELi0ENS_6StrideILi0ELi0EEEEENS_10DenseShapeESO_Li5EE3subclINSD_INSD_INSD_ISE_Lin1ELin1ELb0EEELin1ELin1ELb0EEELin1ELi1ELb1EEENS2_IS4_SC_KNSJ_IS9_Li16ESM_EEEEEEvRKT_RKT0_, symObjAddr: 0xFCF40, symBinAddr: 0x1001017AC, symSize: 0xB38 }
  - { offsetInCU: 0x47BD13, offset: 0x47BD13, size: 0x8, addend: 0x0, symName: __ZN5Eigen3RefIKNS_6MatrixIfLin1ELi1ELi0ELi4096ELi1EEELi16ENS_11InnerStrideILi1EEEE9constructINS_5BlockIKNS_13CwiseBinaryOpINS_8internal17scalar_product_opIffEEKNS1_IfLin1ELi1ELi0ELin1ELi1EEESE_EELin1ELi1ELb0EEEEEvRKT_NSA_10false_typeE, symObjAddr: 0xFE834, symBinAddr: 0x1001030A0, symSize: 0x99C }
  - { offsetInCU: 0x47C9A5, offset: 0x47C9A5, size: 0x8, addend: 0x0, symName: __ZNK5Eigen19HouseholderSequenceINS_6MatrixIfLin1ELin1ELi0ELin1ELin1EEENS1_IfLin1ELi1ELi0ELin1ELi1EEELi1EE15essentialVectorEl, symObjAddr: 0x100B5C, symBinAddr: 0x1001053C8, symSize: 0x22C }
  - { offsetInCU: 0x47CCA2, offset: 0x47CCA2, size: 0x8, addend: 0x0, symName: __ZN5Eigen10MatrixBaseINS_5BlockINS_6MatrixIfLin1ELi1ELi0ELin1ELi1EEELin1ELin1ELb0EEEE25applyHouseholderOnTheLeftINS1_IKNS2_IfLin1ELin1ELi0ELin1ELin1EEELin1ELi1ELb0EEEEEvRKT_RKfPf, symObjAddr: 0xFF744, symBinAddr: 0x100103FB0, symSize: 0x1418 }
  - { offsetInCU: 0x47F4C0, offset: 0x47F4C0, size: 0x8, addend: 0x0, symName: __ZN5Eigen8internal10AssignmentINS_3MapINS_6MatrixIfLi1ELin1ELi1ELi1ELi1EEELi0ENS_6StrideILi0ELi0EEEEENS_7ProductINS_9TransposeIKNS_5BlockIKNS3_IfLin1ELin1ELi0ELin1ELin1EEELin1ELi1ELb0EEEEENSA_INSA_INS3_IfLin1ELi1ELi0ELin1ELi1EEELin1ELin1ELb0EEELin1ELin1ELb0EEELi0EEENS0_9assign_opIffEENS0_11Dense2DenseEvE3runERS7_RKSJ_RKSL_, symObjAddr: 0x10195C, symBinAddr: 0x1001061C8, symSize: 0x4E4 }
  - { offsetInCU: 0x48080D, offset: 0x48080D, size: 0x8, addend: 0x0, symName: __ZNK5Eigen8internal17product_evaluatorINS_7ProductINS_9TransposeIKNS_5BlockIKNS_6MatrixIfLin1ELin1ELi0ELin1ELin1EEELin1ELi1ELb0EEEEENS4_INS4_INS5_IfLin1ELi1ELi0ELin1ELi1EEELin1ELin1ELb0EEELin1ELin1ELb0EEELi1EEELi3ENS_10DenseShapeESF_ffE5coeffEll, symObjAddr: 0x101E40, symBinAddr: 0x1001066AC, symSize: 0x858 }
  - { offsetInCU: 0x482DD9, offset: 0x482DD9, size: 0x8, addend: 0x0, symName: __ZN5Eigen8internal26triangular_solver_selectorINS_9TransposeINS_5BlockINS_6MatrixIfLin1ELin1ELi0ELin1ELin1EEELin1ELin1ELb0EEEEENS3_INS4_IfLin1ELi1ELi0ELin1ELi1EEELin1ELi1ELb0EEELi1ELi2ELi0ELi1EE3runERKS7_RS9_, symObjAddr: 0x10C1F4, symBinAddr: 0x100110A60, symSize: 0x254 }
  - { offsetInCU: 0x483F48, offset: 0x483F48, size: 0x8, addend: 0x0, symName: __ZN5Eigen8internal17product_evaluatorINS_7ProductINS_7InverseINS_17PermutationMatrixILin1ELin1EiEEEENS_13CwiseBinaryOpINS0_17scalar_product_opIffEEKNS_6MatrixIfLin1ELi1ELi0ELin1ELi1EEESC_EELi2EEELi7ENS_16PermutationShapeENS_10DenseShapeEvfEC2ERKSE_, symObjAddr: 0x10B0D0, symBinAddr: 0x10010F93C, symSize: 0x3B4 }
  - { offsetInCU: 0x48532F, offset: 0x48532F, size: 0x8, addend: 0x0, symName: __ZN5Eigen8internal10AssignmentINS_6MatrixIfLin1ELi1ELi0ELin1ELi1EEENS_7ProductINS_14TriangularViewINS2_IfLin1ELin1ELi0ELin1ELin1EEELj2EEENS4_INS_7InverseINS_17PermutationMatrixILin1ELin1EiEEEES3_Li2EEELi0EEENS0_9assign_opIffEENS0_11Dense2DenseEvE3runERS3_RKSD_RKSF_, symObjAddr: 0x10D7A0, symBinAddr: 0x10011200C, symSize: 0x33C }
  - { offsetInCU: 0x48590D, offset: 0x48590D, size: 0x8, addend: 0x0, symName: __ZN5Eigen15PlainObjectBaseINS_6MatrixIfLin1ELi1ELi0ELin1ELi1EEEEC2INS_7ProductINS_7InverseINS_17PermutationMatrixILin1ELin1EiEEEES2_Li2EEEEERKNS_9DenseBaseIT_EE, symObjAddr: 0x10F348, symBinAddr: 0x100113BB4, symSize: 0x254 }
  - { offsetInCU: 0x48614A, offset: 0x48614A, size: 0x8, addend: 0x0, symName: __ZN5Eigen8internal26permutation_matrix_productINS_6MatrixIfLin1ELi1ELi0ELin1ELi1EEELi1ELb1ENS_10DenseShapeEE3runIS3_NS_17PermutationMatrixILin1ELin1EiEEEEvRT_RKT0_RKS3_, symObjAddr: 0x10F59C, symBinAddr: 0x100113E08, symSize: 0x57C }
  - { offsetInCU: 0x4871EA, offset: 0x4871EA, size: 0x8, addend: 0x0, symName: __ZNSt3__114__split_bufferIPN5Eigen6MatrixIfLin1ELi1ELi0ELin1ELi1EEENS_9allocatorIS4_EEE9push_backEOS4_, symObjAddr: 0x1136F0, symBinAddr: 0x100117F5C, symSize: 0x4AC }
  - { offsetInCU: 0x4876E6, offset: 0x4876E6, size: 0x8, addend: 0x0, symName: __ZNSt3__114__split_bufferIPN5Eigen6MatrixIfLin1ELi1ELi0ELin1ELi1EEENS_9allocatorIS4_EEE10push_frontEOS4_, symObjAddr: 0x113B9C, symBinAddr: 0x100118408, symSize: 0x4B0 }
  - { offsetInCU: 0x487BC8, offset: 0x487BC8, size: 0x8, addend: 0x0, symName: __ZNSt3__114__split_bufferIPN5Eigen6MatrixIfLin1ELi1ELi0ELin1ELi1EEERNS_9allocatorIS4_EEE10push_frontERKS4_, symObjAddr: 0x11404C, symBinAddr: 0x1001188B8, symSize: 0x4B0 }
  - { offsetInCU: 0x48AA8F, offset: 0x48AA8F, size: 0x8, addend: 0x0, symName: __ZNSt3__112__hash_tableINS_17__hash_value_typeINS_12basic_stringIcNS_11char_traitsIcEENS_9allocatorIcEEEEN5Eigen6MatrixIfLin1ELi1ELi0ELin1ELi1EEEEENS_22__unordered_map_hasherIS7_SB_NS_4hashIS7_EENS_8equal_toIS7_EELb1EEENS_21__unordered_map_equalIS7_SB_SG_SE_Lb1EEENS5_ISB_EEE21__construct_node_hashIRKNS_21piecewise_construct_tEJNS_5tupleIJRKS7_EEENSQ_IJEEEEEENS_10unique_ptrINS_11__hash_nodeISB_PvEENS_22__hash_node_destructorINS5_ISY_EEEEEEmOT_DpOT0_, symObjAddr: 0x11BB1C, symBinAddr: 0x100120388, symSize: 0x2DC }
  - { offsetInCU: 0x48B32A, offset: 0x48B32A, size: 0x8, addend: 0x0, symName: __ZNSt3__128__exception_guard_exceptionsINS_6vectorIfNS_9allocatorIfEEE16__destroy_vectorEED1B8ue170006Ev, symObjAddr: 0x11C090, symBinAddr: 0x1001208FC, symSize: 0x12C }
  - { offsetInCU: 0x48BE97, offset: 0x48BE97, size: 0x8, addend: 0x0, symName: __ZN5Board2GBEmRmRKNSt3__16vectorIfNS1_9allocatorIfEEEE, symObjAddr: 0x11F06C, symBinAddr: 0x1001238D8, symSize: 0x27C }
  - { offsetInCU: 0x48C144, offset: 0x48C144, size: 0x8, addend: 0x0, symName: __ZNSt3__16vectorINS_4pairIiiEENS_9allocatorIS2_EEE21__push_back_slow_pathIS2_EEvOT_, symObjAddr: 0x11F2E8, symBinAddr: 0x100123B54, symSize: 0x4FC }
  - { offsetInCU: 0x48C862, offset: 0x48C862, size: 0x8, addend: 0x0, symName: __ZNKSt3__16vectorINS_4pairIiiEENS_9allocatorIS2_EEE20__throw_length_errorB8ue170006Ev, symObjAddr: 0x11FF3C, symBinAddr: 0x1001247A8, symSize: 0x18 }
  - { offsetInCU: 0x48C88B, offset: 0x48C88B, size: 0x8, addend: 0x0, symName: __ZNSt3__16vectorIfNS_9allocatorIfEEE18__insert_with_sizeB8ue170006INS_11__wrap_iterIPfEES7_EES7_NS5_IPKfEET_T0_l, symObjAddr: 0x11FF54, symBinAddr: 0x1001247C0, symSize: 0x95C }
  - { offsetInCU: 0x48CA23, offset: 0x48CA23, size: 0x8, addend: 0x0, symName: __ZNSt3__16vectorIfNS_9allocatorIfEEE18__construct_at_endINS_11__wrap_iterIPfEES7_EEvT_T0_m, symObjAddr: 0x1208B0, symBinAddr: 0x10012511C, symSize: 0x154 }
  - { offsetInCU: 0x48CDE2, offset: 0x48CDE2, size: 0x8, addend: 0x0, symName: __ZNSt3__16vectorIfNS_9allocatorIfEEE12__move_rangeEPfS4_S4_, symObjAddr: 0x120A04, symBinAddr: 0x100125270, symSize: 0x5F0 }
  - { offsetInCU: 0x48D498, offset: 0x48D498, size: 0x8, addend: 0x0, symName: __ZNKSt3__16vectorIdNS_9allocatorIdEEE20__throw_length_errorB8ue170006Ev, symObjAddr: 0x122064, symBinAddr: 0x1001268D0, symSize: 0x18 }
  - { offsetInCU: 0x48D4C1, offset: 0x48D4C1, size: 0x8, addend: 0x0, symName: __ZN5BoardD2Ev, symObjAddr: 0x12207C, symBinAddr: 0x1001268E8, symSize: 0x24C }
  - { offsetInCU: 0x48DF19, offset: 0x48DF19, size: 0x8, addend: 0x0, symName: __ZN5Eigen14AutoDiffScalarINS_6MatrixIfLin1ELi1ELi0ELin1ELi1EEEEC2INS_12CwiseUnaryOpINS_8internal18scalar_opposite_opIfEEKS2_EEEERKNS0_IT_EENS6_9enable_ifIXaasr8internal7is_sameIfNS6_6traitsINS6_10remove_allISB_E4typeEE6ScalarEEE5valuesr8internal14is_convertibleISB_S2_EE5valueEPvE4typeE, symObjAddr: 0x12B0A4, symBinAddr: 0x10012F910, symSize: 0x710 }
  - { offsetInCU: 0x48E59C, offset: 0x48E59C, size: 0x8, addend: 0x0, symName: __ZN5Eigen8internal17abs2_impl_defaultINS_14AutoDiffScalarINS_6MatrixIfLin1ELi1ELi0ELin1ELi1EEEEELb0EE3runERKS5_, symObjAddr: 0x12A98C, symBinAddr: 0x10012F1F8, symSize: 0x718 }
  - { offsetInCU: 0x48F1E3, offset: 0x48F1E3, size: 0x8, addend: 0x0, symName: __ZNSt3__112__hash_tableINS_17__hash_value_typeINS_12basic_stringIcNS_11char_traitsIcEENS_9allocatorIcEEEEfEENS_22__unordered_map_hasherIS7_S8_NS_4hashIS7_EENS_8equal_toIS7_EELb1EEENS_21__unordered_map_equalIS7_S8_SD_SB_Lb1EEENS5_IS8_EEE21__construct_node_hashIRKNS_21piecewise_construct_tEJNS_5tupleIJRKS7_EEENSN_IJEEEEEENS_10unique_ptrINS_11__hash_nodeIS8_PvEENS_22__hash_node_destructorINS5_ISV_EEEEEEmOT_DpOT0_, symObjAddr: 0x12CAD4, symBinAddr: 0x100131340, symSize: 0x2F8 }
  - { offsetInCU: 0x48F7FE, offset: 0x48F7FE, size: 0x8, addend: 0x0, symName: __ZNSt3__112__hash_tableINS_17__hash_value_typeINS_12basic_stringIcNS_11char_traitsIcEENS_9allocatorIcEEEEfEENS_22__unordered_map_hasherIS7_S8_NS_4hashIS7_EENS_8equal_toIS7_EELb1EEENS_21__unordered_map_equalIS7_S8_SD_SB_Lb1EEENS5_IS8_EEE11__do_rehashILb1EEEvm, symObjAddr: 0x12CEB0, symBinAddr: 0x10013171C, symSize: 0x3E0 }
  - { offsetInCU: 0x48FCC7, offset: 0x48FCC7, size: 0x8, addend: 0x0, symName: __ZNSt3__110unique_ptrINS_11__hash_nodeINS_17__hash_value_typeINS_12basic_stringIcNS_11char_traitsIcEENS_9allocatorIcEEEEfEEPvEENS_22__hash_node_destructorINS6_ISB_EEEEED1B8ue170006Ev, symObjAddr: 0x12CDCC, symBinAddr: 0x100131638, symSize: 0xE4 }
  - { offsetInCU: 0x490ADB, offset: 0x490ADB, size: 0x8, addend: 0x0, symName: __ZNSt3__16vectorINS_4pairIidEENS_9allocatorIS2_EEE21__push_back_slow_pathIS2_EEvOT_, symObjAddr: 0x12DF54, symBinAddr: 0x1001327C0, symSize: 0x454 }
  - { offsetInCU: 0x490FB7, offset: 0x490FB7, size: 0x8, addend: 0x0, symName: '__ZNSt3__110unique_ptrINS_5tupleIJNS0_INS_15__thread_structENS_14default_deleteIS2_EEEEZ18SimulatedAnnealingRKN5Eigen6MatrixIfLin1ELin1ELi0ELin1ELin1EEEiNS_12basic_stringIcNS_11char_traitsIcEENS_9allocatorIcEEEEfSG_iRKSG_bdiPKciE3$_3EEENS3_ISM_EEED1B8ue170006Ev', symObjAddr: 0x12DEA8, symBinAddr: 0x100132714, symSize: 0xAC }
  - { offsetInCU: 0x491390, offset: 0x491390, size: 0x8, addend: 0x0, symName: __ZNKSt3__16vectorINS_4pairIidEENS_9allocatorIS2_EEE20__throw_length_errorB8ue170006Ev, symObjAddr: 0x12E684, symBinAddr: 0x100132EF0, symSize: 0x18 }
  - { offsetInCU: 0x4913B9, offset: 0x4913B9, size: 0x8, addend: 0x0, symName: __ZNSt3__127__tree_balance_after_insertB8ue170006IPNS_16__tree_node_baseIPvEEEEvT_S5_, symObjAddr: 0x12E69C, symBinAddr: 0x100132F08, symSize: 0x870 }
  - { offsetInCU: 0x4915D2, offset: 0x4915D2, size: 0x8, addend: 0x0, symName: '__ZNSt3__110unique_ptrINS_5tupleIJNS0_INS_15__thread_structENS_14default_deleteIS2_EEEEZ2GPRKN5Eigen6MatrixIfLin1ELin1ELi0ELin1ELin1EEEiNS_12basic_stringIcNS_11char_traitsIcEENS_9allocatorIcEEEEfSG_iRKSG_bdiPKciE3$_8EEENS3_ISM_EEED1B8ue170006Ev', symObjAddr: 0x12F600, symBinAddr: 0x100133E6C, symSize: 0xAC }
  - { offsetInCU: 0x491899, offset: 0x491899, size: 0x8, addend: 0x0, symName: '__ZNSt3__110unique_ptrINS_5tupleIJNS0_INS_15__thread_structENS_14default_deleteIS2_EEEEZ3PSORKN5Eigen6MatrixIfLin1ELin1ELi0ELin1ELin1EEEiNS_12basic_stringIcNS_11char_traitsIcEENS_9allocatorIcEEEEfSG_iRKSG_bdiPKciE3$_9EEENS3_ISM_EEED1B8ue170006Ev', symObjAddr: 0x12FDA0, symBinAddr: 0x10013460C, symSize: 0xAC }
  - { offsetInCU: 0x491EBA, offset: 0x491EBA, size: 0x8, addend: 0x0, symName: __ZNSt3__112__hash_tableINS_17__hash_value_typeIifEENS_22__unordered_map_hasherIiS2_NS_4hashIiEENS_8equal_toIiEELb1EEENS_21__unordered_map_equalIiS2_S7_S5_Lb1EEENS_9allocatorIS2_EEE11__do_rehashILb1EEEvm, symObjAddr: 0x1304BC, symBinAddr: 0x100134D28, symSize: 0x3E0 }
  - { offsetInCU: 0x492B62, offset: 0x492B62, size: 0x8, addend: 0x0, symName: __ZNSt3__112__hash_tableINS_17__hash_value_typeIfNS_13unordered_mapIiiNS_4hashIiEENS_8equal_toIiEENS_9allocatorINS_4pairIKiiEEEEEEEENS_22__unordered_map_hasherIfSD_NS3_IfEENS5_IfEELb1EEENS_21__unordered_map_equalIfSD_SG_SF_Lb1EEENS7_ISD_EEE11__do_rehashILb1EEEvm, symObjAddr: 0x1312D4, symBinAddr: 0x100135B40, symSize: 0x3E0 }
  - { offsetInCU: 0x49302B, offset: 0x49302B, size: 0x8, addend: 0x0, symName: __ZNSt3__110unique_ptrINS_11__hash_nodeINS_17__hash_value_typeIfNS_13unordered_mapIiiNS_4hashIiEENS_8equal_toIiEENS_9allocatorINS_4pairIKiiEEEEEEEEPvEENS_22__hash_node_destructorINS8_ISG_EEEEED1B8ue170006Ev, symObjAddr: 0x1311B4, symBinAddr: 0x100135A20, symSize: 0x120 }
  - { offsetInCU: 0x4939C2, offset: 0x4939C2, size: 0x8, addend: 0x0, symName: __ZNSt3__112__hash_tableINS_17__hash_value_typeIiiEENS_22__unordered_map_hasherIiS2_NS_4hashIiEENS_8equal_toIiEELb1EEENS_21__unordered_map_equalIiS2_S7_S5_Lb1EEENS_9allocatorIS2_EEE11__do_rehashILb1EEEvm, symObjAddr: 0x131D24, symBinAddr: 0x100136590, symSize: 0x3E0 }
  - { offsetInCU: 0x4944D9, offset: 0x4944D9, size: 0x8, addend: 0x0, symName: __ZNSt3__112__hash_tableINS_17__hash_value_typeIfNS_13unordered_mapIifNS_4hashIiEENS_8equal_toIiEENS_9allocatorINS_4pairIKifEEEEEEEENS_22__unordered_map_hasherIfSD_NS3_IfEENS5_IfEELb1EEENS_21__unordered_map_equalIfSD_SG_SF_Lb1EEENS7_ISD_EEE11__do_rehashILb1EEEvm, symObjAddr: 0x132B3C, symBinAddr: 0x1001373A8, symSize: 0x3E0 }
  - { offsetInCU: 0x4949A2, offset: 0x4949A2, size: 0x8, addend: 0x0, symName: __ZNSt3__110unique_ptrINS_11__hash_nodeINS_17__hash_value_typeIfNS_13unordered_mapIifNS_4hashIiEENS_8equal_toIiEENS_9allocatorINS_4pairIKifEEEEEEEEPvEENS_22__hash_node_destructorINS8_ISG_EEEEED1B8ue170006Ev, symObjAddr: 0x132A1C, symBinAddr: 0x100137288, symSize: 0x120 }
  - { offsetInCU: 0x49540A, offset: 0x49540A, size: 0x8, addend: 0x0, symName: '__ZNSt3__110unique_ptrINS_5tupleIJNS0_INS_15__thread_structENS_14default_deleteIS2_EEEEZ4MCTSRKN5Eigen6MatrixIfLin1ELin1ELi0ELin1ELin1EEEiNS_12basic_stringIcNS_11char_traitsIcEENS_9allocatorIcEEEEfSG_iRKSG_bdiPKciE4$_11EEENS3_ISM_EEED1B8ue170006Ev', symObjAddr: 0x1337A8, symBinAddr: 0x100138014, symSize: 0xAC }
  - { offsetInCU: 0x495765, offset: 0x495765, size: 0x8, addend: 0x0, symName: __ZNSt3__112__hash_tableINS_17__hash_value_typeINS_12basic_stringIcNS_11char_traitsIcEENS_9allocatorIcEEEENS_13unordered_mapIffNS_4hashIfEENS_8equal_toIfEENS5_INS_4pairIKffEEEEEEEENS_22__unordered_map_hasherIS7_SI_NS9_IS7_EENSB_IS7_EELb1EEENS_21__unordered_map_equalIS7_SI_SL_SK_Lb1EEENS5_ISI_EEE21__construct_node_hashIRKNS_21piecewise_construct_tEJNS_5tupleIJRKS7_EEENSV_IJEEEEEENS_10unique_ptrINS_11__hash_nodeISI_PvEENS_22__hash_node_destructorINS5_IS13_EEEEEEmOT_DpOT0_, symObjAddr: 0x1342B8, symBinAddr: 0x100138B24, symSize: 0x310 }
  - { offsetInCU: 0x495EB6, offset: 0x495EB6, size: 0x8, addend: 0x0, symName: __ZNSt3__112__hash_tableINS_17__hash_value_typeINS_12basic_stringIcNS_11char_traitsIcEENS_9allocatorIcEEEENS_13unordered_mapIffNS_4hashIfEENS_8equal_toIfEENS5_INS_4pairIKffEEEEEEEENS_22__unordered_map_hasherIS7_SI_NS9_IS7_EENSB_IS7_EELb1EEENS_21__unordered_map_equalIS7_SI_SL_SK_Lb1EEENS5_ISI_EEE11__do_rehashILb1EEEvm, symObjAddr: 0x134734, symBinAddr: 0x100138FA0, symSize: 0x3E0 }
  - { offsetInCU: 0x49637F, offset: 0x49637F, size: 0x8, addend: 0x0, symName: __ZNSt3__110unique_ptrINS_11__hash_nodeINS_17__hash_value_typeINS_12basic_stringIcNS_11char_traitsIcEENS_9allocatorIcEEEENS_13unordered_mapIffNS_4hashIfEENS_8equal_toIfEENS6_INS_4pairIKffEEEEEEEEPvEENS_22__hash_node_destructorINS6_ISL_EEEEED1B8ue170006Ev, symObjAddr: 0x1345C8, symBinAddr: 0x100138E34, symSize: 0x16C }
  - { offsetInCU: 0x4971C8, offset: 0x4971C8, size: 0x8, addend: 0x0, symName: __ZNSt3__112__hash_tableINS_17__hash_value_typeIffEENS_22__unordered_map_hasherIfS2_NS_4hashIfEENS_8equal_toIfEELb1EEENS_21__unordered_map_equalIfS2_S7_S5_Lb1EEENS_9allocatorIS2_EEE11__do_rehashILb1EEEvm, symObjAddr: 0x135198, symBinAddr: 0x100139A04, symSize: 0x3E0 }
  - { offsetInCU: 0x49788D, offset: 0x49788D, size: 0x8, addend: 0x0, symName: '__ZNSt3__110unique_ptrINS_5tupleIJNS0_INS_15__thread_structENS_14default_deleteIS2_EEEEZ12RandomSearchRKN5Eigen6MatrixIfLin1ELin1ELi0ELin1ELin1EEEiNS_12basic_stringIcNS_11char_traitsIcEENS_9allocatorIcEEEEfSG_iRKSG_bdiPKciE4$_12EEENS3_ISM_EEED1B8ue170006Ev', symObjAddr: 0x135C6C, symBinAddr: 0x10013A4D8, symSize: 0xAC }
...
